
/home/thh/chipyard/fpga/src/main/resources/bootROM/basic//build/sdboot.elf:     file format elf64-littleriscv


Disassembly of section .text:

0000000000010000 <_prog_start>:

  .section .text.init
  .option norvc
  .globl _prog_start
_prog_start:
  smp_pause(s1, s2)
   10000:	00800913          	li	s2,8
   10004:	30491073          	csrw	mie,s2
   10008:	00000493          	li	s1,0
   1000c:	f1402973          	csrr	s2,mhartid
   10010:	03249863          	bne	s1,s2,10040 <_prog_start+0x40>
  li sp, (PAYLOAD_DEST + 0xffff000)
   10014:	00090137          	lui	sp,0x90
   10018:	fff1011b          	addiw	sp,sp,-1 # 8ffff <dtb+0x7fe97>
   1001c:	00c11113          	slli	sp,sp,0xc
  call main
   10020:	0c4000ef          	jal	100e4 <main>
  smp_resume(s1, s2)
   10024:	020004b7          	lui	s1,0x2000
   10028:	00100913          	li	s2,1
   1002c:	0124a023          	sw	s2,0(s1) # 2000000 <dtb+0x1fefe98>
   10030:	00448493          	addi	s1,s1,4
   10034:	02000937          	lui	s2,0x2000
   10038:	0809091b          	addiw	s2,s2,128 # 2000080 <dtb+0x1feff18>
   1003c:	ff24c6e3          	blt	s1,s2,10028 <_prog_start+0x28>
   10040:	10500073          	wfi
   10044:	34402973          	csrr	s2,mip
   10048:	00897913          	andi	s2,s2,8
   1004c:	fe090ae3          	beqz	s2,10040 <_prog_start+0x40>
   10050:	020004b7          	lui	s1,0x2000
   10054:	f1402973          	csrr	s2,mhartid
   10058:	00291913          	slli	s2,s2,0x2
   1005c:	00990933          	add	s2,s2,s1
   10060:	00092023          	sw	zero,0(s2)
   10064:	0004a903          	lw	s2,0(s1) # 2000000 <dtb+0x1fefe98>
   10068:	fe091ee3          	bnez	s2,10064 <_prog_start+0x64>
   1006c:	00448493          	addi	s1,s1,4
   10070:	02000937          	lui	s2,0x2000
   10074:	0809091b          	addiw	s2,s2,128 # 2000080 <dtb+0x1feff18>
   10078:	ff24c6e3          	blt	s1,s2,10064 <_prog_start+0x64>
  csrr a0, mhartid // hartid for next level bootloader
   1007c:	f1402573          	csrr	a0,mhartid
  la a1, dtb // dtb address for next level bootloader
   10080:	00000597          	auipc	a1,0x0
   10084:	0e858593          	addi	a1,a1,232 # 10168 <dtb>
  li s1, PAYLOAD_DEST
   10088:	0010049b          	addiw	s1,zero,1
   1008c:	01f49493          	slli	s1,s1,0x1f
  jr s1
   10090:	00048067          	jr	s1

0000000000010094 <kputs>:
#include "kprintf.h"

static inline void _kputs(const char *s)
{
	char c;
	for (; (c = *s) != '\0'; s++)
   10094:	00054703          	lbu	a4,0(a0)
   10098:	02070063          	beqz	a4,100b8 <kputs+0x24>
{
	volatile uint32_t *tx = &REG32(uart, UART_REG_TXFIFO);
#ifdef __riscv_atomic
	int32_t r;
	do {
		__asm__ __volatile__ (
   1009c:	640007b7          	lui	a5,0x64000
   100a0:	40e7a6af          	amoor.w	a3,a4,(a5)
			"amoor.w %0, %2, %1\n"
			: "=r" (r), "+A" (*tx)
			: "r" (c));
	} while (r < 0);
   100a4:	02069613          	slli	a2,a3,0x20
   100a8:	fe064ce3          	bltz	a2,100a0 <kputs+0xc>
   100ac:	00154703          	lbu	a4,1(a0)
   100b0:	00150513          	addi	a0,a0,1
   100b4:	fe0716e3          	bnez	a4,100a0 <kputs+0xc>
		__asm__ __volatile__ (
   100b8:	640007b7          	lui	a5,0x64000
   100bc:	00d00713          	li	a4,13
   100c0:	40e7a6af          	amoor.w	a3,a4,(a5)
	} while (r < 0);
   100c4:	02069613          	slli	a2,a3,0x20
   100c8:	fe064ce3          	bltz	a2,100c0 <kputs+0x2c>
		__asm__ __volatile__ (
   100cc:	640007b7          	lui	a5,0x64000
   100d0:	00a00713          	li	a4,10
   100d4:	40e7a6af          	amoor.w	a3,a4,(a5)
	} while (r < 0);
   100d8:	02069613          	slli	a2,a3,0x20
   100dc:	fe064ce3          	bltz	a2,100d4 <kputs+0x40>
void kputs(const char *s)
{
	_kputs(s);
	kputc('\r');
	kputc('\n');
}
   100e0:	00008067          	ret

00000000000100e4 <main>:

#define DEBUG
#include "kprintf.h"

int main(int mhartid, char** dump)
{
   100e4:	ff010113          	addi	sp,sp,-16
   100e8:	00113423          	sd	ra,8(sp)
	REG32(uart, UART_REG_TXCTRL) = UART_TXEN;
   100ec:	640007b7          	lui	a5,0x64000
   100f0:	00100713          	li	a4,1
   100f4:	00e7a423          	sw	a4,8(a5) # 64000008 <dtb+0x63fefea0>

	kputs("Hello world!!!\r\n");
   100f8:	00000517          	auipc	a0,0x0
   100fc:	05850513          	addi	a0,a0,88 # 10150 <main+0x6c>
   10100:	f95ff0ef          	jal	10094 <kputs>

	__asm__ __volatile__ ("fence.i" : : : "memory");
   10104:	0000100f          	fence.i

	while(1);
   10108:	0000006f          	j	10108 <main+0x24>
	...
