
/home/binhkieudo/Workspace/NewFramework/framework/src/main/resources/bootROM/basic//build/sdboot.elf:     file format elf64-littleriscv


Disassembly of section .text:

0000000000010000 <_prog_start>:
  .section .sdata
  .section .text.init
  .option norvc
  .globl _prog_start
_prog_start:
  li sp, (MEMORY_MEM_ADDR + 0x7f0)
   10000:	0010011b          	addiw	sp,zero,1
   10004:	01f11113          	slli	sp,sp,0x1f
   10008:	7f010113          	addi	sp,sp,2032
  csrr a0, mhartid // hartid for next level bootloader
   1000c:	f1402573          	csrr	a0,mhartid
  call main
   10010:	064000ef          	jal	ra,10074 <main>
  li s1, MEMORY_MEM_ADDR
   10014:	0010049b          	addiw	s1,zero,1
   10018:	01f49493          	slli	s1,s1,0x1f
  jr s1
   1001c:	00048067          	jr	s1
  j _prog_start
   10020:	fe1ff06f          	j	10000 <_prog_start>

0000000000010024 <kputs>:
#include "kprintf.h"

static inline void _kputs(const char *s)
{
	char c;
	for (; (c = *s) != '\0'; s++)
   10024:	00054683          	lbu	a3,0(a0)
   10028:	02068063          	beqz	a3,10048 <kputs+0x24>
{
	volatile uint32_t *tx = &REG32(uart, UART_REG_TXFIFO);
#ifdef __riscv_atomic
	int32_t r;
	do {
		__asm__ __volatile__ (
   1002c:	64000737          	lui	a4,0x64000
   10030:	40d727af          	amoor.w	a5,a3,(a4)
   10034:	0007879b          	sext.w	a5,a5
			"amoor.w %0, %2, %1\n"
			: "=r" (r), "+A" (*tx)
			: "r" (c));
	} while (r < 0);
   10038:	fe07cce3          	bltz	a5,10030 <kputs+0xc>
   1003c:	00154683          	lbu	a3,1(a0)
   10040:	00150513          	addi	a0,a0,1
   10044:	fe0696e3          	bnez	a3,10030 <kputs+0xc>
		__asm__ __volatile__ (
   10048:	64000737          	lui	a4,0x64000
   1004c:	00d00693          	li	a3,13
   10050:	40d727af          	amoor.w	a5,a3,(a4)
   10054:	0007879b          	sext.w	a5,a5
	} while (r < 0);
   10058:	fe07cce3          	bltz	a5,10050 <kputs+0x2c>
		__asm__ __volatile__ (
   1005c:	64000737          	lui	a4,0x64000
   10060:	00a00693          	li	a3,10
   10064:	40d727af          	amoor.w	a5,a3,(a4)
   10068:	0007879b          	sext.w	a5,a5
	} while (r < 0);
   1006c:	fe07cce3          	bltz	a5,10064 <kputs+0x40>
void kputs(const char *s)
{
	_kputs(s);
	kputc('\r');
	kputc('\n');
}
   10070:	00008067          	ret

0000000000010074 <main>:

#define DEBUG
#include "kprintf.h"

int main(int mhartid, char** dump)
{
   10074:	ff010113          	addi	sp,sp,-16
   10078:	00113423          	sd	ra,8(sp)
	REG32(uart, UART_REG_TXCTRL) = UART_TXEN;
   1007c:	640007b7          	lui	a5,0x64000
   10080:	00100713          	li	a4,1
   10084:	00e7a423          	sw	a4,8(a5) # 64000008 <main+0x63feff94>

	kputs("Hello world!!!\r\n");
   10088:	00000517          	auipc	a0,0x0
   1008c:	05850513          	addi	a0,a0,88 # 100e0 <main+0x6c>
   10090:	f95ff0ef          	jal	ra,10024 <kputs>

	__asm__ __volatile__ ("fence.i" : : : "memory");
   10094:	0000100f          	fence.i

	while(1);
   10098:	0000006f          	j	10098 <main+0x24>
	...
