
/home/thh/chipyard/demoriscv/software/Cipher/build/cipher.elf:     file format elf64-littleriscv


Disassembly of section .text:

0000000080000000 <_prog_start>:

  .section .text.init
  .option norvc
  .globl _prog_start
_prog_start:
  csrr a0, mhartid
    80000000:	f1402573          	csrr	a0,mhartid
  beq a0, zero, _main
    80000004:	00050463          	beqz	a0,8000000c <_main>
  j _loopback
    80000008:	0200006f          	j	80000028 <_loopback>

000000008000000c <_main>:
_main:
  csrw mie, s2
    8000000c:	30491073          	csrw	mie,s2
  li sp, (PAYLOAD_DEST + 0x1ff00)
    80000010:	00004137          	lui	sp,0x4
    80000014:	0011011b          	addiw	sp,sp,1 # 4001 <_prog_start-0x7fffbfff>
    80000018:	01111113          	slli	sp,sp,0x11
    8000001c:	f0010113          	addi	sp,sp,-256
  call main
    80000020:	646010ef          	jal	80001666 <main>
  wfi
    80000024:	10500073          	wfi

0000000080000028 <_loopback>:
_loopback:
  j _loopback
    80000028:	0000006f          	j	80000028 <_loopback>

000000008000002c <reg_write32>:
//    aes_test_cases();

    // klein
//    klein_test();
    klein_test_encryption_elapsed();
    klein_test_decryption_elapsed();
    8000002c:	7179                	addi	sp,sp,-48
    8000002e:	f422                	sd	s0,40(sp)
    80000030:	1800                	addi	s0,sp,48
    80000032:	fca43c23          	sd	a0,-40(s0)
    80000036:	87ae                	mv	a5,a1
    80000038:	fcf42a23          	sw	a5,-44(s0)
    klein_test_software();
    8000003c:	fd843783          	ld	a5,-40(s0)
    80000040:	fef43423          	sd	a5,-24(s0)
  }
    80000044:	fe843783          	ld	a5,-24(s0)
    80000048:	fd442703          	lw	a4,-44(s0)
    8000004c:	c398                	sw	a4,0(a5)
  return 0;
    8000004e:	0001                	nop
    80000050:	7422                	ld	s0,40(sp)
    80000052:	6145                	addi	sp,sp,48
    80000054:	8082                	ret

0000000080000056 <reg_read32>:
}
    80000056:	7179                	addi	sp,sp,-48
    80000058:	f422                	sd	s0,40(sp)
    8000005a:	1800                	addi	s0,sp,48
    8000005c:	fca43c23          	sd	a0,-40(s0)
    80000060:	fd843783          	ld	a5,-40(s0)
    80000064:	fef43423          	sd	a5,-24(s0)
    80000068:	fe843783          	ld	a5,-24(s0)
    8000006c:	439c                	lw	a5,0(a5)
    8000006e:	2781                	sext.w	a5,a5
    80000070:	853e                	mv	a0,a5
    80000072:	7422                	ld	s0,40(sp)
    80000074:	6145                	addi	sp,sp,48
    80000076:	8082                	ret

0000000080000078 <mytimer_soft_reset>:
#define CTRL_MyTimer_CLEAR    0x04
#define CTRL_MyTimer_PAUSE    0x02
#define CTRL_MyTimer_START    0x01


void mytimer_soft_reset() {
    80000078:	1141                	addi	sp,sp,-16
    8000007a:	e406                	sd	ra,8(sp)
    8000007c:	e022                	sd	s0,0(sp)
    8000007e:	0800                	addi	s0,sp,16
  reg_write32(MyTimer_control, CTRL_MyTimer_RESET);
    80000080:	45a1                	li	a1,8
    80000082:	651d                	lui	a0,0x7
    80000084:	fa9ff0ef          	jal	8000002c <reg_write32>
  reg_write32(MyTimer_control, CTRL_MyTimer_IDLE);
    80000088:	4581                	li	a1,0
    8000008a:	651d                	lui	a0,0x7
    8000008c:	fa1ff0ef          	jal	8000002c <reg_write32>
}
    80000090:	0001                	nop
    80000092:	60a2                	ld	ra,8(sp)
    80000094:	6402                	ld	s0,0(sp)
    80000096:	0141                	addi	sp,sp,16
    80000098:	8082                	ret

000000008000009a <mytimer_start>:


void mytimer_start() {
    8000009a:	1141                	addi	sp,sp,-16
    8000009c:	e406                	sd	ra,8(sp)
    8000009e:	e022                	sd	s0,0(sp)
    800000a0:	0800                	addi	s0,sp,16
  reg_write32(MyTimer_control, CTRL_MyTimer_START);
    800000a2:	4585                	li	a1,1
    800000a4:	651d                	lui	a0,0x7
    800000a6:	f87ff0ef          	jal	8000002c <reg_write32>
  reg_write32(MyTimer_control, CTRL_MyTimer_IDLE);
    800000aa:	4581                	li	a1,0
    800000ac:	651d                	lui	a0,0x7
    800000ae:	f7fff0ef          	jal	8000002c <reg_write32>
}
    800000b2:	0001                	nop
    800000b4:	60a2                	ld	ra,8(sp)
    800000b6:	6402                	ld	s0,0(sp)
    800000b8:	0141                	addi	sp,sp,16
    800000ba:	8082                	ret

00000000800000bc <mytimer_clear>:


void mytimer_clear() {
    800000bc:	1141                	addi	sp,sp,-16
    800000be:	e406                	sd	ra,8(sp)
    800000c0:	e022                	sd	s0,0(sp)
    800000c2:	0800                	addi	s0,sp,16
  reg_write32(MyTimer_control, CTRL_MyTimer_CLEAR);
    800000c4:	4591                	li	a1,4
    800000c6:	651d                	lui	a0,0x7
    800000c8:	f65ff0ef          	jal	8000002c <reg_write32>
  reg_write32(MyTimer_control, CTRL_MyTimer_IDLE);
    800000cc:	4581                	li	a1,0
    800000ce:	651d                	lui	a0,0x7
    800000d0:	f5dff0ef          	jal	8000002c <reg_write32>
}
    800000d4:	0001                	nop
    800000d6:	60a2                	ld	ra,8(sp)
    800000d8:	6402                	ld	s0,0(sp)
    800000da:	0141                	addi	sp,sp,16
    800000dc:	8082                	ret

00000000800000de <mytimer_pause_and_return>:


uint32_t mytimer_pause_and_return() {
    800000de:	1141                	addi	sp,sp,-16
    800000e0:	e406                	sd	ra,8(sp)
    800000e2:	e022                	sd	s0,0(sp)
    800000e4:	0800                	addi	s0,sp,16
  reg_write32(MyTimer_control, CTRL_MyTimer_PAUSE);
    800000e6:	4589                	li	a1,2
    800000e8:	651d                	lui	a0,0x7
    800000ea:	f43ff0ef          	jal	8000002c <reg_write32>
  reg_write32(MyTimer_control, CTRL_MyTimer_IDLE);
    800000ee:	4581                	li	a1,0
    800000f0:	651d                	lui	a0,0x7
    800000f2:	f3bff0ef          	jal	8000002c <reg_write32>
  return reg_read32(MyTimer_count);
    800000f6:	679d                	lui	a5,0x7
    800000f8:	00478513          	addi	a0,a5,4 # 7004 <_prog_start-0x7fff8ffc>
    800000fc:	f5bff0ef          	jal	80000056 <reg_read32>
    80000100:	87aa                	mv	a5,a0
    80000102:	2781                	sext.w	a5,a5
}
    80000104:	853e                	mv	a0,a5
    80000106:	60a2                	ld	ra,8(sp)
    80000108:	6402                	ld	s0,0(sp)
    8000010a:	0141                	addi	sp,sp,16
    8000010c:	8082                	ret

000000008000010e <klein64_encrypt_rounds>:

#define klein64_encrypt(plain, key, cipher) klein64_encrypt_rounds((plain), (key), ROUNDS_64, (cipher))
#define klein64_decrypt(cipher, key, plain) klein64_decrypt_rounds((cipher), (key), ROUNDS_64, (plain))

void klein64_encrypt_rounds(const uint8_t *plain, const uint8_t *key, const uint8_t rounds, uint8_t *cipher)
{
    8000010e:	715d                	addi	sp,sp,-80
    80000110:	e4a2                	sd	s0,72(sp)
    80000112:	0880                	addi	s0,sp,80
    80000114:	fca43423          	sd	a0,-56(s0)
    80000118:	fcb43023          	sd	a1,-64(s0)
    8000011c:	87b2                	mv	a5,a2
    8000011e:	fad43823          	sd	a3,-80(s0)
    80000122:	faf40fa3          	sb	a5,-65(s0)
		uint8_t state[8];
		uint8_t temp_state[8];
		uint8_t u,v = 0;
    80000126:	fe040723          	sb	zero,-18(s0)
		uint8_t round_key[8];
		uint8_t i;

		//initialize the key and the state;
		round_key[0] = key[0];
    8000012a:	fc043783          	ld	a5,-64(s0)
    8000012e:	0007c783          	lbu	a5,0(a5)
    80000132:	fcf40823          	sb	a5,-48(s0)
		round_key[1] = key[1];
    80000136:	fc043783          	ld	a5,-64(s0)
    8000013a:	0785                	addi	a5,a5,1
    8000013c:	0007c783          	lbu	a5,0(a5)
    80000140:	fcf408a3          	sb	a5,-47(s0)
		round_key[2] = key[2];
    80000144:	fc043783          	ld	a5,-64(s0)
    80000148:	0789                	addi	a5,a5,2
    8000014a:	0007c783          	lbu	a5,0(a5)
    8000014e:	fcf40923          	sb	a5,-46(s0)
		round_key[3] = key[3];
    80000152:	fc043783          	ld	a5,-64(s0)
    80000156:	078d                	addi	a5,a5,3
    80000158:	0007c783          	lbu	a5,0(a5)
    8000015c:	fcf409a3          	sb	a5,-45(s0)
		round_key[4] = key[4];
    80000160:	fc043783          	ld	a5,-64(s0)
    80000164:	0791                	addi	a5,a5,4
    80000166:	0007c783          	lbu	a5,0(a5)
    8000016a:	fcf40a23          	sb	a5,-44(s0)
		round_key[5] = key[5];
    8000016e:	fc043783          	ld	a5,-64(s0)
    80000172:	0795                	addi	a5,a5,5
    80000174:	0007c783          	lbu	a5,0(a5)
    80000178:	fcf40aa3          	sb	a5,-43(s0)
		round_key[6] = key[6];
    8000017c:	fc043783          	ld	a5,-64(s0)
    80000180:	0799                	addi	a5,a5,6
    80000182:	0007c783          	lbu	a5,0(a5)
    80000186:	fcf40b23          	sb	a5,-42(s0)
		round_key[7] = key[7];
    8000018a:	fc043783          	ld	a5,-64(s0)
    8000018e:	079d                	addi	a5,a5,7
    80000190:	0007c783          	lbu	a5,0(a5)
    80000194:	fcf40ba3          	sb	a5,-41(s0)

		state[0] = plain[0];
    80000198:	fc843783          	ld	a5,-56(s0)
    8000019c:	0007c783          	lbu	a5,0(a5)
    800001a0:	fef40023          	sb	a5,-32(s0)
		state[1] = plain[1];
    800001a4:	fc843783          	ld	a5,-56(s0)
    800001a8:	0785                	addi	a5,a5,1
    800001aa:	0007c783          	lbu	a5,0(a5)
    800001ae:	fef400a3          	sb	a5,-31(s0)
		state[2] = plain[2];
    800001b2:	fc843783          	ld	a5,-56(s0)
    800001b6:	0789                	addi	a5,a5,2
    800001b8:	0007c783          	lbu	a5,0(a5)
    800001bc:	fef40123          	sb	a5,-30(s0)
		state[3] = plain[3];
    800001c0:	fc843783          	ld	a5,-56(s0)
    800001c4:	078d                	addi	a5,a5,3
    800001c6:	0007c783          	lbu	a5,0(a5)
    800001ca:	fef401a3          	sb	a5,-29(s0)
		state[4] = plain[4];
    800001ce:	fc843783          	ld	a5,-56(s0)
    800001d2:	0791                	addi	a5,a5,4
    800001d4:	0007c783          	lbu	a5,0(a5)
    800001d8:	fef40223          	sb	a5,-28(s0)
		state[5] = plain[5];
    800001dc:	fc843783          	ld	a5,-56(s0)
    800001e0:	0795                	addi	a5,a5,5
    800001e2:	0007c783          	lbu	a5,0(a5)
    800001e6:	fef402a3          	sb	a5,-27(s0)
		state[6] = plain[6];
    800001ea:	fc843783          	ld	a5,-56(s0)
    800001ee:	0799                	addi	a5,a5,6
    800001f0:	0007c783          	lbu	a5,0(a5)
    800001f4:	fef40323          	sb	a5,-26(s0)
		state[7] = plain[7];
    800001f8:	fc843783          	ld	a5,-56(s0)
    800001fc:	079d                	addi	a5,a5,7
    800001fe:	0007c783          	lbu	a5,0(a5)
    80000202:	fef403a3          	sb	a5,-25(s0)

		for(i = 1; i <= rounds; i++)
    80000206:	4785                	li	a5,1
    80000208:	fef407a3          	sb	a5,-17(s0)
    8000020c:	a16d                	j	800006b6 <klein64_encrypt_rounds+0x5a8>
		{
			//add round key;
			state[0] = state[0] ^ round_key[0];
    8000020e:	fe044703          	lbu	a4,-32(s0)
    80000212:	fd044783          	lbu	a5,-48(s0)
    80000216:	8fb9                	xor	a5,a5,a4
    80000218:	0ff7f793          	zext.b	a5,a5
    8000021c:	fef40023          	sb	a5,-32(s0)
			state[1] = state[1] ^ round_key[1];
    80000220:	fe144703          	lbu	a4,-31(s0)
    80000224:	fd144783          	lbu	a5,-47(s0)
    80000228:	8fb9                	xor	a5,a5,a4
    8000022a:	0ff7f793          	zext.b	a5,a5
    8000022e:	fef400a3          	sb	a5,-31(s0)
			state[2] = state[2] ^ round_key[2];
    80000232:	fe244703          	lbu	a4,-30(s0)
    80000236:	fd244783          	lbu	a5,-46(s0)
    8000023a:	8fb9                	xor	a5,a5,a4
    8000023c:	0ff7f793          	zext.b	a5,a5
    80000240:	fef40123          	sb	a5,-30(s0)
			state[3] = state[3] ^ round_key[3];
    80000244:	fe344703          	lbu	a4,-29(s0)
    80000248:	fd344783          	lbu	a5,-45(s0)
    8000024c:	8fb9                	xor	a5,a5,a4
    8000024e:	0ff7f793          	zext.b	a5,a5
    80000252:	fef401a3          	sb	a5,-29(s0)
			state[4] = state[4] ^ round_key[4];
    80000256:	fe444703          	lbu	a4,-28(s0)
    8000025a:	fd444783          	lbu	a5,-44(s0)
    8000025e:	8fb9                	xor	a5,a5,a4
    80000260:	0ff7f793          	zext.b	a5,a5
    80000264:	fef40223          	sb	a5,-28(s0)
			state[5] = state[5] ^ round_key[5];
    80000268:	fe544703          	lbu	a4,-27(s0)
    8000026c:	fd544783          	lbu	a5,-43(s0)
    80000270:	8fb9                	xor	a5,a5,a4
    80000272:	0ff7f793          	zext.b	a5,a5
    80000276:	fef402a3          	sb	a5,-27(s0)
			state[6] = state[6] ^ round_key[6];
    8000027a:	fe644703          	lbu	a4,-26(s0)
    8000027e:	fd644783          	lbu	a5,-42(s0)
    80000282:	8fb9                	xor	a5,a5,a4
    80000284:	0ff7f793          	zext.b	a5,a5
    80000288:	fef40323          	sb	a5,-26(s0)
			state[7] = state[7] ^ round_key[7];
    8000028c:	fe744703          	lbu	a4,-25(s0)
    80000290:	fd744783          	lbu	a5,-41(s0)
    80000294:	8fb9                	xor	a5,a5,a4
    80000296:	0ff7f793          	zext.b	a5,a5
    8000029a:	fef403a3          	sb	a5,-25(s0)

			//key schedule;
	        temp_state[0] = round_key[0];
    8000029e:	fd044783          	lbu	a5,-48(s0)
    800002a2:	fcf40c23          	sb	a5,-40(s0)
	        temp_state[1] = round_key[1];
    800002a6:	fd144783          	lbu	a5,-47(s0)
    800002aa:	fcf40ca3          	sb	a5,-39(s0)
	        temp_state[2] = round_key[2];
    800002ae:	fd244783          	lbu	a5,-46(s0)
    800002b2:	fcf40d23          	sb	a5,-38(s0)
	        temp_state[3] = round_key[3];
    800002b6:	fd344783          	lbu	a5,-45(s0)
    800002ba:	fcf40da3          	sb	a5,-37(s0)
	        temp_state[4] = round_key[4];
    800002be:	fd444783          	lbu	a5,-44(s0)
    800002c2:	fcf40e23          	sb	a5,-36(s0)

	        round_key[0] = round_key[5];
    800002c6:	fd544783          	lbu	a5,-43(s0)
    800002ca:	fcf40823          	sb	a5,-48(s0)
	        round_key[1] = round_key[6];
    800002ce:	fd644783          	lbu	a5,-42(s0)
    800002d2:	fcf408a3          	sb	a5,-47(s0)
	        round_key[2] = round_key[7] ^ i;
    800002d6:	fd744783          	lbu	a5,-41(s0)
    800002da:	fef44703          	lbu	a4,-17(s0)
    800002de:	8fb9                	xor	a5,a5,a4
    800002e0:	0ff7f793          	zext.b	a5,a5
    800002e4:	fcf40923          	sb	a5,-46(s0)
	        round_key[3] = round_key[4];
    800002e8:	fd444783          	lbu	a5,-44(s0)
    800002ec:	fcf409a3          	sb	a5,-45(s0)

	        round_key[4] = temp_state[1] ^ round_key[5];
    800002f0:	fd944703          	lbu	a4,-39(s0)
    800002f4:	fd544783          	lbu	a5,-43(s0)
    800002f8:	8fb9                	xor	a5,a5,a4
    800002fa:	0ff7f793          	zext.b	a5,a5
    800002fe:	fcf40a23          	sb	a5,-44(s0)
	        round_key[5] = sbox8[temp_state[2] ^ round_key[6]];
    80000302:	fda44703          	lbu	a4,-38(s0)
    80000306:	fd644783          	lbu	a5,-42(s0)
    8000030a:	8fb9                	xor	a5,a5,a4
    8000030c:	0ff7f793          	zext.b	a5,a5
    80000310:	2781                	sext.w	a5,a5
    80000312:	00001717          	auipc	a4,0x1
    80000316:	7ae70713          	addi	a4,a4,1966 # 80001ac0 <sbox8>
    8000031a:	97ba                	add	a5,a5,a4
    8000031c:	0007c783          	lbu	a5,0(a5)
    80000320:	fcf40aa3          	sb	a5,-43(s0)
	        round_key[6] = sbox8[temp_state[3] ^ round_key[7]];
    80000324:	fdb44703          	lbu	a4,-37(s0)
    80000328:	fd744783          	lbu	a5,-41(s0)
    8000032c:	8fb9                	xor	a5,a5,a4
    8000032e:	0ff7f793          	zext.b	a5,a5
    80000332:	2781                	sext.w	a5,a5
    80000334:	00001717          	auipc	a4,0x1
    80000338:	78c70713          	addi	a4,a4,1932 # 80001ac0 <sbox8>
    8000033c:	97ba                	add	a5,a5,a4
    8000033e:	0007c783          	lbu	a5,0(a5)
    80000342:	fcf40b23          	sb	a5,-42(s0)
	        round_key[7] = temp_state[0] ^ temp_state[4];
    80000346:	fd844703          	lbu	a4,-40(s0)
    8000034a:	fdc44783          	lbu	a5,-36(s0)
    8000034e:	8fb9                	xor	a5,a5,a4
    80000350:	0ff7f793          	zext.b	a5,a5
    80000354:	fcf40ba3          	sb	a5,-41(s0)


			//substitute nibbles with the byte-oriented sbox;
			state[0] = sbox8[state[0]];
    80000358:	fe044783          	lbu	a5,-32(s0)
    8000035c:	2781                	sext.w	a5,a5
    8000035e:	00001717          	auipc	a4,0x1
    80000362:	76270713          	addi	a4,a4,1890 # 80001ac0 <sbox8>
    80000366:	97ba                	add	a5,a5,a4
    80000368:	0007c783          	lbu	a5,0(a5)
    8000036c:	fef40023          	sb	a5,-32(s0)
			state[1] = sbox8[state[1]];
    80000370:	fe144783          	lbu	a5,-31(s0)
    80000374:	2781                	sext.w	a5,a5
    80000376:	00001717          	auipc	a4,0x1
    8000037a:	74a70713          	addi	a4,a4,1866 # 80001ac0 <sbox8>
    8000037e:	97ba                	add	a5,a5,a4
    80000380:	0007c783          	lbu	a5,0(a5)
    80000384:	fef400a3          	sb	a5,-31(s0)
			state[2] = sbox8[state[2]];
    80000388:	fe244783          	lbu	a5,-30(s0)
    8000038c:	2781                	sext.w	a5,a5
    8000038e:	00001717          	auipc	a4,0x1
    80000392:	73270713          	addi	a4,a4,1842 # 80001ac0 <sbox8>
    80000396:	97ba                	add	a5,a5,a4
    80000398:	0007c783          	lbu	a5,0(a5)
    8000039c:	fef40123          	sb	a5,-30(s0)
			state[3] = sbox8[state[3]];
    800003a0:	fe344783          	lbu	a5,-29(s0)
    800003a4:	2781                	sext.w	a5,a5
    800003a6:	00001717          	auipc	a4,0x1
    800003aa:	71a70713          	addi	a4,a4,1818 # 80001ac0 <sbox8>
    800003ae:	97ba                	add	a5,a5,a4
    800003b0:	0007c783          	lbu	a5,0(a5)
    800003b4:	fef401a3          	sb	a5,-29(s0)
			state[4] = sbox8[state[4]];
    800003b8:	fe444783          	lbu	a5,-28(s0)
    800003bc:	2781                	sext.w	a5,a5
    800003be:	00001717          	auipc	a4,0x1
    800003c2:	70270713          	addi	a4,a4,1794 # 80001ac0 <sbox8>
    800003c6:	97ba                	add	a5,a5,a4
    800003c8:	0007c783          	lbu	a5,0(a5)
    800003cc:	fef40223          	sb	a5,-28(s0)
			state[5] = sbox8[state[5]];
    800003d0:	fe544783          	lbu	a5,-27(s0)
    800003d4:	2781                	sext.w	a5,a5
    800003d6:	00001717          	auipc	a4,0x1
    800003da:	6ea70713          	addi	a4,a4,1770 # 80001ac0 <sbox8>
    800003de:	97ba                	add	a5,a5,a4
    800003e0:	0007c783          	lbu	a5,0(a5)
    800003e4:	fef402a3          	sb	a5,-27(s0)
			state[6] = sbox8[state[6]];
    800003e8:	fe644783          	lbu	a5,-26(s0)
    800003ec:	2781                	sext.w	a5,a5
    800003ee:	00001717          	auipc	a4,0x1
    800003f2:	6d270713          	addi	a4,a4,1746 # 80001ac0 <sbox8>
    800003f6:	97ba                	add	a5,a5,a4
    800003f8:	0007c783          	lbu	a5,0(a5)
    800003fc:	fef40323          	sb	a5,-26(s0)
			state[7] = sbox8[state[7]];
    80000400:	fe744783          	lbu	a5,-25(s0)
    80000404:	2781                	sext.w	a5,a5
    80000406:	00001717          	auipc	a4,0x1
    8000040a:	6ba70713          	addi	a4,a4,1722 # 80001ac0 <sbox8>
    8000040e:	97ba                	add	a5,a5,a4
    80000410:	0007c783          	lbu	a5,0(a5)
    80000414:	fef403a3          	sb	a5,-25(s0)

	        //the RotateNibbles step, left shift two bytes;
			temp_state[0] = state[2];
    80000418:	fe244783          	lbu	a5,-30(s0)
    8000041c:	fcf40c23          	sb	a5,-40(s0)
		    temp_state[1] = state[3];
    80000420:	fe344783          	lbu	a5,-29(s0)
    80000424:	fcf40ca3          	sb	a5,-39(s0)
			temp_state[2] = state[4];
    80000428:	fe444783          	lbu	a5,-28(s0)
    8000042c:	fcf40d23          	sb	a5,-38(s0)
			temp_state[3] = state[5];
    80000430:	fe544783          	lbu	a5,-27(s0)
    80000434:	fcf40da3          	sb	a5,-37(s0)
			temp_state[4] = state[6];
    80000438:	fe644783          	lbu	a5,-26(s0)
    8000043c:	fcf40e23          	sb	a5,-36(s0)
			temp_state[5] = state[7];
    80000440:	fe744783          	lbu	a5,-25(s0)
    80000444:	fcf40ea3          	sb	a5,-35(s0)
			temp_state[6] = state[0];
    80000448:	fe044783          	lbu	a5,-32(s0)
    8000044c:	fcf40f23          	sb	a5,-34(s0)
			temp_state[7] = state[1];
    80000450:	fe144783          	lbu	a5,-31(s0)
    80000454:	fcf40fa3          	sb	a5,-33(s0)

            //an efficient MixNibbles implementation for AES, Book Page 54;
            u = temp_state[0] ^ temp_state[1] ^ temp_state[2] ^ temp_state[3];
    80000458:	fd844703          	lbu	a4,-40(s0)
    8000045c:	fd944783          	lbu	a5,-39(s0)
    80000460:	8fb9                	xor	a5,a5,a4
    80000462:	0ff7f713          	zext.b	a4,a5
    80000466:	fda44783          	lbu	a5,-38(s0)
    8000046a:	8fb9                	xor	a5,a5,a4
    8000046c:	0ff7f713          	zext.b	a4,a5
    80000470:	fdb44783          	lbu	a5,-37(s0)
    80000474:	8fb9                	xor	a5,a5,a4
    80000476:	fef406a3          	sb	a5,-19(s0)
            v = temp_state[0] ^ temp_state[1];
    8000047a:	fd844703          	lbu	a4,-40(s0)
    8000047e:	fd944783          	lbu	a5,-39(s0)
    80000482:	8fb9                	xor	a5,a5,a4
    80000484:	fef40723          	sb	a5,-18(s0)
            v = multiply2[v];
    80000488:	fee44783          	lbu	a5,-18(s0)
    8000048c:	2781                	sext.w	a5,a5
    8000048e:	00001717          	auipc	a4,0x1
    80000492:	73270713          	addi	a4,a4,1842 # 80001bc0 <multiply2>
    80000496:	97ba                	add	a5,a5,a4
    80000498:	0007c783          	lbu	a5,0(a5)
    8000049c:	fef40723          	sb	a5,-18(s0)
            state[0] = temp_state[0] ^ v ^ u;
    800004a0:	fd844783          	lbu	a5,-40(s0)
    800004a4:	fee44703          	lbu	a4,-18(s0)
    800004a8:	8fb9                	xor	a5,a5,a4
    800004aa:	0ff7f793          	zext.b	a5,a5
    800004ae:	fed44703          	lbu	a4,-19(s0)
    800004b2:	8fb9                	xor	a5,a5,a4
    800004b4:	0ff7f793          	zext.b	a5,a5
    800004b8:	fef40023          	sb	a5,-32(s0)

            v = temp_state[1] ^ temp_state[2];
    800004bc:	fd944703          	lbu	a4,-39(s0)
    800004c0:	fda44783          	lbu	a5,-38(s0)
    800004c4:	8fb9                	xor	a5,a5,a4
    800004c6:	fef40723          	sb	a5,-18(s0)
            v = multiply2[v];
    800004ca:	fee44783          	lbu	a5,-18(s0)
    800004ce:	2781                	sext.w	a5,a5
    800004d0:	00001717          	auipc	a4,0x1
    800004d4:	6f070713          	addi	a4,a4,1776 # 80001bc0 <multiply2>
    800004d8:	97ba                	add	a5,a5,a4
    800004da:	0007c783          	lbu	a5,0(a5)
    800004de:	fef40723          	sb	a5,-18(s0)
            state[1] = temp_state[1] ^ v ^ u;
    800004e2:	fd944783          	lbu	a5,-39(s0)
    800004e6:	fee44703          	lbu	a4,-18(s0)
    800004ea:	8fb9                	xor	a5,a5,a4
    800004ec:	0ff7f793          	zext.b	a5,a5
    800004f0:	fed44703          	lbu	a4,-19(s0)
    800004f4:	8fb9                	xor	a5,a5,a4
    800004f6:	0ff7f793          	zext.b	a5,a5
    800004fa:	fef400a3          	sb	a5,-31(s0)

            v = temp_state[2] ^ temp_state[3];
    800004fe:	fda44703          	lbu	a4,-38(s0)
    80000502:	fdb44783          	lbu	a5,-37(s0)
    80000506:	8fb9                	xor	a5,a5,a4
    80000508:	fef40723          	sb	a5,-18(s0)
            v = multiply2[v];
    8000050c:	fee44783          	lbu	a5,-18(s0)
    80000510:	2781                	sext.w	a5,a5
    80000512:	00001717          	auipc	a4,0x1
    80000516:	6ae70713          	addi	a4,a4,1710 # 80001bc0 <multiply2>
    8000051a:	97ba                	add	a5,a5,a4
    8000051c:	0007c783          	lbu	a5,0(a5)
    80000520:	fef40723          	sb	a5,-18(s0)
            state[2] = temp_state[2] ^ v ^ u;
    80000524:	fda44783          	lbu	a5,-38(s0)
    80000528:	fee44703          	lbu	a4,-18(s0)
    8000052c:	8fb9                	xor	a5,a5,a4
    8000052e:	0ff7f793          	zext.b	a5,a5
    80000532:	fed44703          	lbu	a4,-19(s0)
    80000536:	8fb9                	xor	a5,a5,a4
    80000538:	0ff7f793          	zext.b	a5,a5
    8000053c:	fef40123          	sb	a5,-30(s0)

            v = temp_state[3] ^ temp_state[0];
    80000540:	fdb44703          	lbu	a4,-37(s0)
    80000544:	fd844783          	lbu	a5,-40(s0)
    80000548:	8fb9                	xor	a5,a5,a4
    8000054a:	fef40723          	sb	a5,-18(s0)
            v = multiply2[v];
    8000054e:	fee44783          	lbu	a5,-18(s0)
    80000552:	2781                	sext.w	a5,a5
    80000554:	00001717          	auipc	a4,0x1
    80000558:	66c70713          	addi	a4,a4,1644 # 80001bc0 <multiply2>
    8000055c:	97ba                	add	a5,a5,a4
    8000055e:	0007c783          	lbu	a5,0(a5)
    80000562:	fef40723          	sb	a5,-18(s0)
            state[3] = temp_state[3] ^ v ^ u;
    80000566:	fdb44783          	lbu	a5,-37(s0)
    8000056a:	fee44703          	lbu	a4,-18(s0)
    8000056e:	8fb9                	xor	a5,a5,a4
    80000570:	0ff7f793          	zext.b	a5,a5
    80000574:	fed44703          	lbu	a4,-19(s0)
    80000578:	8fb9                	xor	a5,a5,a4
    8000057a:	0ff7f793          	zext.b	a5,a5
    8000057e:	fef401a3          	sb	a5,-29(s0)

            u = temp_state[4] ^ temp_state[5] ^ temp_state[6] ^ temp_state[7];
    80000582:	fdc44703          	lbu	a4,-36(s0)
    80000586:	fdd44783          	lbu	a5,-35(s0)
    8000058a:	8fb9                	xor	a5,a5,a4
    8000058c:	0ff7f713          	zext.b	a4,a5
    80000590:	fde44783          	lbu	a5,-34(s0)
    80000594:	8fb9                	xor	a5,a5,a4
    80000596:	0ff7f713          	zext.b	a4,a5
    8000059a:	fdf44783          	lbu	a5,-33(s0)
    8000059e:	8fb9                	xor	a5,a5,a4
    800005a0:	fef406a3          	sb	a5,-19(s0)
            v = temp_state[4] ^ temp_state[5];
    800005a4:	fdc44703          	lbu	a4,-36(s0)
    800005a8:	fdd44783          	lbu	a5,-35(s0)
    800005ac:	8fb9                	xor	a5,a5,a4
    800005ae:	fef40723          	sb	a5,-18(s0)
            v = multiply2[v];
    800005b2:	fee44783          	lbu	a5,-18(s0)
    800005b6:	2781                	sext.w	a5,a5
    800005b8:	00001717          	auipc	a4,0x1
    800005bc:	60870713          	addi	a4,a4,1544 # 80001bc0 <multiply2>
    800005c0:	97ba                	add	a5,a5,a4
    800005c2:	0007c783          	lbu	a5,0(a5)
    800005c6:	fef40723          	sb	a5,-18(s0)
            state[4] = temp_state[4] ^ v ^ u;
    800005ca:	fdc44783          	lbu	a5,-36(s0)
    800005ce:	fee44703          	lbu	a4,-18(s0)
    800005d2:	8fb9                	xor	a5,a5,a4
    800005d4:	0ff7f793          	zext.b	a5,a5
    800005d8:	fed44703          	lbu	a4,-19(s0)
    800005dc:	8fb9                	xor	a5,a5,a4
    800005de:	0ff7f793          	zext.b	a5,a5
    800005e2:	fef40223          	sb	a5,-28(s0)

            v = temp_state[5] ^ temp_state[6];
    800005e6:	fdd44703          	lbu	a4,-35(s0)
    800005ea:	fde44783          	lbu	a5,-34(s0)
    800005ee:	8fb9                	xor	a5,a5,a4
    800005f0:	fef40723          	sb	a5,-18(s0)
            v = multiply2[v];
    800005f4:	fee44783          	lbu	a5,-18(s0)
    800005f8:	2781                	sext.w	a5,a5
    800005fa:	00001717          	auipc	a4,0x1
    800005fe:	5c670713          	addi	a4,a4,1478 # 80001bc0 <multiply2>
    80000602:	97ba                	add	a5,a5,a4
    80000604:	0007c783          	lbu	a5,0(a5)
    80000608:	fef40723          	sb	a5,-18(s0)
            state[5] = temp_state[5] ^ v ^ u;
    8000060c:	fdd44783          	lbu	a5,-35(s0)
    80000610:	fee44703          	lbu	a4,-18(s0)
    80000614:	8fb9                	xor	a5,a5,a4
    80000616:	0ff7f793          	zext.b	a5,a5
    8000061a:	fed44703          	lbu	a4,-19(s0)
    8000061e:	8fb9                	xor	a5,a5,a4
    80000620:	0ff7f793          	zext.b	a5,a5
    80000624:	fef402a3          	sb	a5,-27(s0)

            v = temp_state[6] ^ temp_state[7];
    80000628:	fde44703          	lbu	a4,-34(s0)
    8000062c:	fdf44783          	lbu	a5,-33(s0)
    80000630:	8fb9                	xor	a5,a5,a4
    80000632:	fef40723          	sb	a5,-18(s0)
            v = multiply2[v];
    80000636:	fee44783          	lbu	a5,-18(s0)
    8000063a:	2781                	sext.w	a5,a5
    8000063c:	00001717          	auipc	a4,0x1
    80000640:	58470713          	addi	a4,a4,1412 # 80001bc0 <multiply2>
    80000644:	97ba                	add	a5,a5,a4
    80000646:	0007c783          	lbu	a5,0(a5)
    8000064a:	fef40723          	sb	a5,-18(s0)
            state[6] = temp_state[6] ^ v ^ u;
    8000064e:	fde44783          	lbu	a5,-34(s0)
    80000652:	fee44703          	lbu	a4,-18(s0)
    80000656:	8fb9                	xor	a5,a5,a4
    80000658:	0ff7f793          	zext.b	a5,a5
    8000065c:	fed44703          	lbu	a4,-19(s0)
    80000660:	8fb9                	xor	a5,a5,a4
    80000662:	0ff7f793          	zext.b	a5,a5
    80000666:	fef40323          	sb	a5,-26(s0)

            v = temp_state[7] ^ temp_state[4];
    8000066a:	fdf44703          	lbu	a4,-33(s0)
    8000066e:	fdc44783          	lbu	a5,-36(s0)
    80000672:	8fb9                	xor	a5,a5,a4
    80000674:	fef40723          	sb	a5,-18(s0)
            v = multiply2[v];
    80000678:	fee44783          	lbu	a5,-18(s0)
    8000067c:	2781                	sext.w	a5,a5
    8000067e:	00001717          	auipc	a4,0x1
    80000682:	54270713          	addi	a4,a4,1346 # 80001bc0 <multiply2>
    80000686:	97ba                	add	a5,a5,a4
    80000688:	0007c783          	lbu	a5,0(a5)
    8000068c:	fef40723          	sb	a5,-18(s0)
            state[7] = temp_state[7] ^ v ^ u;
    80000690:	fdf44783          	lbu	a5,-33(s0)
    80000694:	fee44703          	lbu	a4,-18(s0)
    80000698:	8fb9                	xor	a5,a5,a4
    8000069a:	0ff7f793          	zext.b	a5,a5
    8000069e:	fed44703          	lbu	a4,-19(s0)
    800006a2:	8fb9                	xor	a5,a5,a4
    800006a4:	0ff7f793          	zext.b	a5,a5
    800006a8:	fef403a3          	sb	a5,-25(s0)
		for(i = 1; i <= rounds; i++)
    800006ac:	fef44783          	lbu	a5,-17(s0)
    800006b0:	2785                	addiw	a5,a5,1
    800006b2:	fef407a3          	sb	a5,-17(s0)
    800006b6:	fef44783          	lbu	a5,-17(s0)
    800006ba:	873e                	mv	a4,a5
    800006bc:	fbf44783          	lbu	a5,-65(s0)
    800006c0:	0ff77713          	zext.b	a4,a4
    800006c4:	0ff7f793          	zext.b	a5,a5
    800006c8:	b4e7f3e3          	bgeu	a5,a4,8000020e <klein64_encrypt_rounds+0x100>

		}

		//xored by the whitenning key, output the ciphertext;
		cipher[0] = state[0] ^ round_key[0];
    800006cc:	fe044703          	lbu	a4,-32(s0)
    800006d0:	fd044783          	lbu	a5,-48(s0)
    800006d4:	8fb9                	xor	a5,a5,a4
    800006d6:	0ff7f713          	zext.b	a4,a5
    800006da:	fb043783          	ld	a5,-80(s0)
    800006de:	00e78023          	sb	a4,0(a5)
		cipher[1] = state[1] ^ round_key[1];
    800006e2:	fe144683          	lbu	a3,-31(s0)
    800006e6:	fd144703          	lbu	a4,-47(s0)
    800006ea:	fb043783          	ld	a5,-80(s0)
    800006ee:	0785                	addi	a5,a5,1
    800006f0:	8f35                	xor	a4,a4,a3
    800006f2:	0ff77713          	zext.b	a4,a4
    800006f6:	00e78023          	sb	a4,0(a5)
		cipher[2] = state[2] ^ round_key[2];
    800006fa:	fe244683          	lbu	a3,-30(s0)
    800006fe:	fd244703          	lbu	a4,-46(s0)
    80000702:	fb043783          	ld	a5,-80(s0)
    80000706:	0789                	addi	a5,a5,2
    80000708:	8f35                	xor	a4,a4,a3
    8000070a:	0ff77713          	zext.b	a4,a4
    8000070e:	00e78023          	sb	a4,0(a5)
		cipher[3] = state[3] ^ round_key[3];
    80000712:	fe344683          	lbu	a3,-29(s0)
    80000716:	fd344703          	lbu	a4,-45(s0)
    8000071a:	fb043783          	ld	a5,-80(s0)
    8000071e:	078d                	addi	a5,a5,3
    80000720:	8f35                	xor	a4,a4,a3
    80000722:	0ff77713          	zext.b	a4,a4
    80000726:	00e78023          	sb	a4,0(a5)
		cipher[4] = state[4] ^ round_key[4];
    8000072a:	fe444683          	lbu	a3,-28(s0)
    8000072e:	fd444703          	lbu	a4,-44(s0)
    80000732:	fb043783          	ld	a5,-80(s0)
    80000736:	0791                	addi	a5,a5,4
    80000738:	8f35                	xor	a4,a4,a3
    8000073a:	0ff77713          	zext.b	a4,a4
    8000073e:	00e78023          	sb	a4,0(a5)
		cipher[5] = state[5] ^ round_key[5];
    80000742:	fe544683          	lbu	a3,-27(s0)
    80000746:	fd544703          	lbu	a4,-43(s0)
    8000074a:	fb043783          	ld	a5,-80(s0)
    8000074e:	0795                	addi	a5,a5,5
    80000750:	8f35                	xor	a4,a4,a3
    80000752:	0ff77713          	zext.b	a4,a4
    80000756:	00e78023          	sb	a4,0(a5)
		cipher[6] = state[6] ^ round_key[6];
    8000075a:	fe644683          	lbu	a3,-26(s0)
    8000075e:	fd644703          	lbu	a4,-42(s0)
    80000762:	fb043783          	ld	a5,-80(s0)
    80000766:	0799                	addi	a5,a5,6
    80000768:	8f35                	xor	a4,a4,a3
    8000076a:	0ff77713          	zext.b	a4,a4
    8000076e:	00e78023          	sb	a4,0(a5)
		cipher[7] = state[7] ^ round_key[7];
    80000772:	fe744683          	lbu	a3,-25(s0)
    80000776:	fd744703          	lbu	a4,-41(s0)
    8000077a:	fb043783          	ld	a5,-80(s0)
    8000077e:	079d                	addi	a5,a5,7
    80000780:	8f35                	xor	a4,a4,a3
    80000782:	0ff77713          	zext.b	a4,a4
    80000786:	00e78023          	sb	a4,0(a5)

}
    8000078a:	0001                	nop
    8000078c:	6426                	ld	s0,72(sp)
    8000078e:	6161                	addi	sp,sp,80
    80000790:	8082                	ret

0000000080000792 <klein64_decrypt_rounds>:

void klein64_decrypt_rounds(const uint8_t *cipher, const uint8_t *key, const uint8_t rounds, uint8_t *plain)
{
    80000792:	715d                	addi	sp,sp,-80
    80000794:	e4a2                	sd	s0,72(sp)
    80000796:	0880                	addi	s0,sp,80
    80000798:	fca43423          	sd	a0,-56(s0)
    8000079c:	fcb43023          	sd	a1,-64(s0)
    800007a0:	87b2                	mv	a5,a2
    800007a2:	fad43823          	sd	a3,-80(s0)
    800007a6:	faf40fa3          	sb	a5,-65(s0)
	uint8_t state[8];
  uint8_t temp_state[8];
  uint8_t u,v = 0;
    800007aa:	fe040723          	sb	zero,-18(s0)
	uint8_t round_key[8];
	uint8_t i;

	//initialize the state and the key;
	round_key[0] = key[0];
    800007ae:	fc043783          	ld	a5,-64(s0)
    800007b2:	0007c783          	lbu	a5,0(a5)
    800007b6:	fcf40823          	sb	a5,-48(s0)
	round_key[1] = key[1];
    800007ba:	fc043783          	ld	a5,-64(s0)
    800007be:	0785                	addi	a5,a5,1
    800007c0:	0007c783          	lbu	a5,0(a5)
    800007c4:	fcf408a3          	sb	a5,-47(s0)
	round_key[2] = key[2];
    800007c8:	fc043783          	ld	a5,-64(s0)
    800007cc:	0789                	addi	a5,a5,2
    800007ce:	0007c783          	lbu	a5,0(a5)
    800007d2:	fcf40923          	sb	a5,-46(s0)
	round_key[3] = key[3];
    800007d6:	fc043783          	ld	a5,-64(s0)
    800007da:	078d                	addi	a5,a5,3
    800007dc:	0007c783          	lbu	a5,0(a5)
    800007e0:	fcf409a3          	sb	a5,-45(s0)
	round_key[4] = key[4];
    800007e4:	fc043783          	ld	a5,-64(s0)
    800007e8:	0791                	addi	a5,a5,4
    800007ea:	0007c783          	lbu	a5,0(a5)
    800007ee:	fcf40a23          	sb	a5,-44(s0)
	round_key[5] = key[5];
    800007f2:	fc043783          	ld	a5,-64(s0)
    800007f6:	0795                	addi	a5,a5,5
    800007f8:	0007c783          	lbu	a5,0(a5)
    800007fc:	fcf40aa3          	sb	a5,-43(s0)
	round_key[6] = key[6];
    80000800:	fc043783          	ld	a5,-64(s0)
    80000804:	0799                	addi	a5,a5,6
    80000806:	0007c783          	lbu	a5,0(a5)
    8000080a:	fcf40b23          	sb	a5,-42(s0)
	round_key[7] = key[7];
    8000080e:	fc043783          	ld	a5,-64(s0)
    80000812:	079d                	addi	a5,a5,7
    80000814:	0007c783          	lbu	a5,0(a5)
    80000818:	fcf40ba3          	sb	a5,-41(s0)

	//key expansion
	for(i = 1; i <= rounds; i++)
    8000081c:	4785                	li	a5,1
    8000081e:	fef407a3          	sb	a5,-17(s0)
    80000822:	a0d9                	j	800008e8 <klein64_decrypt_rounds+0x156>
	{
        temp_state[0] = round_key[0];
    80000824:	fd044783          	lbu	a5,-48(s0)
    80000828:	fcf40c23          	sb	a5,-40(s0)
        temp_state[1] = round_key[1];
    8000082c:	fd144783          	lbu	a5,-47(s0)
    80000830:	fcf40ca3          	sb	a5,-39(s0)
        temp_state[2] = round_key[2];
    80000834:	fd244783          	lbu	a5,-46(s0)
    80000838:	fcf40d23          	sb	a5,-38(s0)
        temp_state[3] = round_key[3];
    8000083c:	fd344783          	lbu	a5,-45(s0)
    80000840:	fcf40da3          	sb	a5,-37(s0)
        temp_state[4] = round_key[4];
    80000844:	fd444783          	lbu	a5,-44(s0)
    80000848:	fcf40e23          	sb	a5,-36(s0)

        round_key[0] = round_key[5];
    8000084c:	fd544783          	lbu	a5,-43(s0)
    80000850:	fcf40823          	sb	a5,-48(s0)
        round_key[1] = round_key[6];
    80000854:	fd644783          	lbu	a5,-42(s0)
    80000858:	fcf408a3          	sb	a5,-47(s0)
        round_key[2] = round_key[7] ^ i;
    8000085c:	fd744783          	lbu	a5,-41(s0)
    80000860:	fef44703          	lbu	a4,-17(s0)
    80000864:	8fb9                	xor	a5,a5,a4
    80000866:	0ff7f793          	zext.b	a5,a5
    8000086a:	fcf40923          	sb	a5,-46(s0)
        round_key[3] = round_key[4];
    8000086e:	fd444783          	lbu	a5,-44(s0)
    80000872:	fcf409a3          	sb	a5,-45(s0)

        round_key[4] = temp_state[1] ^ round_key[5];
    80000876:	fd944703          	lbu	a4,-39(s0)
    8000087a:	fd544783          	lbu	a5,-43(s0)
    8000087e:	8fb9                	xor	a5,a5,a4
    80000880:	0ff7f793          	zext.b	a5,a5
    80000884:	fcf40a23          	sb	a5,-44(s0)
        round_key[5] = sbox8[temp_state[2] ^ round_key[6]];
    80000888:	fda44703          	lbu	a4,-38(s0)
    8000088c:	fd644783          	lbu	a5,-42(s0)
    80000890:	8fb9                	xor	a5,a5,a4
    80000892:	0ff7f793          	zext.b	a5,a5
    80000896:	2781                	sext.w	a5,a5
    80000898:	00001717          	auipc	a4,0x1
    8000089c:	22870713          	addi	a4,a4,552 # 80001ac0 <sbox8>
    800008a0:	97ba                	add	a5,a5,a4
    800008a2:	0007c783          	lbu	a5,0(a5)
    800008a6:	fcf40aa3          	sb	a5,-43(s0)
        round_key[6] = sbox8[temp_state[3] ^ round_key[7]];
    800008aa:	fdb44703          	lbu	a4,-37(s0)
    800008ae:	fd744783          	lbu	a5,-41(s0)
    800008b2:	8fb9                	xor	a5,a5,a4
    800008b4:	0ff7f793          	zext.b	a5,a5
    800008b8:	2781                	sext.w	a5,a5
    800008ba:	00001717          	auipc	a4,0x1
    800008be:	20670713          	addi	a4,a4,518 # 80001ac0 <sbox8>
    800008c2:	97ba                	add	a5,a5,a4
    800008c4:	0007c783          	lbu	a5,0(a5)
    800008c8:	fcf40b23          	sb	a5,-42(s0)
        round_key[7] = temp_state[0] ^ temp_state[4];
    800008cc:	fd844703          	lbu	a4,-40(s0)
    800008d0:	fdc44783          	lbu	a5,-36(s0)
    800008d4:	8fb9                	xor	a5,a5,a4
    800008d6:	0ff7f793          	zext.b	a5,a5
    800008da:	fcf40ba3          	sb	a5,-41(s0)
	for(i = 1; i <= rounds; i++)
    800008de:	fef44783          	lbu	a5,-17(s0)
    800008e2:	2785                	addiw	a5,a5,1
    800008e4:	fef407a3          	sb	a5,-17(s0)
    800008e8:	fef44783          	lbu	a5,-17(s0)
    800008ec:	873e                	mv	a4,a5
    800008ee:	fbf44783          	lbu	a5,-65(s0)
    800008f2:	0ff77713          	zext.b	a4,a4
    800008f6:	0ff7f793          	zext.b	a5,a5
    800008fa:	f2e7f5e3          	bgeu	a5,a4,80000824 <klein64_decrypt_rounds+0x92>

	}

	state[0] = cipher[0] ^ round_key[0];
    800008fe:	fc843783          	ld	a5,-56(s0)
    80000902:	0007c703          	lbu	a4,0(a5)
    80000906:	fd044783          	lbu	a5,-48(s0)
    8000090a:	8fb9                	xor	a5,a5,a4
    8000090c:	0ff7f793          	zext.b	a5,a5
    80000910:	fef40023          	sb	a5,-32(s0)
  state[1] = cipher[1] ^ round_key[1];
    80000914:	fc843783          	ld	a5,-56(s0)
    80000918:	0785                	addi	a5,a5,1
    8000091a:	0007c703          	lbu	a4,0(a5)
    8000091e:	fd144783          	lbu	a5,-47(s0)
    80000922:	8fb9                	xor	a5,a5,a4
    80000924:	0ff7f793          	zext.b	a5,a5
    80000928:	fef400a3          	sb	a5,-31(s0)
	state[2] = cipher[2] ^ round_key[2];
    8000092c:	fc843783          	ld	a5,-56(s0)
    80000930:	0789                	addi	a5,a5,2
    80000932:	0007c703          	lbu	a4,0(a5)
    80000936:	fd244783          	lbu	a5,-46(s0)
    8000093a:	8fb9                	xor	a5,a5,a4
    8000093c:	0ff7f793          	zext.b	a5,a5
    80000940:	fef40123          	sb	a5,-30(s0)
	state[3] = cipher[3] ^ round_key[3];
    80000944:	fc843783          	ld	a5,-56(s0)
    80000948:	078d                	addi	a5,a5,3
    8000094a:	0007c703          	lbu	a4,0(a5)
    8000094e:	fd344783          	lbu	a5,-45(s0)
    80000952:	8fb9                	xor	a5,a5,a4
    80000954:	0ff7f793          	zext.b	a5,a5
    80000958:	fef401a3          	sb	a5,-29(s0)
	state[4] = cipher[4] ^ round_key[4];
    8000095c:	fc843783          	ld	a5,-56(s0)
    80000960:	0791                	addi	a5,a5,4
    80000962:	0007c703          	lbu	a4,0(a5)
    80000966:	fd444783          	lbu	a5,-44(s0)
    8000096a:	8fb9                	xor	a5,a5,a4
    8000096c:	0ff7f793          	zext.b	a5,a5
    80000970:	fef40223          	sb	a5,-28(s0)
	state[5] = cipher[5] ^ round_key[5];
    80000974:	fc843783          	ld	a5,-56(s0)
    80000978:	0795                	addi	a5,a5,5
    8000097a:	0007c703          	lbu	a4,0(a5)
    8000097e:	fd544783          	lbu	a5,-43(s0)
    80000982:	8fb9                	xor	a5,a5,a4
    80000984:	0ff7f793          	zext.b	a5,a5
    80000988:	fef402a3          	sb	a5,-27(s0)
	state[6] = cipher[6] ^ round_key[6];
    8000098c:	fc843783          	ld	a5,-56(s0)
    80000990:	0799                	addi	a5,a5,6
    80000992:	0007c703          	lbu	a4,0(a5)
    80000996:	fd644783          	lbu	a5,-42(s0)
    8000099a:	8fb9                	xor	a5,a5,a4
    8000099c:	0ff7f793          	zext.b	a5,a5
    800009a0:	fef40323          	sb	a5,-26(s0)
	state[7] = cipher[7] ^ round_key[7];
    800009a4:	fc843783          	ld	a5,-56(s0)
    800009a8:	079d                	addi	a5,a5,7
    800009aa:	0007c703          	lbu	a4,0(a5)
    800009ae:	fd744783          	lbu	a5,-41(s0)
    800009b2:	8fb9                	xor	a5,a5,a4
    800009b4:	0ff7f793          	zext.b	a5,a5
    800009b8:	fef403a3          	sb	a5,-25(s0)

	//inverse the subsequent rounds;
	for(i = 0; i < rounds; i++)
    800009bc:	fe0407a3          	sb	zero,-17(s0)
    800009c0:	a505                	j	80000fe0 <klein64_decrypt_rounds+0x84e>
	{
		//inverse the MixNibbles and the Rotate steps;
		temp_state[0] = state[0];
    800009c2:	fe044783          	lbu	a5,-32(s0)
    800009c6:	fcf40c23          	sb	a5,-40(s0)
		temp_state[1] = state[1];
    800009ca:	fe144783          	lbu	a5,-31(s0)
    800009ce:	fcf40ca3          	sb	a5,-39(s0)
		temp_state[2] = state[2];
    800009d2:	fe244783          	lbu	a5,-30(s0)
    800009d6:	fcf40d23          	sb	a5,-38(s0)
		temp_state[3] = state[3];
    800009da:	fe344783          	lbu	a5,-29(s0)
    800009de:	fcf40da3          	sb	a5,-37(s0)
		temp_state[4] = state[4];
    800009e2:	fe444783          	lbu	a5,-28(s0)
    800009e6:	fcf40e23          	sb	a5,-36(s0)
		temp_state[5] = state[5];
    800009ea:	fe544783          	lbu	a5,-27(s0)
    800009ee:	fcf40ea3          	sb	a5,-35(s0)
		temp_state[6] = state[6];
    800009f2:	fe644783          	lbu	a5,-26(s0)
    800009f6:	fcf40f23          	sb	a5,-34(s0)
		temp_state[7] = state[7];
    800009fa:	fe744783          	lbu	a5,-25(s0)
    800009fe:	fcf40fa3          	sb	a5,-33(s0)

		u = multiply2[multiply2[temp_state[0] ^ temp_state[2]]];
    80000a02:	fd844703          	lbu	a4,-40(s0)
    80000a06:	fda44783          	lbu	a5,-38(s0)
    80000a0a:	8fb9                	xor	a5,a5,a4
    80000a0c:	0ff7f793          	zext.b	a5,a5
    80000a10:	2781                	sext.w	a5,a5
    80000a12:	00001717          	auipc	a4,0x1
    80000a16:	1ae70713          	addi	a4,a4,430 # 80001bc0 <multiply2>
    80000a1a:	97ba                	add	a5,a5,a4
    80000a1c:	0007c783          	lbu	a5,0(a5)
    80000a20:	2781                	sext.w	a5,a5
    80000a22:	00001717          	auipc	a4,0x1
    80000a26:	19e70713          	addi	a4,a4,414 # 80001bc0 <multiply2>
    80000a2a:	97ba                	add	a5,a5,a4
    80000a2c:	0007c783          	lbu	a5,0(a5)
    80000a30:	fef406a3          	sb	a5,-19(s0)
		v = multiply2[multiply2[temp_state[1] ^ temp_state[3]]];
    80000a34:	fd944703          	lbu	a4,-39(s0)
    80000a38:	fdb44783          	lbu	a5,-37(s0)
    80000a3c:	8fb9                	xor	a5,a5,a4
    80000a3e:	0ff7f793          	zext.b	a5,a5
    80000a42:	2781                	sext.w	a5,a5
    80000a44:	00001717          	auipc	a4,0x1
    80000a48:	17c70713          	addi	a4,a4,380 # 80001bc0 <multiply2>
    80000a4c:	97ba                	add	a5,a5,a4
    80000a4e:	0007c783          	lbu	a5,0(a5)
    80000a52:	2781                	sext.w	a5,a5
    80000a54:	00001717          	auipc	a4,0x1
    80000a58:	16c70713          	addi	a4,a4,364 # 80001bc0 <multiply2>
    80000a5c:	97ba                	add	a5,a5,a4
    80000a5e:	0007c783          	lbu	a5,0(a5)
    80000a62:	fef40723          	sb	a5,-18(s0)

		temp_state[0] = temp_state[0] ^ u;
    80000a66:	fd844783          	lbu	a5,-40(s0)
    80000a6a:	fed44703          	lbu	a4,-19(s0)
    80000a6e:	8fb9                	xor	a5,a5,a4
    80000a70:	0ff7f793          	zext.b	a5,a5
    80000a74:	fcf40c23          	sb	a5,-40(s0)
		temp_state[1] = temp_state[1] ^ v;
    80000a78:	fd944783          	lbu	a5,-39(s0)
    80000a7c:	fee44703          	lbu	a4,-18(s0)
    80000a80:	8fb9                	xor	a5,a5,a4
    80000a82:	0ff7f793          	zext.b	a5,a5
    80000a86:	fcf40ca3          	sb	a5,-39(s0)
		temp_state[2] = temp_state[2] ^ u;
    80000a8a:	fda44783          	lbu	a5,-38(s0)
    80000a8e:	fed44703          	lbu	a4,-19(s0)
    80000a92:	8fb9                	xor	a5,a5,a4
    80000a94:	0ff7f793          	zext.b	a5,a5
    80000a98:	fcf40d23          	sb	a5,-38(s0)
		temp_state[3] = temp_state[3] ^ v;
    80000a9c:	fdb44783          	lbu	a5,-37(s0)
    80000aa0:	fee44703          	lbu	a4,-18(s0)
    80000aa4:	8fb9                	xor	a5,a5,a4
    80000aa6:	0ff7f793          	zext.b	a5,a5
    80000aaa:	fcf40da3          	sb	a5,-37(s0)

		u = multiply2[multiply2[temp_state[4] ^ temp_state[6]]];
    80000aae:	fdc44703          	lbu	a4,-36(s0)
    80000ab2:	fde44783          	lbu	a5,-34(s0)
    80000ab6:	8fb9                	xor	a5,a5,a4
    80000ab8:	0ff7f793          	zext.b	a5,a5
    80000abc:	2781                	sext.w	a5,a5
    80000abe:	00001717          	auipc	a4,0x1
    80000ac2:	10270713          	addi	a4,a4,258 # 80001bc0 <multiply2>
    80000ac6:	97ba                	add	a5,a5,a4
    80000ac8:	0007c783          	lbu	a5,0(a5)
    80000acc:	2781                	sext.w	a5,a5
    80000ace:	00001717          	auipc	a4,0x1
    80000ad2:	0f270713          	addi	a4,a4,242 # 80001bc0 <multiply2>
    80000ad6:	97ba                	add	a5,a5,a4
    80000ad8:	0007c783          	lbu	a5,0(a5)
    80000adc:	fef406a3          	sb	a5,-19(s0)
		v = multiply2[multiply2[temp_state[5] ^ temp_state[7]]];
    80000ae0:	fdd44703          	lbu	a4,-35(s0)
    80000ae4:	fdf44783          	lbu	a5,-33(s0)
    80000ae8:	8fb9                	xor	a5,a5,a4
    80000aea:	0ff7f793          	zext.b	a5,a5
    80000aee:	2781                	sext.w	a5,a5
    80000af0:	00001717          	auipc	a4,0x1
    80000af4:	0d070713          	addi	a4,a4,208 # 80001bc0 <multiply2>
    80000af8:	97ba                	add	a5,a5,a4
    80000afa:	0007c783          	lbu	a5,0(a5)
    80000afe:	2781                	sext.w	a5,a5
    80000b00:	00001717          	auipc	a4,0x1
    80000b04:	0c070713          	addi	a4,a4,192 # 80001bc0 <multiply2>
    80000b08:	97ba                	add	a5,a5,a4
    80000b0a:	0007c783          	lbu	a5,0(a5)
    80000b0e:	fef40723          	sb	a5,-18(s0)

		temp_state[4] = temp_state[4] ^ u;
    80000b12:	fdc44783          	lbu	a5,-36(s0)
    80000b16:	fed44703          	lbu	a4,-19(s0)
    80000b1a:	8fb9                	xor	a5,a5,a4
    80000b1c:	0ff7f793          	zext.b	a5,a5
    80000b20:	fcf40e23          	sb	a5,-36(s0)
		temp_state[5] = temp_state[5] ^ v;
    80000b24:	fdd44783          	lbu	a5,-35(s0)
    80000b28:	fee44703          	lbu	a4,-18(s0)
    80000b2c:	8fb9                	xor	a5,a5,a4
    80000b2e:	0ff7f793          	zext.b	a5,a5
    80000b32:	fcf40ea3          	sb	a5,-35(s0)
		temp_state[6] = temp_state[6] ^ u;
    80000b36:	fde44783          	lbu	a5,-34(s0)
    80000b3a:	fed44703          	lbu	a4,-19(s0)
    80000b3e:	8fb9                	xor	a5,a5,a4
    80000b40:	0ff7f793          	zext.b	a5,a5
    80000b44:	fcf40f23          	sb	a5,-34(s0)
		temp_state[7] = temp_state[7] ^ v;
    80000b48:	fdf44783          	lbu	a5,-33(s0)
    80000b4c:	fee44703          	lbu	a4,-18(s0)
    80000b50:	8fb9                	xor	a5,a5,a4
    80000b52:	0ff7f793          	zext.b	a5,a5
    80000b56:	fcf40fa3          	sb	a5,-33(s0)

        u = temp_state[0] ^ temp_state[1] ^ temp_state[2] ^ temp_state[3];
    80000b5a:	fd844703          	lbu	a4,-40(s0)
    80000b5e:	fd944783          	lbu	a5,-39(s0)
    80000b62:	8fb9                	xor	a5,a5,a4
    80000b64:	0ff7f713          	zext.b	a4,a5
    80000b68:	fda44783          	lbu	a5,-38(s0)
    80000b6c:	8fb9                	xor	a5,a5,a4
    80000b6e:	0ff7f713          	zext.b	a4,a5
    80000b72:	fdb44783          	lbu	a5,-37(s0)
    80000b76:	8fb9                	xor	a5,a5,a4
    80000b78:	fef406a3          	sb	a5,-19(s0)
        v = temp_state[0] ^ temp_state[1];
    80000b7c:	fd844703          	lbu	a4,-40(s0)
    80000b80:	fd944783          	lbu	a5,-39(s0)
    80000b84:	8fb9                	xor	a5,a5,a4
    80000b86:	fef40723          	sb	a5,-18(s0)
        v = multiply2[v];
    80000b8a:	fee44783          	lbu	a5,-18(s0)
    80000b8e:	2781                	sext.w	a5,a5
    80000b90:	00001717          	auipc	a4,0x1
    80000b94:	03070713          	addi	a4,a4,48 # 80001bc0 <multiply2>
    80000b98:	97ba                	add	a5,a5,a4
    80000b9a:	0007c783          	lbu	a5,0(a5)
    80000b9e:	fef40723          	sb	a5,-18(s0)
        state[2] = temp_state[0] ^ v ^ u;
    80000ba2:	fd844783          	lbu	a5,-40(s0)
    80000ba6:	fee44703          	lbu	a4,-18(s0)
    80000baa:	8fb9                	xor	a5,a5,a4
    80000bac:	0ff7f793          	zext.b	a5,a5
    80000bb0:	fed44703          	lbu	a4,-19(s0)
    80000bb4:	8fb9                	xor	a5,a5,a4
    80000bb6:	0ff7f793          	zext.b	a5,a5
    80000bba:	fef40123          	sb	a5,-30(s0)

        v = temp_state[1] ^ temp_state[2];
    80000bbe:	fd944703          	lbu	a4,-39(s0)
    80000bc2:	fda44783          	lbu	a5,-38(s0)
    80000bc6:	8fb9                	xor	a5,a5,a4
    80000bc8:	fef40723          	sb	a5,-18(s0)
        v = multiply2[v];
    80000bcc:	fee44783          	lbu	a5,-18(s0)
    80000bd0:	2781                	sext.w	a5,a5
    80000bd2:	00001717          	auipc	a4,0x1
    80000bd6:	fee70713          	addi	a4,a4,-18 # 80001bc0 <multiply2>
    80000bda:	97ba                	add	a5,a5,a4
    80000bdc:	0007c783          	lbu	a5,0(a5)
    80000be0:	fef40723          	sb	a5,-18(s0)
        state[3] = temp_state[1] ^ v ^ u;
    80000be4:	fd944783          	lbu	a5,-39(s0)
    80000be8:	fee44703          	lbu	a4,-18(s0)
    80000bec:	8fb9                	xor	a5,a5,a4
    80000bee:	0ff7f793          	zext.b	a5,a5
    80000bf2:	fed44703          	lbu	a4,-19(s0)
    80000bf6:	8fb9                	xor	a5,a5,a4
    80000bf8:	0ff7f793          	zext.b	a5,a5
    80000bfc:	fef401a3          	sb	a5,-29(s0)

        v = temp_state[2] ^ temp_state[3];
    80000c00:	fda44703          	lbu	a4,-38(s0)
    80000c04:	fdb44783          	lbu	a5,-37(s0)
    80000c08:	8fb9                	xor	a5,a5,a4
    80000c0a:	fef40723          	sb	a5,-18(s0)
        v = multiply2[v];
    80000c0e:	fee44783          	lbu	a5,-18(s0)
    80000c12:	2781                	sext.w	a5,a5
    80000c14:	00001717          	auipc	a4,0x1
    80000c18:	fac70713          	addi	a4,a4,-84 # 80001bc0 <multiply2>
    80000c1c:	97ba                	add	a5,a5,a4
    80000c1e:	0007c783          	lbu	a5,0(a5)
    80000c22:	fef40723          	sb	a5,-18(s0)
        state[4] = temp_state[2] ^ v ^ u;
    80000c26:	fda44783          	lbu	a5,-38(s0)
    80000c2a:	fee44703          	lbu	a4,-18(s0)
    80000c2e:	8fb9                	xor	a5,a5,a4
    80000c30:	0ff7f793          	zext.b	a5,a5
    80000c34:	fed44703          	lbu	a4,-19(s0)
    80000c38:	8fb9                	xor	a5,a5,a4
    80000c3a:	0ff7f793          	zext.b	a5,a5
    80000c3e:	fef40223          	sb	a5,-28(s0)

        v = temp_state[3] ^ temp_state[0];
    80000c42:	fdb44703          	lbu	a4,-37(s0)
    80000c46:	fd844783          	lbu	a5,-40(s0)
    80000c4a:	8fb9                	xor	a5,a5,a4
    80000c4c:	fef40723          	sb	a5,-18(s0)
        v = multiply2[v];
    80000c50:	fee44783          	lbu	a5,-18(s0)
    80000c54:	2781                	sext.w	a5,a5
    80000c56:	00001717          	auipc	a4,0x1
    80000c5a:	f6a70713          	addi	a4,a4,-150 # 80001bc0 <multiply2>
    80000c5e:	97ba                	add	a5,a5,a4
    80000c60:	0007c783          	lbu	a5,0(a5)
    80000c64:	fef40723          	sb	a5,-18(s0)
        state[5] = temp_state[3] ^ v ^ u;
    80000c68:	fdb44783          	lbu	a5,-37(s0)
    80000c6c:	fee44703          	lbu	a4,-18(s0)
    80000c70:	8fb9                	xor	a5,a5,a4
    80000c72:	0ff7f793          	zext.b	a5,a5
    80000c76:	fed44703          	lbu	a4,-19(s0)
    80000c7a:	8fb9                	xor	a5,a5,a4
    80000c7c:	0ff7f793          	zext.b	a5,a5
    80000c80:	fef402a3          	sb	a5,-27(s0)

        u = temp_state[4] ^ temp_state[5] ^ temp_state[6] ^ temp_state[7];
    80000c84:	fdc44703          	lbu	a4,-36(s0)
    80000c88:	fdd44783          	lbu	a5,-35(s0)
    80000c8c:	8fb9                	xor	a5,a5,a4
    80000c8e:	0ff7f713          	zext.b	a4,a5
    80000c92:	fde44783          	lbu	a5,-34(s0)
    80000c96:	8fb9                	xor	a5,a5,a4
    80000c98:	0ff7f713          	zext.b	a4,a5
    80000c9c:	fdf44783          	lbu	a5,-33(s0)
    80000ca0:	8fb9                	xor	a5,a5,a4
    80000ca2:	fef406a3          	sb	a5,-19(s0)
        v = temp_state[4] ^ temp_state[5];
    80000ca6:	fdc44703          	lbu	a4,-36(s0)
    80000caa:	fdd44783          	lbu	a5,-35(s0)
    80000cae:	8fb9                	xor	a5,a5,a4
    80000cb0:	fef40723          	sb	a5,-18(s0)
        v = multiply2[v];
    80000cb4:	fee44783          	lbu	a5,-18(s0)
    80000cb8:	2781                	sext.w	a5,a5
    80000cba:	00001717          	auipc	a4,0x1
    80000cbe:	f0670713          	addi	a4,a4,-250 # 80001bc0 <multiply2>
    80000cc2:	97ba                	add	a5,a5,a4
    80000cc4:	0007c783          	lbu	a5,0(a5)
    80000cc8:	fef40723          	sb	a5,-18(s0)
        state[6] = temp_state[4] ^ v ^ u;
    80000ccc:	fdc44783          	lbu	a5,-36(s0)
    80000cd0:	fee44703          	lbu	a4,-18(s0)
    80000cd4:	8fb9                	xor	a5,a5,a4
    80000cd6:	0ff7f793          	zext.b	a5,a5
    80000cda:	fed44703          	lbu	a4,-19(s0)
    80000cde:	8fb9                	xor	a5,a5,a4
    80000ce0:	0ff7f793          	zext.b	a5,a5
    80000ce4:	fef40323          	sb	a5,-26(s0)

        v = temp_state[5] ^ temp_state[6];
    80000ce8:	fdd44703          	lbu	a4,-35(s0)
    80000cec:	fde44783          	lbu	a5,-34(s0)
    80000cf0:	8fb9                	xor	a5,a5,a4
    80000cf2:	fef40723          	sb	a5,-18(s0)
        v = multiply2[v];
    80000cf6:	fee44783          	lbu	a5,-18(s0)
    80000cfa:	2781                	sext.w	a5,a5
    80000cfc:	00001717          	auipc	a4,0x1
    80000d00:	ec470713          	addi	a4,a4,-316 # 80001bc0 <multiply2>
    80000d04:	97ba                	add	a5,a5,a4
    80000d06:	0007c783          	lbu	a5,0(a5)
    80000d0a:	fef40723          	sb	a5,-18(s0)
        state[7] = temp_state[5] ^ v ^ u;
    80000d0e:	fdd44783          	lbu	a5,-35(s0)
    80000d12:	fee44703          	lbu	a4,-18(s0)
    80000d16:	8fb9                	xor	a5,a5,a4
    80000d18:	0ff7f793          	zext.b	a5,a5
    80000d1c:	fed44703          	lbu	a4,-19(s0)
    80000d20:	8fb9                	xor	a5,a5,a4
    80000d22:	0ff7f793          	zext.b	a5,a5
    80000d26:	fef403a3          	sb	a5,-25(s0)

        v = temp_state[6] ^ temp_state[7];
    80000d2a:	fde44703          	lbu	a4,-34(s0)
    80000d2e:	fdf44783          	lbu	a5,-33(s0)
    80000d32:	8fb9                	xor	a5,a5,a4
    80000d34:	fef40723          	sb	a5,-18(s0)
        v = multiply2[v];
    80000d38:	fee44783          	lbu	a5,-18(s0)
    80000d3c:	2781                	sext.w	a5,a5
    80000d3e:	00001717          	auipc	a4,0x1
    80000d42:	e8270713          	addi	a4,a4,-382 # 80001bc0 <multiply2>
    80000d46:	97ba                	add	a5,a5,a4
    80000d48:	0007c783          	lbu	a5,0(a5)
    80000d4c:	fef40723          	sb	a5,-18(s0)
        state[0] = temp_state[6] ^ v ^ u;
    80000d50:	fde44783          	lbu	a5,-34(s0)
    80000d54:	fee44703          	lbu	a4,-18(s0)
    80000d58:	8fb9                	xor	a5,a5,a4
    80000d5a:	0ff7f793          	zext.b	a5,a5
    80000d5e:	fed44703          	lbu	a4,-19(s0)
    80000d62:	8fb9                	xor	a5,a5,a4
    80000d64:	0ff7f793          	zext.b	a5,a5
    80000d68:	fef40023          	sb	a5,-32(s0)

        v = temp_state[7] ^ temp_state[4];
    80000d6c:	fdf44703          	lbu	a4,-33(s0)
    80000d70:	fdc44783          	lbu	a5,-36(s0)
    80000d74:	8fb9                	xor	a5,a5,a4
    80000d76:	fef40723          	sb	a5,-18(s0)
        v = multiply2[v];
    80000d7a:	fee44783          	lbu	a5,-18(s0)
    80000d7e:	2781                	sext.w	a5,a5
    80000d80:	00001717          	auipc	a4,0x1
    80000d84:	e4070713          	addi	a4,a4,-448 # 80001bc0 <multiply2>
    80000d88:	97ba                	add	a5,a5,a4
    80000d8a:	0007c783          	lbu	a5,0(a5)
    80000d8e:	fef40723          	sb	a5,-18(s0)
        state[1] = temp_state[7] ^ v ^ u;
    80000d92:	fdf44783          	lbu	a5,-33(s0)
    80000d96:	fee44703          	lbu	a4,-18(s0)
    80000d9a:	8fb9                	xor	a5,a5,a4
    80000d9c:	0ff7f793          	zext.b	a5,a5
    80000da0:	fed44703          	lbu	a4,-19(s0)
    80000da4:	8fb9                	xor	a5,a5,a4
    80000da6:	0ff7f793          	zext.b	a5,a5
    80000daa:	fef400a3          	sb	a5,-31(s0)

        //inverse the SubNibbles step;
		state[0] = sbox8[state[0]];
    80000dae:	fe044783          	lbu	a5,-32(s0)
    80000db2:	2781                	sext.w	a5,a5
    80000db4:	00001717          	auipc	a4,0x1
    80000db8:	d0c70713          	addi	a4,a4,-756 # 80001ac0 <sbox8>
    80000dbc:	97ba                	add	a5,a5,a4
    80000dbe:	0007c783          	lbu	a5,0(a5)
    80000dc2:	fef40023          	sb	a5,-32(s0)
		state[1] = sbox8[state[1]];
    80000dc6:	fe144783          	lbu	a5,-31(s0)
    80000dca:	2781                	sext.w	a5,a5
    80000dcc:	00001717          	auipc	a4,0x1
    80000dd0:	cf470713          	addi	a4,a4,-780 # 80001ac0 <sbox8>
    80000dd4:	97ba                	add	a5,a5,a4
    80000dd6:	0007c783          	lbu	a5,0(a5)
    80000dda:	fef400a3          	sb	a5,-31(s0)
		state[2] = sbox8[state[2]];
    80000dde:	fe244783          	lbu	a5,-30(s0)
    80000de2:	2781                	sext.w	a5,a5
    80000de4:	00001717          	auipc	a4,0x1
    80000de8:	cdc70713          	addi	a4,a4,-804 # 80001ac0 <sbox8>
    80000dec:	97ba                	add	a5,a5,a4
    80000dee:	0007c783          	lbu	a5,0(a5)
    80000df2:	fef40123          	sb	a5,-30(s0)
		state[3] = sbox8[state[3]];
    80000df6:	fe344783          	lbu	a5,-29(s0)
    80000dfa:	2781                	sext.w	a5,a5
    80000dfc:	00001717          	auipc	a4,0x1
    80000e00:	cc470713          	addi	a4,a4,-828 # 80001ac0 <sbox8>
    80000e04:	97ba                	add	a5,a5,a4
    80000e06:	0007c783          	lbu	a5,0(a5)
    80000e0a:	fef401a3          	sb	a5,-29(s0)
		state[4] = sbox8[state[4]];
    80000e0e:	fe444783          	lbu	a5,-28(s0)
    80000e12:	2781                	sext.w	a5,a5
    80000e14:	00001717          	auipc	a4,0x1
    80000e18:	cac70713          	addi	a4,a4,-852 # 80001ac0 <sbox8>
    80000e1c:	97ba                	add	a5,a5,a4
    80000e1e:	0007c783          	lbu	a5,0(a5)
    80000e22:	fef40223          	sb	a5,-28(s0)
		state[5] = sbox8[state[5]];
    80000e26:	fe544783          	lbu	a5,-27(s0)
    80000e2a:	2781                	sext.w	a5,a5
    80000e2c:	00001717          	auipc	a4,0x1
    80000e30:	c9470713          	addi	a4,a4,-876 # 80001ac0 <sbox8>
    80000e34:	97ba                	add	a5,a5,a4
    80000e36:	0007c783          	lbu	a5,0(a5)
    80000e3a:	fef402a3          	sb	a5,-27(s0)
		state[6] = sbox8[state[6]];
    80000e3e:	fe644783          	lbu	a5,-26(s0)
    80000e42:	2781                	sext.w	a5,a5
    80000e44:	00001717          	auipc	a4,0x1
    80000e48:	c7c70713          	addi	a4,a4,-900 # 80001ac0 <sbox8>
    80000e4c:	97ba                	add	a5,a5,a4
    80000e4e:	0007c783          	lbu	a5,0(a5)
    80000e52:	fef40323          	sb	a5,-26(s0)
		state[7] = sbox8[state[7]];
    80000e56:	fe744783          	lbu	a5,-25(s0)
    80000e5a:	2781                	sext.w	a5,a5
    80000e5c:	00001717          	auipc	a4,0x1
    80000e60:	c6470713          	addi	a4,a4,-924 # 80001ac0 <sbox8>
    80000e64:	97ba                	add	a5,a5,a4
    80000e66:	0007c783          	lbu	a5,0(a5)
    80000e6a:	fef403a3          	sb	a5,-25(s0)

		//reverse the round key;
		temp_state[4] = round_key[4];
    80000e6e:	fd444783          	lbu	a5,-44(s0)
    80000e72:	fcf40e23          	sb	a5,-36(s0)
		temp_state[5] = round_key[5];
    80000e76:	fd544783          	lbu	a5,-43(s0)
    80000e7a:	fcf40ea3          	sb	a5,-35(s0)
		temp_state[6] = round_key[6];
    80000e7e:	fd644783          	lbu	a5,-42(s0)
    80000e82:	fcf40f23          	sb	a5,-34(s0)
		temp_state[7] = round_key[7];
    80000e86:	fd744783          	lbu	a5,-41(s0)
    80000e8a:	fcf40fa3          	sb	a5,-33(s0)

		round_key[4] = round_key[3];
    80000e8e:	fd344783          	lbu	a5,-45(s0)
    80000e92:	fcf40a23          	sb	a5,-44(s0)
		round_key[5] = round_key[0];
    80000e96:	fd044783          	lbu	a5,-48(s0)
    80000e9a:	fcf40aa3          	sb	a5,-43(s0)
		round_key[6] = round_key[1];
    80000e9e:	fd144783          	lbu	a5,-47(s0)
    80000ea2:	fcf40b23          	sb	a5,-42(s0)
		round_key[7] = round_key[2] ^ (rounds - i);
    80000ea6:	fd244783          	lbu	a5,-46(s0)
    80000eaa:	0187971b          	slliw	a4,a5,0x18
    80000eae:	4187571b          	sraiw	a4,a4,0x18
    80000eb2:	fbf44783          	lbu	a5,-65(s0)
    80000eb6:	86be                	mv	a3,a5
    80000eb8:	fef44783          	lbu	a5,-17(s0)
    80000ebc:	40f687bb          	subw	a5,a3,a5
    80000ec0:	0ff7f793          	zext.b	a5,a5
    80000ec4:	0187979b          	slliw	a5,a5,0x18
    80000ec8:	4187d79b          	sraiw	a5,a5,0x18
    80000ecc:	8fb9                	xor	a5,a5,a4
    80000ece:	0187979b          	slliw	a5,a5,0x18
    80000ed2:	4187d79b          	sraiw	a5,a5,0x18
    80000ed6:	0ff7f793          	zext.b	a5,a5
    80000eda:	fcf40ba3          	sb	a5,-41(s0)

		round_key[0] = temp_state[7] ^ round_key[4];
    80000ede:	fdf44703          	lbu	a4,-33(s0)
    80000ee2:	fd444783          	lbu	a5,-44(s0)
    80000ee6:	8fb9                	xor	a5,a5,a4
    80000ee8:	0ff7f793          	zext.b	a5,a5
    80000eec:	fcf40823          	sb	a5,-48(s0)
		round_key[1] = temp_state[4] ^ round_key[5];
    80000ef0:	fdc44703          	lbu	a4,-36(s0)
    80000ef4:	fd544783          	lbu	a5,-43(s0)
    80000ef8:	8fb9                	xor	a5,a5,a4
    80000efa:	0ff7f793          	zext.b	a5,a5
    80000efe:	fcf408a3          	sb	a5,-47(s0)
		round_key[2] = sbox8[temp_state[5]] ^ round_key[6];
    80000f02:	fdd44783          	lbu	a5,-35(s0)
    80000f06:	2781                	sext.w	a5,a5
    80000f08:	00001717          	auipc	a4,0x1
    80000f0c:	bb870713          	addi	a4,a4,-1096 # 80001ac0 <sbox8>
    80000f10:	97ba                	add	a5,a5,a4
    80000f12:	0007c703          	lbu	a4,0(a5)
    80000f16:	fd644783          	lbu	a5,-42(s0)
    80000f1a:	8fb9                	xor	a5,a5,a4
    80000f1c:	0ff7f793          	zext.b	a5,a5
    80000f20:	fcf40923          	sb	a5,-46(s0)
		round_key[3] = sbox8[temp_state[6]] ^ round_key[7];
    80000f24:	fde44783          	lbu	a5,-34(s0)
    80000f28:	2781                	sext.w	a5,a5
    80000f2a:	00001717          	auipc	a4,0x1
    80000f2e:	b9670713          	addi	a4,a4,-1130 # 80001ac0 <sbox8>
    80000f32:	97ba                	add	a5,a5,a4
    80000f34:	0007c703          	lbu	a4,0(a5)
    80000f38:	fd744783          	lbu	a5,-41(s0)
    80000f3c:	8fb9                	xor	a5,a5,a4
    80000f3e:	0ff7f793          	zext.b	a5,a5
    80000f42:	fcf409a3          	sb	a5,-45(s0)

		//add round key with the intermediate state;
		state[0] = state[0] ^ round_key[0];
    80000f46:	fe044703          	lbu	a4,-32(s0)
    80000f4a:	fd044783          	lbu	a5,-48(s0)
    80000f4e:	8fb9                	xor	a5,a5,a4
    80000f50:	0ff7f793          	zext.b	a5,a5
    80000f54:	fef40023          	sb	a5,-32(s0)
		state[1] = state[1] ^ round_key[1];
    80000f58:	fe144703          	lbu	a4,-31(s0)
    80000f5c:	fd144783          	lbu	a5,-47(s0)
    80000f60:	8fb9                	xor	a5,a5,a4
    80000f62:	0ff7f793          	zext.b	a5,a5
    80000f66:	fef400a3          	sb	a5,-31(s0)
		state[2] = state[2] ^ round_key[2];
    80000f6a:	fe244703          	lbu	a4,-30(s0)
    80000f6e:	fd244783          	lbu	a5,-46(s0)
    80000f72:	8fb9                	xor	a5,a5,a4
    80000f74:	0ff7f793          	zext.b	a5,a5
    80000f78:	fef40123          	sb	a5,-30(s0)
		state[3] = state[3] ^ round_key[3];
    80000f7c:	fe344703          	lbu	a4,-29(s0)
    80000f80:	fd344783          	lbu	a5,-45(s0)
    80000f84:	8fb9                	xor	a5,a5,a4
    80000f86:	0ff7f793          	zext.b	a5,a5
    80000f8a:	fef401a3          	sb	a5,-29(s0)
		state[4] = state[4] ^ round_key[4];
    80000f8e:	fe444703          	lbu	a4,-28(s0)
    80000f92:	fd444783          	lbu	a5,-44(s0)
    80000f96:	8fb9                	xor	a5,a5,a4
    80000f98:	0ff7f793          	zext.b	a5,a5
    80000f9c:	fef40223          	sb	a5,-28(s0)
		state[5] = state[5] ^ round_key[5];
    80000fa0:	fe544703          	lbu	a4,-27(s0)
    80000fa4:	fd544783          	lbu	a5,-43(s0)
    80000fa8:	8fb9                	xor	a5,a5,a4
    80000faa:	0ff7f793          	zext.b	a5,a5
    80000fae:	fef402a3          	sb	a5,-27(s0)
		state[6] = state[6] ^ round_key[6];
    80000fb2:	fe644703          	lbu	a4,-26(s0)
    80000fb6:	fd644783          	lbu	a5,-42(s0)
    80000fba:	8fb9                	xor	a5,a5,a4
    80000fbc:	0ff7f793          	zext.b	a5,a5
    80000fc0:	fef40323          	sb	a5,-26(s0)
		state[7] = state[7] ^ round_key[7];
    80000fc4:	fe744703          	lbu	a4,-25(s0)
    80000fc8:	fd744783          	lbu	a5,-41(s0)
    80000fcc:	8fb9                	xor	a5,a5,a4
    80000fce:	0ff7f793          	zext.b	a5,a5
    80000fd2:	fef403a3          	sb	a5,-25(s0)
	for(i = 0; i < rounds; i++)
    80000fd6:	fef44783          	lbu	a5,-17(s0)
    80000fda:	2785                	addiw	a5,a5,1
    80000fdc:	fef407a3          	sb	a5,-17(s0)
    80000fe0:	fef44783          	lbu	a5,-17(s0)
    80000fe4:	873e                	mv	a4,a5
    80000fe6:	fbf44783          	lbu	a5,-65(s0)
    80000fea:	0ff77713          	zext.b	a4,a4
    80000fee:	0ff7f793          	zext.b	a5,a5
    80000ff2:	9cf768e3          	bltu	a4,a5,800009c2 <klein64_decrypt_rounds+0x230>

	}

	//output the plaintext;
	plain[0] = state[0];
    80000ff6:	fe044703          	lbu	a4,-32(s0)
    80000ffa:	fb043783          	ld	a5,-80(s0)
    80000ffe:	00e78023          	sb	a4,0(a5)
	plain[1] = state[1];
    80001002:	fb043783          	ld	a5,-80(s0)
    80001006:	0785                	addi	a5,a5,1
    80001008:	fe144703          	lbu	a4,-31(s0)
    8000100c:	00e78023          	sb	a4,0(a5)
	plain[2] = state[2];
    80001010:	fb043783          	ld	a5,-80(s0)
    80001014:	0789                	addi	a5,a5,2
    80001016:	fe244703          	lbu	a4,-30(s0)
    8000101a:	00e78023          	sb	a4,0(a5)
	plain[3] = state[3];
    8000101e:	fb043783          	ld	a5,-80(s0)
    80001022:	078d                	addi	a5,a5,3
    80001024:	fe344703          	lbu	a4,-29(s0)
    80001028:	00e78023          	sb	a4,0(a5)
	plain[4] = state[4];
    8000102c:	fb043783          	ld	a5,-80(s0)
    80001030:	0791                	addi	a5,a5,4
    80001032:	fe444703          	lbu	a4,-28(s0)
    80001036:	00e78023          	sb	a4,0(a5)
	plain[5] = state[5];
    8000103a:	fb043783          	ld	a5,-80(s0)
    8000103e:	0795                	addi	a5,a5,5
    80001040:	fe544703          	lbu	a4,-27(s0)
    80001044:	00e78023          	sb	a4,0(a5)
	plain[6] = state[6];
    80001048:	fb043783          	ld	a5,-80(s0)
    8000104c:	0799                	addi	a5,a5,6
    8000104e:	fe644703          	lbu	a4,-26(s0)
    80001052:	00e78023          	sb	a4,0(a5)
	plain[7] = state[7];
    80001056:	fb043783          	ld	a5,-80(s0)
    8000105a:	079d                	addi	a5,a5,7
    8000105c:	fe744703          	lbu	a4,-25(s0)
    80001060:	00e78023          	sb	a4,0(a5)

}
    80001064:	0001                	nop
    80001066:	6426                	ld	s0,72(sp)
    80001068:	6161                	addi	sp,sp,80
    8000106a:	8082                	ret

000000008000106c <klein_write_to_address>:

#define KLEIN_ADDR_RESULT0  0x30
#define KLEIN_ADDR_RESULT1  0x31

void klein_write_to_address(uint32_t address, uint32_t data)
{
    8000106c:	1101                	addi	sp,sp,-32
    8000106e:	ec06                	sd	ra,24(sp)
    80001070:	e822                	sd	s0,16(sp)
    80001072:	1000                	addi	s0,sp,32
    80001074:	87aa                	mv	a5,a0
    80001076:	872e                	mv	a4,a1
    80001078:	fef42623          	sw	a5,-20(s0)
    8000107c:	87ba                	mv	a5,a4
    8000107e:	fef42423          	sw	a5,-24(s0)
  reg_write32(KLEIN_DATA_A, address);
    80001082:	fec42783          	lw	a5,-20(s0)
    80001086:	85be                	mv	a1,a5
    80001088:	6799                	lui	a5,0x6
    8000108a:	00478513          	addi	a0,a5,4 # 6004 <_prog_start-0x7fff9ffc>
    8000108e:	f9ffe0ef          	jal	8000002c <reg_write32>
  reg_write32(KLEIN_DATA_B, data);
    80001092:	fe842783          	lw	a5,-24(s0)
    80001096:	85be                	mv	a1,a5
    80001098:	6799                	lui	a5,0x6
    8000109a:	00878513          	addi	a0,a5,8 # 6008 <_prog_start-0x7fff9ff8>
    8000109e:	f8ffe0ef          	jal	8000002c <reg_write32>
  reg_write32(KLEIN_TRIGGER, 0x00000101);
    800010a2:	10100593          	li	a1,257
    800010a6:	6519                	lui	a0,0x6
    800010a8:	f85fe0ef          	jal	8000002c <reg_write32>
  reg_write32(KLEIN_TRIGGER, 0x00000000);
    800010ac:	4581                	li	a1,0
    800010ae:	6519                	lui	a0,0x6
    800010b0:	f7dfe0ef          	jal	8000002c <reg_write32>
}
    800010b4:	0001                	nop
    800010b6:	60e2                	ld	ra,24(sp)
    800010b8:	6442                	ld	s0,16(sp)
    800010ba:	6105                	addi	sp,sp,32
    800010bc:	8082                	ret

00000000800010be <klein_read_to_address>:

uint32_t klein_read_to_address(uint32_t address)
{
    800010be:	7179                	addi	sp,sp,-48
    800010c0:	f406                	sd	ra,40(sp)
    800010c2:	f022                	sd	s0,32(sp)
    800010c4:	1800                	addi	s0,sp,48
    800010c6:	87aa                	mv	a5,a0
    800010c8:	fcf42e23          	sw	a5,-36(s0)
  reg_write32(KLEIN_DATA_A, address);
    800010cc:	fdc42783          	lw	a5,-36(s0)
    800010d0:	85be                	mv	a1,a5
    800010d2:	6799                	lui	a5,0x6
    800010d4:	00478513          	addi	a0,a5,4 # 6004 <_prog_start-0x7fff9ffc>
    800010d8:	f55fe0ef          	jal	8000002c <reg_write32>
  reg_write32(KLEIN_DATA_B, 0);
    800010dc:	4581                	li	a1,0
    800010de:	6799                	lui	a5,0x6
    800010e0:	00878513          	addi	a0,a5,8 # 6008 <_prog_start-0x7fff9ff8>
    800010e4:	f49fe0ef          	jal	8000002c <reg_write32>
  reg_write32(KLEIN_TRIGGER, 0x00000001);
    800010e8:	4585                	li	a1,1
    800010ea:	6519                	lui	a0,0x6
    800010ec:	f41fe0ef          	jal	8000002c <reg_write32>
  uint32_t temp = reg_read32(KLEIN_DATA_C);
    800010f0:	6799                	lui	a5,0x6
    800010f2:	00c78513          	addi	a0,a5,12 # 600c <_prog_start-0x7fff9ff4>
    800010f6:	f61fe0ef          	jal	80000056 <reg_read32>
    800010fa:	87aa                	mv	a5,a0
    800010fc:	fef42623          	sw	a5,-20(s0)
  reg_write32(KLEIN_TRIGGER, 0x00000000);
    80001100:	4581                	li	a1,0
    80001102:	6519                	lui	a0,0x6
    80001104:	f29fe0ef          	jal	8000002c <reg_write32>
  return temp;
    80001108:	fec42783          	lw	a5,-20(s0)
}
    8000110c:	853e                	mv	a0,a5
    8000110e:	70a2                	ld	ra,40(sp)
    80001110:	7402                	ld	s0,32(sp)
    80001112:	6145                	addi	sp,sp,48
    80001114:	8082                	ret

0000000080001116 <klein_test>:

void klein_test(void)
{
    80001116:	1101                	addi	sp,sp,-32
    80001118:	ec06                	sd	ra,24(sp)
    8000111a:	e822                	sd	s0,16(sp)
    8000111c:	1000                	addi	s0,sp,32
  // reset
  reg_write32(KLEIN_TRIGGER, 0x00010000);
    8000111e:	65c1                	lui	a1,0x10
    80001120:	6519                	lui	a0,0x6
    80001122:	f0bfe0ef          	jal	8000002c <reg_write32>
  reg_write32(KLEIN_TRIGGER, 0x00000000);
    80001126:	4581                	li	a1,0
    80001128:	6519                	lui	a0,0x6
    8000112a:	f03fe0ef          	jal	8000002c <reg_write32>
  // cipher
  klein_write_to_address(KLEIN_ADDR_BLOCK0, 0xdeadbeef); // inp
    8000112e:	deadc7b7          	lui	a5,0xdeadc
    80001132:	eef78593          	addi	a1,a5,-273 # ffffffffdeadbeef <multiply2+0xffffffff5eada32f>
    80001136:	02000513          	li	a0,32
    8000113a:	f33ff0ef          	jal	8000106c <klein_write_to_address>
  klein_write_to_address(KLEIN_ADDR_BLOCK1, 0xf000000f);
    8000113e:	f00007b7          	lui	a5,0xf0000
    80001142:	00f78593          	addi	a1,a5,15 # fffffffff000000f <multiply2+0xffffffff6fffe44f>
    80001146:	02100513          	li	a0,33
    8000114a:	f23ff0ef          	jal	8000106c <klein_write_to_address>
  klein_write_to_address(KLEIN_ADDR_KEY0, 0x12345678); // key
    8000114e:	123457b7          	lui	a5,0x12345
    80001152:	67878593          	addi	a1,a5,1656 # 12345678 <_prog_start-0x6dcba988>
    80001156:	4541                	li	a0,16
    80001158:	f15ff0ef          	jal	8000106c <klein_write_to_address>
  klein_write_to_address(KLEIN_ADDR_KEY1, 0x90abcdef);
    8000115c:	90abd7b7          	lui	a5,0x90abd
    80001160:	def78593          	addi	a1,a5,-529 # ffffffff90abcdef <multiply2+0xffffffff10abb22f>
    80001164:	4545                	li	a0,17
    80001166:	f07ff0ef          	jal	8000106c <klein_write_to_address>

  klein_write_to_address(KLEIN_ADDR_CONF, 0x01);
    8000116a:	4585                	li	a1,1
    8000116c:	4505                	li	a0,1
    8000116e:	effff0ef          	jal	8000106c <klein_write_to_address>
  klein_write_to_address(KLEIN_ADDR_CTRL, 0x02);
    80001172:	4589                	li	a1,2
    80001174:	4501                	li	a0,0
    80001176:	ef7ff0ef          	jal	8000106c <klein_write_to_address>

  while(!(klein_read_to_address(KLEIN_ADDR_STATUS) == 0x03));
    8000117a:	0001                	nop
    8000117c:	4509                	li	a0,2
    8000117e:	f41ff0ef          	jal	800010be <klein_read_to_address>
    80001182:	87aa                	mv	a5,a0
    80001184:	2781                	sext.w	a5,a5
    80001186:	873e                	mv	a4,a5
    80001188:	478d                	li	a5,3
    8000118a:	fef719e3          	bne	a4,a5,8000117c <klein_test+0x66>

  uint32_t block_1, block_2;
  block_1 = klein_read_to_address(KLEIN_ADDR_RESULT0);
    8000118e:	03000513          	li	a0,48
    80001192:	f2dff0ef          	jal	800010be <klein_read_to_address>
    80001196:	87aa                	mv	a5,a0
    80001198:	fef42623          	sw	a5,-20(s0)
  block_2 = klein_read_to_address(KLEIN_ADDR_RESULT1);
    8000119c:	03100513          	li	a0,49
    800011a0:	f1fff0ef          	jal	800010be <klein_read_to_address>
    800011a4:	87aa                	mv	a5,a0
    800011a6:	fef42423          	sw	a5,-24(s0)

  kprintf("\r# KLEIN-64 - Cipher and Decipher ============================================\r\n");
    800011aa:	00001517          	auipc	a0,0x1
    800011ae:	b1650513          	addi	a0,a0,-1258 # 80001cc0 <multiply2+0x100>
    800011b2:	592000ef          	jal	80001744 <kprintf>
  kprintf("\rBlock:    deadbeeff000000f\r\n");
    800011b6:	00001517          	auipc	a0,0x1
    800011ba:	b6250513          	addi	a0,a0,-1182 # 80001d18 <multiply2+0x158>
    800011be:	586000ef          	jal	80001744 <kprintf>
  kprintf("\rKey:      1234567890abcdef\r\n");
    800011c2:	00001517          	auipc	a0,0x1
    800011c6:	b7650513          	addi	a0,a0,-1162 # 80001d38 <multiply2+0x178>
    800011ca:	57a000ef          	jal	80001744 <kprintf>
  kprintf("\rCipher:   %w%w\r\n", block_1, block_2);
    800011ce:	fe842703          	lw	a4,-24(s0)
    800011d2:	fec42783          	lw	a5,-20(s0)
    800011d6:	863a                	mv	a2,a4
    800011d8:	85be                	mv	a1,a5
    800011da:	00001517          	auipc	a0,0x1
    800011de:	b7e50513          	addi	a0,a0,-1154 # 80001d58 <multiply2+0x198>
    800011e2:	562000ef          	jal	80001744 <kprintf>

  // decipher
  klein_write_to_address(KLEIN_ADDR_BLOCK0, block_1); // inp
    800011e6:	fec42783          	lw	a5,-20(s0)
    800011ea:	85be                	mv	a1,a5
    800011ec:	02000513          	li	a0,32
    800011f0:	e7dff0ef          	jal	8000106c <klein_write_to_address>
  klein_write_to_address(KLEIN_ADDR_BLOCK1, block_2);
    800011f4:	fe842783          	lw	a5,-24(s0)
    800011f8:	85be                	mv	a1,a5
    800011fa:	02100513          	li	a0,33
    800011fe:	e6fff0ef          	jal	8000106c <klein_write_to_address>
  klein_write_to_address(KLEIN_ADDR_KEY0, 0x12345678); // key
    80001202:	123457b7          	lui	a5,0x12345
    80001206:	67878593          	addi	a1,a5,1656 # 12345678 <_prog_start-0x6dcba988>
    8000120a:	4541                	li	a0,16
    8000120c:	e61ff0ef          	jal	8000106c <klein_write_to_address>
  klein_write_to_address(KLEIN_ADDR_KEY1, 0x90abcdef);
    80001210:	90abd7b7          	lui	a5,0x90abd
    80001214:	def78593          	addi	a1,a5,-529 # ffffffff90abcdef <multiply2+0xffffffff10abb22f>
    80001218:	4545                	li	a0,17
    8000121a:	e53ff0ef          	jal	8000106c <klein_write_to_address>

  klein_write_to_address(KLEIN_ADDR_CONF, 0x00);
    8000121e:	4581                	li	a1,0
    80001220:	4505                	li	a0,1
    80001222:	e4bff0ef          	jal	8000106c <klein_write_to_address>
  klein_write_to_address(KLEIN_ADDR_CTRL, 0x01);
    80001226:	4585                	li	a1,1
    80001228:	4501                	li	a0,0
    8000122a:	e43ff0ef          	jal	8000106c <klein_write_to_address>

  while(!(klein_read_to_address(KLEIN_ADDR_STATUS) == 0x01));
    8000122e:	0001                	nop
    80001230:	4509                	li	a0,2
    80001232:	e8dff0ef          	jal	800010be <klein_read_to_address>
    80001236:	87aa                	mv	a5,a0
    80001238:	2781                	sext.w	a5,a5
    8000123a:	873e                	mv	a4,a5
    8000123c:	4785                	li	a5,1
    8000123e:	fef719e3          	bne	a4,a5,80001230 <klein_test+0x11a>
  klein_write_to_address(KLEIN_ADDR_CTRL, 0x02);
    80001242:	4589                	li	a1,2
    80001244:	4501                	li	a0,0
    80001246:	e27ff0ef          	jal	8000106c <klein_write_to_address>
  while(!(klein_read_to_address(KLEIN_ADDR_STATUS) == 0x03));
    8000124a:	0001                	nop
    8000124c:	4509                	li	a0,2
    8000124e:	e71ff0ef          	jal	800010be <klein_read_to_address>
    80001252:	87aa                	mv	a5,a0
    80001254:	2781                	sext.w	a5,a5
    80001256:	873e                	mv	a4,a5
    80001258:	478d                	li	a5,3
    8000125a:	fef719e3          	bne	a4,a5,8000124c <klein_test+0x136>

  block_1 = klein_read_to_address(KLEIN_ADDR_RESULT0);
    8000125e:	03000513          	li	a0,48
    80001262:	e5dff0ef          	jal	800010be <klein_read_to_address>
    80001266:	87aa                	mv	a5,a0
    80001268:	fef42623          	sw	a5,-20(s0)
  block_2 = klein_read_to_address(KLEIN_ADDR_RESULT1);
    8000126c:	03100513          	li	a0,49
    80001270:	e4fff0ef          	jal	800010be <klein_read_to_address>
    80001274:	87aa                	mv	a5,a0
    80001276:	fef42423          	sw	a5,-24(s0)

  kprintf("\rDecipher: %w%w\r\n\r\n", block_1, block_2);
    8000127a:	fe842703          	lw	a4,-24(s0)
    8000127e:	fec42783          	lw	a5,-20(s0)
    80001282:	863a                	mv	a2,a4
    80001284:	85be                	mv	a1,a5
    80001286:	00001517          	auipc	a0,0x1
    8000128a:	aea50513          	addi	a0,a0,-1302 # 80001d70 <multiply2+0x1b0>
    8000128e:	4b6000ef          	jal	80001744 <kprintf>
}
    80001292:	0001                	nop
    80001294:	60e2                	ld	ra,24(sp)
    80001296:	6442                	ld	s0,16(sp)
    80001298:	6105                	addi	sp,sp,32
    8000129a:	8082                	ret

000000008000129c <klein_test_encryption_elapsed>:

void klein_test_encryption_elapsed() {
    8000129c:	1101                	addi	sp,sp,-32
    8000129e:	ec06                	sd	ra,24(sp)
    800012a0:	e822                	sd	s0,16(sp)
    800012a2:	1000                	addi	s0,sp,32
    uint32_t count_cycles = 0;
    800012a4:	fe042623          	sw	zero,-20(s0)

    // Reset the KLEIN cipher
    reg_write32(KLEIN_TRIGGER, 0x00010000);
    800012a8:	65c1                	lui	a1,0x10
    800012aa:	6519                	lui	a0,0x6
    800012ac:	d81fe0ef          	jal	8000002c <reg_write32>
    reg_write32(KLEIN_TRIGGER, 0x00000000);
    800012b0:	4581                	li	a1,0
    800012b2:	6519                	lui	a0,0x6
    800012b4:	d79fe0ef          	jal	8000002c <reg_write32>

    // Set input data (plaintext)
    klein_write_to_address(KLEIN_ADDR_BLOCK0, 0xdeadbeef);
    800012b8:	deadc7b7          	lui	a5,0xdeadc
    800012bc:	eef78593          	addi	a1,a5,-273 # ffffffffdeadbeef <multiply2+0xffffffff5eada32f>
    800012c0:	02000513          	li	a0,32
    800012c4:	da9ff0ef          	jal	8000106c <klein_write_to_address>
    klein_write_to_address(KLEIN_ADDR_BLOCK1, 0xf000000f);
    800012c8:	f00007b7          	lui	a5,0xf0000
    800012cc:	00f78593          	addi	a1,a5,15 # fffffffff000000f <multiply2+0xffffffff6fffe44f>
    800012d0:	02100513          	li	a0,33
    800012d4:	d99ff0ef          	jal	8000106c <klein_write_to_address>

    // Set encryption key
    klein_write_to_address(KLEIN_ADDR_KEY0, 0x12345678);
    800012d8:	123457b7          	lui	a5,0x12345
    800012dc:	67878593          	addi	a1,a5,1656 # 12345678 <_prog_start-0x6dcba988>
    800012e0:	4541                	li	a0,16
    800012e2:	d8bff0ef          	jal	8000106c <klein_write_to_address>
    klein_write_to_address(KLEIN_ADDR_KEY1, 0x90abcdef);
    800012e6:	90abd7b7          	lui	a5,0x90abd
    800012ea:	def78593          	addi	a1,a5,-529 # ffffffff90abcdef <multiply2+0xffffffff10abb22f>
    800012ee:	4545                	li	a0,17
    800012f0:	d7dff0ef          	jal	8000106c <klein_write_to_address>

    // Configure and start encryption
    klein_write_to_address(KLEIN_ADDR_CONF, 0x01);
    800012f4:	4585                	li	a1,1
    800012f6:	4505                	li	a0,1
    800012f8:	d75ff0ef          	jal	8000106c <klein_write_to_address>

    // Start measuring time
    mytimer_soft_reset();
    800012fc:	d7dfe0ef          	jal	80000078 <mytimer_soft_reset>
    klein_write_to_address(KLEIN_ADDR_CTRL, 0x02);
    80001300:	4589                	li	a1,2
    80001302:	4501                	li	a0,0
    80001304:	d69ff0ef          	jal	8000106c <klein_write_to_address>
    mytimer_start();
    80001308:	d93fe0ef          	jal	8000009a <mytimer_start>

    // Wait for encryption to complete
    while (!(klein_read_to_address(KLEIN_ADDR_STATUS) == 0x03));
    8000130c:	0001                	nop
    8000130e:	4509                	li	a0,2
    80001310:	dafff0ef          	jal	800010be <klein_read_to_address>
    80001314:	87aa                	mv	a5,a0
    80001316:	2781                	sext.w	a5,a5
    80001318:	873e                	mv	a4,a5
    8000131a:	478d                	li	a5,3
    8000131c:	fef719e3          	bne	a4,a5,8000130e <klein_test_encryption_elapsed+0x72>

    // Stop the timer and get elapsed cycles
    count_cycles = mytimer_pause_and_return();
    80001320:	dbffe0ef          	jal	800000de <mytimer_pause_and_return>
    80001324:	87aa                	mv	a5,a0
    80001326:	fef42623          	sw	a5,-20(s0)

    // Get result
    uint32_t cipher_1, cipher_2;
    cipher_1 = klein_read_to_address(KLEIN_ADDR_RESULT0);
    8000132a:	03000513          	li	a0,48
    8000132e:	d91ff0ef          	jal	800010be <klein_read_to_address>
    80001332:	87aa                	mv	a5,a0
    80001334:	fef42423          	sw	a5,-24(s0)
    cipher_2 = klein_read_to_address(KLEIN_ADDR_RESULT1);
    80001338:	03100513          	li	a0,49
    8000133c:	d83ff0ef          	jal	800010be <klein_read_to_address>
    80001340:	87aa                	mv	a5,a0
    80001342:	fef42223          	sw	a5,-28(s0)

    // Print results
    kprintf("\r\n# ELAPSED - KLEIN-64 Cipher Encryption ======================\r\n");
    80001346:	00001517          	auipc	a0,0x1
    8000134a:	a4250513          	addi	a0,a0,-1470 # 80001d88 <multiply2+0x1c8>
    8000134e:	3f6000ef          	jal	80001744 <kprintf>
    kprintf("Elapsed cycles: %d\r\n", count_cycles);
    80001352:	fec42783          	lw	a5,-20(s0)
    80001356:	85be                	mv	a1,a5
    80001358:	00001517          	auipc	a0,0x1
    8000135c:	a7850513          	addi	a0,a0,-1416 # 80001dd0 <multiply2+0x210>
    80001360:	3e4000ef          	jal	80001744 <kprintf>
    kprintf("Cipher text:    %w%w\r\n", cipher_1, cipher_2);
    80001364:	fe442703          	lw	a4,-28(s0)
    80001368:	fe842783          	lw	a5,-24(s0)
    8000136c:	863a                	mv	a2,a4
    8000136e:	85be                	mv	a1,a5
    80001370:	00001517          	auipc	a0,0x1
    80001374:	a7850513          	addi	a0,a0,-1416 # 80001de8 <multiply2+0x228>
    80001378:	3cc000ef          	jal	80001744 <kprintf>
}
    8000137c:	0001                	nop
    8000137e:	60e2                	ld	ra,24(sp)
    80001380:	6442                	ld	s0,16(sp)
    80001382:	6105                	addi	sp,sp,32
    80001384:	8082                	ret

0000000080001386 <klein_test_decryption_elapsed>:

void klein_test_decryption_elapsed() {
    80001386:	7179                	addi	sp,sp,-48
    80001388:	f406                	sd	ra,40(sp)
    8000138a:	f022                	sd	s0,32(sp)
    8000138c:	1800                	addi	s0,sp,48
    uint32_t count_cycles = 0;
    8000138e:	fe042623          	sw	zero,-20(s0)

    // Reset the KLEIN cipher
    reg_write32(KLEIN_TRIGGER, 0x00010000);
    80001392:	65c1                	lui	a1,0x10
    80001394:	6519                	lui	a0,0x6
    80001396:	c97fe0ef          	jal	8000002c <reg_write32>
    reg_write32(KLEIN_TRIGGER, 0x00000000);
    8000139a:	4581                	li	a1,0
    8000139c:	6519                	lui	a0,0x6
    8000139e:	c8ffe0ef          	jal	8000002c <reg_write32>

    // Set input data (ciphertext from previous encryption)
    uint32_t block_1 = 0x5a14d676; // Example ciphertext
    800013a2:	5a14d7b7          	lui	a5,0x5a14d
    800013a6:	67678793          	addi	a5,a5,1654 # 5a14d676 <_prog_start-0x25eb298a>
    800013aa:	fef42423          	sw	a5,-24(s0)
    uint32_t block_2 = 0x98fa7e4c;
    800013ae:	98fa87b7          	lui	a5,0x98fa8
    800013b2:	e4c78793          	addi	a5,a5,-436 # ffffffff98fa7e4c <multiply2+0xffffffff18fa628c>
    800013b6:	fef42223          	sw	a5,-28(s0)

    klein_write_to_address(KLEIN_ADDR_BLOCK0, block_1);
    800013ba:	fe842783          	lw	a5,-24(s0)
    800013be:	85be                	mv	a1,a5
    800013c0:	02000513          	li	a0,32
    800013c4:	ca9ff0ef          	jal	8000106c <klein_write_to_address>
    klein_write_to_address(KLEIN_ADDR_BLOCK1, block_2);
    800013c8:	fe442783          	lw	a5,-28(s0)
    800013cc:	85be                	mv	a1,a5
    800013ce:	02100513          	li	a0,33
    800013d2:	c9bff0ef          	jal	8000106c <klein_write_to_address>

    // Set the same encryption key for decryption
    klein_write_to_address(KLEIN_ADDR_KEY0, 0x12345678);
    800013d6:	123457b7          	lui	a5,0x12345
    800013da:	67878593          	addi	a1,a5,1656 # 12345678 <_prog_start-0x6dcba988>
    800013de:	4541                	li	a0,16
    800013e0:	c8dff0ef          	jal	8000106c <klein_write_to_address>
    klein_write_to_address(KLEIN_ADDR_KEY1, 0x90abcdef);
    800013e4:	90abd7b7          	lui	a5,0x90abd
    800013e8:	def78593          	addi	a1,a5,-529 # ffffffff90abcdef <multiply2+0xffffffff10abb22f>
    800013ec:	4545                	li	a0,17
    800013ee:	c7fff0ef          	jal	8000106c <klein_write_to_address>

    // Configure for decryption mode
    klein_write_to_address(KLEIN_ADDR_CONF, 0x00);
    800013f2:	4581                	li	a1,0
    800013f4:	4505                	li	a0,1
    800013f6:	c77ff0ef          	jal	8000106c <klein_write_to_address>

    // Start measuring time
    mytimer_soft_reset();
    800013fa:	c7ffe0ef          	jal	80000078 <mytimer_soft_reset>
    klein_write_to_address(KLEIN_ADDR_CTRL, 0x01);
    800013fe:	4585                	li	a1,1
    80001400:	4501                	li	a0,0
    80001402:	c6bff0ef          	jal	8000106c <klein_write_to_address>
    mytimer_start();
    80001406:	c95fe0ef          	jal	8000009a <mytimer_start>

    // Wait for keyschedule ready
    while (!(klein_read_to_address(KLEIN_ADDR_STATUS) == 0x01));
    8000140a:	0001                	nop
    8000140c:	4509                	li	a0,2
    8000140e:	cb1ff0ef          	jal	800010be <klein_read_to_address>
    80001412:	87aa                	mv	a5,a0
    80001414:	2781                	sext.w	a5,a5
    80001416:	873e                	mv	a4,a5
    80001418:	4785                	li	a5,1
    8000141a:	fef719e3          	bne	a4,a5,8000140c <klein_test_decryption_elapsed+0x86>

    // Trigger decryption
    klein_write_to_address(KLEIN_ADDR_CTRL, 0x02);
    8000141e:	4589                	li	a1,2
    80001420:	4501                	li	a0,0
    80001422:	c4bff0ef          	jal	8000106c <klein_write_to_address>

    // Wait for decryption to complete
    while (!(klein_read_to_address(KLEIN_ADDR_STATUS) == 0x03));
    80001426:	0001                	nop
    80001428:	4509                	li	a0,2
    8000142a:	c95ff0ef          	jal	800010be <klein_read_to_address>
    8000142e:	87aa                	mv	a5,a0
    80001430:	2781                	sext.w	a5,a5
    80001432:	873e                	mv	a4,a5
    80001434:	478d                	li	a5,3
    80001436:	fef719e3          	bne	a4,a5,80001428 <klein_test_decryption_elapsed+0xa2>

    // Stop the timer and get elapsed cycles
    count_cycles = mytimer_pause_and_return();
    8000143a:	ca5fe0ef          	jal	800000de <mytimer_pause_and_return>
    8000143e:	87aa                	mv	a5,a0
    80001440:	fef42623          	sw	a5,-20(s0)

    // Get result
    uint32_t decipher_1, decipher_2;
    decipher_1 = klein_read_to_address(KLEIN_ADDR_RESULT0);
    80001444:	03000513          	li	a0,48
    80001448:	c77ff0ef          	jal	800010be <klein_read_to_address>
    8000144c:	87aa                	mv	a5,a0
    8000144e:	fef42023          	sw	a5,-32(s0)
    decipher_2 = klein_read_to_address(KLEIN_ADDR_RESULT1);
    80001452:	03100513          	li	a0,49
    80001456:	c69ff0ef          	jal	800010be <klein_read_to_address>
    8000145a:	87aa                	mv	a5,a0
    8000145c:	fcf42e23          	sw	a5,-36(s0)

    // Print results
    kprintf("\r\n# ELAPSED - KLEIN-64 Cipher Decryption ======================\r\n");
    80001460:	00001517          	auipc	a0,0x1
    80001464:	9a050513          	addi	a0,a0,-1632 # 80001e00 <multiply2+0x240>
    80001468:	2dc000ef          	jal	80001744 <kprintf>
    kprintf("Elapsed cycles: %d\r\n", count_cycles);
    8000146c:	fec42783          	lw	a5,-20(s0)
    80001470:	85be                	mv	a1,a5
    80001472:	00001517          	auipc	a0,0x1
    80001476:	95e50513          	addi	a0,a0,-1698 # 80001dd0 <multiply2+0x210>
    8000147a:	2ca000ef          	jal	80001744 <kprintf>
    kprintf("Decipher text:  %w%w\r\n", decipher_1, decipher_2);
    8000147e:	fdc42703          	lw	a4,-36(s0)
    80001482:	fe042783          	lw	a5,-32(s0)
    80001486:	863a                	mv	a2,a4
    80001488:	85be                	mv	a1,a5
    8000148a:	00001517          	auipc	a0,0x1
    8000148e:	9be50513          	addi	a0,a0,-1602 # 80001e48 <multiply2+0x288>
    80001492:	2b2000ef          	jal	80001744 <kprintf>
}
    80001496:	0001                	nop
    80001498:	70a2                	ld	ra,40(sp)
    8000149a:	7402                	ld	s0,32(sp)
    8000149c:	6145                	addi	sp,sp,48
    8000149e:	8082                	ret

00000000800014a0 <klein_test_software>:

static void klein_test_software() {
    800014a0:	715d                	addi	sp,sp,-80
    800014a2:	e486                	sd	ra,72(sp)
    800014a4:	e0a2                	sd	s0,64(sp)
    800014a6:	0880                	addi	s0,sp,80
    uint8_t key[8] = {0x12, 0x34, 0x56, 0x78, 0x90, 0xab, 0xcd, 0xef};
    800014a8:	00001797          	auipc	a5,0x1
    800014ac:	a7878793          	addi	a5,a5,-1416 # 80001f20 <multiply2+0x360>
    800014b0:	639c                	ld	a5,0(a5)
    800014b2:	fcf43c23          	sd	a5,-40(s0)
    uint8_t message[8] = {0xde, 0xad, 0xbe, 0xef, 0xf0, 0x00, 0x00, 0x0f};
    800014b6:	00001797          	auipc	a5,0x1
    800014ba:	a7278793          	addi	a5,a5,-1422 # 80001f28 <multiply2+0x368>
    800014be:	639c                	ld	a5,0(a5)
    800014c0:	fcf43823          	sd	a5,-48(s0)
    unsigned int encryption_cycles, decryption_cycles;
    uint8_t cipher_text[8];
    uint8_t decipher_text[8];

    // Measure encryption time using mytimer
    mytimer_soft_reset();
    800014c4:	bb5fe0ef          	jal	80000078 <mytimer_soft_reset>
    mytimer_start();
    800014c8:	bd3fe0ef          	jal	8000009a <mytimer_start>
    klein64_encrypt(message, key, cipher);
    800014cc:	fc840693          	addi	a3,s0,-56
    800014d0:	fd840713          	addi	a4,s0,-40
    800014d4:	fd040793          	addi	a5,s0,-48
    800014d8:	4631                	li	a2,12
    800014da:	85ba                	mv	a1,a4
    800014dc:	853e                	mv	a0,a5
    800014de:	c31fe0ef          	jal	8000010e <klein64_encrypt_rounds>
    encryption_cycles = mytimer_pause_and_return();
    800014e2:	bfdfe0ef          	jal	800000de <mytimer_pause_and_return>
    800014e6:	87aa                	mv	a5,a0
    800014e8:	fef42223          	sw	a5,-28(s0)

    cipher_text[0] = cipher[0];
    800014ec:	fc844783          	lbu	a5,-56(s0)
    800014f0:	faf40c23          	sb	a5,-72(s0)
    cipher_text[1] = cipher[1];
    800014f4:	fc944783          	lbu	a5,-55(s0)
    800014f8:	faf40ca3          	sb	a5,-71(s0)
    cipher_text[2] = cipher[2];
    800014fc:	fca44783          	lbu	a5,-54(s0)
    80001500:	faf40d23          	sb	a5,-70(s0)
    cipher_text[3] = cipher[3];
    80001504:	fcb44783          	lbu	a5,-53(s0)
    80001508:	faf40da3          	sb	a5,-69(s0)
    cipher_text[4] = cipher[4];
    8000150c:	fcc44783          	lbu	a5,-52(s0)
    80001510:	faf40e23          	sb	a5,-68(s0)
    cipher_text[5] = cipher[5];
    80001514:	fcd44783          	lbu	a5,-51(s0)
    80001518:	faf40ea3          	sb	a5,-67(s0)
    cipher_text[6] = cipher[6];
    8000151c:	fce44783          	lbu	a5,-50(s0)
    80001520:	faf40f23          	sb	a5,-66(s0)
    cipher_text[7] = cipher[7];
    80001524:	fcf44783          	lbu	a5,-49(s0)
    80001528:	faf40fa3          	sb	a5,-65(s0)

    // Measure decryption time using mytimer
    mytimer_soft_reset();
    8000152c:	b4dfe0ef          	jal	80000078 <mytimer_soft_reset>
    mytimer_start();
    80001530:	b6bfe0ef          	jal	8000009a <mytimer_start>
    klein64_decrypt(cipher, key, decrypted);
    80001534:	fc040693          	addi	a3,s0,-64
    80001538:	fd840713          	addi	a4,s0,-40
    8000153c:	fc840793          	addi	a5,s0,-56
    80001540:	4631                	li	a2,12
    80001542:	85ba                	mv	a1,a4
    80001544:	853e                	mv	a0,a5
    80001546:	a4cff0ef          	jal	80000792 <klein64_decrypt_rounds>
    decryption_cycles = mytimer_pause_and_return();
    8000154a:	b95fe0ef          	jal	800000de <mytimer_pause_and_return>
    8000154e:	87aa                	mv	a5,a0
    80001550:	fef42023          	sw	a5,-32(s0)

    decipher_text[0] = decrypted[0];
    80001554:	fc044783          	lbu	a5,-64(s0)
    80001558:	faf40823          	sb	a5,-80(s0)
    decipher_text[1] = decrypted[1];
    8000155c:	fc144783          	lbu	a5,-63(s0)
    80001560:	faf408a3          	sb	a5,-79(s0)
    decipher_text[2] = decrypted[2];
    80001564:	fc244783          	lbu	a5,-62(s0)
    80001568:	faf40923          	sb	a5,-78(s0)
    decipher_text[3] = decrypted[3];
    8000156c:	fc344783          	lbu	a5,-61(s0)
    80001570:	faf409a3          	sb	a5,-77(s0)
    decipher_text[4] = decrypted[4];
    80001574:	fc444783          	lbu	a5,-60(s0)
    80001578:	faf40a23          	sb	a5,-76(s0)
    decipher_text[5] = decrypted[5];
    8000157c:	fc544783          	lbu	a5,-59(s0)
    80001580:	faf40aa3          	sb	a5,-75(s0)
    decipher_text[6] = decrypted[6];
    80001584:	fc644783          	lbu	a5,-58(s0)
    80001588:	faf40b23          	sb	a5,-74(s0)
    decipher_text[7] = decrypted[7];
    8000158c:	fc744783          	lbu	a5,-57(s0)
    80001590:	faf40ba3          	sb	a5,-73(s0)

    // Print results
    kprintf("\r\n# ELAPSED - KLEIN-64 Software ===============================\r\n");
    80001594:	00001517          	auipc	a0,0x1
    80001598:	8cc50513          	addi	a0,a0,-1844 # 80001e60 <multiply2+0x2a0>
    8000159c:	1a8000ef          	jal	80001744 <kprintf>
    kprintf("Encryption Cycles: %d\r\n", encryption_cycles);
    800015a0:	fe442783          	lw	a5,-28(s0)
    800015a4:	85be                	mv	a1,a5
    800015a6:	00001517          	auipc	a0,0x1
    800015aa:	90250513          	addi	a0,a0,-1790 # 80001ea8 <multiply2+0x2e8>
    800015ae:	196000ef          	jal	80001744 <kprintf>
    kprintf("Cipher text:       ");
    800015b2:	00001517          	auipc	a0,0x1
    800015b6:	90e50513          	addi	a0,a0,-1778 # 80001ec0 <multiply2+0x300>
    800015ba:	18a000ef          	jal	80001744 <kprintf>
    for (int i = 0; i < 8; i++) kprintf("%hx", cipher_text[i]);
    800015be:	fe042623          	sw	zero,-20(s0)
    800015c2:	a025                	j	800015ea <klein_test_software+0x14a>
    800015c4:	fec42783          	lw	a5,-20(s0)
    800015c8:	17c1                	addi	a5,a5,-16
    800015ca:	97a2                	add	a5,a5,s0
    800015cc:	fc87c783          	lbu	a5,-56(a5)
    800015d0:	2781                	sext.w	a5,a5
    800015d2:	85be                	mv	a1,a5
    800015d4:	00001517          	auipc	a0,0x1
    800015d8:	90450513          	addi	a0,a0,-1788 # 80001ed8 <multiply2+0x318>
    800015dc:	168000ef          	jal	80001744 <kprintf>
    800015e0:	fec42783          	lw	a5,-20(s0)
    800015e4:	2785                	addiw	a5,a5,1
    800015e6:	fef42623          	sw	a5,-20(s0)
    800015ea:	fec42783          	lw	a5,-20(s0)
    800015ee:	0007871b          	sext.w	a4,a5
    800015f2:	479d                	li	a5,7
    800015f4:	fce7d8e3          	bge	a5,a4,800015c4 <klein_test_software+0x124>
    kprintf("\r\nDecryption Cycles: %d\r\n", decryption_cycles);
    800015f8:	fe042783          	lw	a5,-32(s0)
    800015fc:	85be                	mv	a1,a5
    800015fe:	00001517          	auipc	a0,0x1
    80001602:	8e250513          	addi	a0,a0,-1822 # 80001ee0 <multiply2+0x320>
    80001606:	13e000ef          	jal	80001744 <kprintf>
    kprintf("Decrypted text:    ");
    8000160a:	00001517          	auipc	a0,0x1
    8000160e:	8f650513          	addi	a0,a0,-1802 # 80001f00 <multiply2+0x340>
    80001612:	132000ef          	jal	80001744 <kprintf>
    for (int i = 0; i < 8; i++) kprintf("%hx", decipher_text[i]);
    80001616:	fe042423          	sw	zero,-24(s0)
    8000161a:	a025                	j	80001642 <klein_test_software+0x1a2>
    8000161c:	fe842783          	lw	a5,-24(s0)
    80001620:	17c1                	addi	a5,a5,-16
    80001622:	97a2                	add	a5,a5,s0
    80001624:	fc07c783          	lbu	a5,-64(a5)
    80001628:	2781                	sext.w	a5,a5
    8000162a:	85be                	mv	a1,a5
    8000162c:	00001517          	auipc	a0,0x1
    80001630:	8ac50513          	addi	a0,a0,-1876 # 80001ed8 <multiply2+0x318>
    80001634:	110000ef          	jal	80001744 <kprintf>
    80001638:	fe842783          	lw	a5,-24(s0)
    8000163c:	2785                	addiw	a5,a5,1
    8000163e:	fef42423          	sw	a5,-24(s0)
    80001642:	fe842783          	lw	a5,-24(s0)
    80001646:	0007871b          	sext.w	a4,a5
    8000164a:	479d                	li	a5,7
    8000164c:	fce7d8e3          	bge	a5,a4,8000161c <klein_test_software+0x17c>
    kprintf("\r\n\r\n");
    80001650:	00001517          	auipc	a0,0x1
    80001654:	8c850513          	addi	a0,a0,-1848 # 80001f18 <multiply2+0x358>
    80001658:	0ec000ef          	jal	80001744 <kprintf>
    8000165c:	0001                	nop
    8000165e:	60a6                	ld	ra,72(sp)
    80001660:	6406                	ld	s0,64(sp)
    80001662:	6161                	addi	sp,sp,80
    80001664:	8082                	ret

0000000080001666 <main>:
int main(int hartid, char **arv) {
    80001666:	1101                	addi	sp,sp,-32
    80001668:	ec06                	sd	ra,24(sp)
    8000166a:	e822                	sd	s0,16(sp)
    8000166c:	1000                	addi	s0,sp,32
    8000166e:	87aa                	mv	a5,a0
    80001670:	feb43023          	sd	a1,-32(s0)
    80001674:	fef42623          	sw	a5,-20(s0)
  if(hartid == 0) {
    80001678:	fec42783          	lw	a5,-20(s0)
    8000167c:	2781                	sext.w	a5,a5
    8000167e:	e799                	bnez	a5,8000168c <main+0x26>
    klein_test_encryption_elapsed();
    80001680:	c1dff0ef          	jal	8000129c <klein_test_encryption_elapsed>
    klein_test_decryption_elapsed();
    80001684:	d03ff0ef          	jal	80001386 <klein_test_decryption_elapsed>
    klein_test_software();
    80001688:	e19ff0ef          	jal	800014a0 <klein_test_software>
  return 0;
    8000168c:	4781                	li	a5,0
}
    8000168e:	853e                	mv	a0,a5
    80001690:	60e2                	ld	ra,24(sp)
    80001692:	6442                	ld	s0,16(sp)
    80001694:	6105                	addi	sp,sp,32
    80001696:	8082                	ret

0000000080001698 <kputc>:
	_kputs(s);
	kputc('\r');
	kputc('\n');
}

void kprintf(const char *fmt, ...)
    80001698:	7179                	addi	sp,sp,-48
    8000169a:	f422                	sd	s0,40(sp)
    8000169c:	1800                	addi	s0,sp,48
    8000169e:	87aa                	mv	a5,a0
    800016a0:	fcf40fa3          	sb	a5,-33(s0)
{
    800016a4:	640007b7          	lui	a5,0x64000
    800016a8:	fef43423          	sd	a5,-24(s0)
    va_list vl;
    bool is_format, is_long, is_char;
    char c;

    800016ac:	fe843703          	ld	a4,-24(s0)
    800016b0:	fdf44783          	lbu	a5,-33(s0)
    800016b4:	86be                	mv	a3,a5
    800016b6:	fe843783          	ld	a5,-24(s0)
    800016ba:	40d727af          	amoor.w	a5,a3,(a4)
    800016be:	fef42223          	sw	a5,-28(s0)
    va_start(vl, fmt);
    is_format = false;
    is_long = false;
    is_char = false;
    800016c2:	fe442783          	lw	a5,-28(s0)
    800016c6:	2781                	sext.w	a5,a5
    800016c8:	fe07c2e3          	bltz	a5,800016ac <kputc+0x14>

    while ((c = *fmt++) != '\0') {
        if (is_format) {
            switch (c) {
            case 'l':
    800016cc:	0001                	nop
    800016ce:	0001                	nop
    800016d0:	7422                	ld	s0,40(sp)
    800016d2:	6145                	addi	sp,sp,48
    800016d4:	8082                	ret

00000000800016d6 <_kputs>:
{
    800016d6:	7179                	addi	sp,sp,-48
    800016d8:	f406                	sd	ra,40(sp)
    800016da:	f022                	sd	s0,32(sp)
    800016dc:	1800                	addi	s0,sp,48
    800016de:	fca43c23          	sd	a0,-40(s0)
	for (; (c = *s) != '\0'; s++)
    800016e2:	a819                	j	800016f8 <_kputs+0x22>
		kputc(c);
    800016e4:	fef44783          	lbu	a5,-17(s0)
    800016e8:	853e                	mv	a0,a5
    800016ea:	fafff0ef          	jal	80001698 <kputc>
	for (; (c = *s) != '\0'; s++)
    800016ee:	fd843783          	ld	a5,-40(s0)
    800016f2:	0785                	addi	a5,a5,1 # 64000001 <_prog_start-0x1bffffff>
    800016f4:	fcf43c23          	sd	a5,-40(s0)
    800016f8:	fd843783          	ld	a5,-40(s0)
    800016fc:	0007c783          	lbu	a5,0(a5)
    80001700:	fef407a3          	sb	a5,-17(s0)
    80001704:	fef44783          	lbu	a5,-17(s0)
    80001708:	0ff7f793          	zext.b	a5,a5
    8000170c:	ffe1                	bnez	a5,800016e4 <_kputs+0xe>
}
    8000170e:	0001                	nop
    80001710:	0001                	nop
    80001712:	70a2                	ld	ra,40(sp)
    80001714:	7402                	ld	s0,32(sp)
    80001716:	6145                	addi	sp,sp,48
    80001718:	8082                	ret

000000008000171a <kputs>:
{
    8000171a:	1101                	addi	sp,sp,-32
    8000171c:	ec06                	sd	ra,24(sp)
    8000171e:	e822                	sd	s0,16(sp)
    80001720:	1000                	addi	s0,sp,32
    80001722:	fea43423          	sd	a0,-24(s0)
	_kputs(s);
    80001726:	fe843503          	ld	a0,-24(s0)
    8000172a:	fadff0ef          	jal	800016d6 <_kputs>
	kputc('\r');
    8000172e:	4535                	li	a0,13
    80001730:	f69ff0ef          	jal	80001698 <kputc>
	kputc('\n');
    80001734:	4529                	li	a0,10
    80001736:	f63ff0ef          	jal	80001698 <kputc>
}
    8000173a:	0001                	nop
    8000173c:	60e2                	ld	ra,24(sp)
    8000173e:	6442                	ld	s0,16(sp)
    80001740:	6105                	addi	sp,sp,32
    80001742:	8082                	ret

0000000080001744 <kprintf>:
{
    80001744:	7155                	addi	sp,sp,-208
    80001746:	e506                	sd	ra,136(sp)
    80001748:	e122                	sd	s0,128(sp)
    8000174a:	0900                	addi	s0,sp,144
    8000174c:	f6a43c23          	sd	a0,-136(s0)
    80001750:	e40c                	sd	a1,8(s0)
    80001752:	e810                	sd	a2,16(s0)
    80001754:	ec14                	sd	a3,24(s0)
    80001756:	f018                	sd	a4,32(s0)
    80001758:	f41c                	sd	a5,40(s0)
    8000175a:	03043823          	sd	a6,48(s0)
    8000175e:	03143c23          	sd	a7,56(s0)
    va_start(vl, fmt);
    80001762:	04040793          	addi	a5,s0,64
    80001766:	f6f43823          	sd	a5,-144(s0)
    8000176a:	f7043783          	ld	a5,-144(s0)
    8000176e:	fc878793          	addi	a5,a5,-56
    80001772:	faf43423          	sd	a5,-88(s0)
    is_format = false;
    80001776:	fe0407a3          	sb	zero,-17(s0)
    is_long = false;
    8000177a:	fe040723          	sb	zero,-18(s0)
    is_char = false;
    8000177e:	fe0406a3          	sb	zero,-19(s0)
    while ((c = *fmt++) != '\0') {
    80001782:	a4c9                	j	80001a44 <kprintf+0x300>
        if (is_format) {
    80001784:	fef44783          	lbu	a5,-17(s0)
    80001788:	0ff7f793          	zext.b	a5,a5
    8000178c:	28078b63          	beqz	a5,80001a22 <kprintf+0x2de>
            switch (c) {
    80001790:	fc744783          	lbu	a5,-57(s0)
    80001794:	2781                	sext.w	a5,a5
    80001796:	f9d7869b          	addiw	a3,a5,-99
    8000179a:	0006871b          	sext.w	a4,a3
    8000179e:	47d5                	li	a5,21
    800017a0:	26e7ea63          	bltu	a5,a4,80001a14 <kprintf+0x2d0>
    800017a4:	02069793          	slli	a5,a3,0x20
    800017a8:	9381                	srli	a5,a5,0x20
    800017aa:	00279713          	slli	a4,a5,0x2
    800017ae:	00000797          	auipc	a5,0x0
    800017b2:	78278793          	addi	a5,a5,1922 # 80001f30 <multiply2+0x370>
    800017b6:	97ba                	add	a5,a5,a4
    800017b8:	439c                	lw	a5,0(a5)
    800017ba:	0007871b          	sext.w	a4,a5
    800017be:	00000797          	auipc	a5,0x0
    800017c2:	77278793          	addi	a5,a5,1906 # 80001f30 <multiply2+0x370>
    800017c6:	97ba                	add	a5,a5,a4
    800017c8:	8782                	jr	a5
                /* 'l' indicates a "long" modifier (e.g. %ld) */
                is_long = true;
    800017ca:	4785                	li	a5,1
    800017cc:	fef40723          	sb	a5,-18(s0)
                continue;
    800017d0:	ac95                	j	80001a44 <kprintf+0x300>
            case 'h':
                /* 'h' indicates a "short" modifier (e.g. %hd) */
                is_char = true;  /* re-using is_char to represent short */
    800017d2:	4785                	li	a5,1
    800017d4:	fef406a3          	sb	a5,-19(s0)
                continue;
    800017d8:	a4b5                	j	80001a44 <kprintf+0x300>
            case 'x': {
                /* Print in hexadecimal. Existing code. */
                unsigned long n;
                long i;
                if (is_long) {
    800017da:	fee44783          	lbu	a5,-18(s0)
    800017de:	0ff7f793          	zext.b	a5,a5
    800017e2:	cf99                	beqz	a5,80001800 <kprintf+0xbc>
                    n = va_arg(vl, unsigned long);
    800017e4:	fa843783          	ld	a5,-88(s0)
    800017e8:	00878713          	addi	a4,a5,8
    800017ec:	fae43423          	sd	a4,-88(s0)
    800017f0:	639c                	ld	a5,0(a5)
    800017f2:	fef43023          	sd	a5,-32(s0)
                    i = (sizeof(unsigned long) << 3) - 4;
    800017f6:	03c00793          	li	a5,60
    800017fa:	fcf43c23          	sd	a5,-40(s0)
    800017fe:	a041                	j	8000187e <kprintf+0x13a>
                } else {
                    n = va_arg(vl, unsigned int);
    80001800:	fa843783          	ld	a5,-88(s0)
    80001804:	00878713          	addi	a4,a5,8
    80001808:	fae43423          	sd	a4,-88(s0)
    8000180c:	439c                	lw	a5,0(a5)
    8000180e:	1782                	slli	a5,a5,0x20
    80001810:	9381                	srli	a5,a5,0x20
    80001812:	fef43023          	sd	a5,-32(s0)
                    i = is_char ? 4 : (sizeof(unsigned int) << 3) - 4;
    80001816:	fed44783          	lbu	a5,-19(s0)
    8000181a:	0ff7f793          	zext.b	a5,a5
    8000181e:	c399                	beqz	a5,80001824 <kprintf+0xe0>
    80001820:	4791                	li	a5,4
    80001822:	a011                	j	80001826 <kprintf+0xe2>
    80001824:	47f1                	li	a5,28
    80001826:	fcf43c23          	sd	a5,-40(s0)
                }
                for (; i >= 0; i -= 4) {
    8000182a:	a891                	j	8000187e <kprintf+0x13a>
                    long d = (n >> i) & 0xF;
    8000182c:	fd843783          	ld	a5,-40(s0)
    80001830:	2781                	sext.w	a5,a5
    80001832:	873e                	mv	a4,a5
    80001834:	fe043783          	ld	a5,-32(s0)
    80001838:	00e7d7b3          	srl	a5,a5,a4
    8000183c:	8bbd                	andi	a5,a5,15
    8000183e:	faf43c23          	sd	a5,-72(s0)
                    kputc(d < 10 ? '0' + d : 'a' + d - 10);
    80001842:	fb843703          	ld	a4,-72(s0)
    80001846:	47a5                	li	a5,9
    80001848:	00e7cb63          	blt	a5,a4,8000185e <kprintf+0x11a>
    8000184c:	fb843783          	ld	a5,-72(s0)
    80001850:	0ff7f793          	zext.b	a5,a5
    80001854:	0307879b          	addiw	a5,a5,48
    80001858:	0ff7f793          	zext.b	a5,a5
    8000185c:	a809                	j	8000186e <kprintf+0x12a>
    8000185e:	fb843783          	ld	a5,-72(s0)
    80001862:	0ff7f793          	zext.b	a5,a5
    80001866:	0577879b          	addiw	a5,a5,87
    8000186a:	0ff7f793          	zext.b	a5,a5
    8000186e:	853e                	mv	a0,a5
    80001870:	e29ff0ef          	jal	80001698 <kputc>
                for (; i >= 0; i -= 4) {
    80001874:	fd843783          	ld	a5,-40(s0)
    80001878:	17f1                	addi	a5,a5,-4
    8000187a:	fcf43c23          	sd	a5,-40(s0)
    8000187e:	fd843783          	ld	a5,-40(s0)
    80001882:	fa07d5e3          	bgez	a5,8000182c <kprintf+0xe8>
                }
                break;
    80001886:	a279                	j	80001a14 <kprintf+0x2d0>
                 * If 'l' was present: treat as 'long'
                 * If 'h' was present: treat as 'short'
                 * otherwise treat as regular 'int'.
                 */
                long num;
                if (is_long) {
    80001888:	fee44783          	lbu	a5,-18(s0)
    8000188c:	0ff7f793          	zext.b	a5,a5
    80001890:	cb99                	beqz	a5,800018a6 <kprintf+0x162>
                    num = va_arg(vl, long);
    80001892:	fa843783          	ld	a5,-88(s0)
    80001896:	00878713          	addi	a4,a5,8
    8000189a:	fae43423          	sd	a4,-88(s0)
    8000189e:	639c                	ld	a5,0(a5)
    800018a0:	fcf43823          	sd	a5,-48(s0)
    800018a4:	a03d                	j	800018d2 <kprintf+0x18e>
                } else {
                    /* Variadic arguments of type short/char
                     * are promoted to int, but we can cast later if needed. */
                    num = va_arg(vl, int);
    800018a6:	fa843783          	ld	a5,-88(s0)
    800018aa:	00878713          	addi	a4,a5,8
    800018ae:	fae43423          	sd	a4,-88(s0)
    800018b2:	439c                	lw	a5,0(a5)
    800018b4:	fcf43823          	sd	a5,-48(s0)
                    if (is_char) {
    800018b8:	fed44783          	lbu	a5,-19(s0)
    800018bc:	0ff7f793          	zext.b	a5,a5
    800018c0:	cb89                	beqz	a5,800018d2 <kprintf+0x18e>
                        /* For %hd, cast down to short (optional). */
                        num = (short)num;
    800018c2:	fd043783          	ld	a5,-48(s0)
    800018c6:	0107979b          	slliw	a5,a5,0x10
    800018ca:	4107d79b          	sraiw	a5,a5,0x10
    800018ce:	fcf43823          	sd	a5,-48(s0)
                    }
                }

                /* Handle negative sign if needed */
                if (num < 0) {
    800018d2:	fd043783          	ld	a5,-48(s0)
    800018d6:	0007dc63          	bgez	a5,800018ee <kprintf+0x1aa>
                    kputc('-');
    800018da:	02d00513          	li	a0,45
    800018de:	dbbff0ef          	jal	80001698 <kputc>
                    num = -num;
    800018e2:	fd043783          	ld	a5,-48(s0)
    800018e6:	40f007b3          	neg	a5,a5
    800018ea:	fcf43823          	sd	a5,-48(s0)
                }

                /* Convert number to decimal string (in reverse) */
                char buffer[32];
                int pos = 0;
    800018ee:	fc042623          	sw	zero,-52(s0)
                do {
                    buffer[pos++] = '0' + (num % 10);
    800018f2:	fd043703          	ld	a4,-48(s0)
    800018f6:	47a9                	li	a5,10
    800018f8:	02f767b3          	rem	a5,a4,a5
    800018fc:	0ff7f713          	zext.b	a4,a5
    80001900:	fcc42783          	lw	a5,-52(s0)
    80001904:	0017869b          	addiw	a3,a5,1
    80001908:	fcd42623          	sw	a3,-52(s0)
    8000190c:	0307071b          	addiw	a4,a4,48
    80001910:	0ff77713          	zext.b	a4,a4
    80001914:	17c1                	addi	a5,a5,-16
    80001916:	97a2                	add	a5,a5,s0
    80001918:	f8e78c23          	sb	a4,-104(a5)
                    num /= 10;
    8000191c:	fd043703          	ld	a4,-48(s0)
    80001920:	47a9                	li	a5,10
    80001922:	02f747b3          	div	a5,a4,a5
    80001926:	fcf43823          	sd	a5,-48(s0)
                } while (num > 0 && pos < (int)sizeof(buffer));
    8000192a:	fd043783          	ld	a5,-48(s0)
    8000192e:	02f05863          	blez	a5,8000195e <kprintf+0x21a>
    80001932:	fcc42783          	lw	a5,-52(s0)
    80001936:	0007871b          	sext.w	a4,a5
    8000193a:	47fd                	li	a5,31
    8000193c:	fae7dbe3          	bge	a5,a4,800018f2 <kprintf+0x1ae>

                /* Write out the digits in correct order */
                while (pos > 0) {
    80001940:	a839                	j	8000195e <kprintf+0x21a>
                    kputc(buffer[--pos]);
    80001942:	fcc42783          	lw	a5,-52(s0)
    80001946:	37fd                	addiw	a5,a5,-1
    80001948:	fcf42623          	sw	a5,-52(s0)
    8000194c:	fcc42783          	lw	a5,-52(s0)
    80001950:	17c1                	addi	a5,a5,-16
    80001952:	97a2                	add	a5,a5,s0
    80001954:	f987c783          	lbu	a5,-104(a5)
    80001958:	853e                	mv	a0,a5
    8000195a:	d3fff0ef          	jal	80001698 <kputc>
                while (pos > 0) {
    8000195e:	fcc42783          	lw	a5,-52(s0)
    80001962:	2781                	sext.w	a5,a5
    80001964:	fcf04fe3          	bgtz	a5,80001942 <kprintf+0x1fe>
                }
                break;
    80001968:	a075                	j	80001a14 <kprintf+0x2d0>
            }
            case 's':
                _kputs(va_arg(vl, const char *));
    8000196a:	fa843783          	ld	a5,-88(s0)
    8000196e:	00878713          	addi	a4,a5,8
    80001972:	fae43423          	sd	a4,-88(s0)
    80001976:	639c                	ld	a5,0(a5)
    80001978:	853e                	mv	a0,a5
    8000197a:	d5dff0ef          	jal	800016d6 <_kputs>
                break;
    8000197e:	a859                	j	80001a14 <kprintf+0x2d0>
            case 'c':
                kputc(va_arg(vl, int));
    80001980:	fa843783          	ld	a5,-88(s0)
    80001984:	00878713          	addi	a4,a5,8
    80001988:	fae43423          	sd	a4,-88(s0)
    8000198c:	439c                	lw	a5,0(a5)
    8000198e:	0ff7f793          	zext.b	a5,a5
    80001992:	853e                	mv	a0,a5
    80001994:	d05ff0ef          	jal	80001698 <kputc>
                break;
    80001998:	a8b5                	j	80001a14 <kprintf+0x2d0>
            case 'w': /* Force 32-bit hex output */
                unsigned int n = va_arg(vl, unsigned int);
    8000199a:	fa843783          	ld	a5,-88(s0)
    8000199e:	00878713          	addi	a4,a5,8
    800019a2:	fae43423          	sd	a4,-88(s0)
    800019a6:	439c                	lw	a5,0(a5)
    800019a8:	faf42a23          	sw	a5,-76(s0)
                /* We want exactly 32 bits (8 hex digits). Start at bit 28 (the top nibble). */
                for (int i = 28; i >= 0; i -= 4) {
    800019ac:	47f1                	li	a5,28
    800019ae:	fcf42423          	sw	a5,-56(s0)
    800019b2:	a899                	j	80001a08 <kprintf+0x2c4>
                    unsigned int d = (n >> i) & 0xF;
    800019b4:	fc842783          	lw	a5,-56(s0)
    800019b8:	fb442703          	lw	a4,-76(s0)
    800019bc:	00f757bb          	srlw	a5,a4,a5
    800019c0:	2781                	sext.w	a5,a5
    800019c2:	8bbd                	andi	a5,a5,15
    800019c4:	faf42823          	sw	a5,-80(s0)
                    kputc(d < 10 ? '0' + d : 'a' + d - 10);
    800019c8:	fb042783          	lw	a5,-80(s0)
    800019cc:	0007871b          	sext.w	a4,a5
    800019d0:	47a5                	li	a5,9
    800019d2:	00e7eb63          	bltu	a5,a4,800019e8 <kprintf+0x2a4>
    800019d6:	fb042783          	lw	a5,-80(s0)
    800019da:	0ff7f793          	zext.b	a5,a5
    800019de:	0307879b          	addiw	a5,a5,48
    800019e2:	0ff7f793          	zext.b	a5,a5
    800019e6:	a809                	j	800019f8 <kprintf+0x2b4>
    800019e8:	fb042783          	lw	a5,-80(s0)
    800019ec:	0ff7f793          	zext.b	a5,a5
    800019f0:	0577879b          	addiw	a5,a5,87
    800019f4:	0ff7f793          	zext.b	a5,a5
    800019f8:	853e                	mv	a0,a5
    800019fa:	c9fff0ef          	jal	80001698 <kputc>
                for (int i = 28; i >= 0; i -= 4) {
    800019fe:	fc842783          	lw	a5,-56(s0)
    80001a02:	37f1                	addiw	a5,a5,-4
    80001a04:	fcf42423          	sw	a5,-56(s0)
    80001a08:	fc842783          	lw	a5,-56(s0)
    80001a0c:	2781                	sext.w	a5,a5
    80001a0e:	fa07d3e3          	bgez	a5,800019b4 <kprintf+0x270>
                }
                break;
    80001a12:	0001                	nop
            }

            /* Reset state after handling a format specifier */
            is_format = false;
    80001a14:	fe0407a3          	sb	zero,-17(s0)
            is_long   = false;
    80001a18:	fe040723          	sb	zero,-18(s0)
            is_char   = false;
    80001a1c:	fe0406a3          	sb	zero,-19(s0)
    80001a20:	a015                	j	80001a44 <kprintf+0x300>
        } else if (c == '%') {
    80001a22:	fc744783          	lbu	a5,-57(s0)
    80001a26:	0ff7f713          	zext.b	a4,a5
    80001a2a:	02500793          	li	a5,37
    80001a2e:	00f71663          	bne	a4,a5,80001a3a <kprintf+0x2f6>
            /* Next character(s) will define a format specifier */
            is_format = true;
    80001a32:	4785                	li	a5,1
    80001a34:	fef407a3          	sb	a5,-17(s0)
    80001a38:	a031                	j	80001a44 <kprintf+0x300>
        } else {
            /* Normal character output */
            kputc(c);
    80001a3a:	fc744783          	lbu	a5,-57(s0)
    80001a3e:	853e                	mv	a0,a5
    80001a40:	c59ff0ef          	jal	80001698 <kputc>
    while ((c = *fmt++) != '\0') {
    80001a44:	f7843783          	ld	a5,-136(s0)
    80001a48:	00178713          	addi	a4,a5,1
    80001a4c:	f6e43c23          	sd	a4,-136(s0)
    80001a50:	0007c783          	lbu	a5,0(a5)
    80001a54:	fcf403a3          	sb	a5,-57(s0)
    80001a58:	fc744783          	lbu	a5,-57(s0)
    80001a5c:	0ff7f793          	zext.b	a5,a5
    80001a60:	d20792e3          	bnez	a5,80001784 <kprintf+0x40>
        }
    }

    va_end(vl);
}
    80001a64:	0001                	nop
    80001a66:	0001                	nop
    80001a68:	60aa                	ld	ra,136(sp)
    80001a6a:	640a                	ld	s0,128(sp)
    80001a6c:	6169                	addi	sp,sp,208
    80001a6e:	8082                	ret
	...

Disassembly of section .srodata:

0000000080001ab0 <uart>:

  #define _CONCAT3(A, B, C) A ## B ## C
  #define _UART_CTRL_ADDR(UART_NUM) _CONCAT3(UART, UART_NUM, _CTRL_ADDR)
  #define UART_CTRL_ADDR _UART_CTRL_ADDR(UART_NUM)
#endif
static volatile uint32_t * const uart = (void *)(UART_CTRL_ADDR);
    80001ab0:	0000                	unimp
    80001ab2:	6400                	ld	s0,8(s0)
    80001ab4:	0000                	unimp
	...

0000000080001ab8 <uart>:
    80001ab8:	0000                	unimp
    80001aba:	6400                	ld	s0,8(s0)
    80001abc:	0000                	unimp
	...

Disassembly of section .rodata:

0000000080001ac0 <sbox8>:
//use two S-boxes to save the shift operations during the permutation.
static const uint8_t lsbox[16] = {
	0x07, 0x04, 0x0A, 0x09, 0x01, 0x0F, 0x0B, 0x00, 0x0C, 0x03, 0x02, 0x06, 0x08, 0x0E, 0x0D, 0x05,
};*/

static const uint8_t sbox8[256] = {
    80001ac0:	797a7477          	.insn	4, 0x797a7477
    80001ac4:	7f71                	lui	t5,0xffffc
    80001ac6:	737c707b          	.insn	4, 0x737c707b
    80001aca:	7672                	ld	a2,312(sp)
    80001acc:	7e78                	ld	a4,248(a2)
    80001ace:	757d                	lui	a0,0xfffff
    80001ad0:	494a4447          	fmsub.s	fs0,fs4,fs4,fs1,rmm
    80001ad4:	4f41                	li	t5,16
    80001ad6:	434c404b          	fnmsub.d	ft0,fs8,fs4,fs0,rmm
    80001ada:	4642                	lw	a2,16(sp)
    80001adc:	4e48                	lw	a0,28(a2)
    80001ade:	454d                	li	a0,19
    80001ae0:	a9aaa4a7          	fsw	fs10,-1399(s5)
    80001ae4:	afa1                	j	8000223c <multiply2+0x67c>
    80001ae6:	a3aca0ab          	.insn	4, 0xa3aca0ab
    80001aea:	a6a2                	fsd	fs0,328(sp)
    80001aec:	aea8                	fsd	fa0,88(a3)
    80001aee:	a5ad                	j	80002158 <multiply2+0x598>
    80001af0:	999a9497          	auipc	s1,0x999a9
    80001af4:	9f91                	subw	a5,a5,a2
    80001af6:	939c909b          	.insn	4, 0x939c909b
    80001afa:	9692                	add	a3,a3,tp
    80001afc:	9e98                	.insn	2, 0x9e98
    80001afe:	959d                	srai	a1,a1,0x27
    80001b00:	191a1417          	auipc	s0,0x191a1
    80001b04:	1f11                	addi	t5,t5,-28 # ffffffffffffbfe4 <multiply2+0xffffffff7fffa424>
    80001b06:	131c101b          	.insn	4, 0x131c101b
    80001b0a:	1612                	slli	a2,a2,0x24
    80001b0c:	1e18                	addi	a4,sp,816
    80001b0e:	151d                	addi	a0,a0,-25 # ffffffffffffefe7 <multiply2+0xffffffff7fffd427>
    80001b10:	f9faf4f7          	.insn	4, 0xf9faf4f7
    80001b14:	fff1                	bnez	a5,80001af0 <sbox8+0x30>
    80001b16:	f3fcf0fb          	.insn	4, 0xf3fcf0fb
    80001b1a:	f6f2                	sd	t3,360(sp)
    80001b1c:	fef8                	sd	a4,248(a3)
    80001b1e:	f5fd                	bnez	a1,80001b0c <sbox8+0x4c>
    80001b20:	b9bab4b7          	lui	s1,0xb9bab
    80001b24:	bfb1                	j	80001a80 <kprintf+0x33c>
    80001b26:	b3bcb0bb          	.insn	4, 0xb3bcb0bb
    80001b2a:	b6b2                	fsd	fa2,360(sp)
    80001b2c:	beb8                	fsd	fa4,120(a3)
    80001b2e:	b5bd                	j	8000199c <kprintf+0x258>
    80001b30:	090a0407          	.insn	4, 0x090a0407
    80001b34:	0f01                	addi	t5,t5,0
    80001b36:	030c000b          	.insn	4, 0x030c000b
    80001b3a:	0602                	c.slli64	a2
    80001b3c:	0e08                	addi	a0,sp,784
    80001b3e:	050d                	addi	a0,a0,3
    80001b40:	c9cac4c7          	fmsub.s	fs1,fs5,ft8,fs9,rmm
    80001b44:	cfc1                	beqz	a5,80001bdc <multiply2+0x1c>
    80001b46:	c3ccc0cb          	fnmsub.d	ft1,fs9,ft8,fs8,rmm
    80001b4a:	c6c2                	sw	a6,76(sp)
    80001b4c:	cec8                	sw	a0,28(a3)
    80001b4e:	c5cd                	beqz	a1,80001bf8 <multiply2+0x38>
    80001b50:	393a3437          	lui	s0,0x393a3
    80001b54:	3f31                	addiw	t5,t5,-20
    80001b56:	333c303b          	.insn	4, 0x333c303b
    80001b5a:	3632                	fld	fa2,296(sp)
    80001b5c:	3e38                	fld	fa4,120(a2)
    80001b5e:	353d                	addiw	a0,a0,-17
    80001b60:	292a2427          	fsw	fs2,648(s4)
    80001b64:	2f21                	addiw	t5,t5,8
    80001b66:	232c202b          	.insn	4, 0x232c202b
    80001b6a:	2622                	fld	fa2,8(sp)
    80001b6c:	2e28                	fld	fa0,88(a2)
    80001b6e:	252d                	addiw	a0,a0,11
    80001b70:	696a6467          	.insn	4, 0x696a6467
    80001b74:	6f61                	lui	t5,0x18
    80001b76:	636c606b          	.insn	4, 0x636c606b
    80001b7a:	6662                	ld	a2,24(sp)
    80001b7c:	6e68                	ld	a0,216(a2)
    80001b7e:	656d                	lui	a0,0x1b
    80001b80:	898a8487          	.insn	4, 0x898a8487
    80001b84:	8f81                	sub	a5,a5,s0
    80001b86:	838c808b          	.insn	4, 0x838c808b
    80001b8a:	8682                	jr	a3
    80001b8c:	8e88                	.insn	2, 0x8e88
    80001b8e:	858d                	srai	a1,a1,0x3
    80001b90:	e9eae4e7          	.insn	4, 0xe9eae4e7
    80001b94:	efe1                	bnez	a5,80001c6c <multiply2+0xac>
    80001b96:	e3ece0eb          	.insn	4, 0xe3ece0eb
    80001b9a:	e6e2                	sd	s8,328(sp)
    80001b9c:	eee8                	sd	a0,216(a3)
    80001b9e:	e5ed                	bnez	a1,80001c88 <multiply2+0xc8>
    80001ba0:	d9dad4d7          	.insn	4, 0xd9dad4d7
    80001ba4:	dfd1                	beqz	a5,80001b40 <sbox8+0x80>
    80001ba6:	d3dcd0db          	.insn	4, 0xd3dcd0db
    80001baa:	d6d2                	sw	s4,108(sp)
    80001bac:	ded8                	sw	a4,60(a3)
    80001bae:	d5dd                	beqz	a1,80001b5c <sbox8+0x9c>
    80001bb0:	595a5457          	.insn	4, 0x595a5457
    80001bb4:	5f51                	li	t5,-12
    80001bb6:	535c505b          	.insn	4, 0x535c505b
    80001bba:	5652                	lw	a2,52(sp)
    80001bbc:	5e58                	lw	a4,60(a2)
    80001bbe:	555d                	li	a0,-9

0000000080001bc0 <multiply2>:
		0x57, 0x54, 0x5A, 0x59, 0x51, 0x5F, 0x5B, 0x50, 0x5C, 0x53, 0x52, 0x56, 0x58, 0x5E, 0x5D, 0x55,
};

//Tables for the MixNibbles step
//Look-up table for 2 * x
static const uint8_t multiply2[256] = {
    80001bc0:	0200                	addi	s0,sp,256
    80001bc2:	0604                	addi	s1,sp,768
    80001bc4:	0a08                	addi	a0,sp,272
    80001bc6:	0e0c                	addi	a1,sp,784
    80001bc8:	1210                	addi	a2,sp,288
    80001bca:	1614                	addi	a3,sp,800
    80001bcc:	1a18                	addi	a4,sp,304
    80001bce:	1e1c                	addi	a5,sp,816
    80001bd0:	2220                	fld	fs0,64(a2)
    80001bd2:	2624                	fld	fs1,72(a2)
    80001bd4:	2a28                	fld	fa0,80(a2)
    80001bd6:	2e2c                	fld	fa1,88(a2)
    80001bd8:	3230                	fld	fa2,96(a2)
    80001bda:	3634                	fld	fa3,104(a2)
    80001bdc:	3a38                	fld	fa4,112(a2)
    80001bde:	3e3c                	fld	fa5,120(a2)
    80001be0:	4240                	lw	s0,4(a2)
    80001be2:	4644                	lw	s1,12(a2)
    80001be4:	4a48                	lw	a0,20(a2)
    80001be6:	4e4c                	lw	a1,28(a2)
    80001be8:	5250                	lw	a2,36(a2)
    80001bea:	5654                	lw	a3,44(a2)
    80001bec:	5a58                	lw	a4,52(a2)
    80001bee:	5e5c                	lw	a5,60(a2)
    80001bf0:	6260                	ld	s0,192(a2)
    80001bf2:	6664                	ld	s1,200(a2)
    80001bf4:	6a68                	ld	a0,208(a2)
    80001bf6:	6e6c                	ld	a1,216(a2)
    80001bf8:	7270                	ld	a2,224(a2)
    80001bfa:	7674                	ld	a3,232(a2)
    80001bfc:	7a78                	ld	a4,240(a2)
    80001bfe:	7e7c                	ld	a5,248(a2)
    80001c00:	8280                	.insn	2, 0x8280
    80001c02:	8684                	.insn	2, 0x8684
    80001c04:	8a88                	.insn	2, 0x8a88
    80001c06:	8e8c                	.insn	2, 0x8e8c
    80001c08:	9290                	.insn	2, 0x9290
    80001c0a:	9694                	.insn	2, 0x9694
    80001c0c:	9a98                	.insn	2, 0x9a98
    80001c0e:	9e9c                	.insn	2, 0x9e9c
    80001c10:	a2a0                	fsd	fs0,64(a3)
    80001c12:	a6a4                	fsd	fs1,72(a3)
    80001c14:	aaa8                	fsd	fa0,80(a3)
    80001c16:	aeac                	fsd	fa1,88(a3)
    80001c18:	b2b0                	fsd	fa2,96(a3)
    80001c1a:	b6b4                	fsd	fa3,104(a3)
    80001c1c:	bab8                	fsd	fa4,112(a3)
    80001c1e:	bebc                	fsd	fa5,120(a3)
    80001c20:	c2c0                	sw	s0,4(a3)
    80001c22:	c6c4                	sw	s1,12(a3)
    80001c24:	cac8                	sw	a0,20(a3)
    80001c26:	cecc                	sw	a1,28(a3)
    80001c28:	d2d0                	sw	a2,36(a3)
    80001c2a:	d6d4                	sw	a3,44(a3)
    80001c2c:	dad8                	sw	a4,52(a3)
    80001c2e:	dedc                	sw	a5,60(a3)
    80001c30:	e2e0                	sd	s0,192(a3)
    80001c32:	e6e4                	sd	s1,200(a3)
    80001c34:	eae8                	sd	a0,208(a3)
    80001c36:	eeec                	sd	a1,216(a3)
    80001c38:	f2f0                	sd	a2,224(a3)
    80001c3a:	f6f4                	sd	a3,232(a3)
    80001c3c:	faf8                	sd	a4,240(a3)
    80001c3e:	fefc                	sd	a5,248(a3)
    80001c40:	1d1f191b          	.insn	4, 0x1d1f191b
    80001c44:	15171113          	.insn	4, 0x15171113
    80001c48:	0d0f090b          	.insn	4, 0x0d0f090b
    80001c4c:	05070103          	lb	sp,80(a4)
    80001c50:	3d3f393b          	.insn	4, 0x3d3f393b
    80001c54:	35373133          	.insn	4, 0x35373133
    80001c58:	2d2f292b          	.insn	4, 0x2d2f292b
    80001c5c:	25272123          	sw	s2,578(a4)
    80001c60:	5d5f595b          	.insn	4, 0x5d5f595b
    80001c64:	55575153          	.insn	4, 0x55575153
    80001c68:	4d4f494b          	.insn	4, 0x4d4f494b
    80001c6c:	45474143          	.insn	4, 0x45474143
    80001c70:	7d7f797b          	.insn	4, 0x7d7f797b
    80001c74:	75777173          	csrrci	sp,0x757,14
    80001c78:	6d6f696b          	.insn	4, 0x6d6f696b
    80001c7c:	65676163          	bltu	a4,s6,800022be <multiply2+0x6fe>
    80001c80:	9d9f999b          	.insn	4, 0x9d9f999b
    80001c84:	95979193          	.insn	4, 0x95979193
    80001c88:	8d8f898b          	.insn	4, 0x8d8f898b
    80001c8c:	85878183          	lb	gp,-1960(a5)
    80001c90:	bdbfb9bb          	.insn	4, 0xbdbfb9bb
    80001c94:	b5b7b1b3          	.insn	4, 0xb5b7b1b3
    80001c98:	adafa9ab          	.insn	4, 0xadafa9ab
    80001c9c:	a5a7a1a3          	sw	s10,-1469(a5)
    80001ca0:	dddfd9db          	.insn	4, 0xdddfd9db
    80001ca4:	d5d7d1d3          	.insn	4, 0xd5d7d1d3
    80001ca8:	cdcfc9cb          	.insn	4, 0xcdcfc9cb
    80001cac:	c5c7c1c3          	.insn	4, 0xc5c7c1c3
    80001cb0:	fdfff9fb          	.insn	4, 0xfdfff9fb
    80001cb4:	f5f7f1f3          	csrrci	gp,0xf5f,15
    80001cb8:	edefe9eb          	.insn	4, 0xedefe9eb
    80001cbc:	e5e7e1e3          	bltu	a5,t5,80001afe <sbox8+0x3e>
    80001cc0:	230d                	addiw	t1,t1,3
    80001cc2:	4b20                	lw	s0,80(a4)
    80001cc4:	454c                	lw	a1,12(a0)
    80001cc6:	4e49                	li	t3,18
    80001cc8:	362d                	addiw	a2,a2,-21
    80001cca:	2034                	fld	fa3,64(s0)
    80001ccc:	202d                	.insn	2, 0x202d
    80001cce:	68706943          	fmadd.s	fs2,ft0,ft7,fa3,unknown
    80001cd2:	7265                	lui	tp,0xffff9
    80001cd4:	6120                	ld	s0,64(a0)
    80001cd6:	646e                	ld	s0,216(sp)
    80001cd8:	4420                	lw	s0,72(s0)
    80001cda:	6365                	lui	t1,0x19
    80001cdc:	7069                	c.lui	zero,0xffffa
    80001cde:	6568                	ld	a0,200(a0)
    80001ce0:	2072                	fld	ft0,280(sp)
    80001ce2:	3d3d                	addiw	s10,s10,-17
    80001ce4:	3d3d                	addiw	s10,s10,-17
    80001ce6:	3d3d                	addiw	s10,s10,-17
    80001ce8:	3d3d                	addiw	s10,s10,-17
    80001cea:	3d3d                	addiw	s10,s10,-17
    80001cec:	3d3d                	addiw	s10,s10,-17
    80001cee:	3d3d                	addiw	s10,s10,-17
    80001cf0:	3d3d                	addiw	s10,s10,-17
    80001cf2:	3d3d                	addiw	s10,s10,-17
    80001cf4:	3d3d                	addiw	s10,s10,-17
    80001cf6:	3d3d                	addiw	s10,s10,-17
    80001cf8:	3d3d                	addiw	s10,s10,-17
    80001cfa:	3d3d                	addiw	s10,s10,-17
    80001cfc:	3d3d                	addiw	s10,s10,-17
    80001cfe:	3d3d                	addiw	s10,s10,-17
    80001d00:	3d3d                	addiw	s10,s10,-17
    80001d02:	3d3d                	addiw	s10,s10,-17
    80001d04:	3d3d                	addiw	s10,s10,-17
    80001d06:	3d3d                	addiw	s10,s10,-17
    80001d08:	3d3d                	addiw	s10,s10,-17
    80001d0a:	3d3d                	addiw	s10,s10,-17
    80001d0c:	3d3d                	addiw	s10,s10,-17
    80001d0e:	0a0d                	addi	s4,s4,3
	...
    80001d18:	420d                	li	tp,3
    80001d1a:	6f6c                	ld	a1,216(a4)
    80001d1c:	203a6b63          	bltu	s4,gp,80001f32 <multiply2+0x372>
    80001d20:	2020                	fld	fs0,64(s0)
    80001d22:	6420                	ld	s0,72(s0)
    80001d24:	6165                	addi	sp,sp,112
    80001d26:	6264                	ld	s1,192(a2)
    80001d28:	6565                	lui	a0,0x19
    80001d2a:	6666                	ld	a2,88(sp)
    80001d2c:	3030                	fld	fa2,96(s0)
    80001d2e:	3030                	fld	fa2,96(s0)
    80001d30:	3030                	fld	fa2,96(s0)
    80001d32:	0d66                	slli	s10,s10,0x19
    80001d34:	000a                	c.slli	zero,0x2
    80001d36:	0000                	unimp
    80001d38:	4b0d                	li	s6,3
    80001d3a:	7965                	lui	s2,0xffff9
    80001d3c:	203a                	fld	ft0,392(sp)
    80001d3e:	2020                	fld	fs0,64(s0)
    80001d40:	2020                	fld	fs0,64(s0)
    80001d42:	3120                	fld	fs0,96(a0)
    80001d44:	3332                	fld	ft6,296(sp)
    80001d46:	3534                	fld	fa3,104(a0)
    80001d48:	3736                	fld	fa4,360(sp)
    80001d4a:	3938                	fld	fa4,112(a0)
    80001d4c:	6130                	ld	a2,64(a0)
    80001d4e:	6362                	ld	t1,24(sp)
    80001d50:	6564                	ld	s1,200(a0)
    80001d52:	0d66                	slli	s10,s10,0x19
    80001d54:	000a                	c.slli	zero,0x2
    80001d56:	0000                	unimp
    80001d58:	430d                	li	t1,3
    80001d5a:	7069                	c.lui	zero,0xffffa
    80001d5c:	6568                	ld	a0,200(a0)
    80001d5e:	3a72                	fld	fs4,312(sp)
    80001d60:	2020                	fld	fs0,64(s0)
    80001d62:	2520                	fld	fs0,72(a0)
    80001d64:	0d772577          	.insn	4, 0x0d772577
    80001d68:	000a                	c.slli	zero,0x2
    80001d6a:	0000                	unimp
    80001d6c:	0000                	unimp
    80001d6e:	0000                	unimp
    80001d70:	440d                	li	s0,3
    80001d72:	6365                	lui	t1,0x19
    80001d74:	7069                	c.lui	zero,0xffffa
    80001d76:	6568                	ld	a0,200(a0)
    80001d78:	3a72                	fld	fs4,312(sp)
    80001d7a:	2520                	fld	fs0,72(a0)
    80001d7c:	0d772577          	.insn	4, 0x0d772577
    80001d80:	0d0a                	slli	s10,s10,0x2
    80001d82:	000a                	c.slli	zero,0x2
    80001d84:	0000                	unimp
    80001d86:	0000                	unimp
    80001d88:	0a0d                	addi	s4,s4,3
    80001d8a:	4c452023          	sw	tp,1216(a0) # 194c0 <_prog_start-0x7ffe6b40>
    80001d8e:	5041                	c.li	zero,-16
    80001d90:	20444553          	.insn	4, 0x20444553
    80001d94:	202d                	.insn	2, 0x202d
    80001d96:	49454c4b          	fnmsub.s	fs8,fa0,fs4,fs1,rmm
    80001d9a:	2d4e                	fld	fs10,208(sp)
    80001d9c:	3436                	fld	fs0,360(sp)
    80001d9e:	4320                	lw	s0,64(a4)
    80001da0:	7069                	c.lui	zero,0xffffa
    80001da2:	6568                	ld	a0,200(a0)
    80001da4:	2072                	fld	ft0,280(sp)
    80001da6:	6e45                	lui	t3,0x11
    80001da8:	70797263          	bgeu	s2,t2,800024ac <multiply2+0x8ec>
    80001dac:	6974                	ld	a3,208(a0)
    80001dae:	3d206e6f          	jal	t3,80008180 <multiply2+0x65c0>
    80001db2:	3d3d                	addiw	s10,s10,-17
    80001db4:	3d3d                	addiw	s10,s10,-17
    80001db6:	3d3d                	addiw	s10,s10,-17
    80001db8:	3d3d                	addiw	s10,s10,-17
    80001dba:	3d3d                	addiw	s10,s10,-17
    80001dbc:	3d3d                	addiw	s10,s10,-17
    80001dbe:	3d3d                	addiw	s10,s10,-17
    80001dc0:	3d3d                	addiw	s10,s10,-17
    80001dc2:	3d3d                	addiw	s10,s10,-17
    80001dc4:	3d3d                	addiw	s10,s10,-17
    80001dc6:	0d3d                	addi	s10,s10,15
    80001dc8:	000a                	c.slli	zero,0x2
    80001dca:	0000                	unimp
    80001dcc:	0000                	unimp
    80001dce:	0000                	unimp
    80001dd0:	6c45                	lui	s8,0x11
    80001dd2:	7061                	c.lui	zero,0xffff8
    80001dd4:	20646573          	csrrsi	a0,0x206,8
    80001dd8:	6c637963          	bgeu	t1,t1,800024aa <multiply2+0x8ea>
    80001ddc:	7365                	lui	t1,0xffff9
    80001dde:	203a                	fld	ft0,392(sp)
    80001de0:	6425                	lui	s0,0x9
    80001de2:	0a0d                	addi	s4,s4,3
    80001de4:	0000                	unimp
    80001de6:	0000                	unimp
    80001de8:	68706943          	fmadd.s	fs2,ft0,ft7,fa3,unknown
    80001dec:	7265                	lui	tp,0xffff9
    80001dee:	7420                	ld	s0,104(s0)
    80001df0:	7865                	lui	a6,0xffff9
    80001df2:	3a74                	fld	fa3,240(a2)
    80001df4:	2020                	fld	fs0,64(s0)
    80001df6:	2020                	fld	fs0,64(s0)
    80001df8:	7725                	lui	a4,0xfffe9
    80001dfa:	7725                	lui	a4,0xfffe9
    80001dfc:	0a0d                	addi	s4,s4,3
    80001dfe:	0000                	unimp
    80001e00:	0a0d                	addi	s4,s4,3
    80001e02:	4c452023          	sw	tp,1216(a0)
    80001e06:	5041                	c.li	zero,-16
    80001e08:	20444553          	.insn	4, 0x20444553
    80001e0c:	202d                	.insn	2, 0x202d
    80001e0e:	49454c4b          	fnmsub.s	fs8,fa0,fs4,fs1,rmm
    80001e12:	2d4e                	fld	fs10,208(sp)
    80001e14:	3436                	fld	fs0,360(sp)
    80001e16:	4320                	lw	s0,64(a4)
    80001e18:	7069                	c.lui	zero,0xffffa
    80001e1a:	6568                	ld	a0,200(a0)
    80001e1c:	2072                	fld	ft0,280(sp)
    80001e1e:	6544                	ld	s1,136(a0)
    80001e20:	70797263          	bgeu	s2,t2,80002524 <multiply2+0x964>
    80001e24:	6974                	ld	a3,208(a0)
    80001e26:	3d206e6f          	jal	t3,800081f8 <multiply2+0x6638>
    80001e2a:	3d3d                	addiw	s10,s10,-17
    80001e2c:	3d3d                	addiw	s10,s10,-17
    80001e2e:	3d3d                	addiw	s10,s10,-17
    80001e30:	3d3d                	addiw	s10,s10,-17
    80001e32:	3d3d                	addiw	s10,s10,-17
    80001e34:	3d3d                	addiw	s10,s10,-17
    80001e36:	3d3d                	addiw	s10,s10,-17
    80001e38:	3d3d                	addiw	s10,s10,-17
    80001e3a:	3d3d                	addiw	s10,s10,-17
    80001e3c:	3d3d                	addiw	s10,s10,-17
    80001e3e:	0d3d                	addi	s10,s10,15
    80001e40:	000a                	c.slli	zero,0x2
    80001e42:	0000                	unimp
    80001e44:	0000                	unimp
    80001e46:	0000                	unimp
    80001e48:	6544                	ld	s1,136(a0)
    80001e4a:	68706963          	bltu	zero,t2,800024dc <multiply2+0x91c>
    80001e4e:	7265                	lui	tp,0xffff9
    80001e50:	7420                	ld	s0,104(s0)
    80001e52:	7865                	lui	a6,0xffff9
    80001e54:	3a74                	fld	fa3,240(a2)
    80001e56:	2020                	fld	fs0,64(s0)
    80001e58:	7725                	lui	a4,0xfffe9
    80001e5a:	7725                	lui	a4,0xfffe9
    80001e5c:	0a0d                	addi	s4,s4,3
    80001e5e:	0000                	unimp
    80001e60:	0a0d                	addi	s4,s4,3
    80001e62:	4c452023          	sw	tp,1216(a0)
    80001e66:	5041                	c.li	zero,-16
    80001e68:	20444553          	.insn	4, 0x20444553
    80001e6c:	202d                	.insn	2, 0x202d
    80001e6e:	49454c4b          	fnmsub.s	fs8,fa0,fs4,fs1,rmm
    80001e72:	2d4e                	fld	fs10,208(sp)
    80001e74:	3436                	fld	fs0,360(sp)
    80001e76:	5320                	lw	s0,96(a4)
    80001e78:	7774666f          	jal	a2,80048dee <multiply2+0x4722e>
    80001e7c:	7261                	lui	tp,0xffff8
    80001e7e:	2065                	.insn	2, 0x2065
    80001e80:	3d3d                	addiw	s10,s10,-17
    80001e82:	3d3d                	addiw	s10,s10,-17
    80001e84:	3d3d                	addiw	s10,s10,-17
    80001e86:	3d3d                	addiw	s10,s10,-17
    80001e88:	3d3d                	addiw	s10,s10,-17
    80001e8a:	3d3d                	addiw	s10,s10,-17
    80001e8c:	3d3d                	addiw	s10,s10,-17
    80001e8e:	3d3d                	addiw	s10,s10,-17
    80001e90:	3d3d                	addiw	s10,s10,-17
    80001e92:	3d3d                	addiw	s10,s10,-17
    80001e94:	3d3d                	addiw	s10,s10,-17
    80001e96:	3d3d                	addiw	s10,s10,-17
    80001e98:	3d3d                	addiw	s10,s10,-17
    80001e9a:	3d3d                	addiw	s10,s10,-17
    80001e9c:	3d3d                	addiw	s10,s10,-17
    80001e9e:	0d3d                	addi	s10,s10,15
    80001ea0:	000a                	c.slli	zero,0x2
    80001ea2:	0000                	unimp
    80001ea4:	0000                	unimp
    80001ea6:	0000                	unimp
    80001ea8:	6e45                	lui	t3,0x11
    80001eaa:	70797263          	bgeu	s2,t2,800025ae <multiply2+0x9ee>
    80001eae:	6974                	ld	a3,208(a0)
    80001eb0:	43206e6f          	jal	t3,800082e2 <multiply2+0x6722>
    80001eb4:	6379                	lui	t1,0x1e
    80001eb6:	656c                	ld	a1,200(a0)
    80001eb8:	25203a73          	csrrc	s4,0x252,zero
    80001ebc:	0d64                	addi	s1,sp,668
    80001ebe:	000a                	c.slli	zero,0x2
    80001ec0:	68706943          	fmadd.s	fs2,ft0,ft7,fa3,unknown
    80001ec4:	7265                	lui	tp,0xffff9
    80001ec6:	7420                	ld	s0,104(s0)
    80001ec8:	7865                	lui	a6,0xffff9
    80001eca:	3a74                	fld	fa3,240(a2)
    80001ecc:	2020                	fld	fs0,64(s0)
    80001ece:	2020                	fld	fs0,64(s0)
    80001ed0:	2020                	fld	fs0,64(s0)
    80001ed2:	0020                	addi	s0,sp,8
    80001ed4:	0000                	unimp
    80001ed6:	0000                	unimp
    80001ed8:	6825                	lui	a6,0x9
    80001eda:	0078                	addi	a4,sp,12
    80001edc:	0000                	unimp
    80001ede:	0000                	unimp
    80001ee0:	0a0d                	addi	s4,s4,3
    80001ee2:	6544                	ld	s1,136(a0)
    80001ee4:	70797263          	bgeu	s2,t2,800025e8 <multiply2+0xa28>
    80001ee8:	6974                	ld	a3,208(a0)
    80001eea:	43206e6f          	jal	t3,8000831c <multiply2+0x675c>
    80001eee:	6379                	lui	t1,0x1e
    80001ef0:	656c                	ld	a1,200(a0)
    80001ef2:	25203a73          	csrrc	s4,0x252,zero
    80001ef6:	0d64                	addi	s1,sp,668
    80001ef8:	000a                	c.slli	zero,0x2
    80001efa:	0000                	unimp
    80001efc:	0000                	unimp
    80001efe:	0000                	unimp
    80001f00:	6544                	ld	s1,136(a0)
    80001f02:	70797263          	bgeu	s2,t2,80002606 <multiply2+0xa46>
    80001f06:	6574                	ld	a3,200(a0)
    80001f08:	2064                	fld	fs1,192(s0)
    80001f0a:	6574                	ld	a3,200(a0)
    80001f0c:	7478                	ld	a4,232(s0)
    80001f0e:	203a                	fld	ft0,392(sp)
    80001f10:	2020                	fld	fs0,64(s0)
    80001f12:	0020                	addi	s0,sp,8
    80001f14:	0000                	unimp
    80001f16:	0000                	unimp
    80001f18:	0a0d                	addi	s4,s4,3
    80001f1a:	0a0d                	addi	s4,s4,3
    80001f1c:	0000                	unimp
    80001f1e:	0000                	unimp
    80001f20:	3412                	fld	fs0,288(sp)
    80001f22:	7856                	ld	a6,368(sp)
    80001f24:	ab90                	fsd	fa2,16(a5)
    80001f26:	efcd                	bnez	a5,80001fe0 <multiply2+0x420>
    80001f28:	adde                	fsd	fs7,216(sp)
    80001f2a:	efbe                	sd	a5,472(sp)
    80001f2c:	00f0                	addi	a2,sp,76
    80001f2e:	0f00                	addi	s0,sp,912
    80001f30:	fa50                	sd	a2,176(a2)
    80001f32:	ffff                	.insn	2, 0xffff
    80001f34:	f958                	sd	a4,176(a0)
    80001f36:	ffff                	.insn	2, 0xffff
    80001f38:	fae4                	sd	s1,240(a3)
    80001f3a:	ffff                	.insn	2, 0xffff
    80001f3c:	fae4                	sd	s1,240(a3)
    80001f3e:	ffff                	.insn	2, 0xffff
    80001f40:	fae4                	sd	s1,240(a3)
    80001f42:	ffff                	.insn	2, 0xffff
    80001f44:	f8a2                	sd	s0,112(sp)
    80001f46:	ffff                	.insn	2, 0xffff
    80001f48:	fae4                	sd	s1,240(a3)
    80001f4a:	ffff                	.insn	2, 0xffff
    80001f4c:	fae4                	sd	s1,240(a3)
    80001f4e:	ffff                	.insn	2, 0xffff
    80001f50:	fae4                	sd	s1,240(a3)
    80001f52:	ffff                	.insn	2, 0xffff
    80001f54:	f89a                	sd	t1,112(sp)
    80001f56:	ffff                	.insn	2, 0xffff
    80001f58:	fae4                	sd	s1,240(a3)
    80001f5a:	ffff                	.insn	2, 0xffff
    80001f5c:	fae4                	sd	s1,240(a3)
    80001f5e:	ffff                	.insn	2, 0xffff
    80001f60:	fae4                	sd	s1,240(a3)
    80001f62:	ffff                	.insn	2, 0xffff
    80001f64:	fae4                	sd	s1,240(a3)
    80001f66:	ffff                	.insn	2, 0xffff
    80001f68:	fae4                	sd	s1,240(a3)
    80001f6a:	ffff                	.insn	2, 0xffff
    80001f6c:	fae4                	sd	s1,240(a3)
    80001f6e:	ffff                	.insn	2, 0xffff
    80001f70:	fa3a                	sd	a4,304(sp)
    80001f72:	ffff                	.insn	2, 0xffff
    80001f74:	fae4                	sd	s1,240(a3)
    80001f76:	ffff                	.insn	2, 0xffff
    80001f78:	fae4                	sd	s1,240(a3)
    80001f7a:	ffff                	.insn	2, 0xffff
    80001f7c:	fae4                	sd	s1,240(a3)
    80001f7e:	ffff                	.insn	2, 0xffff
    80001f80:	fa6a                	sd	s10,304(sp)
    80001f82:	ffff                	.insn	2, 0xffff
    80001f84:	f8aa                	sd	a0,112(sp)
    80001f86:	ffff                	.insn	2, 0xffff

Disassembly of section .riscv.attributes:

0000000000000000 <.riscv.attributes>:
   0:	5641                	li	a2,-16
   2:	0000                	unimp
   4:	7200                	ld	s0,32(a2)
   6:	7369                	lui	t1,0xffffa
   8:	01007663          	bgeu	zero,a6,14 <_prog_start-0x7fffffec>
   c:	004c                	addi	a1,sp,4
   e:	0000                	unimp
  10:	1004                	addi	s1,sp,32
  12:	7205                	lui	tp,0xfffe1
  14:	3676                	fld	fa2,376(sp)
  16:	6934                	ld	a3,80(a0)
  18:	7032                	.insn	2, 0x7032
  1a:	5f31                	li	t5,-20
  1c:	326d                	addiw	tp,tp,-5 # fffffffffffe0ffb <multiply2+0xffffffff7ffdf43b>
  1e:	3070                	fld	fa2,224(s0)
  20:	615f 7032 5f31      	.insn	6, 0x5f317032615f
  26:	3266                	fld	ft4,120(sp)
  28:	3270                	fld	fa2,224(a2)
  2a:	645f 7032 5f32      	.insn	6, 0x5f327032645f
  30:	30703263          	.insn	4, 0x30703263
  34:	7a5f 6369 7273      	.insn	6, 0x727363697a5f
  3a:	7032                	.insn	2, 0x7032
  3c:	5f30                	lw	a2,120(a4)
  3e:	697a                	ld	s2,408(sp)
  40:	6566                	ld	a0,88(sp)
  42:	636e                	ld	t1,216(sp)
  44:	6965                	lui	s2,0x19
  46:	7032                	.insn	2, 0x7032
  48:	5f30                	lw	a2,120(a4)
  4a:	6d7a                	ld	s10,408(sp)
  4c:	756d                	lui	a0,0xffffb
  4e:	316c                	fld	fa1,224(a0)
  50:	3070                	fld	fa2,224(s0)
  52:	0800                	addi	s0,sp,16
  54:	0a01                	addi	s4,s4,0
  56:	Address 0x56 is out of bounds.


Disassembly of section .comment:

0000000000000000 <.comment>:
   0:	3a434347          	fmsub.d	ft6,ft6,ft4,ft7,rmm
   4:	2820                	fld	fs0,80(s0)
   6:	39386367          	.insn	4, 0x39386367
   a:	6431                	lui	s0,0xc
   c:	6438                	ld	a4,72(s0)
   e:	65333263          	.insn	4, 0x65333263
  12:	2029                	.insn	2, 0x2029
  14:	3331                	addiw	t1,t1,-20 # ffffffffffff9fec <multiply2+0xffffffff7fff842c>
  16:	322e                	fld	ft4,232(sp)
  18:	302e                	fld	ft0,232(sp)
	...

Disassembly of section .debug_line:

0000000000000000 <.debug_line>:
       0:	0070                	addi	a2,sp,12
       2:	0000                	unimp
       4:	0005                	c.nop	1
       6:	0008                	.insn	2, 0x0008
       8:	002a                	c.slli	zero,0xa
       a:	0000                	unimp
       c:	0101                	addi	sp,sp,0
       e:	fb01                	bnez	a4,ffffffffffffff1e <multiply2+0xffffffff7fffe35e>
      10:	0d0e                	slli	s10,s10,0x3
      12:	0100                	addi	s0,sp,128
      14:	0101                	addi	sp,sp,0
      16:	0001                	nop
      18:	0000                	unimp
      1a:	0001                	nop
      1c:	0100                	addi	s0,sp,128
      1e:	0101                	addi	sp,sp,0
      20:	011f 0000 0000      	.insn	6, 0x011f
      26:	0102                	c.slli64	sp
      28:	021f 020f 002d      	.insn	6, 0x002d020f021f
      2e:	0000                	unimp
      30:	2d00                	fld	fs0,24(a0)
      32:	0000                	unimp
      34:	0000                	unimp
      36:	0900                	addi	s0,sp,144
      38:	0002                	c.slli64	zero
      3a:	0000                	unimp
      3c:	0080                	addi	s0,sp,64
      3e:	0000                	unimp
      40:	0300                	addi	s0,sp,384
      42:	0109                	addi	sp,sp,2
      44:	04090103          	lb	sp,64(s2) # 19040 <_prog_start-0x7ffe6fc0>
      48:	0100                	addi	s0,sp,128
      4a:	04090103          	lb	sp,64(s2)
      4e:	0100                	addi	s0,sp,128
      50:	04090203          	lb	tp,64(s2)
      54:	0100                	addi	s0,sp,128
      56:	04090103          	lb	sp,64(s2)
      5a:	0100                	addi	s0,sp,128
      5c:	10090103          	lb	sp,256(s2)
      60:	0100                	addi	s0,sp,128
      62:	04090103          	lb	sp,64(s2)
      66:	0100                	addi	s0,sp,128
      68:	04090203          	lb	tp,64(s2)
      6c:	0100                	addi	s0,sp,128
      6e:	0409                	addi	s0,s0,2 # c002 <_prog_start-0x7fff3ffe>
      70:	0000                	unimp
      72:	0101                	addi	sp,sp,0
      74:	1796                	slli	a5,a5,0x25
      76:	0000                	unimp
      78:	0005                	c.nop	1
      7a:	0008                	.insn	2, 0x0008
      7c:	006a                	c.slli	zero,0x1a
      7e:	0000                	unimp
      80:	0101                	addi	sp,sp,0
      82:	fb01                	bnez	a4,ffffffffffffff92 <multiply2+0xffffffff7fffe3d2>
      84:	0d0e                	slli	s10,s10,0x3
      86:	0100                	addi	s0,sp,128
      88:	0101                	addi	sp,sp,0
      8a:	0001                	nop
      8c:	0000                	unimp
      8e:	0001                	nop
      90:	0100                	addi	s0,sp,128
      92:	0101                	addi	sp,sp,0
      94:	071f 0000 0000      	.insn	6, 0x071f
      9a:	003d                	c.nop	15
      9c:	0000                	unimp
      9e:	0000003f 00000085 	.insn	8, 0x00850000003f
      a6:	00d1                	addi	ra,ra,20
      a8:	0000                	unimp
      aa:	010e                	slli	sp,sp,0x3
      ac:	0000                	unimp
      ae:	015c                	addi	a5,sp,132
      b0:	0000                	unimp
      b2:	0102                	c.slli64	sp
      b4:	021f 0a0f 0034      	.insn	6, 0x00340a0f021f
      ba:	0000                	unimp
      bc:	a600                	fsd	fs0,8(a2)
      be:	0001                	nop
      c0:	0100                	addi	s0,sp,128
      c2:	01ad                	addi	gp,gp,11
      c4:	0000                	unimp
      c6:	b702                	fsd	ft0,424(sp)
      c8:	0001                	nop
      ca:	0300                	addi	s0,sp,384
      cc:	01c1                	addi	gp,gp,16
      ce:	0000                	unimp
      d0:	3404                	fld	fs1,40(s0)
      d2:	0000                	unimp
      d4:	0000                	unimp
      d6:	000001cf          	fnmadd.s	ft3,ft0,ft0,ft0,rne
      da:	e005                	bnez	s0,fa <_prog_start-0x7fffff06>
      dc:	0001                	nop
      de:	0600                	addi	s0,sp,768
      e0:	01ea                	slli	gp,gp,0x1a
      e2:	0000                	unimp
      e4:	f400                	sd	s0,40(s0)
      e6:	0001                	nop
      e8:	0300                	addi	s0,sp,384
      ea:	0105                	addi	sp,sp,1
      ec:	0900                	addi	s0,sp,144
      ee:	2c02                	fld	fs8,0(sp)
      f0:	0000                	unimp
      f2:	0080                	addi	s0,sp,64
      f4:	0000                	unimp
      f6:	0300                	addi	s0,sp,384
      f8:	011e                	slli	sp,sp,0x7
      fa:	1505                	addi	a0,a0,-31 # ffffffffffffafe1 <multiply2+0xffffffff7fff9421>
      fc:	10090103          	lb	sp,256(s2)
     100:	0100                	addi	s0,sp,128
     102:	0705                	addi	a4,a4,1 # fffffffffffe9001 <multiply2+0xffffffff7ffe7441>
     104:	08090103          	lb	sp,128(s2)
     108:	0100                	addi	s0,sp,128
     10a:	0105                	addi	sp,sp,1
     10c:	0a090103          	lb	sp,160(s2)
     110:	0100                	addi	s0,sp,128
     112:	08090303          	lb	t1,128(s2)
     116:	0100                	addi	s0,sp,128
     118:	1505                	addi	a0,a0,-31
     11a:	0a090103          	lb	sp,160(s2)
     11e:	0100                	addi	s0,sp,128
     120:	0905                	addi	s2,s2,1
     122:	08090103          	lb	sp,128(s2)
     126:	0100                	addi	s0,sp,128
     128:	0105                	addi	sp,sp,1
     12a:	08090103          	lb	sp,128(s2)
     12e:	0100                	addi	s0,sp,128
     130:	0204                	addi	s1,sp,256
     132:	1b05                	addi	s6,s6,-31
     134:	08096703          	lwu	a4,128(s2)
     138:	0100                	addi	s0,sp,128
     13a:	0305                	addi	t1,t1,1
     13c:	08090103          	lb	sp,128(s2)
     140:	0100                	addi	s0,sp,128
     142:	08090103          	lb	sp,128(s2)
     146:	0100                	addi	s0,sp,128
     148:	0105                	addi	sp,sp,1
     14a:	08090103          	lb	sp,128(s2)
     14e:	0100                	addi	s0,sp,128
     150:	1605                	addi	a2,a2,-31
     152:	0a090303          	lb	t1,160(s2)
     156:	0100                	addi	s0,sp,128
     158:	0305                	addi	t1,t1,1
     15a:	08090103          	lb	sp,128(s2)
     15e:	0100                	addi	s0,sp,128
     160:	08090103          	lb	sp,128(s2)
     164:	0100                	addi	s0,sp,128
     166:	0105                	addi	sp,sp,1
     168:	08090103          	lb	sp,128(s2)
     16c:	0100                	addi	s0,sp,128
     16e:	1605                	addi	a2,a2,-31
     170:	0a090303          	lb	t1,160(s2)
     174:	0100                	addi	s0,sp,128
     176:	0305                	addi	t1,t1,1
     178:	08090103          	lb	sp,128(s2)
     17c:	0100                	addi	s0,sp,128
     17e:	08090103          	lb	sp,128(s2)
     182:	0100                	addi	s0,sp,128
     184:	0105                	addi	sp,sp,1
     186:	08090103          	lb	sp,128(s2)
     18a:	0100                	addi	s0,sp,128
     18c:	2505                	addiw	a0,a0,1
     18e:	0a090303          	lb	t1,160(s2)
     192:	0100                	addi	s0,sp,128
     194:	0305                	addi	t1,t1,1
     196:	08090103          	lb	sp,128(s2)
     19a:	0100                	addi	s0,sp,128
     19c:	08090103          	lb	sp,128(s2)
     1a0:	0100                	addi	s0,sp,128
     1a2:	0a05                	addi	s4,s4,1
     1a4:	08090103          	lb	sp,128(s2)
     1a8:	0100                	addi	s0,sp,128
     1aa:	0105                	addi	sp,sp,1
     1ac:	0e090103          	lb	sp,224(s2)
     1b0:	0100                	addi	s0,sp,128
     1b2:	0304                	addi	s1,sp,384
     1b4:	0a090b03          	lb	s6,160(s2)
     1b8:	0100                	addi	s0,sp,128
     1ba:	0d05                	addi	s10,s10,1
     1bc:	18090303          	lb	t1,384(s2)
     1c0:	0100                	addi	s0,sp,128
     1c2:	1505                	addi	a0,a0,-31
     1c4:	04090503          	lb	a0,64(s2)
     1c8:	0100                	addi	s0,sp,128
     1ca:	1005                	c.nop	-31
     1cc:	08090003          	lb	zero,128(s2)
     1d0:	0100                	addi	s0,sp,128
     1d2:	1505                	addi	a0,a0,-31
     1d4:	04090103          	lb	sp,64(s2)
     1d8:	0100                	addi	s0,sp,128
     1da:	1005                	c.nop	-31
     1dc:	0a090003          	lb	zero,160(s2)
     1e0:	0100                	addi	s0,sp,128
     1e2:	1505                	addi	a0,a0,-31
     1e4:	04090103          	lb	sp,64(s2)
     1e8:	0100                	addi	s0,sp,128
     1ea:	1005                	c.nop	-31
     1ec:	0a090003          	lb	zero,160(s2)
     1f0:	0100                	addi	s0,sp,128
     1f2:	1505                	addi	a0,a0,-31
     1f4:	04090103          	lb	sp,64(s2)
     1f8:	0100                	addi	s0,sp,128
     1fa:	1005                	c.nop	-31
     1fc:	0a090003          	lb	zero,160(s2)
     200:	0100                	addi	s0,sp,128
     202:	1505                	addi	a0,a0,-31
     204:	04090103          	lb	sp,64(s2)
     208:	0100                	addi	s0,sp,128
     20a:	1005                	c.nop	-31
     20c:	0a090003          	lb	zero,160(s2)
     210:	0100                	addi	s0,sp,128
     212:	1505                	addi	a0,a0,-31
     214:	04090103          	lb	sp,64(s2)
     218:	0100                	addi	s0,sp,128
     21a:	1005                	c.nop	-31
     21c:	0a090003          	lb	zero,160(s2)
     220:	0100                	addi	s0,sp,128
     222:	1505                	addi	a0,a0,-31
     224:	04090103          	lb	sp,64(s2)
     228:	0100                	addi	s0,sp,128
     22a:	1005                	c.nop	-31
     22c:	0a090003          	lb	zero,160(s2)
     230:	0100                	addi	s0,sp,128
     232:	1505                	addi	a0,a0,-31
     234:	04090103          	lb	sp,64(s2)
     238:	0100                	addi	s0,sp,128
     23a:	1005                	c.nop	-31
     23c:	0a090003          	lb	zero,160(s2)
     240:	0100                	addi	s0,sp,128
     242:	1305                	addi	t1,t1,-31
     244:	04090203          	lb	tp,64(s2)
     248:	0100                	addi	s0,sp,128
     24a:	0c05                	addi	s8,s8,1 # 11001 <_prog_start-0x7ffeefff>
     24c:	08090003          	lb	zero,128(s2)
     250:	0100                	addi	s0,sp,128
     252:	1305                	addi	t1,t1,-31
     254:	04090103          	lb	sp,64(s2)
     258:	0100                	addi	s0,sp,128
     25a:	0c05                	addi	s8,s8,1
     25c:	0a090003          	lb	zero,160(s2)
     260:	0100                	addi	s0,sp,128
     262:	1305                	addi	t1,t1,-31
     264:	04090103          	lb	sp,64(s2)
     268:	0100                	addi	s0,sp,128
     26a:	0c05                	addi	s8,s8,1
     26c:	0a090003          	lb	zero,160(s2)
     270:	0100                	addi	s0,sp,128
     272:	1305                	addi	t1,t1,-31
     274:	04090103          	lb	sp,64(s2)
     278:	0100                	addi	s0,sp,128
     27a:	0c05                	addi	s8,s8,1
     27c:	0a090003          	lb	zero,160(s2)
     280:	0100                	addi	s0,sp,128
     282:	1305                	addi	t1,t1,-31
     284:	04090103          	lb	sp,64(s2)
     288:	0100                	addi	s0,sp,128
     28a:	0c05                	addi	s8,s8,1
     28c:	0a090003          	lb	zero,160(s2)
     290:	0100                	addi	s0,sp,128
     292:	1305                	addi	t1,t1,-31
     294:	04090103          	lb	sp,64(s2)
     298:	0100                	addi	s0,sp,128
     29a:	0c05                	addi	s8,s8,1
     29c:	0a090003          	lb	zero,160(s2)
     2a0:	0100                	addi	s0,sp,128
     2a2:	1305                	addi	t1,t1,-31
     2a4:	04090103          	lb	sp,64(s2)
     2a8:	0100                	addi	s0,sp,128
     2aa:	0c05                	addi	s8,s8,1
     2ac:	0a090003          	lb	zero,160(s2)
     2b0:	0100                	addi	s0,sp,128
     2b2:	1305                	addi	t1,t1,-31
     2b4:	04090103          	lb	sp,64(s2)
     2b8:	0100                	addi	s0,sp,128
     2ba:	0c05                	addi	s8,s8,1
     2bc:	0a090003          	lb	zero,160(s2)
     2c0:	0100                	addi	s0,sp,128
     2c2:	0905                	addi	s2,s2,1
     2c4:	04090203          	lb	tp,64(s2)
     2c8:	0100                	addi	s0,sp,128
     2ca:	0305                	addi	t1,t1,1
     2cc:	06090003          	lb	zero,96(s2)
     2d0:	0100                	addi	s0,sp,128
     2d2:	1405                	addi	s0,s0,-31
     2d4:	02090303          	lb	t1,32(s2)
     2d8:	0100                	addi	s0,sp,128
     2da:	2305                	addiw	t1,t1,1
     2dc:	04090003          	lb	zero,64(s2)
     2e0:	0100                	addi	s0,sp,128
     2e2:	0d05                	addi	s10,s10,1
     2e4:	04090003          	lb	zero,64(s2)
     2e8:	0100                	addi	s0,sp,128
     2ea:	1405                	addi	s0,s0,-31
     2ec:	0a090103          	lb	sp,160(s2)
     2f0:	0100                	addi	s0,sp,128
     2f2:	2305                	addiw	t1,t1,1
     2f4:	04090003          	lb	zero,64(s2)
     2f8:	0100                	addi	s0,sp,128
     2fa:	0d05                	addi	s10,s10,1
     2fc:	04090003          	lb	zero,64(s2)
     300:	0100                	addi	s0,sp,128
     302:	1405                	addi	s0,s0,-31
     304:	0a090103          	lb	sp,160(s2)
     308:	0100                	addi	s0,sp,128
     30a:	2305                	addiw	t1,t1,1
     30c:	04090003          	lb	zero,64(s2)
     310:	0100                	addi	s0,sp,128
     312:	0d05                	addi	s10,s10,1
     314:	04090003          	lb	zero,64(s2)
     318:	0100                	addi	s0,sp,128
     31a:	1405                	addi	s0,s0,-31
     31c:	0a090103          	lb	sp,160(s2)
     320:	0100                	addi	s0,sp,128
     322:	2305                	addiw	t1,t1,1
     324:	04090003          	lb	zero,64(s2)
     328:	0100                	addi	s0,sp,128
     32a:	0d05                	addi	s10,s10,1
     32c:	04090003          	lb	zero,64(s2)
     330:	0100                	addi	s0,sp,128
     332:	1405                	addi	s0,s0,-31
     334:	0a090103          	lb	sp,160(s2)
     338:	0100                	addi	s0,sp,128
     33a:	2305                	addiw	t1,t1,1
     33c:	04090003          	lb	zero,64(s2)
     340:	0100                	addi	s0,sp,128
     342:	0d05                	addi	s10,s10,1
     344:	04090003          	lb	zero,64(s2)
     348:	0100                	addi	s0,sp,128
     34a:	1405                	addi	s0,s0,-31
     34c:	0a090103          	lb	sp,160(s2)
     350:	0100                	addi	s0,sp,128
     352:	2305                	addiw	t1,t1,1
     354:	04090003          	lb	zero,64(s2)
     358:	0100                	addi	s0,sp,128
     35a:	0d05                	addi	s10,s10,1
     35c:	04090003          	lb	zero,64(s2)
     360:	0100                	addi	s0,sp,128
     362:	1405                	addi	s0,s0,-31
     364:	0a090103          	lb	sp,160(s2)
     368:	0100                	addi	s0,sp,128
     36a:	2305                	addiw	t1,t1,1
     36c:	04090003          	lb	zero,64(s2)
     370:	0100                	addi	s0,sp,128
     372:	0d05                	addi	s10,s10,1
     374:	04090003          	lb	zero,64(s2)
     378:	0100                	addi	s0,sp,128
     37a:	1405                	addi	s0,s0,-31
     37c:	0a090103          	lb	sp,160(s2)
     380:	0100                	addi	s0,sp,128
     382:	2305                	addiw	t1,t1,1
     384:	04090003          	lb	zero,64(s2)
     388:	0100                	addi	s0,sp,128
     38a:	0d05                	addi	s10,s10,1
     38c:	04090003          	lb	zero,64(s2)
     390:	0100                	addi	s0,sp,128
     392:	2305                	addiw	t1,t1,1
     394:	0a090303          	lb	t1,160(s2)
     398:	0100                	addi	s0,sp,128
     39a:	1805                	addi	a6,a6,-31 # 8fe1 <_prog_start-0x7fff701f>
     39c:	04090003          	lb	zero,64(s2)
     3a0:	0100                	addi	s0,sp,128
     3a2:	2305                	addiw	t1,t1,1
     3a4:	04090103          	lb	sp,64(s2)
     3a8:	0100                	addi	s0,sp,128
     3aa:	1805                	addi	a6,a6,-31
     3ac:	04090003          	lb	zero,64(s2)
     3b0:	0100                	addi	s0,sp,128
     3b2:	2305                	addiw	t1,t1,1
     3b4:	04090103          	lb	sp,64(s2)
     3b8:	0100                	addi	s0,sp,128
     3ba:	1805                	addi	a6,a6,-31
     3bc:	04090003          	lb	zero,64(s2)
     3c0:	0100                	addi	s0,sp,128
     3c2:	2305                	addiw	t1,t1,1
     3c4:	04090103          	lb	sp,64(s2)
     3c8:	0100                	addi	s0,sp,128
     3ca:	1805                	addi	a6,a6,-31
     3cc:	04090003          	lb	zero,64(s2)
     3d0:	0100                	addi	s0,sp,128
     3d2:	2305                	addiw	t1,t1,1
     3d4:	04090103          	lb	sp,64(s2)
     3d8:	0100                	addi	s0,sp,128
     3da:	1805                	addi	a6,a6,-31
     3dc:	04090003          	lb	zero,64(s2)
     3e0:	0100                	addi	s0,sp,128
     3e2:	2205                	addiw	tp,tp,1 # 1 <_prog_start-0x7fffffff>
     3e4:	04090203          	lb	tp,64(s2)
     3e8:	0100                	addi	s0,sp,128
     3ea:	1705                	addi	a4,a4,-31
     3ec:	04090003          	lb	zero,64(s2)
     3f0:	0100                	addi	s0,sp,128
     3f2:	2205                	addiw	tp,tp,1 # 1 <_prog_start-0x7fffffff>
     3f4:	04090103          	lb	sp,64(s2)
     3f8:	0100                	addi	s0,sp,128
     3fa:	1705                	addi	a4,a4,-31
     3fc:	04090003          	lb	zero,64(s2)
     400:	0100                	addi	s0,sp,128
     402:	2205                	addiw	tp,tp,1 # 1 <_prog_start-0x7fffffff>
     404:	04090103          	lb	sp,64(s2)
     408:	0100                	addi	s0,sp,128
     40a:	1705                	addi	a4,a4,-31
     40c:	04090003          	lb	zero,64(s2)
     410:	0100                	addi	s0,sp,128
     412:	2205                	addiw	tp,tp,1 # 1 <_prog_start-0x7fffffff>
     414:	0e090103          	lb	sp,224(s2)
     418:	0100                	addi	s0,sp,128
     41a:	1705                	addi	a4,a4,-31
     41c:	04090003          	lb	zero,64(s2)
     420:	0100                	addi	s0,sp,128
     422:	2305                	addiw	t1,t1,1
     424:	04090203          	lb	tp,64(s2)
     428:	0100                	addi	s0,sp,128
     42a:	3205                	addiw	tp,tp,-31 # ffffffffffffffe1 <multiply2+0xffffffff7fffe421>
     42c:	04090003          	lb	zero,64(s2)
     430:	0100                	addi	s0,sp,128
     432:	1705                	addi	a4,a4,-31
     434:	04090003          	lb	zero,64(s2)
     438:	0100                	addi	s0,sp,128
     43a:	2905                	addiw	s2,s2,1
     43c:	0a090103          	lb	sp,160(s2)
     440:	0100                	addi	s0,sp,128
     442:	3805                	addiw	a6,a6,-31
     444:	04090003          	lb	zero,64(s2)
     448:	0100                	addi	s0,sp,128
     44a:	2d05                	addiw	s10,s10,1
     44c:	04090003          	lb	zero,64(s2)
     450:	0100                	addi	s0,sp,128
     452:	1e05                	addi	t3,t3,-31 # 10fe1 <_prog_start-0x7ffef01f>
     454:	08090003          	lb	zero,128(s2)
     458:	0100                	addi	s0,sp,128
     45a:	1705                	addi	a4,a4,-31
     45c:	0e090003          	lb	zero,224(s2)
     460:	0100                	addi	s0,sp,128
     462:	2905                	addiw	s2,s2,1
     464:	04090103          	lb	sp,64(s2)
     468:	0100                	addi	s0,sp,128
     46a:	3805                	addiw	a6,a6,-31
     46c:	04090003          	lb	zero,64(s2)
     470:	0100                	addi	s0,sp,128
     472:	2d05                	addiw	s10,s10,1
     474:	04090003          	lb	zero,64(s2)
     478:	0100                	addi	s0,sp,128
     47a:	1e05                	addi	t3,t3,-31
     47c:	08090003          	lb	zero,128(s2)
     480:	0100                	addi	s0,sp,128
     482:	1705                	addi	a4,a4,-31
     484:	0e090003          	lb	zero,224(s2)
     488:	0100                	addi	s0,sp,128
     48a:	2305                	addiw	t1,t1,1
     48c:	04090103          	lb	sp,64(s2)
     490:	0100                	addi	s0,sp,128
     492:	3305                	addiw	t1,t1,-31
     494:	04090003          	lb	zero,64(s2)
     498:	0100                	addi	s0,sp,128
     49a:	1705                	addi	a4,a4,-31
     49c:	04090003          	lb	zero,64(s2)
     4a0:	0100                	addi	s0,sp,128
     4a2:	1a05                	addi	s4,s4,-31
     4a4:	0a090403          	lb	s0,160(s2)
     4a8:	0100                	addi	s0,sp,128
     4aa:	1405                	addi	s0,s0,-31
     4ac:	06090003          	lb	zero,96(s2)
     4b0:	0100                	addi	s0,sp,128
     4b2:	0d05                	addi	s10,s10,1
     4b4:	0e090003          	lb	zero,224(s2)
     4b8:	0100                	addi	s0,sp,128
     4ba:	1a05                	addi	s4,s4,-31
     4bc:	04090103          	lb	sp,64(s2)
     4c0:	0100                	addi	s0,sp,128
     4c2:	1405                	addi	s0,s0,-31
     4c4:	06090003          	lb	zero,96(s2)
     4c8:	0100                	addi	s0,sp,128
     4ca:	0d05                	addi	s10,s10,1
     4cc:	0e090003          	lb	zero,224(s2)
     4d0:	0100                	addi	s0,sp,128
     4d2:	1a05                	addi	s4,s4,-31
     4d4:	04090103          	lb	sp,64(s2)
     4d8:	0100                	addi	s0,sp,128
     4da:	1405                	addi	s0,s0,-31
     4dc:	06090003          	lb	zero,96(s2)
     4e0:	0100                	addi	s0,sp,128
     4e2:	0d05                	addi	s10,s10,1
     4e4:	0e090003          	lb	zero,224(s2)
     4e8:	0100                	addi	s0,sp,128
     4ea:	1a05                	addi	s4,s4,-31
     4ec:	04090103          	lb	sp,64(s2)
     4f0:	0100                	addi	s0,sp,128
     4f2:	1405                	addi	s0,s0,-31
     4f4:	06090003          	lb	zero,96(s2)
     4f8:	0100                	addi	s0,sp,128
     4fa:	0d05                	addi	s10,s10,1
     4fc:	0e090003          	lb	zero,224(s2)
     500:	0100                	addi	s0,sp,128
     502:	1a05                	addi	s4,s4,-31
     504:	04090103          	lb	sp,64(s2)
     508:	0100                	addi	s0,sp,128
     50a:	1405                	addi	s0,s0,-31
     50c:	06090003          	lb	zero,96(s2)
     510:	0100                	addi	s0,sp,128
     512:	0d05                	addi	s10,s10,1
     514:	0e090003          	lb	zero,224(s2)
     518:	0100                	addi	s0,sp,128
     51a:	1a05                	addi	s4,s4,-31
     51c:	04090103          	lb	sp,64(s2)
     520:	0100                	addi	s0,sp,128
     522:	1405                	addi	s0,s0,-31
     524:	06090003          	lb	zero,96(s2)
     528:	0100                	addi	s0,sp,128
     52a:	0d05                	addi	s10,s10,1
     52c:	0e090003          	lb	zero,224(s2)
     530:	0100                	addi	s0,sp,128
     532:	1a05                	addi	s4,s4,-31
     534:	04090103          	lb	sp,64(s2)
     538:	0100                	addi	s0,sp,128
     53a:	1405                	addi	s0,s0,-31
     53c:	06090003          	lb	zero,96(s2)
     540:	0100                	addi	s0,sp,128
     542:	0d05                	addi	s10,s10,1
     544:	0e090003          	lb	zero,224(s2)
     548:	0100                	addi	s0,sp,128
     54a:	1a05                	addi	s4,s4,-31
     54c:	04090103          	lb	sp,64(s2)
     550:	0100                	addi	s0,sp,128
     552:	1405                	addi	s0,s0,-31
     554:	06090003          	lb	zero,96(s2)
     558:	0100                	addi	s0,sp,128
     55a:	0d05                	addi	s10,s10,1
     55c:	0e090003          	lb	zero,224(s2)
     560:	0100                	addi	s0,sp,128
     562:	1905                	addi	s2,s2,-31
     564:	04090303          	lb	t1,64(s2)
     568:	0100                	addi	s0,sp,128
     56a:	1205                	addi	tp,tp,-31 # ffffffffffffffe1 <multiply2+0xffffffff7fffe421>
     56c:	04090003          	lb	zero,64(s2)
     570:	0100                	addi	s0,sp,128
     572:	1c05                	addi	s8,s8,-31
     574:	04090103          	lb	sp,64(s2)
     578:	0100                	addi	s0,sp,128
     57a:	1505                	addi	a0,a0,-31
     57c:	04090003          	lb	zero,64(s2)
     580:	0100                	addi	s0,sp,128
     582:	1905                	addi	s2,s2,-31
     584:	04090103          	lb	sp,64(s2)
     588:	0100                	addi	s0,sp,128
     58a:	1205                	addi	tp,tp,-31 # ffffffffffffffe1 <multiply2+0xffffffff7fffe421>
     58c:	04090003          	lb	zero,64(s2)
     590:	0100                	addi	s0,sp,128
     592:	1905                	addi	s2,s2,-31
     594:	04090103          	lb	sp,64(s2)
     598:	0100                	addi	s0,sp,128
     59a:	1205                	addi	tp,tp,-31 # ffffffffffffffe1 <multiply2+0xffffffff7fffe421>
     59c:	04090003          	lb	zero,64(s2)
     5a0:	0100                	addi	s0,sp,128
     5a2:	1905                	addi	s2,s2,-31
     5a4:	04090103          	lb	sp,64(s2)
     5a8:	0100                	addi	s0,sp,128
     5aa:	1205                	addi	tp,tp,-31 # ffffffffffffffe1 <multiply2+0xffffffff7fffe421>
     5ac:	04090003          	lb	zero,64(s2)
     5b0:	0100                	addi	s0,sp,128
     5b2:	1905                	addi	s2,s2,-31
     5b4:	04090103          	lb	sp,64(s2)
     5b8:	0100                	addi	s0,sp,128
     5ba:	1205                	addi	tp,tp,-31 # ffffffffffffffe1 <multiply2+0xffffffff7fffe421>
     5bc:	04090003          	lb	zero,64(s2)
     5c0:	0100                	addi	s0,sp,128
     5c2:	1905                	addi	s2,s2,-31
     5c4:	04090103          	lb	sp,64(s2)
     5c8:	0100                	addi	s0,sp,128
     5ca:	1205                	addi	tp,tp,-31 # ffffffffffffffe1 <multiply2+0xffffffff7fffe421>
     5cc:	04090003          	lb	zero,64(s2)
     5d0:	0100                	addi	s0,sp,128
     5d2:	1905                	addi	s2,s2,-31
     5d4:	04090103          	lb	sp,64(s2)
     5d8:	0100                	addi	s0,sp,128
     5da:	1205                	addi	tp,tp,-31 # ffffffffffffffe1 <multiply2+0xffffffff7fffe421>
     5dc:	04090003          	lb	zero,64(s2)
     5e0:	0100                	addi	s0,sp,128
     5e2:	1b05                	addi	s6,s6,-31
     5e4:	04090303          	lb	t1,64(s2)
     5e8:	0100                	addi	s0,sp,128
     5ea:	2b05                	addiw	s6,s6,1
     5ec:	04090003          	lb	zero,64(s2)
     5f0:	0100                	addi	s0,sp,128
     5f2:	0f05                	addi	t5,t5,1 # 18001 <_prog_start-0x7ffe7fff>
     5f4:	04090003          	lb	zero,64(s2)
     5f8:	0100                	addi	s0,sp,128
     5fa:	3b05                	addiw	s6,s6,-31
     5fc:	06090003          	lb	zero,96(s2)
     600:	0100                	addi	s0,sp,128
     602:	0f05                	addi	t5,t5,1
     604:	04090003          	lb	zero,64(s2)
     608:	0100                	addi	s0,sp,128
     60a:	4b05                	li	s6,1
     60c:	06090003          	lb	zero,96(s2)
     610:	0100                	addi	s0,sp,128
     612:	0f05                	addi	t5,t5,1
     614:	04090003          	lb	zero,64(s2)
     618:	0100                	addi	s0,sp,128
     61a:	1b05                	addi	s6,s6,-31
     61c:	06090103          	lb	sp,96(s2)
     620:	0100                	addi	s0,sp,128
     622:	2b05                	addiw	s6,s6,1
     624:	04090003          	lb	zero,64(s2)
     628:	0100                	addi	s0,sp,128
     62a:	0f05                	addi	t5,t5,1
     62c:	04090003          	lb	zero,64(s2)
     630:	0100                	addi	s0,sp,128
     632:	1a05                	addi	s4,s4,-31
     634:	06090103          	lb	sp,96(s2)
     638:	0100                	addi	s0,sp,128
     63a:	0f05                	addi	t5,t5,1
     63c:	06090003          	lb	zero,96(s2)
     640:	0100                	addi	s0,sp,128
     642:	2205                	addiw	tp,tp,1 # 1 <_prog_start-0x7fffffff>
     644:	12090103          	lb	sp,288(s2)
     648:	0100                	addi	s0,sp,128
     64a:	1605                	addi	a2,a2,-31
     64c:	04090003          	lb	zero,64(s2)
     650:	0100                	addi	s0,sp,128
     652:	1b05                	addi	s6,s6,-31
     654:	18090203          	lb	tp,384(s2)
     658:	0100                	addi	s0,sp,128
     65a:	2b05                	addiw	s6,s6,1
     65c:	04090003          	lb	zero,64(s2)
     660:	0100                	addi	s0,sp,128
     662:	0f05                	addi	t5,t5,1
     664:	04090003          	lb	zero,64(s2)
     668:	0100                	addi	s0,sp,128
     66a:	1a05                	addi	s4,s4,-31
     66c:	06090103          	lb	sp,96(s2)
     670:	0100                	addi	s0,sp,128
     672:	0f05                	addi	t5,t5,1
     674:	06090003          	lb	zero,96(s2)
     678:	0100                	addi	s0,sp,128
     67a:	2205                	addiw	tp,tp,1 # 1 <_prog_start-0x7fffffff>
     67c:	12090103          	lb	sp,288(s2)
     680:	0100                	addi	s0,sp,128
     682:	1605                	addi	a2,a2,-31
     684:	04090003          	lb	zero,64(s2)
     688:	0100                	addi	s0,sp,128
     68a:	1b05                	addi	s6,s6,-31
     68c:	18090203          	lb	tp,384(s2)
     690:	0100                	addi	s0,sp,128
     692:	2b05                	addiw	s6,s6,1
     694:	04090003          	lb	zero,64(s2)
     698:	0100                	addi	s0,sp,128
     69a:	0f05                	addi	t5,t5,1
     69c:	04090003          	lb	zero,64(s2)
     6a0:	0100                	addi	s0,sp,128
     6a2:	1a05                	addi	s4,s4,-31
     6a4:	06090103          	lb	sp,96(s2)
     6a8:	0100                	addi	s0,sp,128
     6aa:	0f05                	addi	t5,t5,1
     6ac:	06090003          	lb	zero,96(s2)
     6b0:	0100                	addi	s0,sp,128
     6b2:	2205                	addiw	tp,tp,1 # 1 <_prog_start-0x7fffffff>
     6b4:	12090103          	lb	sp,288(s2)
     6b8:	0100                	addi	s0,sp,128
     6ba:	1605                	addi	a2,a2,-31
     6bc:	04090003          	lb	zero,64(s2)
     6c0:	0100                	addi	s0,sp,128
     6c2:	1b05                	addi	s6,s6,-31
     6c4:	18090203          	lb	tp,384(s2)
     6c8:	0100                	addi	s0,sp,128
     6ca:	2b05                	addiw	s6,s6,1
     6cc:	04090003          	lb	zero,64(s2)
     6d0:	0100                	addi	s0,sp,128
     6d2:	0f05                	addi	t5,t5,1
     6d4:	04090003          	lb	zero,64(s2)
     6d8:	0100                	addi	s0,sp,128
     6da:	1a05                	addi	s4,s4,-31
     6dc:	06090103          	lb	sp,96(s2)
     6e0:	0100                	addi	s0,sp,128
     6e2:	0f05                	addi	t5,t5,1
     6e4:	06090003          	lb	zero,96(s2)
     6e8:	0100                	addi	s0,sp,128
     6ea:	2205                	addiw	tp,tp,1 # 1 <_prog_start-0x7fffffff>
     6ec:	12090103          	lb	sp,288(s2)
     6f0:	0100                	addi	s0,sp,128
     6f2:	1605                	addi	a2,a2,-31
     6f4:	04090003          	lb	zero,64(s2)
     6f8:	0100                	addi	s0,sp,128
     6fa:	1b05                	addi	s6,s6,-31
     6fc:	18090203          	lb	tp,384(s2)
     700:	0100                	addi	s0,sp,128
     702:	2b05                	addiw	s6,s6,1
     704:	04090003          	lb	zero,64(s2)
     708:	0100                	addi	s0,sp,128
     70a:	0f05                	addi	t5,t5,1
     70c:	04090003          	lb	zero,64(s2)
     710:	0100                	addi	s0,sp,128
     712:	3b05                	addiw	s6,s6,-31
     714:	06090003          	lb	zero,96(s2)
     718:	0100                	addi	s0,sp,128
     71a:	0f05                	addi	t5,t5,1
     71c:	04090003          	lb	zero,64(s2)
     720:	0100                	addi	s0,sp,128
     722:	4b05                	li	s6,1
     724:	06090003          	lb	zero,96(s2)
     728:	0100                	addi	s0,sp,128
     72a:	0f05                	addi	t5,t5,1
     72c:	04090003          	lb	zero,64(s2)
     730:	0100                	addi	s0,sp,128
     732:	1b05                	addi	s6,s6,-31
     734:	06090103          	lb	sp,96(s2)
     738:	0100                	addi	s0,sp,128
     73a:	2b05                	addiw	s6,s6,1
     73c:	04090003          	lb	zero,64(s2)
     740:	0100                	addi	s0,sp,128
     742:	0f05                	addi	t5,t5,1
     744:	04090003          	lb	zero,64(s2)
     748:	0100                	addi	s0,sp,128
     74a:	1a05                	addi	s4,s4,-31
     74c:	06090103          	lb	sp,96(s2)
     750:	0100                	addi	s0,sp,128
     752:	0f05                	addi	t5,t5,1
     754:	06090003          	lb	zero,96(s2)
     758:	0100                	addi	s0,sp,128
     75a:	2205                	addiw	tp,tp,1 # 1 <_prog_start-0x7fffffff>
     75c:	12090103          	lb	sp,288(s2)
     760:	0100                	addi	s0,sp,128
     762:	1605                	addi	a2,a2,-31
     764:	04090003          	lb	zero,64(s2)
     768:	0100                	addi	s0,sp,128
     76a:	1b05                	addi	s6,s6,-31
     76c:	18090203          	lb	tp,384(s2)
     770:	0100                	addi	s0,sp,128
     772:	2b05                	addiw	s6,s6,1
     774:	04090003          	lb	zero,64(s2)
     778:	0100                	addi	s0,sp,128
     77a:	0f05                	addi	t5,t5,1
     77c:	04090003          	lb	zero,64(s2)
     780:	0100                	addi	s0,sp,128
     782:	1a05                	addi	s4,s4,-31
     784:	06090103          	lb	sp,96(s2)
     788:	0100                	addi	s0,sp,128
     78a:	0f05                	addi	t5,t5,1
     78c:	06090003          	lb	zero,96(s2)
     790:	0100                	addi	s0,sp,128
     792:	2205                	addiw	tp,tp,1 # 1 <_prog_start-0x7fffffff>
     794:	12090103          	lb	sp,288(s2)
     798:	0100                	addi	s0,sp,128
     79a:	1605                	addi	a2,a2,-31
     79c:	04090003          	lb	zero,64(s2)
     7a0:	0100                	addi	s0,sp,128
     7a2:	1b05                	addi	s6,s6,-31
     7a4:	18090203          	lb	tp,384(s2)
     7a8:	0100                	addi	s0,sp,128
     7aa:	2b05                	addiw	s6,s6,1
     7ac:	04090003          	lb	zero,64(s2)
     7b0:	0100                	addi	s0,sp,128
     7b2:	0f05                	addi	t5,t5,1
     7b4:	04090003          	lb	zero,64(s2)
     7b8:	0100                	addi	s0,sp,128
     7ba:	1a05                	addi	s4,s4,-31
     7bc:	06090103          	lb	sp,96(s2)
     7c0:	0100                	addi	s0,sp,128
     7c2:	0f05                	addi	t5,t5,1
     7c4:	06090003          	lb	zero,96(s2)
     7c8:	0100                	addi	s0,sp,128
     7ca:	2205                	addiw	tp,tp,1 # 1 <_prog_start-0x7fffffff>
     7cc:	12090103          	lb	sp,288(s2)
     7d0:	0100                	addi	s0,sp,128
     7d2:	1605                	addi	a2,a2,-31
     7d4:	04090003          	lb	zero,64(s2)
     7d8:	0100                	addi	s0,sp,128
     7da:	1b05                	addi	s6,s6,-31
     7dc:	18090203          	lb	tp,384(s2)
     7e0:	0100                	addi	s0,sp,128
     7e2:	2b05                	addiw	s6,s6,1
     7e4:	04090003          	lb	zero,64(s2)
     7e8:	0100                	addi	s0,sp,128
     7ea:	0f05                	addi	t5,t5,1
     7ec:	04090003          	lb	zero,64(s2)
     7f0:	0100                	addi	s0,sp,128
     7f2:	1a05                	addi	s4,s4,-31
     7f4:	06090103          	lb	sp,96(s2)
     7f8:	0100                	addi	s0,sp,128
     7fa:	0f05                	addi	t5,t5,1
     7fc:	06090003          	lb	zero,96(s2)
     800:	0100                	addi	s0,sp,128
     802:	2205                	addiw	tp,tp,1 # 1 <_prog_start-0x7fffffff>
     804:	12090103          	lb	sp,288(s2)
     808:	0100                	addi	s0,sp,128
     80a:	1605                	addi	a2,a2,-31
     80c:	04090003          	lb	zero,64(s2)
     810:	0100                	addi	s0,sp,128
     812:	1c05                	addi	s8,s8,-31
     814:	0200                	addi	s0,sp,256
     816:	0304                	addi	s1,sp,384
     818:	097fad03          	lw	s10,151(t6)
     81c:	0018                	.insn	2, 0x0018
     81e:	0501                	addi	a0,a0,0
     820:	0010                	.insn	2, 0x0010
     822:	0402                	c.slli64	s0
     824:	0301                	addi	t1,t1,0
     826:	0900                	addi	s0,sp,144
     828:	000a                	c.slli	zero,0x2
     82a:	0501                	addi	a0,a0,0
     82c:	0314                	addi	a3,sp,384
     82e:	00d8                	addi	a4,sp,68
     830:	1609                	addi	a2,a2,-30
     832:	0100                	addi	s0,sp,128
     834:	2305                	addiw	t1,t1,1
     836:	04090003          	lb	zero,64(s2)
     83a:	0100                	addi	s0,sp,128
     83c:	0d05                	addi	s10,s10,1
     83e:	04090003          	lb	zero,64(s2)
     842:	0100                	addi	s0,sp,128
     844:	1405                	addi	s0,s0,-31
     846:	0e090103          	lb	sp,224(s2)
     84a:	0100                	addi	s0,sp,128
     84c:	2305                	addiw	t1,t1,1
     84e:	04090003          	lb	zero,64(s2)
     852:	0100                	addi	s0,sp,128
     854:	0905                	addi	s2,s2,1
     856:	04090003          	lb	zero,64(s2)
     85a:	0100                	addi	s0,sp,128
     85c:	0d05                	addi	s10,s10,1
     85e:	06090003          	lb	zero,96(s2)
     862:	0100                	addi	s0,sp,128
     864:	1405                	addi	s0,s0,-31
     866:	0a090103          	lb	sp,160(s2)
     86a:	0100                	addi	s0,sp,128
     86c:	2305                	addiw	t1,t1,1
     86e:	04090003          	lb	zero,64(s2)
     872:	0100                	addi	s0,sp,128
     874:	0905                	addi	s2,s2,1
     876:	04090003          	lb	zero,64(s2)
     87a:	0100                	addi	s0,sp,128
     87c:	0d05                	addi	s10,s10,1
     87e:	06090003          	lb	zero,96(s2)
     882:	0100                	addi	s0,sp,128
     884:	1405                	addi	s0,s0,-31
     886:	0a090103          	lb	sp,160(s2)
     88a:	0100                	addi	s0,sp,128
     88c:	2305                	addiw	t1,t1,1
     88e:	04090003          	lb	zero,64(s2)
     892:	0100                	addi	s0,sp,128
     894:	0905                	addi	s2,s2,1
     896:	04090003          	lb	zero,64(s2)
     89a:	0100                	addi	s0,sp,128
     89c:	0d05                	addi	s10,s10,1
     89e:	06090003          	lb	zero,96(s2)
     8a2:	0100                	addi	s0,sp,128
     8a4:	1405                	addi	s0,s0,-31
     8a6:	0a090103          	lb	sp,160(s2)
     8aa:	0100                	addi	s0,sp,128
     8ac:	2305                	addiw	t1,t1,1
     8ae:	04090003          	lb	zero,64(s2)
     8b2:	0100                	addi	s0,sp,128
     8b4:	0905                	addi	s2,s2,1
     8b6:	04090003          	lb	zero,64(s2)
     8ba:	0100                	addi	s0,sp,128
     8bc:	0d05                	addi	s10,s10,1
     8be:	06090003          	lb	zero,96(s2)
     8c2:	0100                	addi	s0,sp,128
     8c4:	1405                	addi	s0,s0,-31
     8c6:	0a090103          	lb	sp,160(s2)
     8ca:	0100                	addi	s0,sp,128
     8cc:	2305                	addiw	t1,t1,1
     8ce:	04090003          	lb	zero,64(s2)
     8d2:	0100                	addi	s0,sp,128
     8d4:	0905                	addi	s2,s2,1
     8d6:	04090003          	lb	zero,64(s2)
     8da:	0100                	addi	s0,sp,128
     8dc:	0d05                	addi	s10,s10,1
     8de:	06090003          	lb	zero,96(s2)
     8e2:	0100                	addi	s0,sp,128
     8e4:	1405                	addi	s0,s0,-31
     8e6:	0a090103          	lb	sp,160(s2)
     8ea:	0100                	addi	s0,sp,128
     8ec:	2305                	addiw	t1,t1,1
     8ee:	04090003          	lb	zero,64(s2)
     8f2:	0100                	addi	s0,sp,128
     8f4:	0905                	addi	s2,s2,1
     8f6:	04090003          	lb	zero,64(s2)
     8fa:	0100                	addi	s0,sp,128
     8fc:	0d05                	addi	s10,s10,1
     8fe:	06090003          	lb	zero,96(s2)
     902:	0100                	addi	s0,sp,128
     904:	1405                	addi	s0,s0,-31
     906:	0a090103          	lb	sp,160(s2)
     90a:	0100                	addi	s0,sp,128
     90c:	2305                	addiw	t1,t1,1
     90e:	04090003          	lb	zero,64(s2)
     912:	0100                	addi	s0,sp,128
     914:	0905                	addi	s2,s2,1
     916:	04090003          	lb	zero,64(s2)
     91a:	0100                	addi	s0,sp,128
     91c:	0d05                	addi	s10,s10,1
     91e:	06090003          	lb	zero,96(s2)
     922:	0100                	addi	s0,sp,128
     924:	0105                	addi	sp,sp,1
     926:	0a090203          	lb	tp,160(s2)
     92a:	0100                	addi	s0,sp,128
     92c:	08090303          	lb	t1,128(s2)
     930:	0100                	addi	s0,sp,128
     932:	0d05                	addi	s10,s10,1
     934:	18090303          	lb	t1,384(s2)
     938:	0100                	addi	s0,sp,128
     93a:	1405                	addi	s0,s0,-31
     93c:	04090503          	lb	a0,64(s2)
     940:	0100                	addi	s0,sp,128
     942:	0f05                	addi	t5,t5,1
     944:	08090003          	lb	zero,128(s2)
     948:	0100                	addi	s0,sp,128
     94a:	1405                	addi	s0,s0,-31
     94c:	04090103          	lb	sp,64(s2)
     950:	0100                	addi	s0,sp,128
     952:	0f05                	addi	t5,t5,1
     954:	0a090003          	lb	zero,160(s2)
     958:	0100                	addi	s0,sp,128
     95a:	1405                	addi	s0,s0,-31
     95c:	04090103          	lb	sp,64(s2)
     960:	0100                	addi	s0,sp,128
     962:	0f05                	addi	t5,t5,1
     964:	0a090003          	lb	zero,160(s2)
     968:	0100                	addi	s0,sp,128
     96a:	1405                	addi	s0,s0,-31
     96c:	04090103          	lb	sp,64(s2)
     970:	0100                	addi	s0,sp,128
     972:	0f05                	addi	t5,t5,1
     974:	0a090003          	lb	zero,160(s2)
     978:	0100                	addi	s0,sp,128
     97a:	1405                	addi	s0,s0,-31
     97c:	04090103          	lb	sp,64(s2)
     980:	0100                	addi	s0,sp,128
     982:	0f05                	addi	t5,t5,1
     984:	0a090003          	lb	zero,160(s2)
     988:	0100                	addi	s0,sp,128
     98a:	1405                	addi	s0,s0,-31
     98c:	04090103          	lb	sp,64(s2)
     990:	0100                	addi	s0,sp,128
     992:	0f05                	addi	t5,t5,1
     994:	0a090003          	lb	zero,160(s2)
     998:	0100                	addi	s0,sp,128
     99a:	1405                	addi	s0,s0,-31
     99c:	04090103          	lb	sp,64(s2)
     9a0:	0100                	addi	s0,sp,128
     9a2:	0f05                	addi	t5,t5,1
     9a4:	0a090003          	lb	zero,160(s2)
     9a8:	0100                	addi	s0,sp,128
     9aa:	1405                	addi	s0,s0,-31
     9ac:	04090103          	lb	sp,64(s2)
     9b0:	0100                	addi	s0,sp,128
     9b2:	0f05                	addi	t5,t5,1
     9b4:	0a090003          	lb	zero,160(s2)
     9b8:	0100                	addi	s0,sp,128
     9ba:	0805                	addi	a6,a6,1
     9bc:	04090303          	lb	t1,64(s2)
     9c0:	0100                	addi	s0,sp,128
     9c2:	0205                	addi	tp,tp,1 # 1 <_prog_start-0x7fffffff>
     9c4:	06090003          	lb	zero,96(s2)
     9c8:	0100                	addi	s0,sp,128
     9ca:	2205                	addiw	tp,tp,1 # 1 <_prog_start-0x7fffffff>
     9cc:	02090203          	lb	tp,32(s2)
     9d0:	0100                	addi	s0,sp,128
     9d2:	1705                	addi	a4,a4,-31
     9d4:	04090003          	lb	zero,64(s2)
     9d8:	0100                	addi	s0,sp,128
     9da:	2205                	addiw	tp,tp,1 # 1 <_prog_start-0x7fffffff>
     9dc:	04090103          	lb	sp,64(s2)
     9e0:	0100                	addi	s0,sp,128
     9e2:	1705                	addi	a4,a4,-31
     9e4:	04090003          	lb	zero,64(s2)
     9e8:	0100                	addi	s0,sp,128
     9ea:	2205                	addiw	tp,tp,1 # 1 <_prog_start-0x7fffffff>
     9ec:	04090103          	lb	sp,64(s2)
     9f0:	0100                	addi	s0,sp,128
     9f2:	1705                	addi	a4,a4,-31
     9f4:	04090003          	lb	zero,64(s2)
     9f8:	0100                	addi	s0,sp,128
     9fa:	2205                	addiw	tp,tp,1 # 1 <_prog_start-0x7fffffff>
     9fc:	04090103          	lb	sp,64(s2)
     a00:	0100                	addi	s0,sp,128
     a02:	1705                	addi	a4,a4,-31
     a04:	04090003          	lb	zero,64(s2)
     a08:	0100                	addi	s0,sp,128
     a0a:	2205                	addiw	tp,tp,1 # 1 <_prog_start-0x7fffffff>
     a0c:	04090103          	lb	sp,64(s2)
     a10:	0100                	addi	s0,sp,128
     a12:	1705                	addi	a4,a4,-31
     a14:	04090003          	lb	zero,64(s2)
     a18:	0100                	addi	s0,sp,128
     a1a:	2105                	addiw	sp,sp,1
     a1c:	04090203          	lb	tp,64(s2)
     a20:	0100                	addi	s0,sp,128
     a22:	1605                	addi	a2,a2,-31
     a24:	04090003          	lb	zero,64(s2)
     a28:	0100                	addi	s0,sp,128
     a2a:	2105                	addiw	sp,sp,1
     a2c:	04090103          	lb	sp,64(s2)
     a30:	0100                	addi	s0,sp,128
     a32:	1605                	addi	a2,a2,-31
     a34:	04090003          	lb	zero,64(s2)
     a38:	0100                	addi	s0,sp,128
     a3a:	2105                	addiw	sp,sp,1
     a3c:	04090103          	lb	sp,64(s2)
     a40:	0100                	addi	s0,sp,128
     a42:	1605                	addi	a2,a2,-31
     a44:	04090003          	lb	zero,64(s2)
     a48:	0100                	addi	s0,sp,128
     a4a:	2105                	addiw	sp,sp,1
     a4c:	0e090103          	lb	sp,224(s2)
     a50:	0100                	addi	s0,sp,128
     a52:	1605                	addi	a2,a2,-31
     a54:	04090003          	lb	zero,64(s2)
     a58:	0100                	addi	s0,sp,128
     a5a:	2205                	addiw	tp,tp,1 # 1 <_prog_start-0x7fffffff>
     a5c:	04090203          	lb	tp,64(s2)
     a60:	0100                	addi	s0,sp,128
     a62:	3105                	addiw	sp,sp,-31
     a64:	04090003          	lb	zero,64(s2)
     a68:	0100                	addi	s0,sp,128
     a6a:	1605                	addi	a2,a2,-31
     a6c:	04090003          	lb	zero,64(s2)
     a70:	0100                	addi	s0,sp,128
     a72:	2805                	addiw	a6,a6,1
     a74:	0a090103          	lb	sp,160(s2)
     a78:	0100                	addi	s0,sp,128
     a7a:	3705                	addiw	a4,a4,-31
     a7c:	04090003          	lb	zero,64(s2)
     a80:	0100                	addi	s0,sp,128
     a82:	2c05                	addiw	s8,s8,1
     a84:	04090003          	lb	zero,64(s2)
     a88:	0100                	addi	s0,sp,128
     a8a:	1d05                	addi	s10,s10,-31
     a8c:	08090003          	lb	zero,128(s2)
     a90:	0100                	addi	s0,sp,128
     a92:	1605                	addi	a2,a2,-31
     a94:	0e090003          	lb	zero,224(s2)
     a98:	0100                	addi	s0,sp,128
     a9a:	2805                	addiw	a6,a6,1
     a9c:	04090103          	lb	sp,64(s2)
     aa0:	0100                	addi	s0,sp,128
     aa2:	3705                	addiw	a4,a4,-31
     aa4:	04090003          	lb	zero,64(s2)
     aa8:	0100                	addi	s0,sp,128
     aaa:	2c05                	addiw	s8,s8,1
     aac:	04090003          	lb	zero,64(s2)
     ab0:	0100                	addi	s0,sp,128
     ab2:	1d05                	addi	s10,s10,-31
     ab4:	08090003          	lb	zero,128(s2)
     ab8:	0100                	addi	s0,sp,128
     aba:	1605                	addi	a2,a2,-31
     abc:	0e090003          	lb	zero,224(s2)
     ac0:	0100                	addi	s0,sp,128
     ac2:	2205                	addiw	tp,tp,1 # 1 <_prog_start-0x7fffffff>
     ac4:	04090103          	lb	sp,64(s2)
     ac8:	0100                	addi	s0,sp,128
     aca:	3205                	addiw	tp,tp,-31 # ffffffffffffffe1 <multiply2+0xffffffff7fffe421>
     acc:	04090003          	lb	zero,64(s2)
     ad0:	0100                	addi	s0,sp,128
     ad2:	1605                	addi	a2,a2,-31
     ad4:	04090003          	lb	zero,64(s2)
     ad8:	0100                	addi	s0,sp,128
     ada:	1b05                	addi	s6,s6,-31
     adc:	0200                	addi	s0,sp,256
     ade:	0304                	addi	s1,sp,384
     ae0:	0a097003          	.insn	4, 0x0a097003
     ae4:	0100                	addi	s0,sp,128
     ae6:	0f05                	addi	t5,t5,1
     ae8:	0200                	addi	s0,sp,256
     aea:	0104                	addi	s1,sp,128
     aec:	0a090003          	lb	zero,160(s2)
     af0:	0100                	addi	s0,sp,128
     af2:	1305                	addi	t1,t1,-31
     af4:	16091403          	lh	s0,352(s2)
     af8:	0100                	addi	s0,sp,128
     afa:	2205                	addiw	tp,tp,1 # 1 <_prog_start-0x7fffffff>
     afc:	08090003          	lb	zero,128(s2)
     b00:	0100                	addi	s0,sp,128
     b02:	0b05                	addi	s6,s6,1
     b04:	04090003          	lb	zero,64(s2)
     b08:	0100                	addi	s0,sp,128
     b0a:	1405                	addi	s0,s0,-31
     b0c:	0a090103          	lb	sp,160(s2)
     b10:	0100                	addi	s0,sp,128
     b12:	2305                	addiw	t1,t1,1
     b14:	0a090003          	lb	zero,160(s2)
     b18:	0100                	addi	s0,sp,128
     b1a:	0c05                	addi	s8,s8,1
     b1c:	04090003          	lb	zero,64(s2)
     b20:	0100                	addi	s0,sp,128
     b22:	1305                	addi	t1,t1,-31
     b24:	0a090103          	lb	sp,160(s2)
     b28:	0100                	addi	s0,sp,128
     b2a:	2205                	addiw	tp,tp,1 # 1 <_prog_start-0x7fffffff>
     b2c:	0a090003          	lb	zero,160(s2)
     b30:	0100                	addi	s0,sp,128
     b32:	0b05                	addi	s6,s6,1
     b34:	04090003          	lb	zero,64(s2)
     b38:	0100                	addi	s0,sp,128
     b3a:	1305                	addi	t1,t1,-31
     b3c:	0a090103          	lb	sp,160(s2)
     b40:	0100                	addi	s0,sp,128
     b42:	2205                	addiw	tp,tp,1 # 1 <_prog_start-0x7fffffff>
     b44:	0a090003          	lb	zero,160(s2)
     b48:	0100                	addi	s0,sp,128
     b4a:	0b05                	addi	s6,s6,1
     b4c:	04090003          	lb	zero,64(s2)
     b50:	0100                	addi	s0,sp,128
     b52:	1305                	addi	t1,t1,-31
     b54:	0a090103          	lb	sp,160(s2)
     b58:	0100                	addi	s0,sp,128
     b5a:	2205                	addiw	tp,tp,1 # 1 <_prog_start-0x7fffffff>
     b5c:	0a090003          	lb	zero,160(s2)
     b60:	0100                	addi	s0,sp,128
     b62:	0b05                	addi	s6,s6,1
     b64:	04090003          	lb	zero,64(s2)
     b68:	0100                	addi	s0,sp,128
     b6a:	1305                	addi	t1,t1,-31
     b6c:	0a090103          	lb	sp,160(s2)
     b70:	0100                	addi	s0,sp,128
     b72:	2205                	addiw	tp,tp,1 # 1 <_prog_start-0x7fffffff>
     b74:	0a090003          	lb	zero,160(s2)
     b78:	0100                	addi	s0,sp,128
     b7a:	0b05                	addi	s6,s6,1
     b7c:	04090003          	lb	zero,64(s2)
     b80:	0100                	addi	s0,sp,128
     b82:	1305                	addi	t1,t1,-31
     b84:	0a090103          	lb	sp,160(s2)
     b88:	0100                	addi	s0,sp,128
     b8a:	2205                	addiw	tp,tp,1 # 1 <_prog_start-0x7fffffff>
     b8c:	0a090003          	lb	zero,160(s2)
     b90:	0100                	addi	s0,sp,128
     b92:	0b05                	addi	s6,s6,1
     b94:	04090003          	lb	zero,64(s2)
     b98:	0100                	addi	s0,sp,128
     b9a:	1305                	addi	t1,t1,-31
     b9c:	0a090103          	lb	sp,160(s2)
     ba0:	0100                	addi	s0,sp,128
     ba2:	2205                	addiw	tp,tp,1 # 1 <_prog_start-0x7fffffff>
     ba4:	0a090003          	lb	zero,160(s2)
     ba8:	0100                	addi	s0,sp,128
     baa:	0b05                	addi	s6,s6,1
     bac:	04090003          	lb	zero,64(s2)
     bb0:	0100                	addi	s0,sp,128
     bb2:	0805                	addi	a6,a6,1
     bb4:	0a090303          	lb	t1,160(s2)
     bb8:	0100                	addi	s0,sp,128
     bba:	0205                	addi	tp,tp,1 # 1 <_prog_start-0x7fffffff>
     bbc:	04090003          	lb	zero,64(s2)
     bc0:	0100                	addi	s0,sp,128
     bc2:	1805                	addi	a6,a6,-31
     bc4:	02090303          	lb	t1,32(s2)
     bc8:	0100                	addi	s0,sp,128
     bca:	1105                	addi	sp,sp,-31
     bcc:	04090003          	lb	zero,64(s2)
     bd0:	0100                	addi	s0,sp,128
     bd2:	1805                	addi	a6,a6,-31
     bd4:	04090103          	lb	sp,64(s2)
     bd8:	0100                	addi	s0,sp,128
     bda:	1105                	addi	sp,sp,-31
     bdc:	04090003          	lb	zero,64(s2)
     be0:	0100                	addi	s0,sp,128
     be2:	1805                	addi	a6,a6,-31
     be4:	04090103          	lb	sp,64(s2)
     be8:	0100                	addi	s0,sp,128
     bea:	1105                	addi	sp,sp,-31
     bec:	04090003          	lb	zero,64(s2)
     bf0:	0100                	addi	s0,sp,128
     bf2:	1805                	addi	a6,a6,-31
     bf4:	04090103          	lb	sp,64(s2)
     bf8:	0100                	addi	s0,sp,128
     bfa:	1105                	addi	sp,sp,-31
     bfc:	04090003          	lb	zero,64(s2)
     c00:	0100                	addi	s0,sp,128
     c02:	1805                	addi	a6,a6,-31
     c04:	04090103          	lb	sp,64(s2)
     c08:	0100                	addi	s0,sp,128
     c0a:	1105                	addi	sp,sp,-31
     c0c:	04090003          	lb	zero,64(s2)
     c10:	0100                	addi	s0,sp,128
     c12:	1805                	addi	a6,a6,-31
     c14:	04090103          	lb	sp,64(s2)
     c18:	0100                	addi	s0,sp,128
     c1a:	1105                	addi	sp,sp,-31
     c1c:	04090003          	lb	zero,64(s2)
     c20:	0100                	addi	s0,sp,128
     c22:	1805                	addi	a6,a6,-31
     c24:	04090103          	lb	sp,64(s2)
     c28:	0100                	addi	s0,sp,128
     c2a:	1105                	addi	sp,sp,-31
     c2c:	04090003          	lb	zero,64(s2)
     c30:	0100                	addi	s0,sp,128
     c32:	1805                	addi	a6,a6,-31
     c34:	04090103          	lb	sp,64(s2)
     c38:	0100                	addi	s0,sp,128
     c3a:	1105                	addi	sp,sp,-31
     c3c:	04090003          	lb	zero,64(s2)
     c40:	0100                	addi	s0,sp,128
     c42:	2505                	addiw	a0,a0,1
     c44:	04090203          	lb	tp,64(s2)
     c48:	0100                	addi	s0,sp,128
     c4a:	3505                	addiw	a0,a0,-31
     c4c:	04090003          	lb	zero,64(s2)
     c50:	0100                	addi	s0,sp,128
     c52:	2905                	addiw	s2,s2,1
     c54:	04090003          	lb	zero,64(s2)
     c58:	0100                	addi	s0,sp,128
     c5a:	1a05                	addi	s4,s4,-31
     c5c:	08090003          	lb	zero,128(s2)
     c60:	0100                	addi	s0,sp,128
     c62:	0505                	addi	a0,a0,1
     c64:	10090003          	lb	zero,256(s2)
     c68:	0100                	addi	s0,sp,128
     c6a:	2505                	addiw	a0,a0,1
     c6c:	12090103          	lb	sp,288(s2)
     c70:	0100                	addi	s0,sp,128
     c72:	3505                	addiw	a0,a0,-31
     c74:	04090003          	lb	zero,64(s2)
     c78:	0100                	addi	s0,sp,128
     c7a:	2905                	addiw	s2,s2,1
     c7c:	04090003          	lb	zero,64(s2)
     c80:	0100                	addi	s0,sp,128
     c82:	1a05                	addi	s4,s4,-31
     c84:	08090003          	lb	zero,128(s2)
     c88:	0100                	addi	s0,sp,128
     c8a:	0505                	addi	a0,a0,1
     c8c:	10090003          	lb	zero,256(s2)
     c90:	0100                	addi	s0,sp,128
     c92:	1d05                	addi	s10,s10,-31
     c94:	12090203          	lb	tp,288(s2)
     c98:	0100                	addi	s0,sp,128
     c9a:	1105                	addi	sp,sp,-31
     c9c:	04090003          	lb	zero,64(s2)
     ca0:	0100                	addi	s0,sp,128
     ca2:	1d05                	addi	s10,s10,-31
     ca4:	0e090103          	lb	sp,224(s2)
     ca8:	0100                	addi	s0,sp,128
     caa:	1105                	addi	sp,sp,-31
     cac:	04090003          	lb	zero,64(s2)
     cb0:	0100                	addi	s0,sp,128
     cb2:	1d05                	addi	s10,s10,-31
     cb4:	0e090103          	lb	sp,224(s2)
     cb8:	0100                	addi	s0,sp,128
     cba:	1105                	addi	sp,sp,-31
     cbc:	04090003          	lb	zero,64(s2)
     cc0:	0100                	addi	s0,sp,128
     cc2:	1d05                	addi	s10,s10,-31
     cc4:	0e090103          	lb	sp,224(s2)
     cc8:	0100                	addi	s0,sp,128
     cca:	1105                	addi	sp,sp,-31
     ccc:	04090003          	lb	zero,64(s2)
     cd0:	0100                	addi	s0,sp,128
     cd2:	2505                	addiw	a0,a0,1
     cd4:	0e090203          	lb	tp,224(s2)
     cd8:	0100                	addi	s0,sp,128
     cda:	3505                	addiw	a0,a0,-31
     cdc:	04090003          	lb	zero,64(s2)
     ce0:	0100                	addi	s0,sp,128
     ce2:	2905                	addiw	s2,s2,1
     ce4:	04090003          	lb	zero,64(s2)
     ce8:	0100                	addi	s0,sp,128
     cea:	1a05                	addi	s4,s4,-31
     cec:	08090003          	lb	zero,128(s2)
     cf0:	0100                	addi	s0,sp,128
     cf2:	0505                	addi	a0,a0,1
     cf4:	10090003          	lb	zero,256(s2)
     cf8:	0100                	addi	s0,sp,128
     cfa:	2505                	addiw	a0,a0,1
     cfc:	12090103          	lb	sp,288(s2)
     d00:	0100                	addi	s0,sp,128
     d02:	3505                	addiw	a0,a0,-31
     d04:	04090003          	lb	zero,64(s2)
     d08:	0100                	addi	s0,sp,128
     d0a:	2905                	addiw	s2,s2,1
     d0c:	04090003          	lb	zero,64(s2)
     d10:	0100                	addi	s0,sp,128
     d12:	1a05                	addi	s4,s4,-31
     d14:	08090003          	lb	zero,128(s2)
     d18:	0100                	addi	s0,sp,128
     d1a:	0505                	addi	a0,a0,1
     d1c:	10090003          	lb	zero,256(s2)
     d20:	0100                	addi	s0,sp,128
     d22:	1d05                	addi	s10,s10,-31
     d24:	12090203          	lb	tp,288(s2)
     d28:	0100                	addi	s0,sp,128
     d2a:	1105                	addi	sp,sp,-31
     d2c:	04090003          	lb	zero,64(s2)
     d30:	0100                	addi	s0,sp,128
     d32:	1d05                	addi	s10,s10,-31
     d34:	0e090103          	lb	sp,224(s2)
     d38:	0100                	addi	s0,sp,128
     d3a:	1105                	addi	sp,sp,-31
     d3c:	04090003          	lb	zero,64(s2)
     d40:	0100                	addi	s0,sp,128
     d42:	1d05                	addi	s10,s10,-31
     d44:	0e090103          	lb	sp,224(s2)
     d48:	0100                	addi	s0,sp,128
     d4a:	1105                	addi	sp,sp,-31
     d4c:	04090003          	lb	zero,64(s2)
     d50:	0100                	addi	s0,sp,128
     d52:	1d05                	addi	s10,s10,-31
     d54:	0e090103          	lb	sp,224(s2)
     d58:	0100                	addi	s0,sp,128
     d5a:	1105                	addi	sp,sp,-31
     d5c:	04090003          	lb	zero,64(s2)
     d60:	0100                	addi	s0,sp,128
     d62:	1705                	addi	a4,a4,-31
     d64:	0e090203          	lb	tp,224(s2)
     d68:	0100                	addi	s0,sp,128
     d6a:	2705                	addiw	a4,a4,1
     d6c:	04090003          	lb	zero,64(s2)
     d70:	0100                	addi	s0,sp,128
     d72:	0b05                	addi	s6,s6,1
     d74:	04090003          	lb	zero,64(s2)
     d78:	0100                	addi	s0,sp,128
     d7a:	3705                	addiw	a4,a4,-31
     d7c:	06090003          	lb	zero,96(s2)
     d80:	0100                	addi	s0,sp,128
     d82:	0b05                	addi	s6,s6,1
     d84:	04090003          	lb	zero,64(s2)
     d88:	0100                	addi	s0,sp,128
     d8a:	4705                	li	a4,1
     d8c:	06090003          	lb	zero,96(s2)
     d90:	0100                	addi	s0,sp,128
     d92:	0b05                	addi	s6,s6,1
     d94:	04090003          	lb	zero,64(s2)
     d98:	0100                	addi	s0,sp,128
     d9a:	1705                	addi	a4,a4,-31
     d9c:	06090103          	lb	sp,96(s2)
     da0:	0100                	addi	s0,sp,128
     da2:	2705                	addiw	a4,a4,1
     da4:	04090003          	lb	zero,64(s2)
     da8:	0100                	addi	s0,sp,128
     daa:	0b05                	addi	s6,s6,1
     dac:	04090003          	lb	zero,64(s2)
     db0:	0100                	addi	s0,sp,128
     db2:	1605                	addi	a2,a2,-31
     db4:	06090103          	lb	sp,96(s2)
     db8:	0100                	addi	s0,sp,128
     dba:	0b05                	addi	s6,s6,1
     dbc:	06090003          	lb	zero,96(s2)
     dc0:	0100                	addi	s0,sp,128
     dc2:	1e05                	addi	t3,t3,-31
     dc4:	12090103          	lb	sp,288(s2)
     dc8:	0100                	addi	s0,sp,128
     dca:	1205                	addi	tp,tp,-31 # ffffffffffffffe1 <multiply2+0xffffffff7fffe421>
     dcc:	04090003          	lb	zero,64(s2)
     dd0:	0100                	addi	s0,sp,128
     dd2:	1705                	addi	a4,a4,-31
     dd4:	18090203          	lb	tp,384(s2)
     dd8:	0100                	addi	s0,sp,128
     dda:	2705                	addiw	a4,a4,1
     ddc:	04090003          	lb	zero,64(s2)
     de0:	0100                	addi	s0,sp,128
     de2:	0b05                	addi	s6,s6,1
     de4:	04090003          	lb	zero,64(s2)
     de8:	0100                	addi	s0,sp,128
     dea:	1605                	addi	a2,a2,-31
     dec:	06090103          	lb	sp,96(s2)
     df0:	0100                	addi	s0,sp,128
     df2:	0b05                	addi	s6,s6,1
     df4:	06090003          	lb	zero,96(s2)
     df8:	0100                	addi	s0,sp,128
     dfa:	1e05                	addi	t3,t3,-31
     dfc:	12090103          	lb	sp,288(s2)
     e00:	0100                	addi	s0,sp,128
     e02:	1205                	addi	tp,tp,-31 # ffffffffffffffe1 <multiply2+0xffffffff7fffe421>
     e04:	04090003          	lb	zero,64(s2)
     e08:	0100                	addi	s0,sp,128
     e0a:	1705                	addi	a4,a4,-31
     e0c:	18090203          	lb	tp,384(s2)
     e10:	0100                	addi	s0,sp,128
     e12:	2705                	addiw	a4,a4,1
     e14:	04090003          	lb	zero,64(s2)
     e18:	0100                	addi	s0,sp,128
     e1a:	0b05                	addi	s6,s6,1
     e1c:	04090003          	lb	zero,64(s2)
     e20:	0100                	addi	s0,sp,128
     e22:	1605                	addi	a2,a2,-31
     e24:	06090103          	lb	sp,96(s2)
     e28:	0100                	addi	s0,sp,128
     e2a:	0b05                	addi	s6,s6,1
     e2c:	06090003          	lb	zero,96(s2)
     e30:	0100                	addi	s0,sp,128
     e32:	1e05                	addi	t3,t3,-31
     e34:	12090103          	lb	sp,288(s2)
     e38:	0100                	addi	s0,sp,128
     e3a:	1205                	addi	tp,tp,-31 # ffffffffffffffe1 <multiply2+0xffffffff7fffe421>
     e3c:	04090003          	lb	zero,64(s2)
     e40:	0100                	addi	s0,sp,128
     e42:	1705                	addi	a4,a4,-31
     e44:	18090203          	lb	tp,384(s2)
     e48:	0100                	addi	s0,sp,128
     e4a:	2705                	addiw	a4,a4,1
     e4c:	04090003          	lb	zero,64(s2)
     e50:	0100                	addi	s0,sp,128
     e52:	0b05                	addi	s6,s6,1
     e54:	04090003          	lb	zero,64(s2)
     e58:	0100                	addi	s0,sp,128
     e5a:	1605                	addi	a2,a2,-31
     e5c:	06090103          	lb	sp,96(s2)
     e60:	0100                	addi	s0,sp,128
     e62:	0b05                	addi	s6,s6,1
     e64:	06090003          	lb	zero,96(s2)
     e68:	0100                	addi	s0,sp,128
     e6a:	1e05                	addi	t3,t3,-31
     e6c:	12090103          	lb	sp,288(s2)
     e70:	0100                	addi	s0,sp,128
     e72:	1205                	addi	tp,tp,-31 # ffffffffffffffe1 <multiply2+0xffffffff7fffe421>
     e74:	04090003          	lb	zero,64(s2)
     e78:	0100                	addi	s0,sp,128
     e7a:	1705                	addi	a4,a4,-31
     e7c:	18090203          	lb	tp,384(s2)
     e80:	0100                	addi	s0,sp,128
     e82:	2705                	addiw	a4,a4,1
     e84:	04090003          	lb	zero,64(s2)
     e88:	0100                	addi	s0,sp,128
     e8a:	0b05                	addi	s6,s6,1
     e8c:	04090003          	lb	zero,64(s2)
     e90:	0100                	addi	s0,sp,128
     e92:	3705                	addiw	a4,a4,-31
     e94:	06090003          	lb	zero,96(s2)
     e98:	0100                	addi	s0,sp,128
     e9a:	0b05                	addi	s6,s6,1
     e9c:	04090003          	lb	zero,64(s2)
     ea0:	0100                	addi	s0,sp,128
     ea2:	4705                	li	a4,1
     ea4:	06090003          	lb	zero,96(s2)
     ea8:	0100                	addi	s0,sp,128
     eaa:	0b05                	addi	s6,s6,1
     eac:	04090003          	lb	zero,64(s2)
     eb0:	0100                	addi	s0,sp,128
     eb2:	1705                	addi	a4,a4,-31
     eb4:	06090103          	lb	sp,96(s2)
     eb8:	0100                	addi	s0,sp,128
     eba:	2705                	addiw	a4,a4,1
     ebc:	04090003          	lb	zero,64(s2)
     ec0:	0100                	addi	s0,sp,128
     ec2:	0b05                	addi	s6,s6,1
     ec4:	04090003          	lb	zero,64(s2)
     ec8:	0100                	addi	s0,sp,128
     eca:	1605                	addi	a2,a2,-31
     ecc:	06090103          	lb	sp,96(s2)
     ed0:	0100                	addi	s0,sp,128
     ed2:	0b05                	addi	s6,s6,1
     ed4:	06090003          	lb	zero,96(s2)
     ed8:	0100                	addi	s0,sp,128
     eda:	1e05                	addi	t3,t3,-31
     edc:	12090103          	lb	sp,288(s2)
     ee0:	0100                	addi	s0,sp,128
     ee2:	1205                	addi	tp,tp,-31 # ffffffffffffffe1 <multiply2+0xffffffff7fffe421>
     ee4:	04090003          	lb	zero,64(s2)
     ee8:	0100                	addi	s0,sp,128
     eea:	1705                	addi	a4,a4,-31
     eec:	18090203          	lb	tp,384(s2)
     ef0:	0100                	addi	s0,sp,128
     ef2:	2705                	addiw	a4,a4,1
     ef4:	04090003          	lb	zero,64(s2)
     ef8:	0100                	addi	s0,sp,128
     efa:	0b05                	addi	s6,s6,1
     efc:	04090003          	lb	zero,64(s2)
     f00:	0100                	addi	s0,sp,128
     f02:	1605                	addi	a2,a2,-31
     f04:	06090103          	lb	sp,96(s2)
     f08:	0100                	addi	s0,sp,128
     f0a:	0b05                	addi	s6,s6,1
     f0c:	06090003          	lb	zero,96(s2)
     f10:	0100                	addi	s0,sp,128
     f12:	1e05                	addi	t3,t3,-31
     f14:	12090103          	lb	sp,288(s2)
     f18:	0100                	addi	s0,sp,128
     f1a:	1205                	addi	tp,tp,-31 # ffffffffffffffe1 <multiply2+0xffffffff7fffe421>
     f1c:	04090003          	lb	zero,64(s2)
     f20:	0100                	addi	s0,sp,128
     f22:	1705                	addi	a4,a4,-31
     f24:	18090203          	lb	tp,384(s2)
     f28:	0100                	addi	s0,sp,128
     f2a:	2705                	addiw	a4,a4,1
     f2c:	04090003          	lb	zero,64(s2)
     f30:	0100                	addi	s0,sp,128
     f32:	0b05                	addi	s6,s6,1
     f34:	04090003          	lb	zero,64(s2)
     f38:	0100                	addi	s0,sp,128
     f3a:	1605                	addi	a2,a2,-31
     f3c:	06090103          	lb	sp,96(s2)
     f40:	0100                	addi	s0,sp,128
     f42:	0b05                	addi	s6,s6,1
     f44:	06090003          	lb	zero,96(s2)
     f48:	0100                	addi	s0,sp,128
     f4a:	1e05                	addi	t3,t3,-31
     f4c:	12090103          	lb	sp,288(s2)
     f50:	0100                	addi	s0,sp,128
     f52:	1205                	addi	tp,tp,-31 # ffffffffffffffe1 <multiply2+0xffffffff7fffe421>
     f54:	04090003          	lb	zero,64(s2)
     f58:	0100                	addi	s0,sp,128
     f5a:	1705                	addi	a4,a4,-31
     f5c:	18090203          	lb	tp,384(s2)
     f60:	0100                	addi	s0,sp,128
     f62:	2705                	addiw	a4,a4,1
     f64:	04090003          	lb	zero,64(s2)
     f68:	0100                	addi	s0,sp,128
     f6a:	0b05                	addi	s6,s6,1
     f6c:	04090003          	lb	zero,64(s2)
     f70:	0100                	addi	s0,sp,128
     f72:	1605                	addi	a2,a2,-31
     f74:	06090103          	lb	sp,96(s2)
     f78:	0100                	addi	s0,sp,128
     f7a:	0b05                	addi	s6,s6,1
     f7c:	06090003          	lb	zero,96(s2)
     f80:	0100                	addi	s0,sp,128
     f82:	1e05                	addi	t3,t3,-31
     f84:	12090103          	lb	sp,288(s2)
     f88:	0100                	addi	s0,sp,128
     f8a:	1205                	addi	tp,tp,-31 # ffffffffffffffe1 <multiply2+0xffffffff7fffe421>
     f8c:	04090003          	lb	zero,64(s2)
     f90:	0100                	addi	s0,sp,128
     f92:	1905                	addi	s2,s2,-31
     f94:	18090303          	lb	t1,384(s2)
     f98:	0100                	addi	s0,sp,128
     f9a:	1305                	addi	t1,t1,-31
     f9c:	06090003          	lb	zero,96(s2)
     fa0:	0100                	addi	s0,sp,128
     fa2:	0c05                	addi	s8,s8,1
     fa4:	0e090003          	lb	zero,224(s2)
     fa8:	0100                	addi	s0,sp,128
     faa:	1905                	addi	s2,s2,-31
     fac:	04090103          	lb	sp,64(s2)
     fb0:	0100                	addi	s0,sp,128
     fb2:	1305                	addi	t1,t1,-31
     fb4:	06090003          	lb	zero,96(s2)
     fb8:	0100                	addi	s0,sp,128
     fba:	0c05                	addi	s8,s8,1
     fbc:	0e090003          	lb	zero,224(s2)
     fc0:	0100                	addi	s0,sp,128
     fc2:	1905                	addi	s2,s2,-31
     fc4:	04090103          	lb	sp,64(s2)
     fc8:	0100                	addi	s0,sp,128
     fca:	1305                	addi	t1,t1,-31
     fcc:	06090003          	lb	zero,96(s2)
     fd0:	0100                	addi	s0,sp,128
     fd2:	0c05                	addi	s8,s8,1
     fd4:	0e090003          	lb	zero,224(s2)
     fd8:	0100                	addi	s0,sp,128
     fda:	1905                	addi	s2,s2,-31
     fdc:	04090103          	lb	sp,64(s2)
     fe0:	0100                	addi	s0,sp,128
     fe2:	1305                	addi	t1,t1,-31
     fe4:	06090003          	lb	zero,96(s2)
     fe8:	0100                	addi	s0,sp,128
     fea:	0c05                	addi	s8,s8,1
     fec:	0e090003          	lb	zero,224(s2)
     ff0:	0100                	addi	s0,sp,128
     ff2:	1905                	addi	s2,s2,-31
     ff4:	04090103          	lb	sp,64(s2)
     ff8:	0100                	addi	s0,sp,128
     ffa:	1305                	addi	t1,t1,-31
     ffc:	06090003          	lb	zero,96(s2)
    1000:	0100                	addi	s0,sp,128
    1002:	0c05                	addi	s8,s8,1
    1004:	0e090003          	lb	zero,224(s2)
    1008:	0100                	addi	s0,sp,128
    100a:	1905                	addi	s2,s2,-31
    100c:	04090103          	lb	sp,64(s2)
    1010:	0100                	addi	s0,sp,128
    1012:	1305                	addi	t1,t1,-31
    1014:	06090003          	lb	zero,96(s2)
    1018:	0100                	addi	s0,sp,128
    101a:	0c05                	addi	s8,s8,1
    101c:	0e090003          	lb	zero,224(s2)
    1020:	0100                	addi	s0,sp,128
    1022:	1905                	addi	s2,s2,-31
    1024:	04090103          	lb	sp,64(s2)
    1028:	0100                	addi	s0,sp,128
    102a:	1305                	addi	t1,t1,-31
    102c:	06090003          	lb	zero,96(s2)
    1030:	0100                	addi	s0,sp,128
    1032:	0c05                	addi	s8,s8,1
    1034:	0e090003          	lb	zero,224(s2)
    1038:	0100                	addi	s0,sp,128
    103a:	1905                	addi	s2,s2,-31
    103c:	04090103          	lb	sp,64(s2)
    1040:	0100                	addi	s0,sp,128
    1042:	1305                	addi	t1,t1,-31
    1044:	06090003          	lb	zero,96(s2)
    1048:	0100                	addi	s0,sp,128
    104a:	0c05                	addi	s8,s8,1
    104c:	0e090003          	lb	zero,224(s2)
    1050:	0100                	addi	s0,sp,128
    1052:	1c05                	addi	s8,s8,-31
    1054:	04090303          	lb	t1,64(s2)
    1058:	0100                	addi	s0,sp,128
    105a:	1105                	addi	sp,sp,-31
    105c:	04090003          	lb	zero,64(s2)
    1060:	0100                	addi	s0,sp,128
    1062:	1c05                	addi	s8,s8,-31
    1064:	04090103          	lb	sp,64(s2)
    1068:	0100                	addi	s0,sp,128
    106a:	1105                	addi	sp,sp,-31
    106c:	04090003          	lb	zero,64(s2)
    1070:	0100                	addi	s0,sp,128
    1072:	1c05                	addi	s8,s8,-31
    1074:	04090103          	lb	sp,64(s2)
    1078:	0100                	addi	s0,sp,128
    107a:	1105                	addi	sp,sp,-31
    107c:	04090003          	lb	zero,64(s2)
    1080:	0100                	addi	s0,sp,128
    1082:	1c05                	addi	s8,s8,-31
    1084:	04090103          	lb	sp,64(s2)
    1088:	0100                	addi	s0,sp,128
    108a:	1105                	addi	sp,sp,-31
    108c:	04090003          	lb	zero,64(s2)
    1090:	0100                	addi	s0,sp,128
    1092:	1b05                	addi	s6,s6,-31
    1094:	04090203          	lb	tp,64(s2)
    1098:	0100                	addi	s0,sp,128
    109a:	1005                	c.nop	-31
    109c:	04090003          	lb	zero,64(s2)
    10a0:	0100                	addi	s0,sp,128
    10a2:	1b05                	addi	s6,s6,-31
    10a4:	04090103          	lb	sp,64(s2)
    10a8:	0100                	addi	s0,sp,128
    10aa:	1005                	c.nop	-31
    10ac:	04090003          	lb	zero,64(s2)
    10b0:	0100                	addi	s0,sp,128
    10b2:	1b05                	addi	s6,s6,-31
    10b4:	04090103          	lb	sp,64(s2)
    10b8:	0100                	addi	s0,sp,128
    10ba:	1005                	c.nop	-31
    10bc:	04090003          	lb	zero,64(s2)
    10c0:	0100                	addi	s0,sp,128
    10c2:	1b05                	addi	s6,s6,-31
    10c4:	04090103          	lb	sp,64(s2)
    10c8:	0100                	addi	s0,sp,128
    10ca:	2905                	addiw	s2,s2,1
    10cc:	0c090003          	lb	zero,192(s2)
    10d0:	0100                	addi	s0,sp,128
    10d2:	1f05                	addi	t5,t5,-31
    10d4:	1a090003          	lb	zero,416(s2)
    10d8:	0100                	addi	s0,sp,128
    10da:	1005                	c.nop	-31
    10dc:	0e090003          	lb	zero,224(s2)
    10e0:	0100                	addi	s0,sp,128
    10e2:	1c05                	addi	s8,s8,-31
    10e4:	04090203          	lb	tp,64(s2)
    10e8:	0100                	addi	s0,sp,128
    10ea:	2b05                	addiw	s6,s6,1
    10ec:	04090003          	lb	zero,64(s2)
    10f0:	0100                	addi	s0,sp,128
    10f2:	1005                	c.nop	-31
    10f4:	04090003          	lb	zero,64(s2)
    10f8:	0100                	addi	s0,sp,128
    10fa:	1c05                	addi	s8,s8,-31
    10fc:	0a090103          	lb	sp,160(s2)
    1100:	0100                	addi	s0,sp,128
    1102:	2b05                	addiw	s6,s6,1
    1104:	04090003          	lb	zero,64(s2)
    1108:	0100                	addi	s0,sp,128
    110a:	1005                	c.nop	-31
    110c:	04090003          	lb	zero,64(s2)
    1110:	0100                	addi	s0,sp,128
    1112:	2205                	addiw	tp,tp,1 # 1 <_prog_start-0x7fffffff>
    1114:	0a090103          	lb	sp,160(s2)
    1118:	0100                	addi	s0,sp,128
    111a:	1705                	addi	a4,a4,-31
    111c:	06090003          	lb	zero,96(s2)
    1120:	0100                	addi	s0,sp,128
    1122:	3205                	addiw	tp,tp,-31 # ffffffffffffffe1 <multiply2+0xffffffff7fffe421>
    1124:	0e090003          	lb	zero,224(s2)
    1128:	0100                	addi	s0,sp,128
    112a:	1005                	c.nop	-31
    112c:	04090003          	lb	zero,64(s2)
    1130:	0100                	addi	s0,sp,128
    1132:	2205                	addiw	tp,tp,1 # 1 <_prog_start-0x7fffffff>
    1134:	0a090103          	lb	sp,160(s2)
    1138:	0100                	addi	s0,sp,128
    113a:	1705                	addi	a4,a4,-31
    113c:	06090003          	lb	zero,96(s2)
    1140:	0100                	addi	s0,sp,128
    1142:	3205                	addiw	tp,tp,-31 # ffffffffffffffe1 <multiply2+0xffffffff7fffe421>
    1144:	0e090003          	lb	zero,224(s2)
    1148:	0100                	addi	s0,sp,128
    114a:	1005                	c.nop	-31
    114c:	04090003          	lb	zero,64(s2)
    1150:	0100                	addi	s0,sp,128
    1152:	1305                	addi	t1,t1,-31
    1154:	0a090303          	lb	t1,160(s2)
    1158:	0100                	addi	s0,sp,128
    115a:	2205                	addiw	tp,tp,1 # 1 <_prog_start-0x7fffffff>
    115c:	04090003          	lb	zero,64(s2)
    1160:	0100                	addi	s0,sp,128
    1162:	0c05                	addi	s8,s8,1
    1164:	04090003          	lb	zero,64(s2)
    1168:	0100                	addi	s0,sp,128
    116a:	1305                	addi	t1,t1,-31
    116c:	0a090103          	lb	sp,160(s2)
    1170:	0100                	addi	s0,sp,128
    1172:	2205                	addiw	tp,tp,1 # 1 <_prog_start-0x7fffffff>
    1174:	04090003          	lb	zero,64(s2)
    1178:	0100                	addi	s0,sp,128
    117a:	0c05                	addi	s8,s8,1
    117c:	04090003          	lb	zero,64(s2)
    1180:	0100                	addi	s0,sp,128
    1182:	1305                	addi	t1,t1,-31
    1184:	0a090103          	lb	sp,160(s2)
    1188:	0100                	addi	s0,sp,128
    118a:	2205                	addiw	tp,tp,1 # 1 <_prog_start-0x7fffffff>
    118c:	04090003          	lb	zero,64(s2)
    1190:	0100                	addi	s0,sp,128
    1192:	0c05                	addi	s8,s8,1
    1194:	04090003          	lb	zero,64(s2)
    1198:	0100                	addi	s0,sp,128
    119a:	1305                	addi	t1,t1,-31
    119c:	0a090103          	lb	sp,160(s2)
    11a0:	0100                	addi	s0,sp,128
    11a2:	2205                	addiw	tp,tp,1 # 1 <_prog_start-0x7fffffff>
    11a4:	04090003          	lb	zero,64(s2)
    11a8:	0100                	addi	s0,sp,128
    11aa:	0c05                	addi	s8,s8,1
    11ac:	04090003          	lb	zero,64(s2)
    11b0:	0100                	addi	s0,sp,128
    11b2:	1305                	addi	t1,t1,-31
    11b4:	0a090103          	lb	sp,160(s2)
    11b8:	0100                	addi	s0,sp,128
    11ba:	2205                	addiw	tp,tp,1 # 1 <_prog_start-0x7fffffff>
    11bc:	04090003          	lb	zero,64(s2)
    11c0:	0100                	addi	s0,sp,128
    11c2:	0c05                	addi	s8,s8,1
    11c4:	04090003          	lb	zero,64(s2)
    11c8:	0100                	addi	s0,sp,128
    11ca:	1305                	addi	t1,t1,-31
    11cc:	0a090103          	lb	sp,160(s2)
    11d0:	0100                	addi	s0,sp,128
    11d2:	2205                	addiw	tp,tp,1 # 1 <_prog_start-0x7fffffff>
    11d4:	04090003          	lb	zero,64(s2)
    11d8:	0100                	addi	s0,sp,128
    11da:	0c05                	addi	s8,s8,1
    11dc:	04090003          	lb	zero,64(s2)
    11e0:	0100                	addi	s0,sp,128
    11e2:	1305                	addi	t1,t1,-31
    11e4:	0a090103          	lb	sp,160(s2)
    11e8:	0100                	addi	s0,sp,128
    11ea:	2205                	addiw	tp,tp,1 # 1 <_prog_start-0x7fffffff>
    11ec:	04090003          	lb	zero,64(s2)
    11f0:	0100                	addi	s0,sp,128
    11f2:	0c05                	addi	s8,s8,1
    11f4:	04090003          	lb	zero,64(s2)
    11f8:	0100                	addi	s0,sp,128
    11fa:	1305                	addi	t1,t1,-31
    11fc:	0a090103          	lb	sp,160(s2)
    1200:	0100                	addi	s0,sp,128
    1202:	2205                	addiw	tp,tp,1 # 1 <_prog_start-0x7fffffff>
    1204:	04090003          	lb	zero,64(s2)
    1208:	0100                	addi	s0,sp,128
    120a:	0c05                	addi	s8,s8,1
    120c:	04090003          	lb	zero,64(s2)
    1210:	0100                	addi	s0,sp,128
    1212:	1a05                	addi	s4,s4,-31
    1214:	0200                	addi	s0,sp,256
    1216:	0304                	addi	s1,sp,384
    1218:	097fa003          	lw	zero,151(t6)
    121c:	000a                	c.slli	zero,0x2
    121e:	0501                	addi	a0,a0,0
    1220:	0402000f          	.insn	4, 0x0402000f
    1224:	0301                	addi	t1,t1,0
    1226:	0900                	addi	s0,sp,144
    1228:	000a                	c.slli	zero,0x2
    122a:	0501                	addi	a0,a0,0
    122c:	0312                	slli	t1,t1,0x4
    122e:	00e5                	addi	ra,ra,25
    1230:	1609                	addi	a2,a2,-30
    1232:	0100                	addi	s0,sp,128
    1234:	0b05                	addi	s6,s6,1
    1236:	04090003          	lb	zero,64(s2)
    123a:	0100                	addi	s0,sp,128
    123c:	0705                	addi	a4,a4,1
    123e:	08090103          	lb	sp,128(s2)
    1242:	0100                	addi	s0,sp,128
    1244:	1205                	addi	tp,tp,-31 # ffffffffffffffe1 <multiply2+0xffffffff7fffe421>
    1246:	06090003          	lb	zero,96(s2)
    124a:	0100                	addi	s0,sp,128
    124c:	0b05                	addi	s6,s6,1
    124e:	04090003          	lb	zero,64(s2)
    1252:	0100                	addi	s0,sp,128
    1254:	0705                	addi	a4,a4,1
    1256:	04090103          	lb	sp,64(s2)
    125a:	0100                	addi	s0,sp,128
    125c:	1205                	addi	tp,tp,-31 # ffffffffffffffe1 <multiply2+0xffffffff7fffe421>
    125e:	06090003          	lb	zero,96(s2)
    1262:	0100                	addi	s0,sp,128
    1264:	0b05                	addi	s6,s6,1
    1266:	04090003          	lb	zero,64(s2)
    126a:	0100                	addi	s0,sp,128
    126c:	0705                	addi	a4,a4,1
    126e:	04090103          	lb	sp,64(s2)
    1272:	0100                	addi	s0,sp,128
    1274:	1205                	addi	tp,tp,-31 # ffffffffffffffe1 <multiply2+0xffffffff7fffe421>
    1276:	06090003          	lb	zero,96(s2)
    127a:	0100                	addi	s0,sp,128
    127c:	0b05                	addi	s6,s6,1
    127e:	04090003          	lb	zero,64(s2)
    1282:	0100                	addi	s0,sp,128
    1284:	0705                	addi	a4,a4,1
    1286:	04090103          	lb	sp,64(s2)
    128a:	0100                	addi	s0,sp,128
    128c:	1205                	addi	tp,tp,-31 # ffffffffffffffe1 <multiply2+0xffffffff7fffe421>
    128e:	06090003          	lb	zero,96(s2)
    1292:	0100                	addi	s0,sp,128
    1294:	0b05                	addi	s6,s6,1
    1296:	04090003          	lb	zero,64(s2)
    129a:	0100                	addi	s0,sp,128
    129c:	0705                	addi	a4,a4,1
    129e:	04090103          	lb	sp,64(s2)
    12a2:	0100                	addi	s0,sp,128
    12a4:	1205                	addi	tp,tp,-31 # ffffffffffffffe1 <multiply2+0xffffffff7fffe421>
    12a6:	06090003          	lb	zero,96(s2)
    12aa:	0100                	addi	s0,sp,128
    12ac:	0b05                	addi	s6,s6,1
    12ae:	04090003          	lb	zero,64(s2)
    12b2:	0100                	addi	s0,sp,128
    12b4:	0705                	addi	a4,a4,1
    12b6:	04090103          	lb	sp,64(s2)
    12ba:	0100                	addi	s0,sp,128
    12bc:	1205                	addi	tp,tp,-31 # ffffffffffffffe1 <multiply2+0xffffffff7fffe421>
    12be:	06090003          	lb	zero,96(s2)
    12c2:	0100                	addi	s0,sp,128
    12c4:	0b05                	addi	s6,s6,1
    12c6:	04090003          	lb	zero,64(s2)
    12ca:	0100                	addi	s0,sp,128
    12cc:	0705                	addi	a4,a4,1
    12ce:	04090103          	lb	sp,64(s2)
    12d2:	0100                	addi	s0,sp,128
    12d4:	1205                	addi	tp,tp,-31 # ffffffffffffffe1 <multiply2+0xffffffff7fffe421>
    12d6:	06090003          	lb	zero,96(s2)
    12da:	0100                	addi	s0,sp,128
    12dc:	0b05                	addi	s6,s6,1
    12de:	04090003          	lb	zero,64(s2)
    12e2:	0100                	addi	s0,sp,128
    12e4:	0105                	addi	sp,sp,1
    12e6:	04090203          	lb	tp,64(s2)
    12ea:	0100                	addi	s0,sp,128
    12ec:	0404                	addi	s1,sp,512
    12ee:	097dd003          	lhu	zero,151(s11)
    12f2:	0008                	.insn	2, 0x0008
    12f4:	0501                	addi	a0,a0,0
    12f6:	09010303          	lb	t1,144(sp)
    12fa:	0016                	c.slli	zero,0x5
    12fc:	0301                	addi	t1,t1,0
    12fe:	0901                	addi	s2,s2,0
    1300:	0010                	.insn	2, 0x0010
    1302:	0301                	addi	t1,t1,0
    1304:	0901                	addi	s2,s2,0
    1306:	0010                	.insn	2, 0x0010
    1308:	0301                	addi	t1,t1,0
    130a:	0901                	addi	s2,s2,0
    130c:	000a                	c.slli	zero,0x2
    130e:	0501                	addi	a0,a0,0
    1310:	0301                	addi	t1,t1,0
    1312:	0901                	addi	s2,s2,0
    1314:	0008                	.insn	2, 0x0008
    1316:	0301                	addi	t1,t1,0
    1318:	000a0903          	lb	s2,0(s4)
    131c:	0501                	addi	a0,a0,0
    131e:	09010303          	lb	t1,144(sp)
    1322:	000e                	c.slli	zero,0x3
    1324:	0301                	addi	t1,t1,0
    1326:	0901                	addi	s2,s2,0
    1328:	0010                	.insn	2, 0x0010
    132a:	0301                	addi	t1,t1,0
    132c:	0901                	addi	s2,s2,0
    132e:	000c                	.insn	2, 0x000c
    1330:	0501                	addi	a0,a0,0
    1332:	09010313          	addi	t1,sp,144
    1336:	0008                	.insn	2, 0x0008
    1338:	0501                	addi	a0,a0,0
    133a:	09010303          	lb	t1,144(sp)
    133e:	0010                	.insn	2, 0x0010
    1340:	0501                	addi	a0,a0,0
    1342:	030a                	slli	t1,t1,0x2
    1344:	0901                	addi	s2,s2,0
    1346:	0008                	.insn	2, 0x0008
    1348:	0501                	addi	a0,a0,0
    134a:	0301                	addi	t1,t1,0
    134c:	0901                	addi	s2,s2,0
    134e:	0004                	.insn	2, 0x0004
    1350:	0301                	addi	t1,t1,0
    1352:	000a0903          	lb	s2,0(s4)
    1356:	0501                	addi	a0,a0,0
    1358:	09020303          	lb	t1,144(tp) # 90 <_prog_start-0x7fffff70>
    135c:	0008                	.insn	2, 0x0008
    135e:	0301                	addi	t1,t1,0
    1360:	0901                	addi	s2,s2,0
    1362:	0008                	.insn	2, 0x0008
    1364:	0301                	addi	t1,t1,0
    1366:	0902                	c.slli64	s2
    1368:	0008                	.insn	2, 0x0008
    136a:	0301                	addi	t1,t1,0
    136c:	0901                	addi	s2,s2,0
    136e:	0010                	.insn	2, 0x0010
    1370:	0301                	addi	t1,t1,0
    1372:	0901                	addi	s2,s2,0
    1374:	0010                	.insn	2, 0x0010
    1376:	0301                	addi	t1,t1,0
    1378:	0901                	addi	s2,s2,0
    137a:	000e                	c.slli	zero,0x3
    137c:	0301                	addi	t1,t1,0
    137e:	0902                	c.slli64	s2
    1380:	000e                	c.slli	zero,0x3
    1382:	0301                	addi	t1,t1,0
    1384:	0901                	addi	s2,s2,0
    1386:	0008                	.insn	2, 0x0008
    1388:	0501                	addi	a0,a0,0
    138a:	0308                	addi	a0,sp,384
    138c:	0902                	c.slli64	s2
    138e:	0008                	.insn	2, 0x0008
    1390:	0501                	addi	a0,a0,0
    1392:	0402000b          	.insn	4, 0x0402000b
    1396:	0301                	addi	t1,t1,0
    1398:	0900                	addi	s0,sp,144
    139a:	0002                	c.slli64	zero
    139c:	0501                	addi	a0,a0,0
    139e:	0009                	c.nop	2
    13a0:	0402                	c.slli64	s0
    13a2:	0301                	addi	t1,t1,0
    13a4:	0900                	addi	s0,sp,144
    13a6:	000a                	c.slli	zero,0x2
    13a8:	0501                	addi	a0,a0,0
    13aa:	030d                	addi	t1,t1,3
    13ac:	00080903          	lb	s2,0(a6)
    13b0:	0301                	addi	t1,t1,0
    13b2:	0901                	addi	s2,s2,0
    13b4:	000e                	c.slli	zero,0x3
    13b6:	0501                	addi	a0,a0,0
    13b8:	09020303          	lb	t1,144(tp) # 90 <_prog_start-0x7fffff70>
    13bc:	000e                	c.slli	zero,0x3
    13be:	0301                	addi	t1,t1,0
    13c0:	0901                	addi	s2,s2,0
    13c2:	000c                	.insn	2, 0x000c
    13c4:	0301                	addi	t1,t1,0
    13c6:	0901                	addi	s2,s2,0
    13c8:	000c                	.insn	2, 0x000c
    13ca:	0301                	addi	t1,t1,0
    13cc:	0901                	addi	s2,s2,0
    13ce:	000c                	.insn	2, 0x000c
    13d0:	0301                	addi	t1,t1,0
    13d2:	00180903          	lb	s2,1(a6)
    13d6:	0301                	addi	t1,t1,0
    13d8:	0901                	addi	s2,s2,0
    13da:	000e                	c.slli	zero,0x3
    13dc:	0301                	addi	t1,t1,0
    13de:	0901                	addi	s2,s2,0
    13e0:	000e                	c.slli	zero,0x3
    13e2:	0301                	addi	t1,t1,0
    13e4:	0901                	addi	s2,s2,0
    13e6:	000e                	c.slli	zero,0x3
    13e8:	0301                	addi	t1,t1,0
    13ea:	0902                	c.slli64	s2
    13ec:	000e                	c.slli	zero,0x3
    13ee:	0301                	addi	t1,t1,0
    13f0:	0901                	addi	s2,s2,0
    13f2:	0008                	.insn	2, 0x0008
    13f4:	0501                	addi	a0,a0,0
    13f6:	0308                	addi	a0,sp,384
    13f8:	0902                	c.slli64	s2
    13fa:	0008                	.insn	2, 0x0008
    13fc:	0501                	addi	a0,a0,0
    13fe:	0402000b          	.insn	4, 0x0402000b
    1402:	0301                	addi	t1,t1,0
    1404:	0900                	addi	s0,sp,144
    1406:	0002                	c.slli64	zero
    1408:	0501                	addi	a0,a0,0
    140a:	0009                	c.nop	2
    140c:	0402                	c.slli64	s0
    140e:	0301                	addi	t1,t1,0
    1410:	0900                	addi	s0,sp,144
    1412:	000a                	c.slli	zero,0x2
    1414:	0501                	addi	a0,a0,0
    1416:	09010303          	lb	t1,144(sp)
    141a:	0008                	.insn	2, 0x0008
    141c:	0501                	addi	a0,a0,0
    141e:	0308                	addi	a0,sp,384
    1420:	0901                	addi	s2,s2,0
    1422:	0008                	.insn	2, 0x0008
    1424:	0501                	addi	a0,a0,0
    1426:	0402000b          	.insn	4, 0x0402000b
    142a:	0301                	addi	t1,t1,0
    142c:	0900                	addi	s0,sp,144
    142e:	0002                	c.slli64	zero
    1430:	0501                	addi	a0,a0,0
    1432:	0009                	c.nop	2
    1434:	0402                	c.slli64	s0
    1436:	0301                	addi	t1,t1,0
    1438:	0900                	addi	s0,sp,144
    143a:	000a                	c.slli	zero,0x2
    143c:	0501                	addi	a0,a0,0
    143e:	030d                	addi	t1,t1,3
    1440:	0902                	c.slli64	s2
    1442:	0008                	.insn	2, 0x0008
    1444:	0301                	addi	t1,t1,0
    1446:	0901                	addi	s2,s2,0
    1448:	000e                	c.slli	zero,0x3
    144a:	0501                	addi	a0,a0,0
    144c:	09020303          	lb	t1,144(tp) # 90 <_prog_start-0x7fffff70>
    1450:	000e                	c.slli	zero,0x3
    1452:	0501                	addi	a0,a0,0
    1454:	0301                	addi	t1,t1,0
    1456:	0901                	addi	s2,s2,0
    1458:	0018                	.insn	2, 0x0018
    145a:	0501                	addi	a0,a0,0
    145c:	0326                	slli	t1,t1,0x9
    145e:	0902                	c.slli64	s2
    1460:	000a                	c.slli	zero,0x2
    1462:	0501                	addi	a0,a0,0
    1464:	030e                	slli	t1,t1,0x3
    1466:	0901                	addi	s2,s2,0
    1468:	0008                	.insn	2, 0x0008
    146a:	0501                	addi	a0,a0,0
    146c:	0305                	addi	t1,t1,1
    146e:	00040903          	lb	s2,0(s0)
    1472:	0301                	addi	t1,t1,0
    1474:	0901                	addi	s2,s2,0
    1476:	0008                	.insn	2, 0x0008
    1478:	0301                	addi	t1,t1,0
    147a:	00080903          	lb	s2,0(a6)
    147e:	0301                	addi	t1,t1,0
    1480:	0901                	addi	s2,s2,0
    1482:	0010                	.insn	2, 0x0010
    1484:	0301                	addi	t1,t1,0
    1486:	00100903          	lb	s2,1(zero) # 1 <_prog_start-0x7fffffff>
    148a:	0301                	addi	t1,t1,0
    148c:	0901                	addi	s2,s2,0
    148e:	000e                	c.slli	zero,0x3
    1490:	0301                	addi	t1,t1,0
    1492:	000e0903          	lb	s2,0(t3)
    1496:	0301                	addi	t1,t1,0
    1498:	00080903          	lb	s2,0(a6)
    149c:	0301                	addi	t1,t1,0
    149e:	0901                	addi	s2,s2,0
    14a0:	0004                	.insn	2, 0x0004
    14a2:	0301                	addi	t1,t1,0
    14a4:	0901                	addi	s2,s2,0
    14a6:	0008                	.insn	2, 0x0008
    14a8:	0501                	addi	a0,a0,0
    14aa:	0903030b          	.insn	4, 0x0903030b
    14ae:	0004                	.insn	2, 0x0004
    14b0:	0501                	addi	a0,a0,0
    14b2:	000e                	c.slli	zero,0x3
    14b4:	0402                	c.slli64	s0
    14b6:	0301                	addi	t1,t1,0
    14b8:	0900                	addi	s0,sp,144
    14ba:	0002                	c.slli64	zero
    14bc:	0501                	addi	a0,a0,0
    14be:	000c                	.insn	2, 0x000c
    14c0:	0402                	c.slli64	s0
    14c2:	0301                	addi	t1,t1,0
    14c4:	0900                	addi	s0,sp,144
    14c6:	000a                	c.slli	zero,0x2
    14c8:	0501                	addi	a0,a0,0
    14ca:	0314                	addi	a3,sp,384
    14cc:	00080903          	lb	s2,0(a6)
    14d0:	0501                	addi	a0,a0,0
    14d2:	0310                	addi	a2,sp,384
    14d4:	0904                	addi	s1,sp,144
    14d6:	000a                	c.slli	zero,0x2
    14d8:	0301                	addi	t1,t1,0
    14da:	0901                	addi	s2,s2,0
    14dc:	000e                	c.slli	zero,0x3
    14de:	0501                	addi	a0,a0,0
    14e0:	0305                	addi	t1,t1,1
    14e2:	000e0903          	lb	s2,0(t3)
    14e6:	0301                	addi	t1,t1,0
    14e8:	0901                	addi	s2,s2,0
    14ea:	000c                	.insn	2, 0x000c
    14ec:	0301                	addi	t1,t1,0
    14ee:	0901                	addi	s2,s2,0
    14f0:	0012                	c.slli	zero,0x4
    14f2:	0501                	addi	a0,a0,0
    14f4:	0301                	addi	t1,t1,0
    14f6:	0901                	addi	s2,s2,0
    14f8:	0018                	.insn	2, 0x0018
    14fa:	0501                	addi	a0,a0,0
    14fc:	0326                	slli	t1,t1,0x9
    14fe:	0902                	c.slli64	s2
    1500:	000a                	c.slli	zero,0x2
    1502:	0501                	addi	a0,a0,0
    1504:	030e                	slli	t1,t1,0x3
    1506:	0901                	addi	s2,s2,0
    1508:	0008                	.insn	2, 0x0008
    150a:	0501                	addi	a0,a0,0
    150c:	0305                	addi	t1,t1,1
    150e:	00040903          	lb	s2,0(s0)
    1512:	0301                	addi	t1,t1,0
    1514:	0901                	addi	s2,s2,0
    1516:	0008                	.insn	2, 0x0008
    1518:	0501                	addi	a0,a0,0
    151a:	030e                	slli	t1,t1,0x3
    151c:	00080903          	lb	s2,0(a6)
    1520:	0301                	addi	t1,t1,0
    1522:	0901                	addi	s2,s2,0
    1524:	000c                	.insn	2, 0x000c
    1526:	0501                	addi	a0,a0,0
    1528:	0305                	addi	t1,t1,1
    152a:	0902                	c.slli64	s2
    152c:	000c                	.insn	2, 0x000c
    152e:	0301                	addi	t1,t1,0
    1530:	0901                	addi	s2,s2,0
    1532:	000e                	c.slli	zero,0x3
    1534:	0301                	addi	t1,t1,0
    1536:	000e0903          	lb	s2,0(t3)
    153a:	0301                	addi	t1,t1,0
    153c:	0901                	addi	s2,s2,0
    153e:	000e                	c.slli	zero,0x3
    1540:	0301                	addi	t1,t1,0
    1542:	000e0903          	lb	s2,0(t3)
    1546:	0301                	addi	t1,t1,0
    1548:	00080903          	lb	s2,0(a6)
    154c:	0301                	addi	t1,t1,0
    154e:	0901                	addi	s2,s2,0
    1550:	0004                	.insn	2, 0x0004
    1552:	0301                	addi	t1,t1,0
    1554:	0901                	addi	s2,s2,0
    1556:	0008                	.insn	2, 0x0008
    1558:	0501                	addi	a0,a0,0
    155a:	0903030b          	.insn	4, 0x0903030b
    155e:	0004                	.insn	2, 0x0004
    1560:	0501                	addi	a0,a0,0
    1562:	000e                	c.slli	zero,0x3
    1564:	0402                	c.slli64	s0
    1566:	0301                	addi	t1,t1,0
    1568:	0900                	addi	s0,sp,144
    156a:	0002                	c.slli64	zero
    156c:	0501                	addi	a0,a0,0
    156e:	000c                	.insn	2, 0x000c
    1570:	0402                	c.slli64	s0
    1572:	0301                	addi	t1,t1,0
    1574:	0900                	addi	s0,sp,144
    1576:	000a                	c.slli	zero,0x2
    1578:	0501                	addi	a0,a0,0
    157a:	0305                	addi	t1,t1,1
    157c:	00080903          	lb	s2,0(a6)
    1580:	0501                	addi	a0,a0,0
    1582:	0903030b          	.insn	4, 0x0903030b
    1586:	0008                	.insn	2, 0x0008
    1588:	0501                	addi	a0,a0,0
    158a:	000e                	c.slli	zero,0x3
    158c:	0402                	c.slli64	s0
    158e:	0301                	addi	t1,t1,0
    1590:	0900                	addi	s0,sp,144
    1592:	0002                	c.slli64	zero
    1594:	0501                	addi	a0,a0,0
    1596:	000c                	.insn	2, 0x000c
    1598:	0402                	c.slli64	s0
    159a:	0301                	addi	t1,t1,0
    159c:	0900                	addi	s0,sp,144
    159e:	000a                	c.slli	zero,0x2
    15a0:	0501                	addi	a0,a0,0
    15a2:	0314                	addi	a3,sp,384
    15a4:	00080903          	lb	s2,0(a6)
    15a8:	0501                	addi	a0,a0,0
    15aa:	0312                	slli	t1,t1,0x4
    15ac:	0904                	addi	s1,sp,144
    15ae:	000a                	c.slli	zero,0x2
    15b0:	0301                	addi	t1,t1,0
    15b2:	0901                	addi	s2,s2,0
    15b4:	000e                	c.slli	zero,0x3
    15b6:	0501                	addi	a0,a0,0
    15b8:	0305                	addi	t1,t1,1
    15ba:	000e0903          	lb	s2,0(t3)
    15be:	0301                	addi	t1,t1,0
    15c0:	0901                	addi	s2,s2,0
    15c2:	000c                	.insn	2, 0x000c
    15c4:	0301                	addi	t1,t1,0
    15c6:	0901                	addi	s2,s2,0
    15c8:	0012                	c.slli	zero,0x4
    15ca:	0501                	addi	a0,a0,0
    15cc:	0301                	addi	t1,t1,0
    15ce:	0901                	addi	s2,s2,0
    15d0:	0018                	.insn	2, 0x0018
    15d2:	0501                	addi	a0,a0,0
    15d4:	09020323          	sb	a6,134(tp) # 86 <_prog_start-0x7fffff7a>
    15d8:	000a                	c.slli	zero,0x2
    15da:	0501                	addi	a0,a0,0
    15dc:	030d                	addi	t1,t1,3
    15de:	0901                	addi	s2,s2,0
    15e0:	0008                	.insn	2, 0x0008
    15e2:	0301                	addi	t1,t1,0
    15e4:	0901                	addi	s2,s2,0
    15e6:	000e                	c.slli	zero,0x3
    15e8:	0501                	addi	a0,a0,0
    15ea:	0305                	addi	t1,t1,1
    15ec:	0908                	addi	a0,sp,144
    15ee:	000e                	c.slli	zero,0x3
    15f0:	0301                	addi	t1,t1,0
    15f2:	0901                	addi	s2,s2,0
    15f4:	0004                	.insn	2, 0x0004
    15f6:	0301                	addi	t1,t1,0
    15f8:	0901                	addi	s2,s2,0
    15fa:	0004                	.insn	2, 0x0004
    15fc:	0501                	addi	a0,a0,0
    15fe:	0319                	addi	t1,t1,6
    1600:	0901                	addi	s2,s2,0
    1602:	0016                	c.slli	zero,0x5
    1604:	0501                	addi	a0,a0,0
    1606:	031c                	addi	a5,sp,384
    1608:	0902                	c.slli64	s2
    160a:	000a                	c.slli	zero,0x2
    160c:	0501                	addi	a0,a0,0
    160e:	0314                	addi	a3,sp,384
    1610:	0900                	addi	s0,sp,144
    1612:	0004                	.insn	2, 0x0004
    1614:	0501                	addi	a0,a0,0
    1616:	031c                	addi	a5,sp,384
    1618:	0901                	addi	s2,s2,0
    161a:	0004                	.insn	2, 0x0004
    161c:	0501                	addi	a0,a0,0
    161e:	0314                	addi	a3,sp,384
    1620:	0900                	addi	s0,sp,144
    1622:	0004                	.insn	2, 0x0004
    1624:	0501                	addi	a0,a0,0
    1626:	031c                	addi	a5,sp,384
    1628:	0901                	addi	s2,s2,0
    162a:	0004                	.insn	2, 0x0004
    162c:	0501                	addi	a0,a0,0
    162e:	0314                	addi	a3,sp,384
    1630:	0900                	addi	s0,sp,144
    1632:	0004                	.insn	2, 0x0004
    1634:	0501                	addi	a0,a0,0
    1636:	031c                	addi	a5,sp,384
    1638:	0901                	addi	s2,s2,0
    163a:	0004                	.insn	2, 0x0004
    163c:	0501                	addi	a0,a0,0
    163e:	0314                	addi	a3,sp,384
    1640:	0900                	addi	s0,sp,144
    1642:	0004                	.insn	2, 0x0004
    1644:	0501                	addi	a0,a0,0
    1646:	031c                	addi	a5,sp,384
    1648:	0901                	addi	s2,s2,0
    164a:	0004                	.insn	2, 0x0004
    164c:	0501                	addi	a0,a0,0
    164e:	0314                	addi	a3,sp,384
    1650:	0900                	addi	s0,sp,144
    1652:	0004                	.insn	2, 0x0004
    1654:	0501                	addi	a0,a0,0
    1656:	031c                	addi	a5,sp,384
    1658:	0901                	addi	s2,s2,0
    165a:	0004                	.insn	2, 0x0004
    165c:	0501                	addi	a0,a0,0
    165e:	0314                	addi	a3,sp,384
    1660:	0900                	addi	s0,sp,144
    1662:	0004                	.insn	2, 0x0004
    1664:	0501                	addi	a0,a0,0
    1666:	031c                	addi	a5,sp,384
    1668:	0901                	addi	s2,s2,0
    166a:	0004                	.insn	2, 0x0004
    166c:	0501                	addi	a0,a0,0
    166e:	0314                	addi	a3,sp,384
    1670:	0900                	addi	s0,sp,144
    1672:	0004                	.insn	2, 0x0004
    1674:	0501                	addi	a0,a0,0
    1676:	031c                	addi	a5,sp,384
    1678:	0901                	addi	s2,s2,0
    167a:	0004                	.insn	2, 0x0004
    167c:	0501                	addi	a0,a0,0
    167e:	0314                	addi	a3,sp,384
    1680:	0900                	addi	s0,sp,144
    1682:	0004                	.insn	2, 0x0004
    1684:	0501                	addi	a0,a0,0
    1686:	0305                	addi	t1,t1,1
    1688:	00040903          	lb	s2,0(s0)
    168c:	0301                	addi	t1,t1,0
    168e:	0901                	addi	s2,s2,0
    1690:	0004                	.insn	2, 0x0004
    1692:	0301                	addi	t1,t1,0
    1694:	0901                	addi	s2,s2,0
    1696:	0004                	.insn	2, 0x0004
    1698:	0501                	addi	a0,a0,0
    169a:	0319                	addi	t1,t1,6
    169c:	0901                	addi	s2,s2,0
    169e:	0016                	c.slli	zero,0x5
    16a0:	0501                	addi	a0,a0,0
    16a2:	0321                	addi	t1,t1,8
    16a4:	0902                	c.slli64	s2
    16a6:	000a                	c.slli	zero,0x2
    16a8:	0501                	addi	a0,a0,0
    16aa:	0316                	slli	t1,t1,0x5
    16ac:	0900                	addi	s0,sp,144
    16ae:	0004                	.insn	2, 0x0004
    16b0:	0501                	addi	a0,a0,0
    16b2:	0321                	addi	t1,t1,8
    16b4:	0901                	addi	s2,s2,0
    16b6:	0004                	.insn	2, 0x0004
    16b8:	0501                	addi	a0,a0,0
    16ba:	0316                	slli	t1,t1,0x5
    16bc:	0900                	addi	s0,sp,144
    16be:	0004                	.insn	2, 0x0004
    16c0:	0501                	addi	a0,a0,0
    16c2:	0321                	addi	t1,t1,8
    16c4:	0901                	addi	s2,s2,0
    16c6:	0004                	.insn	2, 0x0004
    16c8:	0501                	addi	a0,a0,0
    16ca:	0316                	slli	t1,t1,0x5
    16cc:	0900                	addi	s0,sp,144
    16ce:	0004                	.insn	2, 0x0004
    16d0:	0501                	addi	a0,a0,0
    16d2:	0321                	addi	t1,t1,8
    16d4:	0901                	addi	s2,s2,0
    16d6:	0004                	.insn	2, 0x0004
    16d8:	0501                	addi	a0,a0,0
    16da:	0316                	slli	t1,t1,0x5
    16dc:	0900                	addi	s0,sp,144
    16de:	0004                	.insn	2, 0x0004
    16e0:	0501                	addi	a0,a0,0
    16e2:	0321                	addi	t1,t1,8
    16e4:	0901                	addi	s2,s2,0
    16e6:	0004                	.insn	2, 0x0004
    16e8:	0501                	addi	a0,a0,0
    16ea:	0316                	slli	t1,t1,0x5
    16ec:	0900                	addi	s0,sp,144
    16ee:	0004                	.insn	2, 0x0004
    16f0:	0501                	addi	a0,a0,0
    16f2:	0321                	addi	t1,t1,8
    16f4:	0901                	addi	s2,s2,0
    16f6:	0004                	.insn	2, 0x0004
    16f8:	0501                	addi	a0,a0,0
    16fa:	0316                	slli	t1,t1,0x5
    16fc:	0900                	addi	s0,sp,144
    16fe:	0004                	.insn	2, 0x0004
    1700:	0501                	addi	a0,a0,0
    1702:	0321                	addi	t1,t1,8
    1704:	0901                	addi	s2,s2,0
    1706:	0004                	.insn	2, 0x0004
    1708:	0501                	addi	a0,a0,0
    170a:	0316                	slli	t1,t1,0x5
    170c:	0900                	addi	s0,sp,144
    170e:	0004                	.insn	2, 0x0004
    1710:	0501                	addi	a0,a0,0
    1712:	0321                	addi	t1,t1,8
    1714:	0901                	addi	s2,s2,0
    1716:	0004                	.insn	2, 0x0004
    1718:	0501                	addi	a0,a0,0
    171a:	0316                	slli	t1,t1,0x5
    171c:	0900                	addi	s0,sp,144
    171e:	0004                	.insn	2, 0x0004
    1720:	0501                	addi	a0,a0,0
    1722:	0305                	addi	t1,t1,1
    1724:	00040903          	lb	s2,0(s0)
    1728:	0301                	addi	t1,t1,0
    172a:	0901                	addi	s2,s2,0
    172c:	000c                	.insn	2, 0x000c
    172e:	0301                	addi	t1,t1,0
    1730:	0901                	addi	s2,s2,0
    1732:	0012                	c.slli	zero,0x4
    1734:	0501                	addi	a0,a0,0
    1736:	030e                	slli	t1,t1,0x3
    1738:	0901                	addi	s2,s2,0
    173a:	000c                	.insn	2, 0x000c
    173c:	0501                	addi	a0,a0,0
    173e:	0305                	addi	t1,t1,1
    1740:	0900                	addi	s0,sp,144
    1742:	0004                	.insn	2, 0x0004
    1744:	0501                	addi	a0,a0,0
    1746:	0402003b          	.insn	4, 0x0402003b
    174a:	09000303          	lb	t1,144(zero) # 90 <_prog_start-0x7fffff70>
    174e:	0002                	c.slli64	zero
    1750:	0501                	addi	a0,a0,0
    1752:	0021                	c.nop	8
    1754:	0402                	c.slli64	s0
    1756:	09000303          	lb	t1,144(zero) # 90 <_prog_start-0x7fffff70>
    175a:	000c                	.insn	2, 0x000c
    175c:	0501                	addi	a0,a0,0
    175e:	001d                	c.nop	7
    1760:	0402                	c.slli64	s0
    1762:	09000303          	lb	t1,144(zero) # 90 <_prog_start-0x7fffff70>
    1766:	0010                	.insn	2, 0x0010
    1768:	0501                	addi	a0,a0,0
    176a:	04020017          	auipc	zero,0x4020
    176e:	0302                	c.slli64	t1
    1770:	0900                	addi	s0,sp,144
    1772:	000a                	c.slli	zero,0x2
    1774:	0501                	addi	a0,a0,0
    1776:	0305                	addi	t1,t1,1
    1778:	0901                	addi	s2,s2,0
    177a:	000e                	c.slli	zero,0x3
    177c:	0301                	addi	t1,t1,0
    177e:	0901                	addi	s2,s2,0
    1780:	0012                	c.slli	zero,0x4
    1782:	0501                	addi	a0,a0,0
    1784:	030e                	slli	t1,t1,0x3
    1786:	0901                	addi	s2,s2,0
    1788:	000c                	.insn	2, 0x000c
    178a:	0501                	addi	a0,a0,0
    178c:	0305                	addi	t1,t1,1
    178e:	0900                	addi	s0,sp,144
    1790:	0004                	.insn	2, 0x0004
    1792:	0501                	addi	a0,a0,0
    1794:	003d                	c.nop	15
    1796:	0402                	c.slli64	s0
    1798:	09000303          	lb	t1,144(zero) # 90 <_prog_start-0x7fffff70>
    179c:	0002                	c.slli64	zero
    179e:	0501                	addi	a0,a0,0
    17a0:	0021                	c.nop	8
    17a2:	0402                	c.slli64	s0
    17a4:	09000303          	lb	t1,144(zero) # 90 <_prog_start-0x7fffff70>
    17a8:	000c                	.insn	2, 0x000c
    17aa:	0501                	addi	a0,a0,0
    17ac:	001d                	c.nop	7
    17ae:	0402                	c.slli64	s0
    17b0:	09000303          	lb	t1,144(zero) # 90 <_prog_start-0x7fffff70>
    17b4:	0010                	.insn	2, 0x0010
    17b6:	0501                	addi	a0,a0,0
    17b8:	04020017          	auipc	zero,0x4020
    17bc:	0302                	c.slli64	t1
    17be:	0900                	addi	s0,sp,144
    17c0:	000a                	c.slli	zero,0x2
    17c2:	0501                	addi	a0,a0,0
    17c4:	0305                	addi	t1,t1,1
    17c6:	0901                	addi	s2,s2,0
    17c8:	000e                	c.slli	zero,0x3
    17ca:	0501                	addi	a0,a0,0
    17cc:	0301                	addi	t1,t1,0
    17ce:	0901                	addi	s2,s2,0
    17d0:	000c                	.insn	2, 0x000c
    17d2:	0401                	addi	s0,s0,0
    17d4:	0505                	addi	a0,a0,1
    17d6:	0322                	slli	t1,t1,0x8
    17d8:	7eac                	ld	a1,120(a3)
    17da:	0a09                	addi	s4,s4,2
    17dc:	0100                	addi	s0,sp,128
    17de:	0505                	addi	a0,a0,1
    17e0:	12090203          	lb	tp,288(s2)
    17e4:	0100                	addi	s0,sp,128
    17e6:	08090e03          	lb	t3,128(s2)
    17ea:	0100                	addi	s0,sp,128
    17ec:	04090103          	lb	sp,64(s2)
    17f0:	0100                	addi	s0,sp,128
    17f2:	04090103          	lb	sp,64(s2)
    17f6:	0100                	addi	s0,sp,128
    17f8:	0a05                	addi	s4,s4,1
    17fa:	04090203          	lb	tp,64(s2)
    17fe:	0100                	addi	s0,sp,128
    1800:	0105                	addi	sp,sp,1
    1802:	02090103          	lb	sp,32(s2)
    1806:	0100                	addi	s0,sp,128
    1808:	0a09                	addi	s4,s4,2
    180a:	0000                	unimp
    180c:	0101                	addi	sp,sp,0
    180e:	03ea                	slli	t2,t2,0x1a
    1810:	0000                	unimp
    1812:	0005                	c.nop	1
    1814:	0008                	.insn	2, 0x0008
    1816:	004a                	c.slli	zero,0x12
    1818:	0000                	unimp
    181a:	0101                	addi	sp,sp,0
    181c:	fb01                	bnez	a4,172c <_prog_start-0x7fffe8d4>
    181e:	0d0e                	slli	s10,s10,0x3
    1820:	0100                	addi	s0,sp,128
    1822:	0101                	addi	sp,sp,0
    1824:	0001                	nop
    1826:	0000                	unimp
    1828:	0001                	nop
    182a:	0100                	addi	s0,sp,128
    182c:	0101                	addi	sp,sp,0
    182e:	041f 0000 0000      	.insn	6, 0x041f
    1834:	020a                	slli	tp,tp,0x2
    1836:	0000                	unimp
    1838:	010e                	slli	sp,sp,0x3
    183a:	0000                	unimp
    183c:	015c                	addi	a5,sp,132
    183e:	0000                	unimp
    1840:	0102                	c.slli64	sp
    1842:	021f 060f 0200      	.insn	6, 0x0200060f021f
    1848:	0000                	unimp
    184a:	ea00                	sd	s0,16(a2)
    184c:	0001                	nop
    184e:	0000                	unimp
    1850:	0200                	addi	s0,sp,256
    1852:	0000                	unimp
    1854:	5f00                	lw	s0,56(a4)
    1856:	0002                	c.slli64	zero
    1858:	0100                	addi	s0,sp,128
    185a:	000001cf          	fnmadd.s	ft3,ft0,ft0,ft0,rne
    185e:	e002                	sd	zero,0(sp)
    1860:	0001                	nop
    1862:	0300                	addi	s0,sp,384
    1864:	0105                	addi	sp,sp,1
    1866:	0900                	addi	s0,sp,144
    1868:	9802                	jalr	a6
    186a:	0016                	c.slli	zero,0x5
    186c:	0080                	addi	s0,sp,64
    186e:	0000                	unimp
    1870:	0300                	addi	s0,sp,384
    1872:	0115                	addi	sp,sp,5
    1874:	1505                	addi	a0,a0,-31
    1876:	0c090103          	lb	sp,192(s2)
    187a:	0100                	addi	s0,sp,128
    187c:	0305                	addi	t1,t1,1
    187e:	08090403          	lb	s0,128(s2)
    1882:	0100                	addi	s0,sp,128
    1884:	0d05                	addi	s10,s10,1
    1886:	0200                	addi	s0,sp,256
    1888:	0104                	addi	s1,sp,128
    188a:	16090403          	lb	s0,352(s2)
    188e:	0100                	addi	s0,sp,128
    1890:	0105                	addi	sp,sp,1
    1892:	0a090503          	lb	a0,160(s2)
    1896:	0100                	addi	s0,sp,128
    1898:	0204                	addi	s1,sp,256
    189a:	0a096503          	lwu	a0,160(s2)
    189e:	0100                	addi	s0,sp,128
    18a0:	0205                	addi	tp,tp,1 # 1 <_prog_start-0x7fffffff>
    18a2:	0c090203          	lb	tp,192(s2)
    18a6:	0100                	addi	s0,sp,128
    18a8:	0305                	addi	t1,t1,1
    18aa:	02090103          	lb	sp,32(s2)
    18ae:	0100                	addi	s0,sp,128
    18b0:	1c05                	addi	s8,s8,-31
    18b2:	0200                	addi	s0,sp,256
    18b4:	0204                	addi	s1,sp,256
    18b6:	0a097f03          	.insn	4, 0x0a097f03
    18ba:	0100                	addi	s0,sp,128
    18bc:	0c05                	addi	s8,s8,1
    18be:	0200                	addi	s0,sp,256
    18c0:	0104                	addi	s1,sp,128
    18c2:	0a090003          	lb	zero,160(s2)
    18c6:	0100                	addi	s0,sp,128
    18c8:	1205                	addi	tp,tp,-31 # ffffffffffffffe1 <multiply2+0xffffffff7fffe421>
    18ca:	0200                	addi	s0,sp,256
    18cc:	0104                	addi	s1,sp,128
    18ce:	0c090003          	lb	zero,192(s2)
    18d2:	0100                	addi	s0,sp,128
    18d4:	0105                	addi	sp,sp,1
    18d6:	0a090203          	lb	tp,160(s2)
    18da:	0100                	addi	s0,sp,128
    18dc:	0c090303          	lb	t1,192(s2)
    18e0:	0100                	addi	s0,sp,128
    18e2:	0205                	addi	tp,tp,1 # 1 <_prog_start-0x7fffffff>
    18e4:	0c090103          	lb	sp,192(s2)
    18e8:	0100                	addi	s0,sp,128
    18ea:	08090103          	lb	sp,128(s2)
    18ee:	0100                	addi	s0,sp,128
    18f0:	06090103          	lb	sp,96(s2)
    18f4:	0100                	addi	s0,sp,128
    18f6:	0105                	addi	sp,sp,1
    18f8:	06090103          	lb	sp,96(s2)
    18fc:	0100                	addi	s0,sp,128
    18fe:	0a090303          	lb	t1,160(s2)
    1902:	0100                	addi	s0,sp,128
    1904:	0505                	addi	a0,a0,1
    1906:	1e090503          	lb	a0,480(s2)
    190a:	0100                	addi	s0,sp,128
    190c:	0f05                	addi	t5,t5,1
    190e:	14090103          	lb	sp,320(s2)
    1912:	0100                	addi	s0,sp,128
    1914:	0d05                	addi	s10,s10,1
    1916:	04090103          	lb	sp,64(s2)
    191a:	0100                	addi	s0,sp,128
    191c:	04090103          	lb	sp,64(s2)
    1920:	0100                	addi	s0,sp,128
    1922:	0b05                	addi	s6,s6,1
    1924:	04090203          	lb	tp,64(s2)
    1928:	0100                	addi	s0,sp,128
    192a:	0c05                	addi	s8,s8,1
    192c:	02090103          	lb	sp,32(s2)
    1930:	0100                	addi	s0,sp,128
    1932:	0d05                	addi	s10,s10,1
    1934:	0c090103          	lb	sp,192(s2)
    1938:	0100                	addi	s0,sp,128
    193a:	1905                	addi	s2,s2,-31
    193c:	3a090303          	lb	t1,928(s2)
    1940:	0100                	addi	s0,sp,128
    1942:	1105                	addi	sp,sp,-31
    1944:	06090103          	lb	sp,96(s2)
    1948:	0100                	addi	s0,sp,128
    194a:	1905                	addi	s2,s2,-31
    194c:	02090303          	lb	t1,32(s2)
    1950:	0100                	addi	s0,sp,128
    1952:	1105                	addi	sp,sp,-31
    1954:	06090103          	lb	sp,96(s2)
    1958:	0100                	addi	s0,sp,128
    195a:	1405                	addi	s0,s0,-31
    195c:	02090503          	lb	a0,32(s2)
    1960:	0100                	addi	s0,sp,128
    1962:	1705                	addi	a4,a4,-31
    1964:	0a090103          	lb	sp,160(s2)
    1968:	0100                	addi	s0,sp,128
    196a:	12090103          	lb	sp,288(s2)
    196e:	0100                	addi	s0,sp,128
    1970:	1905                	addi	s2,s2,-31
    1972:	0a090203          	lb	tp,160(s2)
    1976:	0100                	addi	s0,sp,128
    1978:	1705                	addi	a4,a4,-31
    197a:	0200                	addi	s0,sp,256
    197c:	0104                	addi	s1,sp,128
    197e:	0e090003          	lb	zero,224(s2)
    1982:	0100                	addi	s0,sp,128
    1984:	2505                	addiw	a0,a0,1
    1986:	08090103          	lb	sp,128(s2)
    198a:	0100                	addi	s0,sp,128
    198c:	0200                	addi	s0,sp,256
    198e:	0104                	addi	s1,sp,128
    1990:	0306                	slli	t1,t1,0x1
    1992:	0900                	addi	s0,sp,144
    1994:	000a                	c.slli	zero,0x2
    1996:	0001                	nop
    1998:	0402                	c.slli64	s0
    199a:	0302                	c.slli64	t1
    199c:	0900                	addi	s0,sp,144
    199e:	0004                	.insn	2, 0x0004
    19a0:	0501                	addi	a0,a0,0
    19a2:	04020017          	auipc	zero,0x4020
    19a6:	0604                	addi	s1,sp,768
    19a8:	02090003          	lb	zero,32(s2)
    19ac:	0100                	addi	s0,sp,128
    19ae:	1105                	addi	sp,sp,-31
    19b0:	04090203          	lb	tp,64(s2)
    19b4:	0100                	addi	s0,sp,128
    19b6:	2105                	addiw	sp,sp,1
    19b8:	02090103          	lb	sp,32(s2)
    19bc:	0100                	addi	s0,sp,128
    19be:	1a05                	addi	s4,s4,-31
    19c0:	10090003          	lb	zero,256(s2)
    19c4:	0100                	addi	s0,sp,128
    19c6:	1505                	addi	a0,a0,-31
    19c8:	06090103          	lb	sp,96(s2)
    19cc:	0100                	addi	s0,sp,128
    19ce:	2805                	addiw	a6,a6,1
    19d0:	0200                	addi	s0,sp,256
    19d2:	0104                	addi	s1,sp,128
    19d4:	0a090003          	lb	zero,160(s2)
    19d8:	0100                	addi	s0,sp,128
    19da:	1505                	addi	a0,a0,-31
    19dc:	0200                	addi	s0,sp,256
    19de:	0104                	addi	s1,sp,128
    19e0:	08090003          	lb	zero,128(s2)
    19e4:	0100                	addi	s0,sp,128
    19e6:	3605                	addiw	a2,a2,-31
    19e8:	0200                	addi	s0,sp,256
    19ea:	0204                	addi	s1,sp,256
    19ec:	0a090003          	lb	zero,160(s2)
    19f0:	0100                	addi	s0,sp,128
    19f2:	1505                	addi	a0,a0,-31
    19f4:	0200                	addi	s0,sp,256
    19f6:	0204                	addi	s1,sp,256
    19f8:	08090003          	lb	zero,128(s2)
    19fc:	0100                	addi	s0,sp,128
    19fe:	0200                	addi	s0,sp,256
    1a00:	0404                	addi	s1,sp,512
    1a02:	0306                	slli	t1,t1,0x1
    1a04:	0900                	addi	s0,sp,144
    1a06:	0008                	.insn	2, 0x0008
    1a08:	0501                	addi	a0,a0,0
    1a0a:	0622                	slli	a2,a2,0x8
    1a0c:	06097e03          	.insn	4, 0x06097e03
    1a10:	0100                	addi	s0,sp,128
    1a12:	1a05                	addi	s4,s4,-31
    1a14:	0200                	addi	s0,sp,256
    1a16:	0104                	addi	s1,sp,128
    1a18:	0a090003          	lb	zero,160(s2)
    1a1c:	0100                	addi	s0,sp,128
    1a1e:	1105                	addi	sp,sp,-31
    1a20:	08090403          	lb	s0,128(s2)
    1a24:	0100                	addi	s0,sp,128
    1a26:	1405                	addi	s0,s0,-31
    1a28:	02090a03          	lb	s4,32(s2)
    1a2c:	0100                	addi	s0,sp,128
    1a2e:	1905                	addi	s2,s2,-31
    1a30:	0a090103          	lb	sp,160(s2)
    1a34:	0100                	addi	s0,sp,128
    1a36:	1b05                	addi	s6,s6,-31
    1a38:	14090403          	lb	s0,320(s2)
    1a3c:	0100                	addi	s0,sp,128
    1a3e:	1905                	addi	s2,s2,-31
    1a40:	0200                	addi	s0,sp,256
    1a42:	0104                	addi	s1,sp,128
    1a44:	0e090003          	lb	zero,224(s2)
    1a48:	0100                	addi	s0,sp,128
    1a4a:	1805                	addi	a6,a6,-31
    1a4c:	04090103          	lb	sp,64(s2)
    1a50:	0100                	addi	s0,sp,128
    1a52:	1f05                	addi	t5,t5,-31
    1a54:	0a090203          	lb	tp,160(s2)
    1a58:	0100                	addi	s0,sp,128
    1a5a:	1d05                	addi	s10,s10,-31
    1a5c:	0c090003          	lb	zero,192(s2)
    1a60:	0100                	addi	s0,sp,128
    1a62:	1405                	addi	s0,s0,-31
    1a64:	04090503          	lb	a0,64(s2)
    1a68:	0100                	addi	s0,sp,128
    1a6a:	1505                	addi	a0,a0,-31
    1a6c:	08090103          	lb	sp,128(s2)
    1a70:	0100                	addi	s0,sp,128
    1a72:	1905                	addi	s2,s2,-31
    1a74:	08090103          	lb	sp,128(s2)
    1a78:	0100                	addi	s0,sp,128
    1a7a:	1505                	addi	a0,a0,-31
    1a7c:	0c090503          	lb	a0,192(s2)
    1a80:	0100                	addi	s0,sp,128
    1a82:	3005                	.insn	2, 0x3005
    1a84:	04090203          	lb	tp,64(s2)
    1a88:	0100                	addi	s0,sp,128
    1a8a:	2905                	addiw	s2,s2,1
    1a8c:	0a090003          	lb	zero,160(s2)
    1a90:	0100                	addi	s0,sp,128
    1a92:	1f05                	addi	t5,t5,-31
    1a94:	04090003          	lb	zero,64(s2)
    1a98:	0100                	addi	s0,sp,128
    1a9a:	2905                	addiw	s2,s2,1
    1a9c:	0c090003          	lb	zero,192(s2)
    1aa0:	0100                	addi	s0,sp,128
    1aa2:	2305                	addiw	t1,t1,1
    1aa4:	08090003          	lb	zero,128(s2)
    1aa8:	0100                	addi	s0,sp,128
    1aaa:	1905                	addi	s2,s2,-31
    1aac:	08090103          	lb	sp,128(s2)
    1ab0:	0100                	addi	s0,sp,128
    1ab2:	2205                	addiw	tp,tp,1 # 1 <_prog_start-0x7fffffff>
    1ab4:	0200                	addi	s0,sp,256
    1ab6:	0204                	addi	s1,sp,256
    1ab8:	0e090103          	lb	sp,224(s2)
    1abc:	0100                	addi	s0,sp,128
    1abe:	0200                	addi	s0,sp,256
    1ac0:	0104                	addi	s1,sp,128
    1ac2:	0306                	slli	t1,t1,0x1
    1ac4:	0900                	addi	s0,sp,144
    1ac6:	0008                	.insn	2, 0x0008
    1ac8:	0501                	addi	a0,a0,0
    1aca:	03030617          	auipc	a2,0x3030
    1ace:	0e09                	addi	t3,t3,2
    1ad0:	0100                	addi	s0,sp,128
    1ad2:	1505                	addi	a0,a0,-31
    1ad4:	02090103          	lb	sp,32(s2)
    1ad8:	0100                	addi	s0,sp,128
    1ada:	1c05                	addi	s8,s8,-31
    1adc:	1c097f03          	.insn	4, 0x1c097f03
    1ae0:	0100                	addi	s0,sp,128
    1ae2:	1105                	addi	sp,sp,-31
    1ae4:	0a090303          	lb	t1,160(s2)
    1ae8:	0100                	addi	s0,sp,128
    1aea:	02090303          	lb	t1,32(s2)
    1aee:	0100                	addi	s0,sp,128
    1af0:	0200                	addi	s0,sp,256
    1af2:	0104                	addi	s1,sp,128
    1af4:	0306                	slli	t1,t1,0x1
    1af6:	0900                	addi	s0,sp,144
    1af8:	000e                	c.slli	zero,0x3
    1afa:	0601                	addi	a2,a2,0 # 3031aca <_prog_start-0x7cfce536>
    1afc:	06090103          	lb	sp,96(s2)
    1b00:	0100                	addi	s0,sp,128
    1b02:	1705                	addi	a4,a4,-31
    1b04:	02090203          	lb	tp,32(s2)
    1b08:	0100                	addi	s0,sp,128
    1b0a:	1105                	addi	sp,sp,-31
    1b0c:	0200                	addi	s0,sp,256
    1b0e:	0104                	addi	s1,sp,128
    1b10:	0e090003          	lb	zero,224(s2)
    1b14:	0100                	addi	s0,sp,128
    1b16:	0a090103          	lb	sp,160(s2)
    1b1a:	0100                	addi	s0,sp,128
    1b1c:	1e05                	addi	t3,t3,-31
    1b1e:	02090203          	lb	tp,32(s2)
    1b22:	0100                	addi	s0,sp,128
    1b24:	1a05                	addi	s4,s4,-31
    1b26:	12090203          	lb	tp,288(s2)
    1b2a:	0100                	addi	s0,sp,128
    1b2c:	1105                	addi	sp,sp,-31
    1b2e:	06090003          	lb	zero,96(s2)
    1b32:	0100                	addi	s0,sp,128
    1b34:	2905                	addiw	s2,s2,1
    1b36:	02090103          	lb	sp,32(s2)
    1b3a:	0100                	addi	s0,sp,128
    1b3c:	2205                	addiw	tp,tp,1 # 1 <_prog_start-0x7fffffff>
    1b3e:	0e090003          	lb	zero,224(s2)
    1b42:	0100                	addi	s0,sp,128
    1b44:	1505                	addi	a0,a0,-31
    1b46:	06090103          	lb	sp,96(s2)
    1b4a:	0100                	addi	s0,sp,128
    1b4c:	2805                	addiw	a6,a6,1
    1b4e:	0200                	addi	s0,sp,256
    1b50:	0104                	addi	s1,sp,128
    1b52:	0e090003          	lb	zero,224(s2)
    1b56:	0100                	addi	s0,sp,128
    1b58:	1505                	addi	a0,a0,-31
    1b5a:	0200                	addi	s0,sp,256
    1b5c:	0104                	addi	s1,sp,128
    1b5e:	08090003          	lb	zero,128(s2)
    1b62:	0100                	addi	s0,sp,128
    1b64:	3605                	addiw	a2,a2,-31
    1b66:	0200                	addi	s0,sp,256
    1b68:	0204                	addi	s1,sp,256
    1b6a:	0a090003          	lb	zero,160(s2)
    1b6e:	0100                	addi	s0,sp,128
    1b70:	1505                	addi	a0,a0,-31
    1b72:	0200                	addi	s0,sp,256
    1b74:	0204                	addi	s1,sp,256
    1b76:	08090003          	lb	zero,128(s2)
    1b7a:	0100                	addi	s0,sp,128
    1b7c:	0200                	addi	s0,sp,256
    1b7e:	0404                	addi	s1,sp,512
    1b80:	0306                	slli	t1,t1,0x1
    1b82:	0900                	addi	s0,sp,144
    1b84:	0008                	.insn	2, 0x0008
    1b86:	0501                	addi	a0,a0,0
    1b88:	002c                	addi	a1,sp,8
    1b8a:	0402                	c.slli64	s0
    1b8c:	0602                	c.slli64	a2
    1b8e:	06097e03          	.insn	4, 0x06097e03
    1b92:	0100                	addi	s0,sp,128
    1b94:	2405                	addiw	s0,s0,1
    1b96:	0200                	addi	s0,sp,256
    1b98:	0104                	addi	s1,sp,128
    1b9a:	0a090003          	lb	zero,160(s2)
    1b9e:	0100                	addi	s0,sp,128
    1ba0:	1105                	addi	sp,sp,-31
    1ba2:	0a090403          	lb	s0,160(s2)
    1ba6:	0100                	addi	s0,sp,128
    1ba8:	1705                	addi	a4,a4,-31
    1baa:	02090403          	lb	s0,32(s2)
    1bae:	0100                	addi	s0,sp,128
    1bb0:	04090103          	lb	sp,64(s2)
    1bb4:	0100                	addi	s0,sp,128
    1bb6:	04090103          	lb	sp,64(s2)
    1bba:	0100                	addi	s0,sp,128
    1bbc:	1305                	addi	t1,t1,-31
    1bbe:	06090103          	lb	sp,96(s2)
    1bc2:	0100                	addi	s0,sp,128
    1bc4:	1705                	addi	a4,a4,-31
    1bc6:	10090203          	lb	tp,256(s2)
    1bca:	0100                	addi	s0,sp,128
    1bcc:	0d05                	addi	s10,s10,1
    1bce:	08090303          	lb	t1,128(s2)
    1bd2:	0100                	addi	s0,sp,128
    1bd4:	1505                	addi	a0,a0,-31
    1bd6:	097fa303          	lw	t1,151(t6)
    1bda:	000a                	c.slli	zero,0x2
    1bdc:	0501                	addi	a0,a0,0
    1bde:	0900030f          	.insn	4, 0x0900030f
    1be2:	000c                	.insn	2, 0x000c
    1be4:	0501                	addi	a0,a0,0
    1be6:	0319                	addi	t1,t1,6
    1be8:	0900                	addi	s0,sp,144
    1bea:	0008                	.insn	2, 0x0008
    1bec:	0501                	addi	a0,a0,0
    1bee:	0301                	addi	t1,t1,0
    1bf0:	00e2                	slli	ra,ra,0x18
    1bf2:	0c09                	addi	s8,s8,2
    1bf4:	0100                	addi	s0,sp,128
    1bf6:	0c09                	addi	s8,s8,2
    1bf8:	0000                	unimp
    1bfa:	0101                	addi	sp,sp,0

Disassembly of section .debug_line_str:

0000000000000000 <.debug_line_str>:
   0:	6d6f682f          	.insn	4, 0x6d6f682f
   4:	2f65                	addiw	t5,t5,25
   6:	6874                	ld	a3,208(s0)
   8:	2f68                	fld	fa0,216(a4)
   a:	70696863          	bltu	s2,t1,71a <_prog_start-0x7ffff8e6>
   e:	6179                	addi	sp,sp,464
  10:	6472                	ld	s0,280(sp)
  12:	6d65642f          	.insn	4, 0x6d65642f
  16:	7369726f          	jal	tp,9774c <_prog_start-0x7ff688b4>
  1a:	732f7663          	bgeu	t5,s2,746 <_prog_start-0x7ffff8ba>
  1e:	7774666f          	jal	a2,46f94 <_prog_start-0x7ffb906c>
  22:	7261                	lui	tp,0xffff8
  24:	2f65                	addiw	t5,t5,25
  26:	68706943          	fmadd.s	fs2,ft0,ft7,fa3,unknown
  2a:	7265                	lui	tp,0xffff9
  2c:	6300                	ld	s0,0(a4)
  2e:	7472                	ld	s0,312(sp)
  30:	2e30                	fld	fa2,88(a2)
  32:	69630053          	.insn	4, 0x69630053
  36:	6870                	ld	a2,208(s0)
  38:	7265                	lui	tp,0xffff9
  3a:	632e                	ld	t1,200(sp)
  3c:	2e00                	fld	fs0,24(a2)
  3e:	2f00                	fld	fs0,24(a4)
  40:	6f68                	ld	a0,216(a4)
  42:	656d                	lui	a0,0x1b
  44:	6868742f          	.insn	4, 0x6868742f
  48:	6968632f          	.insn	4, 0x6968632f
  4c:	7970                	ld	a2,240(a0)
  4e:	7261                	lui	tp,0xffff8
  50:	2f64                	fld	fs1,216(a4)
  52:	6564                	ld	s1,200(a0)
  54:	6f6d                	lui	t5,0x1b
  56:	6972                	ld	s2,280(sp)
  58:	2f766373          	csrrsi	t1,0x2f7,12
  5c:	74666f73          	csrrsi	t5,0x746,12
  60:	65726177          	.insn	4, 0x65726177
  64:	7069432f          	.insn	4, 0x7069432f
  68:	6568                	ld	a0,200(a0)
  6a:	2f72                	fld	ft10,280(sp)
  6c:	636e692f          	.insn	4, 0x636e692f
  70:	756c                	ld	a1,232(a0)
  72:	6564                	ld	s1,200(a0)
  74:	7069632f          	.insn	4, 0x7069632f
  78:	6568                	ld	a0,200(a0)
  7a:	2f72                	fld	ft10,280(sp)
  7c:	2e2e                	fld	ft8,200(sp)
  7e:	6d69742f          	.insn	4, 0x6d69742f
  82:	7265                	lui	tp,0xffff9
  84:	2f00                	fld	fs0,24(a4)
  86:	6f68                	ld	a0,216(a4)
  88:	656d                	lui	a0,0x1b
  8a:	6868742f          	.insn	4, 0x6868742f
  8e:	6968632f          	.insn	4, 0x6968632f
  92:	7970                	ld	a2,240(a0)
  94:	7261                	lui	tp,0xffff8
  96:	2f64                	fld	fs1,216(a4)
  98:	6564                	ld	s1,200(a0)
  9a:	6f6d                	lui	t5,0x1b
  9c:	6972                	ld	s2,280(sp)
  9e:	2f766373          	csrrsi	t1,0x2f7,12
  a2:	74666f73          	csrrsi	t5,0x746,12
  a6:	65726177          	.insn	4, 0x65726177
  aa:	7069432f          	.insn	4, 0x7069432f
  ae:	6568                	ld	a0,200(a0)
  b0:	2f72                	fld	ft10,280(sp)
  b2:	636e692f          	.insn	4, 0x636e692f
  b6:	756c                	ld	a1,232(a0)
  b8:	6564                	ld	s1,200(a0)
  ba:	7069632f          	.insn	4, 0x7069632f
  be:	6568                	ld	a0,200(a0)
  c0:	2f72                	fld	ft10,280(sp)
  c2:	2e2e                	fld	ft8,200(sp)
  c4:	666f732f          	.insn	4, 0x666f732f
  c8:	5f74                	lw	a3,124(a4)
  ca:	68706963          	bltu	zero,t2,75c <_prog_start-0x7ffff8a4>
  ce:	7265                	lui	tp,0xffff9
  d0:	2f00                	fld	fs0,24(a4)
  d2:	6f68                	ld	a0,216(a4)
  d4:	656d                	lui	a0,0x1b
  d6:	6868742f          	.insn	4, 0x6868742f
  da:	6968632f          	.insn	4, 0x6968632f
  de:	7970                	ld	a2,240(a0)
  e0:	7261                	lui	tp,0xffff8
  e2:	2f64                	fld	fs1,216(a4)
  e4:	6564                	ld	s1,200(a0)
  e6:	6f6d                	lui	t5,0x1b
  e8:	6972                	ld	s2,280(sp)
  ea:	2f766373          	csrrsi	t1,0x2f7,12
  ee:	74666f73          	csrrsi	t5,0x746,12
  f2:	65726177          	.insn	4, 0x65726177
  f6:	7069432f          	.insn	4, 0x7069432f
  fa:	6568                	ld	a0,200(a0)
  fc:	2f72                	fld	ft10,280(sp)
  fe:	636e692f          	.insn	4, 0x636e692f
 102:	756c                	ld	a1,232(a0)
 104:	6564                	ld	s1,200(a0)
 106:	7069632f          	.insn	4, 0x7069632f
 10a:	6568                	ld	a0,200(a0)
 10c:	0072                	c.slli	zero,0x1c
 10e:	6d6f682f          	.insn	4, 0x6d6f682f
 112:	2f65                	addiw	t5,t5,25 # 1b019 <_prog_start-0x7ffe4fe7>
 114:	6874                	ld	a3,208(s0)
 116:	2f68                	fld	fa0,216(a4)
 118:	70696863          	bltu	s2,t1,828 <_prog_start-0x7ffff7d8>
 11c:	6179                	addi	sp,sp,464
 11e:	6472                	ld	s0,280(sp)
 120:	6f632e2f          	.insn	4, 0x6f632e2f
 124:	646e                	ld	s0,216(sp)
 126:	2d61                	addiw	s10,s10,24
 128:	6e65                	lui	t3,0x19
 12a:	2f76                	fld	ft10,344(sp)
 12c:	6972                	ld	s2,280(sp)
 12e:	2d766373          	csrrsi	t1,0x2d7,12
 132:	6f74                	ld	a3,216(a4)
 134:	2f736c6f          	jal	s8,36c2a <_prog_start-0x7ffc93d6>
 138:	6972                	ld	s2,280(sp)
 13a:	36766373          	csrrsi	t1,0x367,12
 13e:	2d34                	fld	fa3,88(a0)
 140:	6e75                	lui	t3,0x1d
 142:	776f6e6b          	.insn	4, 0x776f6e6b
 146:	2d6e                	fld	fs10,216(sp)
 148:	6c65                	lui	s8,0x19
 14a:	2f66                	fld	ft10,88(sp)
 14c:	6e69                	lui	t3,0x1a
 14e:	64756c63          	bltu	a0,t2,7a6 <_prog_start-0x7ffff85a>
 152:	2f65                	addiw	t5,t5,25
 154:	616d                	addi	sp,sp,240
 156:	6e696863          	bltu	s2,t1,846 <_prog_start-0x7ffff7ba>
 15a:	0065                	c.nop	25
 15c:	6d6f682f          	.insn	4, 0x6d6f682f
 160:	2f65                	addiw	t5,t5,25
 162:	6874                	ld	a3,208(s0)
 164:	2f68                	fld	fa0,216(a4)
 166:	70696863          	bltu	s2,t1,876 <_prog_start-0x7ffff78a>
 16a:	6179                	addi	sp,sp,464
 16c:	6472                	ld	s0,280(sp)
 16e:	6f632e2f          	.insn	4, 0x6f632e2f
 172:	646e                	ld	s0,216(sp)
 174:	2d61                	addiw	s10,s10,24
 176:	6e65                	lui	t3,0x19
 178:	2f76                	fld	ft10,344(sp)
 17a:	6972                	ld	s2,280(sp)
 17c:	2d766373          	csrrsi	t1,0x2d7,12
 180:	6f74                	ld	a3,216(a4)
 182:	2f736c6f          	jal	s8,36c78 <_prog_start-0x7ffc9388>
 186:	6972                	ld	s2,280(sp)
 188:	36766373          	csrrsi	t1,0x367,12
 18c:	2d34                	fld	fa3,88(a0)
 18e:	6e75                	lui	t3,0x1d
 190:	776f6e6b          	.insn	4, 0x776f6e6b
 194:	2d6e                	fld	fs10,216(sp)
 196:	6c65                	lui	s8,0x19
 198:	2f66                	fld	ft10,88(sp)
 19a:	6e69                	lui	t3,0x1a
 19c:	64756c63          	bltu	a0,t2,7f4 <_prog_start-0x7ffff80c>
 1a0:	2f65                	addiw	t5,t5,25
 1a2:	00737973          	csrrci	s2,0x7,6
 1a6:	6d6d                	lui	s10,0x1b
 1a8:	6f69                	lui	t5,0x1a
 1aa:	682e                	ld	a6,200(sp)
 1ac:	6d00                	ld	s0,24(a0)
 1ae:	7479                	lui	s0,0xffffe
 1b0:	6d69                	lui	s10,0x1a
 1b2:	7265                	lui	tp,0xffff9
 1b4:	682e                	ld	a6,200(sp)
 1b6:	6b00                	ld	s0,16(a4)
 1b8:	656c                	ld	a1,200(a0)
 1ba:	6e69                	lui	t3,0x1a
 1bc:	3436                	fld	fs0,360(sp)
 1be:	682e                	ld	a6,200(sp)
 1c0:	6100                	ld	s0,0(a0)
 1c2:	6c656363          	bltu	a0,t1,888 <_prog_start-0x7ffff778>
 1c6:	6b5f 656c 6e69      	.insn	6, 0x6e69656c6b5f
 1cc:	682e                	ld	a6,200(sp)
 1ce:	5f00                	lw	s0,56(a4)
 1d0:	6564                	ld	s1,200(a0)
 1d2:	6166                	ld	sp,88(sp)
 1d4:	6c75                	lui	s8,0x1d
 1d6:	5f74                	lw	a3,124(a4)
 1d8:	7974                	ld	a3,240(a0)
 1da:	6570                	ld	a2,200(a0)
 1dc:	00682e73          	csrrs	t3,0x6,a6
 1e0:	735f 6474 6e69      	.insn	6, 0x6e696474735f
 1e6:	2e74                	fld	fa3,216(a2)
 1e8:	0068                	addi	a0,sp,12
 1ea:	6972706b          	.insn	4, 0x6972706b
 1ee:	746e                	ld	s0,248(sp)
 1f0:	2e66                	fld	ft8,88(sp)
 1f2:	0068                	addi	a0,sp,12
 1f4:	69656c6b          	.insn	4, 0x69656c6b
 1f8:	536e                	lw	t1,248(sp)
 1fa:	6f62                	ld	t5,24(sp)
 1fc:	2e78                	fld	fa4,216(a2)
 1fe:	0068                	addi	a0,sp,12
 200:	6972706b          	.insn	4, 0x6972706b
 204:	746e                	ld	s0,248(sp)
 206:	2e66                	fld	ft8,88(sp)
 208:	682f0063          	beq	t5,sp,888 <_prog_start-0x7ffff778>
 20c:	2f656d6f          	jal	s10,56502 <_prog_start-0x7ffa9afe>
 210:	6874                	ld	a3,208(s0)
 212:	2f68                	fld	fa0,216(a4)
 214:	70696863          	bltu	s2,t1,924 <_prog_start-0x7ffff6dc>
 218:	6179                	addi	sp,sp,464
 21a:	6472                	ld	s0,280(sp)
 21c:	6f632e2f          	.insn	4, 0x6f632e2f
 220:	646e                	ld	s0,216(sp)
 222:	2d61                	addiw	s10,s10,24 # 1a018 <_prog_start-0x7ffe5fe8>
 224:	6e65                	lui	t3,0x19
 226:	2f76                	fld	ft10,344(sp)
 228:	6972                	ld	s2,280(sp)
 22a:	2d766373          	csrrsi	t1,0x2d7,12
 22e:	6f74                	ld	a3,216(a4)
 230:	2f736c6f          	jal	s8,36d26 <_prog_start-0x7ffc92da>
 234:	696c                	ld	a1,208(a0)
 236:	2f62                	fld	ft10,24(sp)
 238:	2f636367          	.insn	4, 0x2f636367
 23c:	6972                	ld	s2,280(sp)
 23e:	36766373          	csrrsi	t1,0x367,12
 242:	2d34                	fld	fa3,88(a0)
 244:	6e75                	lui	t3,0x1d
 246:	776f6e6b          	.insn	4, 0x776f6e6b
 24a:	2d6e                	fld	fs10,216(sp)
 24c:	6c65                	lui	s8,0x19
 24e:	2f66                	fld	ft10,88(sp)
 250:	3331                	addiw	t1,t1,-20
 252:	322e                	fld	ft4,232(sp)
 254:	302e                	fld	ft0,232(sp)
 256:	636e692f          	.insn	4, 0x636e692f
 25a:	756c                	ld	a1,232(a0)
 25c:	6564                	ld	s1,200(a0)
 25e:	7300                	ld	s0,32(a4)
 260:	6474                	ld	a3,200(s0)
 262:	7261                	lui	tp,0xffff8
 264:	00682e67          	.insn	4, 0x00682e67

Disassembly of section .debug_info:

0000000000000000 <.debug_info>:
   0:	0024                	addi	s1,sp,8
   2:	0000                	unimp
   4:	0005                	c.nop	1
   6:	0801                	addi	a6,a6,0
   8:	0000                	unimp
   a:	0000                	unimp
   c:	0001                	nop
   e:	0000                	unimp
  10:	0000                	unimp
  12:	0000                	unimp
  14:	0080                	addi	s0,sp,64
  16:	0000                	unimp
  18:	3000                	fld	fs0,32(s0)
  1a:	0000                	unimp
  1c:	0000                	unimp
  1e:	00000007          	.insn	4, 0x0007
  22:	0034                	addi	a3,sp,8
  24:	0000                	unimp
  26:	8001                	c.srli64	s0
  28:	0630                	addi	a2,sp,776
  2a:	0000                	unimp
  2c:	0005                	c.nop	1
  2e:	0801                	addi	a6,a6,0
  30:	0014                	.insn	2, 0x0014
  32:	0000                	unimp
  34:	8d10                	.insn	2, 0x8d10
  36:	0002                	c.slli64	zero
  38:	1d00                	addi	s0,sp,688
  3a:	0034                	addi	a3,sp,8
  3c:	0000                	unimp
  3e:	0000                	unimp
  40:	0000                	unimp
  42:	002c                	addi	a1,sp,8
  44:	8000                	.insn	2, 0x8000
  46:	0000                	unimp
  48:	0000                	unimp
  4a:	166c                	addi	a1,sp,812
  4c:	0000                	unimp
  4e:	0000                	unimp
  50:	0000                	unimp
  52:	0074                	addi	a3,sp,12
  54:	0000                	unimp
  56:	0104                	addi	s1,sp,128
  58:	6c06                	ld	s8,64(sp)
  5a:	0001                	nop
  5c:	0500                	addi	s0,sp,640
  5e:	014a                	slli	sp,sp,0x12
  60:	0000                	unimp
  62:	2b06                	fld	fs6,64(sp)
  64:	4118                	lw	a4,0(a0)
  66:	0000                	unimp
  68:	0400                	addi	s0,sp,512
  6a:	0801                	addi	a6,a6,0
  6c:	016a                	slli	sp,sp,0x1a
  6e:	0000                	unimp
  70:	0204                	addi	s1,sp,256
  72:	6305                	lui	t1,0x1
  74:	0000                	unimp
  76:	0400                	addi	s0,sp,512
  78:	0702                	c.slli64	a4
  7a:	01d5                	addi	gp,gp,21
  7c:	0000                	unimp
  7e:	0411                	addi	s0,s0,4 # ffffffffffffe004 <multiply2+0xffffffff7fffc444>
  80:	6905                	lui	s2,0x1
  82:	746e                	ld	s0,248(sp)
  84:	0500                	addi	s0,sp,640
  86:	00b0                	addi	a2,sp,72
  88:	0000                	unimp
  8a:	4f06                	lw	t5,64(sp)
  8c:	6919                	lui	s2,0x6
  8e:	0000                	unimp
  90:	0400                	addi	s0,sp,512
  92:	0704                	addi	s1,sp,896
  94:	01f8                	addi	a4,sp,204
  96:	0000                	unimp
  98:	0804                	addi	s1,sp,16
  9a:	2a05                	addiw	s4,s4,1
  9c:	0001                	nop
  9e:	0400                	addi	s0,sp,512
  a0:	0708                	addi	a0,sp,896
  a2:	000001f3          	.insn	4, 0x01f3
  a6:	0505                	addi	a0,a0,1 # 1b001 <_prog_start-0x7ffe4fff>
  a8:	0002                	c.slli64	zero
  aa:	0600                	addi	s0,sp,768
  ac:	1ae8                	addi	a0,sp,380
  ae:	00000077          	.insn	4, 0x0077
  b2:	4c05                	li	s8,1
  b4:	0001                	nop
  b6:	0700                	addi	s0,sp,896
  b8:	1318                	addi	a4,sp,416
  ba:	0035                	c.nop	13
  bc:	0000                	unimp
  be:	00008a07          	.insn	4, 0x8a07
  c2:	0500                	addi	s0,sp,640
  c4:	00b2                	slli	ra,ra,0xc
  c6:	0000                	unimp
  c8:	5d143007          	fld	ft0,1489(s0)
  cc:	0000                	unimp
  ce:	1200                	addi	s0,sp,288
  d0:	0000009b          	sext.w	ra,zero
  d4:	0705                	addi	a4,a4,1
  d6:	0002                	c.slli64	zero
  d8:	0700                	addi	s0,sp,896
  da:	1552                	slli	a0,a0,0x34
  dc:	007e                	c.slli	zero,0x1f
  de:	0000                	unimp
  e0:	bb01                	j	fffffffffffffdf0 <multiply2+0xffffffff7fffe230>
  e2:	0000                	unimp
  e4:	0800                	addi	s0,sp,16
  e6:	00d32213          	slti	tp,t1,13
  ea:	0000                	unimp
  ec:	0309                	addi	t1,t1,2 # 1002 <_prog_start-0x7fffeffe>
  ee:	1ab0                	addi	a2,sp,376
  f0:	8000                	.insn	2, 0x8000
  f2:	0000                	unimp
  f4:	0000                	unimp
  f6:	a706                	fsd	ft1,392(sp)
  f8:	0000                	unimp
  fa:	0700                	addi	s0,sp,896
  fc:	00ce                	slli	ra,ra,0x13
  fe:	0000                	unimp
 100:	960a                	add	a2,a2,sp
 102:	0000                	unimp
 104:	e800                	sd	s0,16(s0)
 106:	0000                	unimp
 108:	0b00                	addi	s0,sp,400
 10a:	00000077          	.insn	4, 0x0077
 10e:	00ff d807 0000 0100 	.insn	10, 0x01e801000000d80700ff
 116:	01e8 
 118:	0000                	unimp
 11a:	4409                	li	s0,2
 11c:	e816                	sd	t0,16(sp)
 11e:	0000                	unimp
 120:	0900                	addi	s0,sp,144
 122:	001ac003          	lbu	zero,1(s5)
 126:	0080                	addi	s0,sp,64
 128:	0000                	unimp
 12a:	0100                	addi	s0,sp,128
 12c:	0252                	slli	tp,tp,0x14
 12e:	0000                	unimp
 130:	5909                	li	s2,-30
 132:	e816                	sd	t0,16(sp)
 134:	0000                	unimp
 136:	0900                	addi	s0,sp,144
 138:	001bc003          	lbu	zero,1(s7)
 13c:	0080                	addi	s0,sp,64
 13e:	0000                	unimp
 140:	1300                	addi	s0,sp,416
 142:	0096                	slli	ra,ra,0x5
 144:	0000                	unimp
 146:	2708                	fld	fa0,8(a4)
 148:	2c0d                	addiw	s8,s8,3 # 19003 <_prog_start-0x7ffe6ffd>
 14a:	0001                	nop
 14c:	1400                	addi	s0,sp,544
 14e:	012c                	addi	a1,sp,136
 150:	0000                	unimp
 152:	0015                	c.nop	5
 154:	3806                	fld	fa6,96(sp)
 156:	0001                	nop
 158:	0400                	addi	s0,sp,512
 15a:	0801                	addi	a6,a6,0
 15c:	00000173          	.insn	4, 0x0173
 160:	00013107          	fld	ft2,0(sp)
 164:	0c00                	addi	s0,sp,528
 166:	000000ab          	.insn	4, 0x00ab
 16a:	0e05                	addi	t3,t3,1 # 1d001 <_prog_start-0x7ffe2fff>
 16c:	5605                	li	a2,-31
 16e:	0000                	unimp
 170:	6600                	ld	s0,8(a2)
 172:	0016                	c.slli	zero,0x5
 174:	0080                	addi	s0,sp,64
 176:	0000                	unimp
 178:	3200                	fld	fs0,32(a2)
 17a:	0000                	unimp
 17c:	0000                	unimp
 17e:	0000                	unimp
 180:	0100                	addi	s0,sp,128
 182:	7e9c                	ld	a5,56(a3)
 184:	0001                	nop
 186:	0200                	addi	s0,sp,256
 188:	00c0                	addi	s0,sp,68
 18a:	0000                	unimp
 18c:	0e05                	addi	t3,t3,1
 18e:	560e                	lw	a2,224(sp)
 190:	0000                	unimp
 192:	0200                	addi	s0,sp,256
 194:	6c91                	lui	s9,0x4
 196:	6108                	ld	a0,0(a0)
 198:	7672                	ld	a2,312(sp)
 19a:	0500                	addi	s0,sp,640
 19c:	1d0e                	slli	s10,s10,0x23
 19e:	017e                	slli	sp,sp,0x1f
 1a0:	0000                	unimp
 1a2:	9102                	jalr	sp
 1a4:	0060                	addi	s0,sp,12
 1a6:	8306                	mv	t1,ra
 1a8:	0001                	nop
 1aa:	0600                	addi	s0,sp,768
 1ac:	0131                	addi	sp,sp,12
 1ae:	0000                	unimp
 1b0:	ff16                	sd	t0,440(sp)
 1b2:	0000                	unimp
 1b4:	0400                	addi	s0,sp,512
 1b6:	0db2                	slli	s11,s11,0xc
 1b8:	14a0                	addi	s0,sp,616
 1ba:	8000                	.insn	2, 0x8000
 1bc:	0000                	unimp
 1be:	0000                	unimp
 1c0:	01c6                	slli	gp,gp,0x11
 1c2:	0000                	unimp
 1c4:	0000                	unimp
 1c6:	0000                	unimp
 1c8:	9c01                	subw	s0,s0,s0
 1ca:	00000263          	beqz	zero,1ce <_prog_start-0x7ffffe32>
 1ce:	79656b03          	lwu	s6,1942(a0)
 1d2:	0400                	addi	s0,sp,512
 1d4:	02630db3          	mul	s11,t1,t1
 1d8:	0000                	unimp
 1da:	9102                	jalr	sp
 1dc:	0158                	addi	a4,sp,132
 1de:	000000c7          	fmsub.s	ft1,ft0,ft0,ft0,rne
 1e2:	b404                	fsd	fs1,40(s0)
 1e4:	630d                	lui	t1,0x3
 1e6:	0002                	c.slli64	zero
 1e8:	0200                	addi	s0,sp,256
 1ea:	5091                	li	ra,-28
 1ec:	5701                	li	a4,-32
 1ee:	0000                	unimp
 1f0:	0400                	addi	s0,sp,512
 1f2:	0db5                	addi	s11,s11,13
 1f4:	00000263          	beqz	zero,1f8 <_prog_start-0x7ffffe08>
 1f8:	9102                	jalr	sp
 1fa:	0148                	addi	a0,sp,132
 1fc:	00df 0000 b604      	.insn	6, 0xb604000000df
 202:	630d                	lui	t1,0x3
 204:	0002                	c.slli64	zero
 206:	0200                	addi	s0,sp,256
 208:	4091                	li	ra,4
 20a:	3301                	addiw	t1,t1,-32 # 2fe0 <_prog_start-0x7fffd020>
 20c:	0001                	nop
 20e:	0400                	addi	s0,sp,512
 210:	006912b7          	lui	t0,0x691
 214:	0000                	unimp
 216:	9102                	jalr	sp
 218:	0164                	addi	s1,sp,140
 21a:	0211                	addi	tp,tp,4 # ffffffffffff8004 <multiply2+0xffffffff7fff6444>
 21c:	0000                	unimp
 21e:	b704                	fsd	fs1,40(a4)
 220:	6925                	lui	s2,0x9
 222:	0000                	unimp
 224:	0200                	addi	s0,sp,256
 226:	6091                	lui	ra,0x4
 228:	4601                	li	a2,0
 22a:	0002                	c.slli64	zero
 22c:	0400                	addi	s0,sp,512
 22e:	0db8                	addi	a4,sp,728
 230:	00000263          	beqz	zero,234 <_prog_start-0x7ffffdcc>
 234:	7fb89103          	lh	sp,2043(a7)
 238:	4401                	li	s0,0
 23a:	0002                	c.slli64	zero
 23c:	0400                	addi	s0,sp,512
 23e:	0db9                	addi	s11,s11,14
 240:	00000263          	beqz	zero,244 <_prog_start-0x7ffffdbc>
 244:	7fb09103          	lh	sp,2043(ra) # 47fb <_prog_start-0x7fffb805>
 248:	0015be17          	auipc	t3,0x15b
 24c:	0080                	addi	s0,sp,64
 24e:	0000                	unimp
 250:	3a00                	fld	fs0,48(a2)
 252:	0000                	unimp
 254:	0000                	unimp
 256:	0000                	unimp
 258:	4300                	lw	s0,0(a4)
 25a:	0002                	c.slli64	zero
 25c:	0300                	addi	s0,sp,384
 25e:	0069                	c.nop	26
 260:	dd04                	sw	s1,56(a0)
 262:	560e                	lw	a2,224(sp)
 264:	0000                	unimp
 266:	0200                	addi	s0,sp,256
 268:	6c91                	lui	s9,0x4
 26a:	1800                	addi	s0,sp,48
 26c:	1616                	slli	a2,a2,0x25
 26e:	8000                	.insn	2, 0x8000
 270:	0000                	unimp
 272:	0000                	unimp
 274:	003a                	c.slli	zero,0xe
 276:	0000                	unimp
 278:	0000                	unimp
 27a:	0000                	unimp
 27c:	04006903          	lwu	s2,64(zero) # 40 <_prog_start-0x7fffffc0>
 280:	0ee0                	addi	s0,sp,860
 282:	0056                	c.slli	zero,0x15
 284:	0000                	unimp
 286:	9102                	jalr	sp
 288:	0068                	addi	a0,sp,12
 28a:	0a00                	addi	s0,sp,272
 28c:	008a                	slli	ra,ra,0x2
 28e:	0000                	unimp
 290:	00000273          	.insn	4, 0x0273
 294:	0000770b          	.insn	4, 0x770b
 298:	0700                	addi	s0,sp,896
 29a:	0d00                	addi	s0,sp,656
 29c:	0078                	addi	a4,sp,12
 29e:	0000                	unimp
 2a0:	8681                	c.srai64	a3
 2a2:	00800013          	li	zero,8
 2a6:	0000                	unimp
 2a8:	1a00                	addi	s0,sp,304
 2aa:	0001                	nop
 2ac:	0000                	unimp
 2ae:	0000                	unimp
 2b0:	0100                	addi	s0,sp,128
 2b2:	db9c                	sw	a5,48(a5)
 2b4:	0002                	c.slli64	zero
 2b6:	0100                	addi	s0,sp,128
 2b8:	009e                	slli	ra,ra,0x7
 2ba:	0000                	unimp
 2bc:	8204                	.insn	2, 0x8204
 2be:	9b0e                	add	s6,s6,gp
 2c0:	0000                	unimp
 2c2:	0200                	addi	s0,sp,256
 2c4:	6c91                	lui	s9,0x4
 2c6:	cf01                	beqz	a4,2de <_prog_start-0x7ffffd22>
 2c8:	0000                	unimp
 2ca:	0400                	addi	s0,sp,512
 2cc:	0e89                	addi	t4,t4,2
 2ce:	0000009b          	sext.w	ra,zero
 2d2:	9102                	jalr	sp
 2d4:	0168                	addi	a0,sp,140
 2d6:	000000d7          	.insn	4, 0x00d7
 2da:	8a04                	.insn	2, 0x8a04
 2dc:	9b0e                	add	s6,s6,gp
 2de:	0000                	unimp
 2e0:	0200                	addi	s0,sp,256
 2e2:	6491                	lui	s1,0x4
 2e4:	e901                	bnez	a0,2f4 <_prog_start-0x7ffffd0c>
 2e6:	0000                	unimp
 2e8:	0400                	addi	s0,sp,512
 2ea:	0ea8                	addi	a0,sp,856
 2ec:	0000009b          	sext.w	ra,zero
 2f0:	9102                	jalr	sp
 2f2:	0160                	addi	s0,sp,140
 2f4:	00f4                	addi	a3,sp,76
 2f6:	0000                	unimp
 2f8:	a804                	fsd	fs1,16(s0)
 2fa:	9b1a                	add	s6,s6,t1
 2fc:	0000                	unimp
 2fe:	0200                	addi	s0,sp,256
 300:	5c91                	li	s9,-28
 302:	0d00                	addi	s0,sp,656
 304:	0000026f          	jal	tp,304 <_prog_start-0x7ffffcfc>
 308:	9c59                	.insn	2, 0x9c59
 30a:	0012                	c.slli	zero,0x4
 30c:	0080                	addi	s0,sp,64
 30e:	0000                	unimp
 310:	ea00                	sd	s0,16(a2)
 312:	0000                	unimp
 314:	0000                	unimp
 316:	0000                	unimp
 318:	0100                	addi	s0,sp,128
 31a:	259c                	fld	fa5,8(a1)
 31c:	01000003          	lb	zero,16(zero) # 10 <_prog_start-0x7ffffff0>
 320:	009e                	slli	ra,ra,0x7
 322:	0000                	unimp
 324:	5a04                	lw	s1,48(a2)
 326:	9b0e                	add	s6,s6,gp
 328:	0000                	unimp
 32a:	0200                	addi	s0,sp,256
 32c:	6c91                	lui	s9,0x4
 32e:	eb01                	bnez	a4,33e <_prog_start-0x7ffffcc2>
 330:	0000                	unimp
 332:	0400                	addi	s0,sp,512
 334:	009b0e77          	.insn	4, 0x009b0e77
 338:	0000                	unimp
 33a:	9102                	jalr	sp
 33c:	0168                	addi	a0,sp,140
 33e:	00f6                	slli	ra,ra,0x1d
 340:	0000                	unimp
 342:	7704                	ld	s1,40(a4)
 344:	9b18                	.insn	2, 0x9b18
 346:	0000                	unimp
 348:	0200                	addi	s0,sp,256
 34a:	6491                	lui	s1,0x4
 34c:	0e00                	addi	s0,sp,784
 34e:	011f 0000 162d      	.insn	6, 0x162d0000011f
 354:	0011                	c.nop	4
 356:	0080                	addi	s0,sp,64
 358:	0000                	unimp
 35a:	8600                	.insn	2, 0x8600
 35c:	0001                	nop
 35e:	0000                	unimp
 360:	0000                	unimp
 362:	0100                	addi	s0,sp,128
 364:	609c                	ld	a5,0(s1)
 366:	01000003          	lb	zero,16(zero) # 10 <_prog_start-0x7ffffff0>
 36a:	000000cf          	fnmadd.s	ft1,ft0,ft0,ft0,rne
 36e:	3d04                	fld	fs1,56(a0)
 370:	9b0c                	.insn	2, 0x9b0c
 372:	0000                	unimp
 374:	0200                	addi	s0,sp,256
 376:	6c91                	lui	s9,0x4
 378:	d701                	beqz	a4,280 <_prog_start-0x7ffffd80>
 37a:	0000                	unimp
 37c:	0400                	addi	s0,sp,512
 37e:	153d                	addi	a0,a0,-17
 380:	0000009b          	sext.w	ra,zero
 384:	9102                	jalr	sp
 386:	0068                	addi	a0,sp,12
 388:	540c                	lw	a1,40(s0)
 38a:	0001                	nop
 38c:	0400                	addi	s0,sp,512
 38e:	009b0a23          	sb	s1,20(s6)
 392:	0000                	unimp
 394:	10be                	slli	ra,ra,0x2f
 396:	8000                	.insn	2, 0x8000
 398:	0000                	unimp
 39a:	0000                	unimp
 39c:	0058                	addi	a4,sp,4
 39e:	0000                	unimp
 3a0:	0000                	unimp
 3a2:	0000                	unimp
 3a4:	9c01                	subw	s0,s0,s0
 3a6:	03a1                	addi	t2,t2,8
 3a8:	0000                	unimp
 3aa:	6202                	ld	tp,0(sp)
 3ac:	0001                	nop
 3ae:	0400                	addi	s0,sp,512
 3b0:	009b2923          	sw	s1,18(s6)
 3b4:	0000                	unimp
 3b6:	9102                	jalr	sp
 3b8:	015c                	addi	a5,sp,132
 3ba:	005e                	c.slli	zero,0x17
 3bc:	0000                	unimp
 3be:	2804                	fld	fs1,16(s0)
 3c0:	9b0c                	.insn	2, 0x9b0c
 3c2:	0000                	unimp
 3c4:	0200                	addi	s0,sp,256
 3c6:	6c91                	lui	s9,0x4
 3c8:	0e00                	addi	s0,sp,784
 3ca:	0040                	addi	s0,sp,4
 3cc:	0000                	unimp
 3ce:	00106c1b          	.insn	4, 0x00106c1b
 3d2:	0080                	addi	s0,sp,64
 3d4:	0000                	unimp
 3d6:	5200                	lw	s0,32(a2)
 3d8:	0000                	unimp
 3da:	0000                	unimp
 3dc:	0000                	unimp
 3de:	0100                	addi	s0,sp,128
 3e0:	dc9c                	sw	a5,56(s1)
 3e2:	02000003          	lb	zero,32(zero) # 20 <_prog_start-0x7fffffe0>
 3e6:	0162                	slli	sp,sp,0x18
 3e8:	0000                	unimp
 3ea:	1b04                	addi	s1,sp,432
 3ec:	9b26                	add	s6,s6,s1
 3ee:	0000                	unimp
 3f0:	0200                	addi	s0,sp,256
 3f2:	6c91                	lui	s9,0x4
 3f4:	ee02                	sd	zero,280(sp)
 3f6:	0001                	nop
 3f8:	0400                	addi	s0,sp,512
 3fa:	009b381b          	.insn	4, 0x009b381b
 3fe:	0000                	unimp
 400:	9102                	jalr	sp
 402:	0068                	addi	a0,sp,12
 404:	0002230f          	.insn	4, 0x0002230f
 408:	ad00                	fsd	fs0,24(a0)
 40a:	0792                	slli	a5,a5,0x4
 40c:	8000                	.insn	2, 0x8000
 40e:	0000                	unimp
 410:	0000                	unimp
 412:	08da                	slli	a7,a7,0x16
 414:	0000                	unimp
 416:	0000                	unimp
 418:	0000                	unimp
 41a:	9c01                	subw	s0,s0,s0
 41c:	0000048b          	.insn	4, 0x048b
 420:	5702                	lw	a4,32(sp)
 422:	0000                	unimp
 424:	0300                	addi	s0,sp,384
 426:	2cad                	addiw	s9,s9,11 # 400b <_prog_start-0x7fffbff5>
 428:	0000048b          	.insn	4, 0x048b
 42c:	9102                	jalr	sp
 42e:	0848                	addi	a0,sp,20
 430:	0079656b          	.insn	4, 0x0079656b
 434:	8b43ad03          	lw	s10,-1868(t2)
 438:	0004                	.insn	2, 0x0004
 43a:	0200                	addi	s0,sp,256
 43c:	4091                	li	ra,4
 43e:	3302                	fld	ft6,32(sp)
 440:	0002                	c.slli64	zero
 442:	0300                	addi	s0,sp,384
 444:	56ad                	li	a3,-21
 446:	0096                	slli	ra,ra,0x5
 448:	0000                	unimp
 44a:	7fbf9103          	lh	sp,2043(t6)
 44e:	8602                	jr	a2
 450:	0001                	nop
 452:	0300                	addi	s0,sp,384
 454:	67ad                	lui	a5,0xb
 456:	0490                	addi	a2,sp,576
 458:	0000                	unimp
 45a:	7fb09103          	lh	sp,2043(ra)
 45e:	9101                	srli	a0,a0,0x20
 460:	0001                	nop
 462:	0300                	addi	s0,sp,384
 464:	02630aaf          	.insn	4, 0x02630aaf
 468:	0000                	unimp
 46a:	9102                	jalr	sp
 46c:	0160                	addi	s0,sp,140
 46e:	018c                	addi	a1,sp,192
 470:	0000                	unimp
 472:	630bb003          	ld	zero,1584(s7)
 476:	0002                	c.slli64	zero
 478:	0200                	addi	s0,sp,256
 47a:	5891                	li	a7,-28
 47c:	03007503          	.insn	4, 0x03007503
 480:	0bb1                	addi	s7,s7,12
 482:	008a                	slli	ra,ra,0x2
 484:	0000                	unimp
 486:	9102                	jalr	sp
 488:	036d                	addi	t1,t1,27
 48a:	0076                	c.slli	zero,0x1d
 48c:	8a0db103          	ld	sp,-1888(s11)
 490:	0000                	unimp
 492:	0200                	addi	s0,sp,256
 494:	6e91                	lui	t4,0x4
 496:	3a01                	addiw	s4,s4,-32
 498:	0002                	c.slli64	zero
 49a:	0300                	addi	s0,sp,384
 49c:	0ab2                	slli	s5,s5,0xc
 49e:	00000263          	beqz	zero,4a2 <_prog_start-0x7ffffb5e>
 4a2:	9102                	jalr	sp
 4a4:	0350                	addi	a2,sp,388
 4a6:	0069                	c.nop	26
 4a8:	8a0ab303          	ld	t1,-1888(s5)
 4ac:	0000                	unimp
 4ae:	0200                	addi	s0,sp,256
 4b0:	6f91                	lui	t6,0x4
 4b2:	0600                	addi	s0,sp,768
 4b4:	0096                	slli	ra,ra,0x5
 4b6:	0000                	unimp
 4b8:	8a06                	mv	s4,ra
 4ba:	0000                	unimp
 4bc:	0f00                	addi	s0,sp,912
 4be:	00000197          	auipc	gp,0x0
 4c2:	00010e2f          	.insn	4, 0x00010e2f
 4c6:	0080                	addi	s0,sp,64
 4c8:	0000                	unimp
 4ca:	8400                	.insn	2, 0x8400
 4cc:	0006                	c.slli	zero,0x1
 4ce:	0000                	unimp
 4d0:	0000                	unimp
 4d2:	0100                	addi	s0,sp,128
 4d4:	449c                	lw	a5,8(s1)
 4d6:	0005                	c.nop	1
 4d8:	0200                	addi	s0,sp,256
 4da:	0186                	slli	gp,gp,0x1
 4dc:	0000                	unimp
 4de:	8b2c2f03          	lw	t5,-1870(s8)
 4e2:	0004                	.insn	2, 0x0004
 4e4:	0200                	addi	s0,sp,256
 4e6:	4891                	li	a7,4
 4e8:	6b08                	ld	a0,16(a4)
 4ea:	7965                	lui	s2,0xffff9
 4ec:	0300                	addi	s0,sp,384
 4ee:	048b422f          	.insn	4, 0x048b422f
 4f2:	0000                	unimp
 4f4:	9102                	jalr	sp
 4f6:	0240                	addi	s0,sp,260
 4f8:	00000233          	add	tp,zero,zero
 4fc:	96552f03          	lw	t5,-1691(a0)
 500:	0000                	unimp
 502:	0300                	addi	s0,sp,384
 504:	bf91                	j	458 <_prog_start-0x7ffffba8>
 506:	027f 0057 0000 2f03 	.insn	10, 0x90662f0300000057027f
 50e:	9066 
 510:	0004                	.insn	2, 0x0004
 512:	0300                	addi	s0,sp,384
 514:	b091                	j	fffffffffffffd58 <multiply2+0xffffffff7fffe198>
 516:	017f 0191 0000 3103 	.insn	10, 0x630b310300000191017f
 51e:	630b 
 520:	0002                	c.slli64	zero
 522:	0200                	addi	s0,sp,256
 524:	6091                	lui	ra,0x4
 526:	8c01                	sub	s0,s0,s0
 528:	0001                	nop
 52a:	0300                	addi	s0,sp,384
 52c:	0b32                	slli	s6,s6,0xc
 52e:	00000263          	beqz	zero,532 <_prog_start-0x7fffface>
 532:	9102                	jalr	sp
 534:	0358                	addi	a4,sp,388
 536:	0075                	c.nop	29
 538:	8a0b3303          	ld	t1,-1888(s6)
 53c:	0000                	unimp
 53e:	0200                	addi	s0,sp,256
 540:	6d91                	lui	s11,0x4
 542:	03007603          	.insn	4, 0x03007603
 546:	008a0d33          	add	s10,s4,s0
 54a:	0000                	unimp
 54c:	9102                	jalr	sp
 54e:	016e                	slli	sp,sp,0x1b
 550:	023a                	slli	tp,tp,0xe
 552:	0000                	unimp
 554:	630b3403          	ld	s0,1584(s6)
 558:	0002                	c.slli64	zero
 55a:	0200                	addi	s0,sp,256
 55c:	5091                	li	ra,-28
 55e:	03006903          	lwu	s2,48(zero) # 30 <_prog_start-0x7fffffd0>
 562:	0b35                	addi	s6,s6,13
 564:	008a                	slli	ra,ra,0x2
 566:	0000                	unimp
 568:	9102                	jalr	sp
 56a:	ae19006f          	j	fffffffffff9104a <multiply2+0xffffffff7ff8f48a>
 56e:	0001                	nop
 570:	0200                	addi	s0,sp,256
 572:	0a21                	addi	s4,s4,8
 574:	0000009b          	sext.w	ra,zero
 578:	00de                	slli	ra,ra,0x17
 57a:	8000                	.insn	2, 0x8000
 57c:	0000                	unimp
 57e:	0000                	unimp
 580:	0030                	addi	a2,sp,8
 582:	0000                	unimp
 584:	0000                	unimp
 586:	0000                	unimp
 588:	9c01                	subw	s0,s0,s0
 58a:	7809                	lui	a6,0xfffe2
 58c:	0001                	nop
 58e:	1b00                	addi	s0,sp,432
 590:	00bc                	addi	a5,sp,72
 592:	8000                	.insn	2, 0x8000
 594:	0000                	unimp
 596:	0000                	unimp
 598:	0022                	c.slli	zero,0x8
 59a:	0000                	unimp
 59c:	0000                	unimp
 59e:	0000                	unimp
 5a0:	9c01                	subw	s0,s0,s0
 5a2:	c709                	beqz	a4,5ac <_prog_start-0x7ffffa54>
 5a4:	0001                	nop
 5a6:	1500                	addi	s0,sp,672
 5a8:	009a                	slli	ra,ra,0x6
 5aa:	8000                	.insn	2, 0x8000
 5ac:	0000                	unimp
 5ae:	0000                	unimp
 5b0:	0022                	c.slli	zero,0x8
 5b2:	0000                	unimp
 5b4:	0000                	unimp
 5b6:	0000                	unimp
 5b8:	9c01                	subw	s0,s0,s0
 5ba:	5c09                	li	s8,-30
 5bc:	0002                	c.slli64	zero
 5be:	0f00                	addi	s0,sp,912
 5c0:	0078                	addi	a4,sp,12
 5c2:	8000                	.insn	2, 0x8000
 5c4:	0000                	unimp
 5c6:	0000                	unimp
 5c8:	0022                	c.slli	zero,0x8
 5ca:	0000                	unimp
 5cc:	0000                	unimp
 5ce:	0000                	unimp
 5d0:	9c01                	subw	s0,s0,s0
 5d2:	6d1a                	ld	s10,384(sp)
 5d4:	0000                	unimp
 5d6:	0100                	addi	s0,sp,128
 5d8:	1824                	addi	s1,sp,56
 5da:	0000009b          	sext.w	ra,zero
 5de:	0056                	c.slli	zero,0x15
 5e0:	8000                	.insn	2, 0x8000
 5e2:	0000                	unimp
 5e4:	0000                	unimp
 5e6:	0022                	c.slli	zero,0x8
 5e8:	0000                	unimp
 5ea:	0000                	unimp
 5ec:	0000                	unimp
 5ee:	9c01                	subw	s0,s0,s0
 5f0:	000005eb          	.insn	4, 0x05eb
 5f4:	4502                	lw	a0,0(sp)
 5f6:	0001                	nop
 5f8:	0100                	addi	s0,sp,128
 5fa:	2d24                	fld	fs1,88(a0)
 5fc:	00ac                	addi	a1,sp,72
 5fe:	0000                	unimp
 600:	9102                	jalr	sp
 602:	0358                	addi	a4,sp,388
 604:	7470                	ld	a2,232(s0)
 606:	0072                	c.slli	zero,0x1c
 608:	2601                	sext.w	a2,a2
 60a:	ce15                	beqz	a2,646 <_prog_start-0x7ffff9ba>
 60c:	0000                	unimp
 60e:	0200                	addi	s0,sp,256
 610:	6891                	lui	a7,0x4
 612:	1b00                	addi	s0,sp,432
 614:	00000113          	li	sp,0
 618:	1e01                	addi	t3,t3,-32 # 15b228 <_prog_start-0x7fea4dd8>
 61a:	2c14                	fld	fa3,24(s0)
 61c:	0000                	unimp
 61e:	0080                	addi	s0,sp,64
 620:	0000                	unimp
 622:	2a00                	fld	fs0,16(a2)
 624:	0000                	unimp
 626:	0000                	unimp
 628:	0000                	unimp
 62a:	0100                	addi	s0,sp,128
 62c:	029c                	addi	a5,sp,320
 62e:	0145                	addi	sp,sp,17
 630:	0000                	unimp
 632:	1e01                	addi	t3,t3,-32
 634:	ac2a                	fsd	fa0,24(sp)
 636:	0000                	unimp
 638:	0200                	addi	s0,sp,256
 63a:	5891                	li	a7,-28
 63c:	ee02                	sd	zero,280(sp)
 63e:	0001                	nop
 640:	0100                	addi	s0,sp,128
 642:	391e                	fld	fs2,480(sp)
 644:	0000009b          	sext.w	ra,zero
 648:	9102                	jalr	sp
 64a:	0354                	addi	a3,sp,388
 64c:	7470                	ld	a2,232(s0)
 64e:	0072                	c.slli	zero,0x1c
 650:	2001                	.insn	2, 0x2001
 652:	ce15                	beqz	a2,68e <_prog_start-0x7ffff972>
 654:	0000                	unimp
 656:	0200                	addi	s0,sp,256
 658:	6891                	lui	a7,0x4
 65a:	0000                	unimp
 65c:	00000317          	auipc	t1,0x0
 660:	0005                	c.nop	1
 662:	0801                	addi	a6,a6,0 # fffffffffffe2000 <multiply2+0xffffffff7ffe0440>
 664:	01dd                	addi	gp,gp,23 # 4d5 <_prog_start-0x7ffffb2b>
 666:	0000                	unimp
 668:	00028d0b          	.insn	4, 0x00028d0b
 66c:	1d00                	addi	s0,sp,688
 66e:	0200                	addi	s0,sp,256
 670:	0000                	unimp
 672:	0000                	unimp
 674:	0000                	unimp
 676:	1698                	addi	a4,sp,864
 678:	8000                	.insn	2, 0x8000
 67a:	0000                	unimp
 67c:	0000                	unimp
 67e:	03d8                	addi	a4,sp,452
 680:	0000                	unimp
 682:	0000                	unimp
 684:	0000                	unimp
 686:	180e                	slli	a6,a6,0x23
 688:	0000                	unimp
 68a:	00034503          	lbu	a0,0(t1) # 65c <_prog_start-0x7ffff9a4>
 68e:	0300                	addi	s0,sp,384
 690:	1b28                	addi	a0,sp,440
 692:	003a                	c.slli	zero,0xe
 694:	0000                	unimp
 696:	080c                	addi	a1,sp,16
 698:	0321                	addi	t1,t1,8
 69a:	0000                	unimp
 69c:	00034c03          	lbu	s8,0(t1)
 6a0:	0300                	addi	s0,sp,384
 6a2:	002e1867          	.insn	4, 0x002e1867
 6a6:	0000                	unimp
 6a8:	0102                	c.slli64	sp
 6aa:	6c06                	ld	s8,64(sp)
 6ac:	0001                	nop
 6ae:	0200                	addi	s0,sp,256
 6b0:	0801                	addi	a6,a6,0
 6b2:	016a                	slli	sp,sp,0x1a
 6b4:	0000                	unimp
 6b6:	0202                	c.slli64	tp
 6b8:	6305                	lui	t1,0x1
 6ba:	0000                	unimp
 6bc:	0200                	addi	s0,sp,256
 6be:	0702                	c.slli64	a4
 6c0:	01d5                	addi	gp,gp,21
 6c2:	0000                	unimp
 6c4:	00033303          	ld	t1,0(t1) # 1000 <_prog_start-0x7ffff000>
 6c8:	0400                	addi	s0,sp,512
 6ca:	184d                	addi	a6,a6,-13
 6cc:	0074                	addi	a3,sp,12
 6ce:	0000                	unimp
 6d0:	040d                	addi	s0,s0,3
 6d2:	6905                	lui	s2,0x1
 6d4:	746e                	ld	s0,248(sp)
 6d6:	0300                	addi	s0,sp,384
 6d8:	00b0                	addi	a2,sp,72
 6da:	0000                	unimp
 6dc:	4f04                	lw	s1,24(a4)
 6de:	8719                	srai	a4,a4,0x6
 6e0:	0000                	unimp
 6e2:	0200                	addi	s0,sp,256
 6e4:	0704                	addi	s1,sp,896
 6e6:	01f8                	addi	a4,sp,204
 6e8:	0000                	unimp
 6ea:	0802                	c.slli64	a6
 6ec:	2a05                	addiw	s4,s4,1
 6ee:	0001                	nop
 6f0:	0200                	addi	s0,sp,256
 6f2:	0708                	addi	a0,sp,896
 6f4:	000001f3          	.insn	4, 0x01f3
 6f8:	00033503          	ld	a0,0(t1)
 6fc:	0500                	addi	s0,sp,640
 6fe:	132c                	addi	a1,sp,424
 700:	0068                	addi	a0,sp,12
 702:	0000                	unimp
 704:	0000b203          	ld	tp,0(ra) # 4000 <_prog_start-0x7fffc000>
 708:	0500                	addi	s0,sp,640
 70a:	1430                	addi	a2,sp,552
 70c:	0000007b          	.insn	4, 0x007b
 710:	a80e                	fsd	ft3,16(sp)
 712:	0000                	unimp
 714:	0400                	addi	s0,sp,512
 716:	000000bb          	addw	ra,zero,zero
 71a:	1301                	addi	t1,t1,-32
 71c:	d422                	sw	s0,40(sp)
 71e:	0000                	unimp
 720:	0900                	addi	s0,sp,144
 722:	001ab803          	ld	a6,1(s5)
 726:	0080                	addi	s0,sp,64
 728:	0000                	unimp
 72a:	0700                	addi	s0,sp,896
 72c:	00b4                	addi	a3,sp,72
 72e:	0000                	unimp
 730:	cf08                	sw	a0,24(a4)
 732:	0000                	unimp
 734:	0900                	addi	s0,sp,144
 736:	0096                	slli	ra,ra,0x5
 738:	0000                	unimp
 73a:	4416                	lw	s0,68(sp)
 73c:	00800017          	auipc	zero,0x800
 740:	0000                	unimp
 742:	2c00                	fld	fs0,24(s0)
 744:	00000003          	lb	zero,0(zero) # 0 <_prog_start-0x80000000>
 748:	0000                	unimp
 74a:	0100                	addi	s0,sp,128
 74c:	4c9c                	lw	a5,24(s1)
 74e:	0002                	c.slli64	zero
 750:	0500                	addi	s0,sp,640
 752:	6d66                	ld	s10,88(sp)
 754:	0074                	addi	a3,sp,12
 756:	1602                	slli	a2,a2,0x20
 758:	4c1a                	lw	s8,132(sp)
 75a:	0002                	c.slli64	zero
 75c:	0300                	addi	s0,sp,384
 75e:	b891                	j	ffffffffffffffb2 <multiply2+0xffffffff7fffe3f2>
 760:	0f7e                	slli	t5,t5,0x1f
 762:	7601                	lui	a2,0xfffe0
 764:	006c                	addi	a1,sp,12
 766:	1802                	slli	a6,a6,0x20
 768:	400d                	c.li	zero,3
 76a:	0000                	unimp
 76c:	0300                	addi	s0,sp,384
 76e:	e891                	bnez	s1,782 <_prog_start-0x7ffff87e>
 770:	047e                	slli	s0,s0,0x1f
 772:	0354                	addi	a3,sp,388
 774:	0000                	unimp
 776:	1902                	slli	s2,s2,0x20
 778:	5d0a                	lw	s10,160(sp)
 77a:	0002                	c.slli64	zero
 77c:	0300                	addi	s0,sp,384
 77e:	af91                	j	ed2 <_prog_start-0x7ffff12e>
 780:	047f 033d 0000 1902 	.insn	10, 0x5d1519020000033d047f
 788:	5d15 
 78a:	0002                	c.slli64	zero
 78c:	0300                	addi	s0,sp,384
 78e:	ae91                	j	ae2 <_prog_start-0x7ffff51e>
 790:	047f 0319 0000 1902 	.insn	10, 0x5d1e190200000319047f
 798:	5d1e 
 79a:	0002                	c.slli64	zero
 79c:	0300                	addi	s0,sp,384
 79e:	ad91                	j	df2 <_prog_start-0x7ffff20e>
 7a0:	017f 0063 1a02 510a 	.insn	10, 0x0002510a1a020063017f
 7a8:	0002 
 7aa:	0300                	addi	s0,sp,384
 7ac:	8791                	srai	a5,a5,0x4
 7ae:	067f 17ca 8000 0000 	.insn	10, 0x800017ca067f
 7b6:	0000 
 7b8:	024a                	slli	tp,tp,0x12
 7ba:	0000                	unimp
 7bc:	0000                	unimp
 7be:	0000                	unimp
 7c0:	6e01                	.insn	2, 0x6e01
 7c2:	0200                	addi	s0,sp,256
 7c4:	1e6c                	addi	a1,sp,828
 7c6:	00000087          	.insn	4, 0x0087
 7ca:	7ef49103          	lh	sp,2031(s1) # 47ef <_prog_start-0x7fffb811>
 7ce:	da0a                	sw	sp,52(sp)
 7d0:	00800017          	auipc	zero,0x800
 7d4:	0000                	unimp
 7d6:	ae00                	fsd	fs0,24(a2)
 7d8:	0000                	unimp
 7da:	0000                	unimp
 7dc:	0000                	unimp
 7de:	c400                	sw	s0,8(s0)
 7e0:	0001                	nop
 7e2:	0100                	addi	s0,sp,128
 7e4:	006e                	c.slli	zero,0x1b
 7e6:	2e02                	fld	ft8,0(sp)
 7e8:	951f 0000 0300      	.insn	6, 0x03000000951f
 7ee:	a091                	j	832 <_prog_start-0x7ffff7ce>
 7f0:	017f 0069 2f02 8e16 	.insn	10, 0x8e162f020069017f
 7f8:	0000 
 7fa:	0300                	addi	s0,sp,384
 7fc:	9891                	andi	s1,s1,-28
 7fe:	067f 182c 8000 0000 	.insn	10, 0x8000182c067f
 806:	0000 
 808:	0048                	addi	a0,sp,4
 80a:	0000                	unimp
 80c:	0000                	unimp
 80e:	0000                	unimp
 810:	6401                	.insn	2, 0x6401
 812:	0200                	addi	s0,sp,256
 814:	1a38                	addi	a4,sp,312
 816:	008e                	slli	ra,ra,0x3
 818:	0000                	unimp
 81a:	7ef89103          	lh	sp,2031(a7) # 47ef <_prog_start-0x7fffb811>
 81e:	0000                	unimp
 820:	880a                	mv	a6,sp
 822:	0018                	.insn	2, 0x0018
 824:	0080                	addi	s0,sp,64
 826:	0000                	unimp
 828:	e200                	sd	s0,0(a2)
 82a:	0000                	unimp
 82c:	0000                	unimp
 82e:	0000                	unimp
 830:	0a00                	addi	s0,sp,272
 832:	0002                	c.slli64	zero
 834:	0100                	addi	s0,sp,128
 836:	756e                	ld	a0,248(sp)
 838:	006d                	c.nop	27
 83a:	4402                	lw	s0,0(sp)
 83c:	8e16                	mv	t3,t0
 83e:	0000                	unimp
 840:	0300                	addi	s0,sp,384
 842:	9091                	srli	s1,s1,0x24
 844:	047f 035e 0000 5802 	.insn	10, 0x641658020000035e047f
 84c:	6416 
 84e:	0002                	c.slli64	zero
 850:	0300                	addi	s0,sp,384
 852:	c891                	beqz	s1,866 <_prog_start-0x7ffff79a>
 854:	017e                	slli	sp,sp,0x1f
 856:	6f70                	ld	a2,216(a4)
 858:	59020073          	.insn	4, 0x59020073
 85c:	7415                	lui	s0,0xfffe5
 85e:	0000                	unimp
 860:	0300                	addi	s0,sp,384
 862:	8c91                	sub	s1,s1,a2
 864:	007f ac06 0019 0080 	.insn	10, 0x00800019ac06007f
 86c:	0000 
 86e:	6600                	ld	s0,8(a2)
 870:	0000                	unimp
 872:	0000                	unimp
 874:	0000                	unimp
 876:	0100                	addi	s0,sp,128
 878:	0069                	c.nop	26
 87a:	6e02                	ld	t3,0(sp)
 87c:	741a                	ld	s0,416(sp)
 87e:	0000                	unimp
 880:	0300                	addi	s0,sp,384
 882:	8891                	andi	s1,s1,4
 884:	067f 19b4 8000 0000 	.insn	10, 0x800019b4067f
 88c:	0000 
 88e:	004a                	c.slli	zero,0x12
 890:	0000                	unimp
 892:	0000                	unimp
 894:	0000                	unimp
 896:	6401                	.insn	2, 0x6401
 898:	0200                	addi	s0,sp,256
 89a:	0087226f          	jal	tp,728a2 <_prog_start-0x7ff8d75e>
 89e:	0000                	unimp
 8a0:	7ef09103          	lh	sp,2031(ra)
 8a4:	0000                	unimp
 8a6:	0000                	unimp
 8a8:	00025807          	.insn	4, 0x00025807
 8ac:	0200                	addi	s0,sp,256
 8ae:	0801                	addi	a6,a6,0
 8b0:	00000173          	.insn	4, 0x0173
 8b4:	5108                	lw	a0,32(a0)
 8b6:	0002                	c.slli64	zero
 8b8:	0200                	addi	s0,sp,256
 8ba:	0201                	addi	tp,tp,0 # 0 <_prog_start-0x80000000>
 8bc:	0372                	slli	t1,t1,0x1c
 8be:	0000                	unimp
 8c0:	5110                	lw	a2,32(a0)
 8c2:	0002                	c.slli64	zero
 8c4:	7400                	ld	s0,40(s0)
 8c6:	0002                	c.slli64	zero
 8c8:	1100                	addi	s0,sp,160
 8ca:	0095                	addi	ra,ra,5
 8cc:	0000                	unimp
 8ce:	001f 6609 0003      	.insn	6, 0x00036609001f
 8d4:	0f00                	addi	s0,sp,912
 8d6:	171a                	slli	a4,a4,0x26
 8d8:	8000                	.insn	2, 0x8000
 8da:	0000                	unimp
 8dc:	0000                	unimp
 8de:	002a                	c.slli	zero,0xa
 8e0:	0000                	unimp
 8e2:	0000                	unimp
 8e4:	0000                	unimp
 8e6:	9c01                	subw	s0,s0,s0
 8e8:	029e                	slli	t0,t0,0x7
 8ea:	0000                	unimp
 8ec:	7305                	lui	t1,0xfffe1
 8ee:	0200                	addi	s0,sp,256
 8f0:	024c180f          	.insn	4, 0x024c180f
 8f4:	0000                	unimp
 8f6:	9102                	jalr	sp
 8f8:	0068                	addi	a0,sp,12
 8fa:	6512                	ld	a0,256(sp)
 8fc:	02000003          	lb	zero,32(zero) # 20 <_prog_start-0x7fffffe0>
 900:	1408                	addi	a0,sp,544
 902:	16d6                	slli	a3,a3,0x35
 904:	8000                	.insn	2, 0x8000
 906:	0000                	unimp
 908:	0000                	unimp
 90a:	0044                	addi	s1,sp,4
 90c:	0000                	unimp
 90e:	0000                	unimp
 910:	0000                	unimp
 912:	9c01                	subw	s0,s0,s0
 914:	000002d7          	.insn	4, 0x02d7
 918:	7305                	lui	t1,0xfffe1
 91a:	0200                	addi	s0,sp,256
 91c:	2708                	fld	fa0,8(a4)
 91e:	024c                	addi	a1,sp,260
 920:	0000                	unimp
 922:	9102                	jalr	sp
 924:	0158                	addi	a4,sp,132
 926:	0a020063          	beqz	tp,9c6 <_prog_start-0x7ffff63a>
 92a:	00025107          	.insn	4, 0x00025107
 92e:	0200                	addi	s0,sp,256
 930:	6f91                	lui	t6,0x4
 932:	1300                	addi	s0,sp,416
 934:	036c                	addi	a1,sp,396
 936:	0000                	unimp
 938:	1501                	addi	a0,a0,-32
 93a:	9814                	.insn	2, 0x9814
 93c:	0016                	c.slli	zero,0x5
 93e:	0080                	addi	s0,sp,64
 940:	0000                	unimp
 942:	3e00                	fld	fs0,56(a2)
 944:	0000                	unimp
 946:	0000                	unimp
 948:	0000                	unimp
 94a:	0100                	addi	s0,sp,128
 94c:	059c                	addi	a5,sp,704
 94e:	15010063          	beq	sp,a6,a8e <_prog_start-0x7ffff572>
 952:	511f 0002 0200      	.insn	6, 0x02000002511f
 958:	5f91                	li	t6,-28
 95a:	7401                	lui	s0,0xfffe0
 95c:	0078                	addi	a4,sp,12
 95e:	1701                	addi	a4,a4,-32
 960:	cf15                	beqz	a4,99c <_prog_start-0x7ffff664>
 962:	0000                	unimp
 964:	0200                	addi	s0,sp,256
 966:	6891                	lui	a7,0x4
 968:	7201                	lui	tp,0xfffe0
 96a:	0100                	addi	s0,sp,128
 96c:	0a19                	addi	s4,s4,6
 96e:	009c                	addi	a5,sp,64
 970:	0000                	unimp
 972:	9102                	jalr	sp
 974:	0064                	addi	s1,sp,12
	...

Disassembly of section .debug_abbrev:

0000000000000000 <.debug_abbrev>:
   0:	1101                	addi	sp,sp,-32
   2:	1000                	addi	s0,sp,32
   4:	12011117          	auipc	sp,0x12011
   8:	1b0e030f          	.insn	4, 0x1b0e030f
   c:	250e                	fld	fa0,192(sp)
   e:	130e                	slli	t1,t1,0x23
  10:	0005                	c.nop	1
  12:	0000                	unimp
  14:	3401                	addiw	s0,s0,-32 # fffffffffffdffe0 <multiply2+0xffffffff7ffde420>
  16:	0300                	addi	s0,sp,384
  18:	3a0e                	fld	fs4,224(sp)
  1a:	390b3b0b          	.insn	4, 0x390b3b0b
  1e:	0213490b          	.insn	4, 0x0213490b
  22:	0018                	.insn	2, 0x0018
  24:	0200                	addi	s0,sp,256
  26:	0005                	c.nop	1
  28:	0b3a0e03          	lb	t3,179(s4)
  2c:	0b390b3b          	.insn	4, 0x0b390b3b
  30:	1349                	addi	t1,t1,-14 # fffffffffffe0ff2 <multiply2+0xffffffff7ffdf432>
  32:	1802                	slli	a6,a6,0x20
  34:	0000                	unimp
  36:	03003403          	ld	s0,48(zero) # 30 <_prog_start-0x7fffffd0>
  3a:	3a08                	fld	fa0,48(a2)
  3c:	390b3b0b          	.insn	4, 0x390b3b0b
  40:	0213490b          	.insn	4, 0x0213490b
  44:	0018                	.insn	2, 0x0018
  46:	0400                	addi	s0,sp,512
  48:	0024                	addi	s1,sp,8
  4a:	0b3e0b0b          	.insn	4, 0x0b3e0b0b
  4e:	00000e03          	lb	t3,0(zero) # 0 <_prog_start-0x80000000>
  52:	1605                	addi	a2,a2,-31 # fffffffffffdffe1 <multiply2+0xffffffff7ffde421>
  54:	0300                	addi	s0,sp,384
  56:	3a0e                	fld	fs4,224(sp)
  58:	390b3b0b          	.insn	4, 0x390b3b0b
  5c:	0013490b          	.insn	4, 0x0013490b
  60:	0600                	addi	s0,sp,768
  62:	210b000f          	.insn	4, 0x210b000f
  66:	4908                	lw	a0,16(a0)
  68:	07000013          	li	zero,112
  6c:	0026                	c.slli	zero,0x9
  6e:	1349                	addi	t1,t1,-14
  70:	0000                	unimp
  72:	0508                	addi	a0,sp,640
  74:	0300                	addi	s0,sp,384
  76:	3a08                	fld	fa0,48(a2)
  78:	390b3b0b          	.insn	4, 0x390b3b0b
  7c:	0213490b          	.insn	4, 0x0213490b
  80:	0018                	.insn	2, 0x0018
  82:	0900                	addi	s0,sp,144
  84:	002e                	c.slli	zero,0xb
  86:	0e03193f 3b02213a 	.insn	8, 0x3b02213a0e03193f
  8e:	0621390b          	.insn	4, 0x0621390b
  92:	0111                	addi	sp,sp,4 # 12011008 <_prog_start-0x6dfeeff8>
  94:	0712                	slli	a4,a4,0x4
  96:	1840                	addi	s0,sp,52
  98:	197c                	addi	a5,sp,188
  9a:	0000                	unimp
  9c:	010a                	slli	sp,sp,0x2
  9e:	4901                	li	s2,0
  a0:	00130113          	addi	sp,t1,1
  a4:	0b00                	addi	s0,sp,400
  a6:	0021                	c.nop	8
  a8:	1349                	addi	t1,t1,-14
  aa:	00000b2f          	.insn	4, 0x0b2f
  ae:	2e0c                	fld	fa1,24(a2)
  b0:	3f01                	addiw	t5,t5,-32 # 19fe0 <_prog_start-0x7ffe6020>
  b2:	0319                	addi	t1,t1,6
  b4:	3a0e                	fld	fs4,224(sp)
  b6:	390b3b0b          	.insn	4, 0x390b3b0b
  ba:	4919270b          	.insn	4, 0x4919270b
  be:	12011113          	.insn	4, 0x12011113
  c2:	7c184007          	.insn	4, 0x7c184007
  c6:	0119                	addi	sp,sp,6
  c8:	0d000013          	li	zero,208
  cc:	012e                	slli	sp,sp,0xb
  ce:	0e03193f 3b04213a 	.insn	8, 0x3b04213a0e03193f
  d6:	0621390b          	.insn	4, 0x0621390b
  da:	0111                	addi	sp,sp,4
  dc:	0712                	slli	a4,a4,0x4
  de:	1840                	addi	s0,sp,52
  e0:	197c                	addi	a5,sp,188
  e2:	1301                	addi	t1,t1,-32
  e4:	0000                	unimp
  e6:	2e0e                	fld	ft8,192(sp)
  e8:	3f01                	addiw	t5,t5,-32
  ea:	0319                	addi	t1,t1,6
  ec:	3a0e                	fld	fs4,224(sp)
  ee:	0421                	addi	s0,s0,8
  f0:	21390b3b          	.insn	4, 0x21390b3b
  f4:	2706                	fld	fa4,64(sp)
  f6:	1119                	addi	sp,sp,-26
  f8:	1201                	addi	tp,tp,-32 # fffffffffffdffe0 <multiply2+0xffffffff7ffde420>
  fa:	7c184007          	.insn	4, 0x7c184007
  fe:	0119                	addi	sp,sp,6
 100:	0f000013          	li	zero,240
 104:	012e                	slli	sp,sp,0xb
 106:	0e03193f 3b03213a 	.insn	8, 0x3b03213a0e03193f
 10e:	0621390b          	.insn	4, 0x0621390b
 112:	01111927          	.insn	4, 0x01111927
 116:	0712                	slli	a4,a4,0x4
 118:	1840                	addi	s0,sp,52
 11a:	197a                	slli	s2,s2,0x3e
 11c:	1301                	addi	t1,t1,-32
 11e:	0000                	unimp
 120:	1110                	addi	a2,sp,160
 122:	2501                	sext.w	a0,a0
 124:	130e                	slli	t1,t1,0x23
 126:	1b1f030b          	.insn	4, 0x1b1f030b
 12a:	111f 1201 1007      	.insn	6, 0x10071201111f
 130:	11000017          	auipc	zero,0x11000
 134:	0024                	addi	s1,sp,8
 136:	0b3e0b0b          	.insn	4, 0x0b3e0b0b
 13a:	00000803          	lb	a6,0(zero) # 0 <_prog_start-0x80000000>
 13e:	3512                	fld	fa0,288(sp)
 140:	4900                	lw	s0,16(a0)
 142:	13000013          	li	zero,304
 146:	012e                	slli	sp,sp,0xb
 148:	0e03193f 0b3b0b3a 	.insn	8, 0x0b3b0b3a0e03193f
 150:	0b39                	addi	s6,s6,14
 152:	193c1927          	.insn	4, 0x193c1927
 156:	1301                	addi	t1,t1,-32
 158:	0000                	unimp
 15a:	0514                	addi	a3,sp,640
 15c:	4900                	lw	s0,16(a0)
 15e:	15000013          	li	zero,336
 162:	0018                	.insn	2, 0x0018
 164:	0000                	unimp
 166:	2e16                	fld	ft8,320(sp)
 168:	0301                	addi	t1,t1,0
 16a:	3a0e                	fld	fs4,224(sp)
 16c:	390b3b0b          	.insn	4, 0x390b3b0b
 170:	1201110b          	.insn	4, 0x1201110b
 174:	7c184007          	.insn	4, 0x7c184007
 178:	0119                	addi	sp,sp,6
 17a:	17000013          	li	zero,368
 17e:	0111010b          	.insn	4, 0x0111010b
 182:	0712                	slli	a4,a4,0x4
 184:	1301                	addi	t1,t1,-32
 186:	0000                	unimp
 188:	0b18                	addi	a4,sp,400
 18a:	1101                	addi	sp,sp,-32
 18c:	1201                	addi	tp,tp,-32 # ffffffffffffffe0 <multiply2+0xffffffff7fffe420>
 18e:	19000007          	.insn	4, 0x19000007
 192:	002e                	c.slli	zero,0xb
 194:	0e03193f 0b3b0b3a 	.insn	8, 0x0b3b0b3a0e03193f
 19c:	0b39                	addi	s6,s6,14
 19e:	1349                	addi	t1,t1,-14
 1a0:	0111                	addi	sp,sp,4
 1a2:	0712                	slli	a4,a4,0x4
 1a4:	1840                	addi	s0,sp,52
 1a6:	197c                	addi	a5,sp,188
 1a8:	0000                	unimp
 1aa:	2e1a                	fld	ft8,384(sp)
 1ac:	0301                	addi	t1,t1,0
 1ae:	3a0e                	fld	fs4,224(sp)
 1b0:	390b3b0b          	.insn	4, 0x390b3b0b
 1b4:	4919270b          	.insn	4, 0x4919270b
 1b8:	12011113          	.insn	4, 0x12011113
 1bc:	7a184007          	.insn	4, 0x7a184007
 1c0:	0119                	addi	sp,sp,6
 1c2:	1b000013          	li	zero,432
 1c6:	012e                	slli	sp,sp,0xb
 1c8:	0b3a0e03          	lb	t3,179(s4)
 1cc:	0b390b3b          	.insn	4, 0x0b390b3b
 1d0:	01111927          	.insn	4, 0x01111927
 1d4:	0712                	slli	a4,a4,0x4
 1d6:	1840                	addi	s0,sp,52
 1d8:	197a                	slli	s2,s2,0x3e
 1da:	0000                	unimp
 1dc:	0100                	addi	s0,sp,128
 1de:	0034                	addi	a3,sp,8
 1e0:	0b3a0803          	lb	a6,179(s4)
 1e4:	0b390b3b          	.insn	4, 0x0b390b3b
 1e8:	1349                	addi	t1,t1,-14
 1ea:	1802                	slli	a6,a6,0x20
 1ec:	0000                	unimp
 1ee:	2402                	fld	fs0,0(sp)
 1f0:	0b00                	addi	s0,sp,400
 1f2:	030b3e0b          	.insn	4, 0x030b3e0b
 1f6:	000e                	c.slli	zero,0x3
 1f8:	0300                	addi	s0,sp,384
 1fa:	0016                	c.slli	zero,0x5
 1fc:	0b3a0e03          	lb	t3,179(s4)
 200:	0b390b3b          	.insn	4, 0x0b390b3b
 204:	1349                	addi	t1,t1,-14
 206:	0000                	unimp
 208:	3404                	fld	fs1,40(s0)
 20a:	0300                	addi	s0,sp,384
 20c:	3a0e                	fld	fs4,224(sp)
 20e:	390b3b0b          	.insn	4, 0x390b3b0b
 212:	0213490b          	.insn	4, 0x0213490b
 216:	0018                	.insn	2, 0x0018
 218:	0500                	addi	s0,sp,640
 21a:	0005                	c.nop	1
 21c:	0b3a0803          	lb	a6,179(s4)
 220:	0b390b3b          	.insn	4, 0x0b390b3b
 224:	1349                	addi	t1,t1,-14
 226:	1802                	slli	a6,a6,0x20
 228:	0000                	unimp
 22a:	0b06                	slli	s6,s6,0x1
 22c:	1101                	addi	sp,sp,-32
 22e:	1201                	addi	tp,tp,-32 # ffffffffffffffe0 <multiply2+0xffffffff7fffe420>
 230:	07000007          	.insn	4, 0x07000007
 234:	210b000f          	.insn	4, 0x210b000f
 238:	4908                	lw	a0,16(a0)
 23a:	08000013          	li	zero,128
 23e:	0026                	c.slli	zero,0x9
 240:	1349                	addi	t1,t1,-14
 242:	0000                	unimp
 244:	2e09                	addiw	t3,t3,2
 246:	3f01                	addiw	t5,t5,-32
 248:	0319                	addi	t1,t1,6
 24a:	3a0e                	fld	fs4,224(sp)
 24c:	0221                	addi	tp,tp,8 # 8 <_prog_start-0x7ffffff8>
 24e:	21390b3b          	.insn	4, 0x21390b3b
 252:	2706                	fld	fa4,64(sp)
 254:	1119                	addi	sp,sp,-26
 256:	1201                	addi	tp,tp,-32 # ffffffffffffffe0 <multiply2+0xffffffff7fffe420>
 258:	7c184007          	.insn	4, 0x7c184007
 25c:	0119                	addi	sp,sp,6
 25e:	0a000013          	li	zero,160
 262:	0111010b          	.insn	4, 0x0111010b
 266:	0712                	slli	a4,a4,0x4
 268:	1301                	addi	t1,t1,-32
 26a:	0000                	unimp
 26c:	2501110b          	.insn	4, 0x2501110b
 270:	130e                	slli	t1,t1,0x23
 272:	1b1f030b          	.insn	4, 0x1b1f030b
 276:	111f 1201 1007      	.insn	6, 0x10071201111f
 27c:	0c000017          	auipc	zero,0xc000
 280:	0b0b000f          	.insn	4, 0x0b0b000f
 284:	00000e03          	lb	t3,0(zero) # 0 <_prog_start-0x80000000>
 288:	240d                	addiw	s0,s0,3
 28a:	0b00                	addi	s0,sp,400
 28c:	030b3e0b          	.insn	4, 0x030b3e0b
 290:	0008                	.insn	2, 0x0008
 292:	0e00                	addi	s0,sp,784
 294:	0035                	c.nop	13
 296:	1349                	addi	t1,t1,-14
 298:	0000                	unimp
 29a:	0000180f          	.insn	4, 0x180f
 29e:	1000                	addi	s0,sp,32
 2a0:	0101                	addi	sp,sp,0
 2a2:	1349                	addi	t1,t1,-14
 2a4:	1301                	addi	t1,t1,-32
 2a6:	0000                	unimp
 2a8:	2111                	addiw	sp,sp,4
 2aa:	4900                	lw	s0,16(a0)
 2ac:	000b2f13          	slti	t5,s6,0
 2b0:	1200                	addi	s0,sp,288
 2b2:	012e                	slli	sp,sp,0xb
 2b4:	0b3a0e03          	lb	t3,179(s4)
 2b8:	0b390b3b          	.insn	4, 0x0b390b3b
 2bc:	01111927          	.insn	4, 0x01111927
 2c0:	0712                	slli	a4,a4,0x4
 2c2:	1840                	addi	s0,sp,52
 2c4:	197c                	addi	a5,sp,188
 2c6:	1301                	addi	t1,t1,-32
 2c8:	0000                	unimp
 2ca:	03012e13          	slti	t3,sp,48
 2ce:	3a0e                	fld	fs4,224(sp)
 2d0:	390b3b0b          	.insn	4, 0x390b3b0b
 2d4:	1119270b          	.insn	4, 0x1119270b
 2d8:	1201                	addi	tp,tp,-32 # ffffffffffffffe0 <multiply2+0xffffffff7fffe420>
 2da:	7a184007          	.insn	4, 0x7a184007
 2de:	0019                	c.nop	6
	...

Disassembly of section .debug_aranges:

0000000000000000 <.debug_aranges>:
   0:	002c                	addi	a1,sp,8
   2:	0000                	unimp
   4:	0002                	c.slli64	zero
   6:	0000                	unimp
   8:	0000                	unimp
   a:	0008                	.insn	2, 0x0008
   c:	0000                	unimp
   e:	0000                	unimp
  10:	0000                	unimp
  12:	8000                	.insn	2, 0x8000
  14:	0000                	unimp
  16:	0000                	unimp
  18:	002c                	addi	a1,sp,8
	...
  2e:	0000                	unimp
  30:	002c                	addi	a1,sp,8
  32:	0000                	unimp
  34:	0002                	c.slli64	zero
  36:	0028                	addi	a0,sp,8
  38:	0000                	unimp
  3a:	0008                	.insn	2, 0x0008
  3c:	0000                	unimp
  3e:	0000                	unimp
  40:	002c                	addi	a1,sp,8
  42:	8000                	.insn	2, 0x8000
  44:	0000                	unimp
  46:	0000                	unimp
  48:	166c                	addi	a1,sp,812
	...
  5e:	0000                	unimp
  60:	002c                	addi	a1,sp,8
  62:	0000                	unimp
  64:	0002                	c.slli64	zero
  66:	065c                	addi	a5,sp,772
  68:	0000                	unimp
  6a:	0008                	.insn	2, 0x0008
  6c:	0000                	unimp
  6e:	0000                	unimp
  70:	1698                	addi	a4,sp,864
  72:	8000                	.insn	2, 0x8000
  74:	0000                	unimp
  76:	0000                	unimp
  78:	03d8                	addi	a4,sp,452
	...

Disassembly of section .debug_str:

0000000000000000 <.debug_str>:
   0:	30747263          	bgeu	s0,t2,304 <_prog_start-0x7ffffcfc>
   4:	532e                	lw	t1,232(sp)
   6:	2f00                	fld	fs0,24(a4)
   8:	6f68                	ld	a0,216(a4)
   a:	656d                	lui	a0,0x1b
   c:	6868742f          	.insn	4, 0x6868742f
  10:	6968632f          	.insn	4, 0x6968632f
  14:	7970                	ld	a2,240(a0)
  16:	7261                	lui	tp,0xffff8
  18:	2f64                	fld	fs1,216(a4)
  1a:	6564                	ld	s1,200(a0)
  1c:	6f6d                	lui	t5,0x1b
  1e:	6972                	ld	s2,280(sp)
  20:	2f766373          	csrrsi	t1,0x2f7,12
  24:	74666f73          	csrrsi	t5,0x746,12
  28:	65726177          	.insn	4, 0x65726177
  2c:	7069432f          	.insn	4, 0x7069432f
  30:	6568                	ld	a0,200(a0)
  32:	0072                	c.slli	zero,0x1c
  34:	20554e47          	fmsub.s	ft8,fa0,ft5,ft4,rmm
  38:	5341                	li	t1,-16
  3a:	3220                	fld	fs0,96(a2)
  3c:	342e                	fld	fs0,232(sp)
  3e:	0032                	c.slli	zero,0xc
  40:	69656c6b          	.insn	4, 0x69656c6b
  44:	5f6e                	lw	t5,248(sp)
  46:	74697277          	.insn	4, 0x74697277
  4a:	5f65                	li	t5,-7
  4c:	6f74                	ld	a3,216(a4)
  4e:	615f 6464 6572      	.insn	6, 0x65726464615f
  54:	63007373          	csrrci	t1,0x630,0
  58:	7069                	c.lui	zero,0xffffa
  5a:	6568                	ld	a0,200(a0)
  5c:	0072                	c.slli	zero,0x1c
  5e:	6574                	ld	a3,200(a0)
  60:	706d                	c.lui	zero,0xffffb
  62:	7300                	ld	s0,32(a4)
  64:	6f68                	ld	a0,216(a4)
  66:	7472                	ld	s0,312(sp)
  68:	6920                	ld	s0,80(a0)
  6a:	746e                	ld	s0,248(sp)
  6c:	7200                	ld	s0,32(a2)
  6e:	6765                	lui	a4,0x19
  70:	725f 6165 3364      	.insn	6, 0x33646165725f
  76:	0032                	c.slli	zero,0xc
  78:	69656c6b          	.insn	4, 0x69656c6b
  7c:	5f6e                	lw	t5,248(sp)
  7e:	6574                	ld	a3,200(a0)
  80:	645f7473          	csrrci	s0,hvip,30
  84:	6365                	lui	t1,0x19
  86:	7972                	ld	s2,312(sp)
  88:	7470                	ld	a2,232(s0)
  8a:	6f69                	lui	t5,0x1a
  8c:	5f6e                	lw	t5,248(sp)
  8e:	6c65                	lui	s8,0x19
  90:	7061                	c.lui	zero,0xffff8
  92:	00646573          	csrrsi	a0,0x6,8
  96:	6972706b          	.insn	4, 0x6972706b
  9a:	746e                	ld	s0,248(sp)
  9c:	0066                	c.slli	zero,0x19
  9e:	6e756f63          	bltu	a0,t2,79c <_prog_start-0x7ffff864>
  a2:	5f74                	lw	a3,124(a4)
  a4:	6c637963          	bgeu	t1,t1,776 <_prog_start-0x7ffff88a>
  a8:	7365                	lui	t1,0xffff9
  aa:	6d00                	ld	s0,24(a0)
  ac:	6961                	lui	s2,0x18
  ae:	006e                	c.slli	zero,0x1b
  b0:	5f5f 6975 746e      	.insn	6, 0x746e69755f5f
  b6:	745f3233          	.insn	4, 0x745f3233
  ba:	7500                	ld	s0,40(a0)
  bc:	7261                	lui	tp,0xffff8
  be:	0074                	addi	a3,sp,12
  c0:	6168                	ld	a0,192(a0)
  c2:	7472                	ld	s0,312(sp)
  c4:	6469                	lui	s0,0x1a
  c6:	6d00                	ld	s0,24(a0)
  c8:	7365                	lui	t1,0xffff9
  ca:	65676173          	csrrsi	sp,hviprio1h,14
  ce:	6200                	ld	s0,0(a2)
  d0:	6f6c                	ld	a1,216(a4)
  d2:	315f6b63          	bltu	t5,s5,3e8 <_prog_start-0x7ffffc18>
  d6:	6200                	ld	s0,0(a2)
  d8:	6f6c                	ld	a1,216(a4)
  da:	325f6b63          	bltu	t5,t0,410 <_prog_start-0x7ffffbf0>
  de:	6400                	ld	s0,8(s0)
  e0:	6365                	lui	t1,0x19
  e2:	7972                	ld	s2,312(sp)
  e4:	7470                	ld	a2,232(s0)
  e6:	6465                	lui	s0,0x19
  e8:	6400                	ld	s0,8(s0)
  ea:	6365                	lui	t1,0x19
  ec:	7069                	c.lui	zero,0xffffa
  ee:	6568                	ld	a0,200(a0)
  f0:	5f72                	lw	t5,60(sp)
  f2:	0031                	c.nop	12
  f4:	6564                	ld	s1,200(a0)
  f6:	68706963          	bltu	zero,t2,788 <_prog_start-0x7ffff878>
  fa:	7265                	lui	tp,0xffff9
  fc:	325f 6b00 656c      	.insn	6, 0x656c6b00325f
 102:	6e69                	lui	t3,0x1a
 104:	745f 7365 5f74      	.insn	6, 0x5f747365745f
 10a:	74666f73          	csrrsi	t5,0x746,12
 10e:	65726177          	.insn	4, 0x65726177
 112:	7200                	ld	s0,32(a2)
 114:	6765                	lui	a4,0x19
 116:	775f 6972 6574      	.insn	6, 0x65746972775f
 11c:	6b003233          	.insn	4, 0x6b003233
 120:	656c                	ld	a1,200(a0)
 122:	6e69                	lui	t3,0x1a
 124:	745f 7365 0074      	.insn	6, 0x00747365745f
 12a:	6f6c                	ld	a1,216(a4)
 12c:	676e                	ld	a4,216(sp)
 12e:	6920                	ld	s0,80(a0)
 130:	746e                	ld	s0,248(sp)
 132:	6500                	ld	s0,8(a0)
 134:	636e                	ld	t1,216(sp)
 136:	7972                	ld	s2,312(sp)
 138:	7470                	ld	a2,232(s0)
 13a:	6f69                	lui	t5,0x1a
 13c:	5f6e                	lw	t5,248(sp)
 13e:	6c637963          	bgeu	t1,t1,810 <_prog_start-0x7ffff7f0>
 142:	7365                	lui	t1,0xffff9
 144:	6100                	ld	s0,0(a0)
 146:	6464                	ld	s1,200(s0)
 148:	0072                	c.slli	zero,0x1c
 14a:	5f5f 6975 746e      	.insn	6, 0x746e69755f5f
 150:	5f38                	lw	a4,120(a4)
 152:	0074                	addi	a3,sp,12
 154:	69656c6b          	.insn	4, 0x69656c6b
 158:	5f6e                	lw	t5,248(sp)
 15a:	6572                	ld	a0,280(sp)
 15c:	6461                	lui	s0,0x18
 15e:	745f 5f6f 6461      	.insn	6, 0x64615f6f745f
 164:	7264                	ld	s1,224(a2)
 166:	7365                	lui	t1,0xffff9
 168:	6e750073          	.insn	4, 0x6e750073
 16c:	6e676973          	csrrsi	s2,0x6e6,14
 170:	6465                	lui	s0,0x19
 172:	6320                	ld	s0,64(a4)
 174:	6168                	ld	a0,192(a0)
 176:	0072                	c.slli	zero,0x1c
 178:	796d                	lui	s2,0xffffb
 17a:	6974                	ld	a3,208(a0)
 17c:	656d                	lui	a0,0x1b
 17e:	5f72                	lw	t5,60(sp)
 180:	61656c63          	bltu	a0,s6,798 <_prog_start-0x7ffff868>
 184:	0072                	c.slli	zero,0x1c
 186:	6c70                	ld	a2,216(s0)
 188:	6961                	lui	s2,0x18
 18a:	006e                	c.slli	zero,0x1b
 18c:	6574                	ld	a3,200(a0)
 18e:	706d                	c.lui	zero,0xffffb
 190:	735f 6174 6574      	.insn	6, 0x65746174735f
 196:	6b00                	ld	s0,16(a4)
 198:	656c                	ld	a1,200(a0)
 19a:	6e69                	lui	t3,0x1a
 19c:	3436                	fld	fs0,360(sp)
 19e:	655f 636e 7972      	.insn	6, 0x7972636e655f
 1a4:	7470                	ld	a2,232(s0)
 1a6:	725f 756f 646e      	.insn	6, 0x646e756f725f
 1ac:	796d0073          	.insn	4, 0x796d0073
 1b0:	6974                	ld	a3,208(a0)
 1b2:	656d                	lui	a0,0x1b
 1b4:	5f72                	lw	t5,60(sp)
 1b6:	6170                	ld	a2,192(a0)
 1b8:	7375                	lui	t1,0xffffd
 1ba:	5f65                	li	t5,-7
 1bc:	6e61                	lui	t3,0x18
 1be:	5f64                	lw	s1,124(a4)
 1c0:	6572                	ld	a0,280(sp)
 1c2:	7574                	ld	a3,232(a0)
 1c4:	6e72                	ld	t3,280(sp)
 1c6:	6d00                	ld	s0,24(a0)
 1c8:	7479                	lui	s0,0xffffe
 1ca:	6d69                	lui	s10,0x1a
 1cc:	7265                	lui	tp,0xffff9
 1ce:	735f 6174 7472      	.insn	6, 0x74726174735f
 1d4:	7300                	ld	s0,32(a4)
 1d6:	6f68                	ld	a0,216(a4)
 1d8:	7472                	ld	s0,312(sp)
 1da:	7520                	ld	s0,104(a0)
 1dc:	736e                	ld	t1,248(sp)
 1de:	6769                	lui	a4,0x1a
 1e0:	656e                	ld	a0,216(sp)
 1e2:	2064                	fld	fs1,192(s0)
 1e4:	6e69                	lui	t3,0x1a
 1e6:	0074                	addi	a3,sp,12
 1e8:	786f6273          	csrrsi	tp,0x786,30
 1ec:	0038                	addi	a4,sp,8
 1ee:	6164                	ld	s1,192(a0)
 1f0:	6174                	ld	a3,192(a0)
 1f2:	6c00                	ld	s0,24(s0)
 1f4:	20676e6f          	jal	t3,763fa <_prog_start-0x7ff89c06>
 1f8:	6e75                	lui	t3,0x1d
 1fa:	6e676973          	csrrsi	s2,0x6e6,14
 1fe:	6465                	lui	s0,0x19
 200:	6920                	ld	s0,80(a0)
 202:	746e                	ld	s0,248(sp)
 204:	5f00                	lw	s0,56(a4)
 206:	755f 6e69 7074      	.insn	6, 0x70746e69755f
 20c:	7274                	ld	a3,224(a2)
 20e:	745f 6400 6365      	.insn	6, 0x63656400745f
 214:	7972                	ld	s2,312(sp)
 216:	7470                	ld	a2,232(s0)
 218:	6f69                	lui	t5,0x1a
 21a:	5f6e                	lw	t5,248(sp)
 21c:	6c637963          	bgeu	t1,t1,8ee <_prog_start-0x7ffff712>
 220:	7365                	lui	t1,0xffff9
 222:	6b00                	ld	s0,16(a4)
 224:	656c                	ld	a1,200(a0)
 226:	6e69                	lui	t3,0x1a
 228:	3436                	fld	fs0,360(sp)
 22a:	645f 6365 7972      	.insn	6, 0x79726365645f
 230:	7470                	ld	a2,232(s0)
 232:	725f 756f 646e      	.insn	6, 0x646e756f725f
 238:	6f720073          	.insn	4, 0x6f720073
 23c:	6e75                	lui	t3,0x1d
 23e:	5f64                	lw	s1,124(a4)
 240:	0079656b          	.insn	4, 0x0079656b
 244:	6564                	ld	s1,200(a0)
 246:	68706963          	bltu	zero,t2,8d8 <_prog_start-0x7ffff728>
 24a:	7265                	lui	tp,0xffff9
 24c:	745f 7865 0074      	.insn	6, 0x00747865745f
 252:	756d                	lui	a0,0xffffb
 254:	746c                	ld	a1,232(s0)
 256:	7069                	c.lui	zero,0xffffa
 258:	796c                	ld	a1,240(a0)
 25a:	0032                	c.slli	zero,0xc
 25c:	796d                	lui	s2,0xffffb
 25e:	6974                	ld	a3,208(a0)
 260:	656d                	lui	a0,0x1b
 262:	5f72                	lw	t5,60(sp)
 264:	74666f73          	csrrsi	t5,0x746,12
 268:	725f 7365 7465      	.insn	6, 0x74657365725f
 26e:	6b00                	ld	s0,16(a4)
 270:	656c                	ld	a1,200(a0)
 272:	6e69                	lui	t3,0x1a
 274:	745f 7365 5f74      	.insn	6, 0x5f747365745f
 27a:	6e65                	lui	t3,0x19
 27c:	70797263          	bgeu	s2,t2,980 <_prog_start-0x7ffff680>
 280:	6974                	ld	a3,208(a0)
 282:	655f6e6f          	jal	t3,f70d6 <_prog_start-0x7ff08f2a>
 286:	616c                	ld	a1,192(a0)
 288:	7370                	ld	a2,224(a4)
 28a:	6465                	lui	s0,0x19
 28c:	4700                	lw	s0,8(a4)
 28e:	554e                	lw	a0,240(sp)
 290:	4320                	lw	s0,64(a4)
 292:	3131                	addiw	sp,sp,-20
 294:	3120                	fld	fs0,96(a0)
 296:	2e322e33          	.insn	4, 0x2e322e33
 29a:	2030                	fld	fa2,64(s0)
 29c:	6d2d                	lui	s10,0xb
 29e:	646f6d63          	bltu	t5,t1,8f8 <_prog_start-0x7ffff708>
 2a2:	6c65                	lui	s8,0x19
 2a4:	6d3d                	lui	s10,0xf
 2a6:	6465                	lui	s0,0x19
 2a8:	6e61                	lui	t3,0x18
 2aa:	2079                	.insn	2, 0x2079
 2ac:	6d2d                	lui	s10,0xb
 2ae:	6261                	lui	tp,0x18
 2b0:	3d69                	addiw	s10,s10,-6 # affa <_prog_start-0x7fff5006>
 2b2:	706c                	ld	a1,224(s0)
 2b4:	3436                	fld	fs0,360(sp)
 2b6:	2064                	fld	fs1,192(s0)
 2b8:	6d2d                	lui	s10,0xb
 2ba:	7574                	ld	a3,232(a0)
 2bc:	656e                	ld	a0,216(sp)
 2be:	723d                	lui	tp,0xfffef
 2c0:	656b636f          	jal	t1,b6916 <_prog_start-0x7ff496ea>
 2c4:	2074                	fld	fa3,192(s0)
 2c6:	6d2d                	lui	s10,0xb
 2c8:	7369                	lui	t1,0xffffa
 2ca:	2d61                	addiw	s10,s10,24 # b018 <_prog_start-0x7fff4fe8>
 2cc:	63657073          	csrci	0x636,10
 2d0:	323d                	addiw	tp,tp,-17 # fffffffffffeefef <multiply2+0xffffffff7ffed42f>
 2d2:	3130                	fld	fa2,96(a0)
 2d4:	3139                	addiw	sp,sp,-18
 2d6:	3132                	fld	ft2,296(sp)
 2d8:	6d2d2033          	.insn	4, 0x6d2d2033
 2dc:	7261                	lui	tp,0xffff8
 2de:	723d6863          	bltu	s10,gp,a0e <_prog_start-0x7ffff5f2>
 2e2:	3676                	fld	fa2,376(sp)
 2e4:	6934                	ld	a3,80(a0)
 2e6:	616d                	addi	sp,sp,240
 2e8:	6466                	ld	s0,88(sp)
 2ea:	697a5f63          	bge	s4,s7,988 <_prog_start-0x7ffff678>
 2ee:	5f727363          	bgeu	tp,s7,8d4 <_prog_start-0x7ffff72c>
 2f2:	697a                	ld	s2,408(sp)
 2f4:	6566                	ld	a0,88(sp)
 2f6:	636e                	ld	t1,216(sp)
 2f8:	6965                	lui	s2,0x19
 2fa:	2d20                	fld	fs0,88(a0)
 2fc:	4f2d2067          	.insn	4, 0x4f2d2067
 300:	2030                	fld	fa2,64(s0)
 302:	732d                	lui	t1,0xfffeb
 304:	6474                	ld	a3,200(s0)
 306:	673d                	lui	a4,0xf
 308:	756e                	ld	a0,248(sp)
 30a:	3131                	addiw	sp,sp,-20
 30c:	2d20                	fld	fs0,88(a0)
 30e:	6e66                	ld	t3,88(sp)
 310:	6f632d6f          	jal	s10,32a06 <_prog_start-0x7ffcd5fa>
 314:	6d6d                	lui	s10,0x1b
 316:	69006e6f          	jal	t3,69a6 <_prog_start-0x7fff965a>
 31a:	68635f73          	csrrwi	t5,0x686,6
 31e:	7261                	lui	tp,0xffff8
 320:	5f00                	lw	s0,56(a4)
 322:	625f 6975 746c      	.insn	6, 0x746c6975625f
 328:	6e69                	lui	t3,0x1a
 32a:	765f 5f61 696c      	.insn	6, 0x696c5f61765f
 330:	5f007473          	csrrci	s0,0x5f0,0
 334:	695f 746e 3233      	.insn	6, 0x3233746e695f
 33a:	745f 6900 5f73      	.insn	6, 0x5f736900745f
 340:	6f6c                	ld	a1,216(a4)
 342:	676e                	ld	a4,216(sp)
 344:	5f00                	lw	s0,56(a4)
 346:	675f 756e 5f63      	.insn	6, 0x5f63756e675f
 34c:	6176                	ld	sp,344(sp)
 34e:	6c5f 7369 0074      	.insn	6, 0x007473696c5f
 354:	7369                	lui	t1,0xffffa
 356:	665f 726f 616d      	.insn	6, 0x616d726f665f
 35c:	0074                	addi	a3,sp,12
 35e:	7562                	ld	a0,56(sp)
 360:	6666                	ld	a2,88(sp)
 362:	7265                	lui	tp,0xffff9
 364:	5f00                	lw	s0,56(a4)
 366:	7475706b          	.insn	4, 0x7475706b
 36a:	706b0073          	.insn	4, 0x706b0073
 36e:	7475                	lui	s0,0xffffd
 370:	425f0063          	beq	t5,t0,790 <_prog_start-0x7ffff870>
 374:	006c6f6f          	jal	t5,c637a <_prog_start-0x7ff39c86>

Disassembly of section .debug_frame:

0000000000000000 <.debug_frame>:
   0:	000c                	.insn	2, 0x000c
   2:	0000                	unimp
   4:	ffff                	.insn	2, 0xffff
   6:	ffff                	.insn	2, 0xffff
   8:	7c010003          	lb	zero,1984(sp)
   c:	0d01                	addi	s10,s10,0 # 1b000 <_prog_start-0x7ffe5000>
   e:	0002                	c.slli64	zero
  10:	002c                	addi	a1,sp,8
  12:	0000                	unimp
  14:	0000                	unimp
  16:	0000                	unimp
  18:	002c                	addi	a1,sp,8
  1a:	8000                	.insn	2, 0x8000
  1c:	0000                	unimp
  1e:	0000                	unimp
  20:	002a                	c.slli	zero,0xa
  22:	0000                	unimp
  24:	0000                	unimp
  26:	0000                	unimp
  28:	0e42                	slli	t3,t3,0x10
  2a:	4230                	lw	a2,64(a2)
  2c:	0288                	addi	a0,sp,320
  2e:	0c42                	slli	s8,s8,0x10
  30:	0008                	.insn	2, 0x0008
  32:	c860                	sw	s0,84(s0)
  34:	020c                	addi	a1,sp,256
  36:	4230                	lw	a2,64(a2)
  38:	000e                	c.slli	zero,0x3
  3a:	0000                	unimp
  3c:	0000                	unimp
  3e:	0000                	unimp
  40:	002c                	addi	a1,sp,8
  42:	0000                	unimp
  44:	0000                	unimp
  46:	0000                	unimp
  48:	0056                	c.slli	zero,0x15
  4a:	8000                	.insn	2, 0x8000
  4c:	0000                	unimp
  4e:	0000                	unimp
  50:	0022                	c.slli	zero,0x8
  52:	0000                	unimp
  54:	0000                	unimp
  56:	0000                	unimp
  58:	0e42                	slli	t3,t3,0x10
  5a:	4230                	lw	a2,64(a2)
  5c:	0288                	addi	a0,sp,320
  5e:	0c42                	slli	s8,s8,0x10
  60:	0008                	.insn	2, 0x0008
  62:	c858                	sw	a4,20(s0)
  64:	020c                	addi	a1,sp,256
  66:	4230                	lw	a2,64(a2)
  68:	000e                	c.slli	zero,0x3
  6a:	0000                	unimp
  6c:	0000                	unimp
  6e:	0000                	unimp
  70:	002c                	addi	a1,sp,8
  72:	0000                	unimp
  74:	0000                	unimp
  76:	0000                	unimp
  78:	0078                	addi	a4,sp,12
  7a:	8000                	.insn	2, 0x8000
  7c:	0000                	unimp
  7e:	0000                	unimp
  80:	0022                	c.slli	zero,0x8
  82:	0000                	unimp
  84:	0000                	unimp
  86:	0000                	unimp
  88:	0e42                	slli	t3,t3,0x10
  8a:	4410                	lw	a2,8(s0)
  8c:	0281                	addi	t0,t0,0 # 691000 <_prog_start-0x7f96f000>
  8e:	0488                	addi	a0,sp,576
  90:	0c42                	slli	s8,s8,0x10
  92:	0008                	.insn	2, 0x0008
  94:	c154                	sw	a3,4(a0)
  96:	c842                	sw	a6,16(sp)
  98:	020c                	addi	a1,sp,256
  9a:	4210                	lw	a2,0(a2)
  9c:	000e                	c.slli	zero,0x3
  9e:	0000                	unimp
  a0:	002c                	addi	a1,sp,8
  a2:	0000                	unimp
  a4:	0000                	unimp
  a6:	0000                	unimp
  a8:	009a                	slli	ra,ra,0x6
  aa:	8000                	.insn	2, 0x8000
  ac:	0000                	unimp
  ae:	0000                	unimp
  b0:	0022                	c.slli	zero,0x8
  b2:	0000                	unimp
  b4:	0000                	unimp
  b6:	0000                	unimp
  b8:	0e42                	slli	t3,t3,0x10
  ba:	4410                	lw	a2,8(s0)
  bc:	0281                	addi	t0,t0,0
  be:	0488                	addi	a0,sp,576
  c0:	0c42                	slli	s8,s8,0x10
  c2:	0008                	.insn	2, 0x0008
  c4:	c154                	sw	a3,4(a0)
  c6:	c842                	sw	a6,16(sp)
  c8:	020c                	addi	a1,sp,256
  ca:	4210                	lw	a2,0(a2)
  cc:	000e                	c.slli	zero,0x3
  ce:	0000                	unimp
  d0:	002c                	addi	a1,sp,8
  d2:	0000                	unimp
  d4:	0000                	unimp
  d6:	0000                	unimp
  d8:	00bc                	addi	a5,sp,72
  da:	8000                	.insn	2, 0x8000
  dc:	0000                	unimp
  de:	0000                	unimp
  e0:	0022                	c.slli	zero,0x8
  e2:	0000                	unimp
  e4:	0000                	unimp
  e6:	0000                	unimp
  e8:	0e42                	slli	t3,t3,0x10
  ea:	4410                	lw	a2,8(s0)
  ec:	0281                	addi	t0,t0,0
  ee:	0488                	addi	a0,sp,576
  f0:	0c42                	slli	s8,s8,0x10
  f2:	0008                	.insn	2, 0x0008
  f4:	c154                	sw	a3,4(a0)
  f6:	c842                	sw	a6,16(sp)
  f8:	020c                	addi	a1,sp,256
  fa:	4210                	lw	a2,0(a2)
  fc:	000e                	c.slli	zero,0x3
  fe:	0000                	unimp
 100:	002c                	addi	a1,sp,8
 102:	0000                	unimp
 104:	0000                	unimp
 106:	0000                	unimp
 108:	00de                	slli	ra,ra,0x17
 10a:	8000                	.insn	2, 0x8000
 10c:	0000                	unimp
 10e:	0000                	unimp
 110:	0030                	addi	a2,sp,8
 112:	0000                	unimp
 114:	0000                	unimp
 116:	0000                	unimp
 118:	0e42                	slli	t3,t3,0x10
 11a:	4410                	lw	a2,8(s0)
 11c:	0281                	addi	t0,t0,0
 11e:	0488                	addi	a0,sp,576
 120:	0c42                	slli	s8,s8,0x10
 122:	0008                	.insn	2, 0x0008
 124:	c162                	sw	s8,128(sp)
 126:	c842                	sw	a6,16(sp)
 128:	020c                	addi	a1,sp,256
 12a:	4210                	lw	a2,0(a2)
 12c:	000e                	c.slli	zero,0x3
 12e:	0000                	unimp
 130:	002c                	addi	a1,sp,8
 132:	0000                	unimp
 134:	0000                	unimp
 136:	0000                	unimp
 138:	010e                	slli	sp,sp,0x3
 13a:	8000                	.insn	2, 0x8000
 13c:	0000                	unimp
 13e:	0000                	unimp
 140:	0684                	addi	s1,sp,832
 142:	0000                	unimp
 144:	0000                	unimp
 146:	0000                	unimp
 148:	0e42                	slli	t3,t3,0x10
 14a:	4250                	lw	a2,4(a2)
 14c:	0288                	addi	a0,sp,320
 14e:	0c42                	slli	s8,s8,0x10
 150:	0008                	.insn	2, 0x0008
 152:	c8067a03          	.insn	4, 0xc8067a03
 156:	020c                	addi	a1,sp,256
 158:	4250                	lw	a2,4(a2)
 15a:	000e                	c.slli	zero,0x3
 15c:	0000                	unimp
 15e:	0000                	unimp
 160:	002c                	addi	a1,sp,8
 162:	0000                	unimp
 164:	0000                	unimp
 166:	0000                	unimp
 168:	0792                	slli	a5,a5,0x4
 16a:	8000                	.insn	2, 0x8000
 16c:	0000                	unimp
 16e:	0000                	unimp
 170:	08da                	slli	a7,a7,0x16
 172:	0000                	unimp
 174:	0000                	unimp
 176:	0000                	unimp
 178:	0e42                	slli	t3,t3,0x10
 17a:	4250                	lw	a2,4(a2)
 17c:	0288                	addi	a0,sp,320
 17e:	0c42                	slli	s8,s8,0x10
 180:	0008                	.insn	2, 0x0008
 182:	c808d003          	lhu	zero,-896(a7) # 3c80 <_prog_start-0x7fffc380>
 186:	020c                	addi	a1,sp,256
 188:	4250                	lw	a2,4(a2)
 18a:	000e                	c.slli	zero,0x3
 18c:	0000                	unimp
 18e:	0000                	unimp
 190:	002c                	addi	a1,sp,8
 192:	0000                	unimp
 194:	0000                	unimp
 196:	0000                	unimp
 198:	106c                	addi	a1,sp,44
 19a:	8000                	.insn	2, 0x8000
 19c:	0000                	unimp
 19e:	0000                	unimp
 1a0:	0052                	c.slli	zero,0x14
 1a2:	0000                	unimp
 1a4:	0000                	unimp
 1a6:	0000                	unimp
 1a8:	0e42                	slli	t3,t3,0x10
 1aa:	4420                	lw	s0,72(s0)
 1ac:	0281                	addi	t0,t0,0
 1ae:	0488                	addi	a0,sp,576
 1b0:	0c42                	slli	s8,s8,0x10
 1b2:	0008                	.insn	2, 0x0008
 1b4:	4402                	lw	s0,0(sp)
 1b6:	42c1                	li	t0,16
 1b8:	0cc8                	addi	a0,sp,596
 1ba:	2002                	fld	ft0,0(sp)
 1bc:	0e42                	slli	t3,t3,0x10
 1be:	0000                	unimp
 1c0:	002c                	addi	a1,sp,8
 1c2:	0000                	unimp
 1c4:	0000                	unimp
 1c6:	0000                	unimp
 1c8:	10be                	slli	ra,ra,0x2f
 1ca:	8000                	.insn	2, 0x8000
 1cc:	0000                	unimp
 1ce:	0000                	unimp
 1d0:	0058                	addi	a4,sp,4
 1d2:	0000                	unimp
 1d4:	0000                	unimp
 1d6:	0000                	unimp
 1d8:	0e42                	slli	t3,t3,0x10
 1da:	4430                	lw	a2,72(s0)
 1dc:	0281                	addi	t0,t0,0
 1de:	0488                	addi	a0,sp,576
 1e0:	0c42                	slli	s8,s8,0x10
 1e2:	0008                	.insn	2, 0x0008
 1e4:	4a02                	lw	s4,0(sp)
 1e6:	42c1                	li	t0,16
 1e8:	0cc8                	addi	a0,sp,596
 1ea:	3002                	fld	ft0,32(sp)
 1ec:	0e42                	slli	t3,t3,0x10
 1ee:	0000                	unimp
 1f0:	002c                	addi	a1,sp,8
 1f2:	0000                	unimp
 1f4:	0000                	unimp
 1f6:	0000                	unimp
 1f8:	1116                	slli	sp,sp,0x25
 1fa:	8000                	.insn	2, 0x8000
 1fc:	0000                	unimp
 1fe:	0000                	unimp
 200:	0186                	slli	gp,gp,0x1
 202:	0000                	unimp
 204:	0000                	unimp
 206:	0000                	unimp
 208:	0e42                	slli	t3,t3,0x10
 20a:	4420                	lw	s0,72(s0)
 20c:	0281                	addi	t0,t0,0
 20e:	0488                	addi	a0,sp,576
 210:	0c42                	slli	s8,s8,0x10
 212:	0008                	.insn	2, 0x0008
 214:	c1017803          	.insn	4, 0xc1017803
 218:	c842                	sw	a6,16(sp)
 21a:	020c                	addi	a1,sp,256
 21c:	4220                	lw	s0,64(a2)
 21e:	000e                	c.slli	zero,0x3
 220:	002c                	addi	a1,sp,8
 222:	0000                	unimp
 224:	0000                	unimp
 226:	0000                	unimp
 228:	129c                	addi	a5,sp,352
 22a:	8000                	.insn	2, 0x8000
 22c:	0000                	unimp
 22e:	0000                	unimp
 230:	00ea                	slli	ra,ra,0x1a
 232:	0000                	unimp
 234:	0000                	unimp
 236:	0000                	unimp
 238:	0e42                	slli	t3,t3,0x10
 23a:	4420                	lw	s0,72(s0)
 23c:	0281                	addi	t0,t0,0
 23e:	0488                	addi	a0,sp,576
 240:	0c42                	slli	s8,s8,0x10
 242:	0008                	.insn	2, 0x0008
 244:	c100dc03          	lhu	s8,-1008(ra)
 248:	c842                	sw	a6,16(sp)
 24a:	020c                	addi	a1,sp,256
 24c:	4220                	lw	s0,64(a2)
 24e:	000e                	c.slli	zero,0x3
 250:	002c                	addi	a1,sp,8
 252:	0000                	unimp
 254:	0000                	unimp
 256:	0000                	unimp
 258:	1386                	slli	t2,t2,0x21
 25a:	8000                	.insn	2, 0x8000
 25c:	0000                	unimp
 25e:	0000                	unimp
 260:	011a                	slli	sp,sp,0x6
 262:	0000                	unimp
 264:	0000                	unimp
 266:	0000                	unimp
 268:	0e42                	slli	t3,t3,0x10
 26a:	4430                	lw	a2,72(s0)
 26c:	0281                	addi	t0,t0,0
 26e:	0488                	addi	a0,sp,576
 270:	0c42                	slli	s8,s8,0x10
 272:	0008                	.insn	2, 0x0008
 274:	c1010c03          	lb	s8,-1008(sp)
 278:	c842                	sw	a6,16(sp)
 27a:	020c                	addi	a1,sp,256
 27c:	4230                	lw	a2,64(a2)
 27e:	000e                	c.slli	zero,0x3
 280:	002c                	addi	a1,sp,8
 282:	0000                	unimp
 284:	0000                	unimp
 286:	0000                	unimp
 288:	14a0                	addi	s0,sp,616
 28a:	8000                	.insn	2, 0x8000
 28c:	0000                	unimp
 28e:	0000                	unimp
 290:	01c6                	slli	gp,gp,0x11
 292:	0000                	unimp
 294:	0000                	unimp
 296:	0000                	unimp
 298:	0e42                	slli	t3,t3,0x10
 29a:	4450                	lw	a2,12(s0)
 29c:	0281                	addi	t0,t0,0
 29e:	0488                	addi	a0,sp,576
 2a0:	0c42                	slli	s8,s8,0x10
 2a2:	0008                	.insn	2, 0x0008
 2a4:	c101b803          	ld	a6,-1008(gp)
 2a8:	c842                	sw	a6,16(sp)
 2aa:	020c                	addi	a1,sp,256
 2ac:	4250                	lw	a2,4(a2)
 2ae:	000e                	c.slli	zero,0x3
 2b0:	002c                	addi	a1,sp,8
 2b2:	0000                	unimp
 2b4:	0000                	unimp
 2b6:	0000                	unimp
 2b8:	1666                	slli	a2,a2,0x39
 2ba:	8000                	.insn	2, 0x8000
 2bc:	0000                	unimp
 2be:	0000                	unimp
 2c0:	0032                	c.slli	zero,0xc
 2c2:	0000                	unimp
 2c4:	0000                	unimp
 2c6:	0000                	unimp
 2c8:	0e42                	slli	t3,t3,0x10
 2ca:	4420                	lw	s0,72(s0)
 2cc:	0281                	addi	t0,t0,0
 2ce:	0488                	addi	a0,sp,576
 2d0:	0c42                	slli	s8,s8,0x10
 2d2:	0008                	.insn	2, 0x0008
 2d4:	c164                	sw	s1,68(a0)
 2d6:	c842                	sw	a6,16(sp)
 2d8:	020c                	addi	a1,sp,256
 2da:	4220                	lw	s0,64(a2)
 2dc:	000e                	c.slli	zero,0x3
 2de:	0000                	unimp
 2e0:	000c                	.insn	2, 0x000c
 2e2:	0000                	unimp
 2e4:	ffff                	.insn	2, 0xffff
 2e6:	ffff                	.insn	2, 0xffff
 2e8:	7c010003          	lb	zero,1984(sp)
 2ec:	0d01                	addi	s10,s10,0
 2ee:	0002                	c.slli64	zero
 2f0:	002c                	addi	a1,sp,8
 2f2:	0000                	unimp
 2f4:	02e0                	addi	s0,sp,332
 2f6:	0000                	unimp
 2f8:	1698                	addi	a4,sp,864
 2fa:	8000                	.insn	2, 0x8000
 2fc:	0000                	unimp
 2fe:	0000                	unimp
 300:	003e                	c.slli	zero,0xf
 302:	0000                	unimp
 304:	0000                	unimp
 306:	0000                	unimp
 308:	0e42                	slli	t3,t3,0x10
 30a:	4230                	lw	a2,64(a2)
 30c:	0288                	addi	a0,sp,320
 30e:	0c42                	slli	s8,s8,0x10
 310:	0008                	.insn	2, 0x0008
 312:	c874                	sw	a3,84(s0)
 314:	020c                	addi	a1,sp,256
 316:	4230                	lw	a2,64(a2)
 318:	000e                	c.slli	zero,0x3
 31a:	0000                	unimp
 31c:	0000                	unimp
 31e:	0000                	unimp
 320:	002c                	addi	a1,sp,8
 322:	0000                	unimp
 324:	02e0                	addi	s0,sp,332
 326:	0000                	unimp
 328:	16d6                	slli	a3,a3,0x35
 32a:	8000                	.insn	2, 0x8000
 32c:	0000                	unimp
 32e:	0000                	unimp
 330:	0044                	addi	s1,sp,4
 332:	0000                	unimp
 334:	0000                	unimp
 336:	0000                	unimp
 338:	0e42                	slli	t3,t3,0x10
 33a:	4430                	lw	a2,72(s0)
 33c:	0281                	addi	t0,t0,0
 33e:	0488                	addi	a0,sp,576
 340:	0c42                	slli	s8,s8,0x10
 342:	0008                	.insn	2, 0x0008
 344:	c176                	sw	t4,128(sp)
 346:	c842                	sw	a6,16(sp)
 348:	020c                	addi	a1,sp,256
 34a:	4230                	lw	a2,64(a2)
 34c:	000e                	c.slli	zero,0x3
 34e:	0000                	unimp
 350:	002c                	addi	a1,sp,8
 352:	0000                	unimp
 354:	02e0                	addi	s0,sp,332
 356:	0000                	unimp
 358:	171a                	slli	a4,a4,0x26
 35a:	8000                	.insn	2, 0x8000
 35c:	0000                	unimp
 35e:	0000                	unimp
 360:	002a                	c.slli	zero,0xa
 362:	0000                	unimp
 364:	0000                	unimp
 366:	0000                	unimp
 368:	0e42                	slli	t3,t3,0x10
 36a:	4420                	lw	s0,72(s0)
 36c:	0281                	addi	t0,t0,0
 36e:	0488                	addi	a0,sp,576
 370:	0c42                	slli	s8,s8,0x10
 372:	0008                	.insn	2, 0x0008
 374:	c15c                	sw	a5,4(a0)
 376:	c842                	sw	a6,16(sp)
 378:	020c                	addi	a1,sp,256
 37a:	4220                	lw	s0,64(a2)
 37c:	000e                	c.slli	zero,0x3
 37e:	0000                	unimp
 380:	0034                	addi	a3,sp,8
 382:	0000                	unimp
 384:	02e0                	addi	s0,sp,332
 386:	0000                	unimp
 388:	1744                	addi	s1,sp,932
 38a:	8000                	.insn	2, 0x8000
 38c:	0000                	unimp
 38e:	0000                	unimp
 390:	032c                	addi	a1,sp,392
 392:	0000                	unimp
 394:	0000                	unimp
 396:	0000                	unimp
 398:	0e42                	slli	t3,t3,0x10
 39a:	01d0                	addi	a2,sp,196
 39c:	8144                	.insn	2, 0x8144
 39e:	8812                	mv	a6,tp
 3a0:	4214                	lw	a3,0(a2)
 3a2:	080c                	addi	a1,sp,16
 3a4:	0340                	addi	s0,sp,388
 3a6:	031e                	slli	t1,t1,0x7
 3a8:	42c1                	li	t0,16
 3aa:	0cc8                	addi	a0,sp,596
 3ac:	d002                	sw	zero,32(sp)
 3ae:	4201                	li	tp,0
 3b0:	000e                	c.slli	zero,0x3
 3b2:	0000                	unimp
 3b4:	0000                	unimp
	...
