
/home/thh/chipyard/demoriscv/software/Cipher/build/cipher.elf:     file format elf64-littleriscv


Disassembly of section .text:

0000000080000000 <_start>:
    .global _start
    .type _start, @function
_start:
    .cfi_startproc

    li x1, 0
    80000000:	4081                	li	ra,0
    li x2, 0
    80000002:	4101                	li	sp,0
    li x3, 0
    80000004:	4181                	li	gp,0
    li x4, 0
    80000006:	4201                	li	tp,0
    li x5, 0
    80000008:	4281                	li	t0,0
    li x6, 0
    8000000a:	4301                	li	t1,0
    li x7, 0
    8000000c:	4381                	li	t2,0
    li x8, 0
    8000000e:	4401                	li	s0,0
    li x9, 0
    80000010:	4481                	li	s1,0
    li x10, 0
    80000012:	4501                	li	a0,0
    li x11, 0
    80000014:	4581                	li	a1,0
    li x12, 0
    80000016:	4601                	li	a2,0
    li x13, 0
    80000018:	4681                	li	a3,0
    li x14, 0
    8000001a:	4701                	li	a4,0
    li x15, 0
    8000001c:	4781                	li	a5,0
    li x16, 0
    8000001e:	4801                	li	a6,0
    li x17, 0
    80000020:	4881                	li	a7,0
    li x18, 0
    80000022:	4901                	li	s2,0
    li x19, 0
    80000024:	4981                	li	s3,0
    li x20, 0
    80000026:	4a01                	li	s4,0
    li x21, 0
    80000028:	4a81                	li	s5,0
    li x22, 0
    8000002a:	4b01                	li	s6,0
    li x23, 0
    8000002c:	4b81                	li	s7,0
    li x24, 0
    8000002e:	4c01                	li	s8,0
    li x25, 0
    80000030:	4c81                	li	s9,0
    li x26, 0
    80000032:	4d01                	li	s10,0
    li x27, 0
    80000034:	4d81                	li	s11,0
    li x28, 0
    80000036:	4e01                	li	t3,0
    li x29, 0
    80000038:	4e81                	li	t4,0
    li x30, 0
    8000003a:	4f01                	li	t5,0
    li x31, 0
    8000003c:	4f81                	li	t6,0

    li t0, (MSTATUS_FS | MSTATUS_XS | MSTATUS_VS)
    8000003e:	0001e2b7          	lui	t0,0x1e
    80000042:	6002829b          	addiw	t0,t0,1536 # 1e600 <__stack_size+0x16600>
    csrs mstatus, t0
    80000046:	3002a073          	csrs	mstatus,t0

#ifdef __riscv_flen
    /* Initialize FPU if present */
    la t0, 1f
    8000004a:	00000297          	auipc	t0,0x0
    8000004e:	09028293          	addi	t0,t0,144 # 800000da <_start+0xda>
    csrw mtvec, t0
    80000052:	30529073          	csrw	mtvec,t0

    fscsr zero
    80000056:	00301073          	fscsr	zero
    fmv.s.x f0,  zero
    8000005a:	f0000053          	fmv.w.x	ft0,zero
    fmv.s.x f1,  zero
    8000005e:	f00000d3          	fmv.w.x	ft1,zero
    fmv.s.x f2,  zero
    80000062:	f0000153          	fmv.w.x	ft2,zero
    fmv.s.x f3,  zero
    80000066:	f00001d3          	fmv.w.x	ft3,zero
    fmv.s.x f4,  zero
    8000006a:	f0000253          	fmv.w.x	ft4,zero
    fmv.s.x f5,  zero
    8000006e:	f00002d3          	fmv.w.x	ft5,zero
    fmv.s.x f6,  zero
    80000072:	f0000353          	fmv.w.x	ft6,zero
    fmv.s.x f7,  zero
    80000076:	f00003d3          	fmv.w.x	ft7,zero
    fmv.s.x f8,  zero
    8000007a:	f0000453          	fmv.w.x	fs0,zero
    fmv.s.x f9,  zero
    8000007e:	f00004d3          	fmv.w.x	fs1,zero
    fmv.s.x f10, zero
    80000082:	f0000553          	fmv.w.x	fa0,zero
    fmv.s.x f11, zero
    80000086:	f00005d3          	fmv.w.x	fa1,zero
    fmv.s.x f12, zero
    8000008a:	f0000653          	fmv.w.x	fa2,zero
    fmv.s.x f13, zero
    8000008e:	f00006d3          	fmv.w.x	fa3,zero
    fmv.s.x f14, zero
    80000092:	f0000753          	fmv.w.x	fa4,zero
    fmv.s.x f15, zero
    80000096:	f00007d3          	fmv.w.x	fa5,zero
    fmv.s.x f16, zero
    8000009a:	f0000853          	fmv.w.x	fa6,zero
    fmv.s.x f17, zero
    8000009e:	f00008d3          	fmv.w.x	fa7,zero
    fmv.s.x f18, zero
    800000a2:	f0000953          	fmv.w.x	fs2,zero
    fmv.s.x f19, zero
    800000a6:	f00009d3          	fmv.w.x	fs3,zero
    fmv.s.x f20, zero
    800000aa:	f0000a53          	fmv.w.x	fs4,zero
    fmv.s.x f21, zero
    800000ae:	f0000ad3          	fmv.w.x	fs5,zero
    fmv.s.x f22, zero
    800000b2:	f0000b53          	fmv.w.x	fs6,zero
    fmv.s.x f23, zero
    800000b6:	f0000bd3          	fmv.w.x	fs7,zero
    fmv.s.x f24, zero
    800000ba:	f0000c53          	fmv.w.x	fs8,zero
    fmv.s.x f25, zero
    800000be:	f0000cd3          	fmv.w.x	fs9,zero
    fmv.s.x f26, zero
    800000c2:	f0000d53          	fmv.w.x	fs10,zero
    fmv.s.x f27, zero
    800000c6:	f0000dd3          	fmv.w.x	fs11,zero
    fmv.s.x f28, zero
    800000ca:	f0000e53          	fmv.w.x	ft8,zero
    fmv.s.x f29, zero
    800000ce:	f0000ed3          	fmv.w.x	ft9,zero
    fmv.s.x f30, zero
    800000d2:	f0000f53          	fmv.w.x	ft10,zero
    fmv.s.x f31, zero
    800000d6:	f0000fd3          	fmv.w.x	ft11,zero

    /* Initialize global pointer; disable relaxation to avoid relaxing
       the address calculation to "addi gp, gp, 0" */
    .option push
    .option norelax
    la gp, __global_pointer$
    800000da:	00003197          	auipc	gp,0x3
    800000de:	25e18193          	addi	gp,gp,606 # 80003338 <__global_pointer$>
    .option pop

    /* Initialize thread pointer */
    csrr s0, mhartid
    800000e2:	f1402473          	csrr	s0,mhartid
    lui t0, %hi(__stack_shift)
    addi t0, t0, %lo(__stack_shift)
    800000e6:	00f00293          	li	t0,15
    la tp, __stack_start
    800000ea:	00023217          	auipc	tp,0x23
    800000ee:	f1620213          	addi	tp,tp,-234 # 80023000 <__heap_end>
    sll t0, s0, t0
    800000f2:	005412b3          	sll	t0,s0,t0
    add tp, tp, t0
    800000f6:	9216                	add	tp,tp,t0

    /* Initialize stack pointer */
    lui t0, %hi(__stack_size)
    800000f8:	62a1                	lui	t0,0x8
    addi t0, t0, %lo(__stack_size)
    800000fa:	00028293          	mv	t0,t0
    add sp, tp, t0
    800000fe:	00520133          	add	sp,tp,t0

    /* Initialize trap vector */
    la t0, trap_entry
    80000102:	00000297          	auipc	t0,0x0
    80000106:	04628293          	addi	t0,t0,70 # 80000148 <trap_entry>
    csrw mtvec, t0
    8000010a:	30529073          	csrw	mtvec,t0

    /* Initialize TLS */
    call __init_tls
    8000010e:	5b8010ef          	jal	800016c6 <__init_tls>

    /* Skip global initialization if not the designated boot hart */
    la t0, __boot_hart
    80000112:	00000293          	li	t0,0
    bne s0, t0, _start_secondary
    80000116:	00540463          	beq	s0,t0,8000011e <_start+0x11e>
    8000011a:	0fe0006f          	j	80000218 <_start_secondary>

    /* Zero BSS segment */
    la t0, __bss_start
    8000011e:	83018293          	addi	t0,gp,-2000 # 80002b68 <htif_lock>
    la t1, __bss_end
    80000122:	b9818313          	addi	t1,gp,-1128 # 80002ed0 <_end>
    bgeu t0, t1, 2f
    80000126:	0062f763          	bgeu	t0,t1,80000134 <_start+0x134>
1:
    SREG zero, (t0)
    8000012a:	0002b023          	sd	zero,0(t0)
    addi t0, t0, REGBYTES
    8000012e:	02a1                	addi	t0,t0,8
    bltu t0, t1, 1b
    80000130:	fe62ede3          	bltu	t0,t1,8000012a <_start+0x12a>
2:

    /* Call global constructors */
    la a0, __libc_fini_array
    80000134:	00002517          	auipc	a0,0x2
    80000138:	b7c50513          	addi	a0,a0,-1156 # 80001cb0 <__libc_fini_array>
    call atexit
    8000013c:	630010ef          	jal	8000176c <atexit>
    call __libc_init_array
    80000140:	313010ef          	jal	80001c52 <__libc_init_array>

    /* Call main function */
    tail _start_main
    80000144:	a845                	j	800001f4 <_start_main>
    80000146:	0001                	nop

0000000080000148 <trap_entry>:
    .cfi_endproc


    .align 2
trap_entry:
    csrw mscratch, sp
    80000148:	34011073          	csrw	mscratch,sp
    addi sp, sp, -(32*REGBYTES)
    8000014c:	7111                	addi	sp,sp,-256

    /* Save trap frame */
    SREG x1, 1*REGBYTES(sp)
    8000014e:	e406                	sd	ra,8(sp)
    csrr x1, mscratch
    80000150:	340020f3          	csrr	ra,mscratch
    SREG x1, 2*REGBYTES(sp)
    80000154:	e806                	sd	ra,16(sp)
    SREG x3, 3*REGBYTES(sp)
    80000156:	ec0e                	sd	gp,24(sp)
    SREG x4, 4*REGBYTES(sp)
    80000158:	f012                	sd	tp,32(sp)
    SREG x5, 5*REGBYTES(sp)
    8000015a:	f416                	sd	t0,40(sp)
    SREG x6, 6*REGBYTES(sp)
    8000015c:	f81a                	sd	t1,48(sp)
    SREG x7, 7*REGBYTES(sp)
    8000015e:	fc1e                	sd	t2,56(sp)
    SREG x8, 8*REGBYTES(sp)
    80000160:	e0a2                	sd	s0,64(sp)
    SREG x9, 9*REGBYTES(sp)
    80000162:	e4a6                	sd	s1,72(sp)
    SREG x10, 10*REGBYTES(sp)
    80000164:	e8aa                	sd	a0,80(sp)
    SREG x11, 11*REGBYTES(sp)
    80000166:	ecae                	sd	a1,88(sp)
    SREG x12, 12*REGBYTES(sp)
    80000168:	f0b2                	sd	a2,96(sp)
    SREG x13, 13*REGBYTES(sp)
    8000016a:	f4b6                	sd	a3,104(sp)
    SREG x14, 14*REGBYTES(sp)
    8000016c:	f8ba                	sd	a4,112(sp)
    SREG x15, 15*REGBYTES(sp)
    8000016e:	fcbe                	sd	a5,120(sp)
    SREG x16, 16*REGBYTES(sp)
    80000170:	e142                	sd	a6,128(sp)
    SREG x17, 17*REGBYTES(sp)
    80000172:	e546                	sd	a7,136(sp)
    SREG x18, 18*REGBYTES(sp)
    80000174:	e94a                	sd	s2,144(sp)
    SREG x19, 19*REGBYTES(sp)
    80000176:	ed4e                	sd	s3,152(sp)
    SREG x20, 20*REGBYTES(sp)
    80000178:	f152                	sd	s4,160(sp)
    SREG x21, 21*REGBYTES(sp)
    8000017a:	f556                	sd	s5,168(sp)
    SREG x22, 22*REGBYTES(sp)
    8000017c:	f95a                	sd	s6,176(sp)
    SREG x23, 23*REGBYTES(sp)
    8000017e:	fd5e                	sd	s7,184(sp)
    SREG x24, 24*REGBYTES(sp)
    80000180:	e1e2                	sd	s8,192(sp)
    SREG x25, 25*REGBYTES(sp)
    80000182:	e5e6                	sd	s9,200(sp)
    SREG x26, 26*REGBYTES(sp)
    80000184:	e9ea                	sd	s10,208(sp)
    SREG x27, 27*REGBYTES(sp)
    80000186:	edee                	sd	s11,216(sp)
    SREG x28, 28*REGBYTES(sp)
    80000188:	f1f2                	sd	t3,224(sp)
    SREG x29, 29*REGBYTES(sp)
    8000018a:	f5f6                	sd	t4,232(sp)
    SREG x30, 30*REGBYTES(sp)
    8000018c:	f9fa                	sd	t5,240(sp)
    SREG x31, 31*REGBYTES(sp)
    8000018e:	fdfe                	sd	t6,248(sp)

    /* Invoke higher-level trap handler */
    csrr a0, mepc
    80000190:	34102573          	csrr	a0,mepc
    csrr a1, mcause
    80000194:	342025f3          	csrr	a1,mcause
    csrr a2, mtval
    80000198:	34302673          	csrr	a2,mtval
    mv a3, sp
    8000019c:	868a                	mv	a3,sp
    call handle_trap
    8000019e:	512010ef          	jal	800016b0 <handle_trap>
    csrw mepc, a0
    800001a2:	34151073          	csrw	mepc,a0

    /* Remain in M-mode after return */
    li t0, MSTATUS_MPP
    800001a6:	000022b7          	lui	t0,0x2
    800001aa:	8002829b          	addiw	t0,t0,-2048 # 1800 <__stack_align+0x17f0>
    csrs mstatus, t0
    800001ae:	3002a073          	csrs	mstatus,t0

    LREG x1, 1*REGBYTES(sp)
    800001b2:	60a2                	ld	ra,8(sp)
    LREG x3, 3*REGBYTES(sp)
    800001b4:	61e2                	ld	gp,24(sp)
    LREG x4, 4*REGBYTES(sp)
    800001b6:	7202                	ld	tp,32(sp)
    LREG x5, 5*REGBYTES(sp)
    800001b8:	72a2                	ld	t0,40(sp)
    LREG x6, 6*REGBYTES(sp)
    800001ba:	7342                	ld	t1,48(sp)
    LREG x7, 7*REGBYTES(sp)
    800001bc:	73e2                	ld	t2,56(sp)
    LREG x8, 8*REGBYTES(sp)
    800001be:	6406                	ld	s0,64(sp)
    LREG x9, 9*REGBYTES(sp)
    800001c0:	64a6                	ld	s1,72(sp)
    LREG x10, 10*REGBYTES(sp)
    800001c2:	6546                	ld	a0,80(sp)
    LREG x11, 11*REGBYTES(sp)
    800001c4:	65e6                	ld	a1,88(sp)
    LREG x12, 12*REGBYTES(sp)
    800001c6:	7606                	ld	a2,96(sp)
    LREG x13, 13*REGBYTES(sp)
    800001c8:	76a6                	ld	a3,104(sp)
    LREG x14, 14*REGBYTES(sp)
    800001ca:	7746                	ld	a4,112(sp)
    LREG x15, 15*REGBYTES(sp)
    800001cc:	77e6                	ld	a5,120(sp)
    LREG x16, 16*REGBYTES(sp)
    800001ce:	680a                	ld	a6,128(sp)
    LREG x17, 17*REGBYTES(sp)
    800001d0:	68aa                	ld	a7,136(sp)
    LREG x18, 18*REGBYTES(sp)
    800001d2:	694a                	ld	s2,144(sp)
    LREG x19, 19*REGBYTES(sp)
    800001d4:	69ea                	ld	s3,152(sp)
    LREG x20, 20*REGBYTES(sp)
    800001d6:	7a0a                	ld	s4,160(sp)
    LREG x21, 21*REGBYTES(sp)
    800001d8:	7aaa                	ld	s5,168(sp)
    LREG x22, 22*REGBYTES(sp)
    800001da:	7b4a                	ld	s6,176(sp)
    LREG x23, 23*REGBYTES(sp)
    800001dc:	7bea                	ld	s7,184(sp)
    LREG x24, 24*REGBYTES(sp)
    800001de:	6c0e                	ld	s8,192(sp)
    LREG x25, 25*REGBYTES(sp)
    800001e0:	6cae                	ld	s9,200(sp)
    LREG x26, 26*REGBYTES(sp)
    800001e2:	6d4e                	ld	s10,208(sp)
    LREG x27, 27*REGBYTES(sp)
    800001e4:	6dee                	ld	s11,216(sp)
    LREG x28, 28*REGBYTES(sp)
    800001e6:	7e0e                	ld	t3,224(sp)
    LREG x29, 29*REGBYTES(sp)
    800001e8:	7eae                	ld	t4,232(sp)
    LREG x30, 30*REGBYTES(sp)
    800001ea:	7f4e                	ld	t5,240(sp)
    LREG x31, 31*REGBYTES(sp)
    800001ec:	7fee                	ld	t6,248(sp)
    /* Restore sp last */
    LREG x2, 2*REGBYTES(sp)
    800001ee:	6142                	ld	sp,16(sp)

    mret
    800001f0:	30200073          	mret

00000000800001f4 <_start_main>:
    .endm

    .global _start_main
    .type _start_main, @function
_start_main:
    BARRIER_PASS __boot_sync
    800001f4:	52fd                	li	t0,-1
    800001f6:	0110000f          	fence	w,w
    800001fa:	8651a423          	sw	t0,-1944(gp) # 80002ba0 <__boot_sync>
    ENTER main
    800001fe:	4505                	li	a0,1
    80000200:	00003597          	auipc	a1,0x3
    80000204:	83058593          	addi	a1,a1,-2000 # 80002a30 <argv>
    80000208:	00003617          	auipc	a2,0x3
    8000020c:	93063603          	ld	a2,-1744(a2) # 80002b38 <environ>
    80000210:	08a010ef          	jal	8000129a <main>
    80000214:	5620106f          	j	80001776 <exit>

0000000080000218 <_start_secondary>:

    .global _start_secondary
    .type _start_secondary, @function
_start_secondary:
    /* Synchronize secondary harts */
    BARRIER_WAIT __boot_sync
    80000218:	8681a283          	lw	t0,-1944(gp) # 80002ba0 <__boot_sync>
    8000021c:	fe028ee3          	beqz	t0,80000218 <_start_secondary>
    80000220:	0220000f          	fence	r,r
    ENTER __main
    80000224:	4505                	li	a0,1
    80000226:	00003597          	auipc	a1,0x3
    8000022a:	80a58593          	addi	a1,a1,-2038 # 80002a30 <argv>
    8000022e:	00003617          	auipc	a2,0x3
    80000232:	90a63603          	ld	a2,-1782(a2) # 80002b38 <environ>
    80000236:	4be010ef          	jal	800016f4 <__main>
    8000023a:	53c0106f          	j	80001776 <exit>

000000008000023e <reg_write32>:
    kprintf("Hello world!\r\n");

  // Performance evaluation
//  kprintf("\r\n# KLEIN-64 - Cryptography Accelerator ===============================\r\n");
//  klein_test_encryption_elapsed();
//  klein_test_decryption_elapsed();
    8000023e:	7179                	addi	sp,sp,-48
    80000240:	f422                	sd	s0,40(sp)
    80000242:	1800                	addi	s0,sp,48
    80000244:	fca43c23          	sd	a0,-40(s0)
    80000248:	87ae                	mv	a5,a1
    8000024a:	fcf42a23          	sw	a5,-44(s0)
//  klein_test_software();
    8000024e:	fd843783          	ld	a5,-40(s0)
    80000252:	fef43423          	sd	a5,-24(s0)
//
    80000256:	fe843783          	ld	a5,-24(s0)
    8000025a:	fd442703          	lw	a4,-44(s0)
    8000025e:	c398                	sw	a4,0(a5)
//  chacha_test_elapsed();
    80000260:	0001                	nop
    80000262:	7422                	ld	s0,40(sp)
    80000264:	6145                	addi	sp,sp,48
    80000266:	8082                	ret

0000000080000268 <reg_read32>:
//  chacha_soft_main();
//
//  sha3_test_elapsed();
    80000268:	7179                	addi	sp,sp,-48
    8000026a:	f422                	sd	s0,40(sp)
    8000026c:	1800                	addi	s0,sp,48
    8000026e:	fca43c23          	sd	a0,-40(s0)
//  sha3_512_simple();
    80000272:	fd843783          	ld	a5,-40(s0)
    80000276:	fef43423          	sd	a5,-24(s0)

    8000027a:	fe843783          	ld	a5,-24(s0)
    8000027e:	439c                	lw	a5,0(a5)
    80000280:	2781                	sext.w	a5,a5
  // Function evaluation
    80000282:	853e                	mv	a0,a5
    80000284:	7422                	ld	s0,40(sp)
    80000286:	6145                	addi	sp,sp,48
    80000288:	8082                	ret

000000008000028a <chacha_soft_reset>:

#define CHACHA_KEYLEN_128 		     0x00
#define CHACHA_KEYLEN_256 		     0x01


static void chacha_soft_reset() {
    8000028a:	1141                	addi	sp,sp,-16
    8000028c:	e406                	sd	ra,8(sp)
    8000028e:	e022                	sd	s0,0(sp)
    80000290:	0800                	addi	s0,sp,16
  reg_write32(CHACHA_control, CTRL_CHACHA_RESET);
    80000292:	4591                	li	a1,4
    80000294:	10007537          	lui	a0,0x10007
    80000298:	fa7ff0ef          	jal	8000023e <reg_write32>
  reg_write32(CHACHA_control, CTRL_CHACHA_IDLE);
    8000029c:	4581                	li	a1,0
    8000029e:	10007537          	lui	a0,0x10007
    800002a2:	f9dff0ef          	jal	8000023e <reg_write32>
}
    800002a6:	0001                	nop
    800002a8:	60a2                	ld	ra,8(sp)
    800002aa:	6402                	ld	s0,0(sp)
    800002ac:	0141                	addi	sp,sp,16
    800002ae:	8082                	ret

00000000800002b0 <chacha_write_to_address>:

static void chacha_write_to_address(unsigned int address, unsigned int data) {
    800002b0:	1101                	addi	sp,sp,-32
    800002b2:	ec06                	sd	ra,24(sp)
    800002b4:	e822                	sd	s0,16(sp)
    800002b6:	1000                	addi	s0,sp,32
    800002b8:	87aa                	mv	a5,a0
    800002ba:	872e                	mv	a4,a1
    800002bc:	fef42623          	sw	a5,-20(s0)
    800002c0:	87ba                	mv	a5,a4
    800002c2:	fef42423          	sw	a5,-24(s0)
    reg_write32(CHACHA_addr,  address);
    800002c6:	fec42783          	lw	a5,-20(s0)
    800002ca:	85be                	mv	a1,a5
    800002cc:	100077b7          	lui	a5,0x10007
    800002d0:	00478513          	addi	a0,a5,4 # 10007004 <__heap_size+0xffe7004>
    800002d4:	f6bff0ef          	jal	8000023e <reg_write32>
    reg_write32(CHACHA_write, data);
    800002d8:	fe842783          	lw	a5,-24(s0)
    800002dc:	85be                	mv	a1,a5
    800002de:	100077b7          	lui	a5,0x10007
    800002e2:	00878513          	addi	a0,a5,8 # 10007008 <__heap_size+0xffe7008>
    800002e6:	f59ff0ef          	jal	8000023e <reg_write32>
    reg_write32(CHACHA_control, CTRL_CHACHA_WRITE);
    800002ea:	458d                	li	a1,3
    800002ec:	10007537          	lui	a0,0x10007
    800002f0:	f4fff0ef          	jal	8000023e <reg_write32>
    reg_write32(CHACHA_control, CTRL_CHACHA_IDLE);
    800002f4:	4581                	li	a1,0
    800002f6:	10007537          	lui	a0,0x10007
    800002fa:	f45ff0ef          	jal	8000023e <reg_write32>
}
    800002fe:	0001                	nop
    80000300:	60e2                	ld	ra,24(sp)
    80000302:	6442                	ld	s0,16(sp)
    80000304:	6105                	addi	sp,sp,32
    80000306:	8082                	ret

0000000080000308 <chacha_read_from_address>:

static unsigned int chacha_read_from_address(unsigned int address) {
    80000308:	7179                	addi	sp,sp,-48
    8000030a:	f406                	sd	ra,40(sp)
    8000030c:	f022                	sd	s0,32(sp)
    8000030e:	1800                	addi	s0,sp,48
    80000310:	87aa                	mv	a5,a0
    80000312:	fcf42e23          	sw	a5,-36(s0)
    reg_write32(CHACHA_addr,  address);
    80000316:	fdc42783          	lw	a5,-36(s0)
    8000031a:	85be                	mv	a1,a5
    8000031c:	100077b7          	lui	a5,0x10007
    80000320:	00478513          	addi	a0,a5,4 # 10007004 <__heap_size+0xffe7004>
    80000324:	f1bff0ef          	jal	8000023e <reg_write32>
    reg_write32(CHACHA_write, 0x00);
    80000328:	4581                	li	a1,0
    8000032a:	100077b7          	lui	a5,0x10007
    8000032e:	00878513          	addi	a0,a5,8 # 10007008 <__heap_size+0xffe7008>
    80000332:	f0dff0ef          	jal	8000023e <reg_write32>

    reg_write32(CHACHA_control, CTRL_CHACHA_READ);
    80000336:	4585                	li	a1,1
    80000338:	10007537          	lui	a0,0x10007
    8000033c:	f03ff0ef          	jal	8000023e <reg_write32>
    unsigned int temp = reg_read32(CHACHA_read);
    80000340:	100077b7          	lui	a5,0x10007
    80000344:	00c78513          	addi	a0,a5,12 # 1000700c <__heap_size+0xffe700c>
    80000348:	f21ff0ef          	jal	80000268 <reg_read32>
    8000034c:	87aa                	mv	a5,a0
    8000034e:	fef42623          	sw	a5,-20(s0)
    reg_write32(CHACHA_control, CTRL_CHACHA_IDLE);
    80000352:	4581                	li	a1,0
    80000354:	10007537          	lui	a0,0x10007
    80000358:	ee7ff0ef          	jal	8000023e <reg_write32>
    return temp;
    8000035c:	fec42783          	lw	a5,-20(s0)
}
    80000360:	853e                	mv	a0,a5
    80000362:	70a2                	ld	ra,40(sp)
    80000364:	7402                	ld	s0,32(sp)
    80000366:	6145                	addi	sp,sp,48
    80000368:	8082                	ret

000000008000036a <chacha_cipher>:
        unsigned int *key,
        unsigned int *iv,
        unsigned int num_round,
        unsigned int *data_in,
        unsigned int *data_out)
{
    8000036a:	711d                	addi	sp,sp,-96
    8000036c:	ec86                	sd	ra,88(sp)
    8000036e:	e8a2                	sd	s0,80(sp)
    80000370:	e4a6                	sd	s1,72(sp)
    80000372:	1080                	addi	s0,sp,96
    80000374:	fcb43023          	sd	a1,-64(s0)
    80000378:	fac43c23          	sd	a2,-72(s0)
    8000037c:	fae43823          	sd	a4,-80(s0)
    80000380:	faf43423          	sd	a5,-88(s0)
    80000384:	87aa                	mv	a5,a0
    80000386:	fcf42623          	sw	a5,-52(s0)
    8000038a:	87b6                	mv	a5,a3
    8000038c:	fcf42423          	sw	a5,-56(s0)
    for (int i = 0; i < 8; ++i)
    80000390:	fc042e23          	sw	zero,-36(s0)
    80000394:	a03d                	j	800003c2 <chacha_cipher+0x58>
        chacha_write_to_address(CHACHA_ADDR_KEY_BASE + i, key[i]);
    80000396:	fdc42783          	lw	a5,-36(s0)
    8000039a:	27c1                	addiw	a5,a5,16
    8000039c:	2781                	sext.w	a5,a5
    8000039e:	0007869b          	sext.w	a3,a5
    800003a2:	fdc42783          	lw	a5,-36(s0)
    800003a6:	078a                	slli	a5,a5,0x2
    800003a8:	fc043703          	ld	a4,-64(s0)
    800003ac:	97ba                	add	a5,a5,a4
    800003ae:	439c                	lw	a5,0(a5)
    800003b0:	85be                	mv	a1,a5
    800003b2:	8536                	mv	a0,a3
    800003b4:	efdff0ef          	jal	800002b0 <chacha_write_to_address>
    for (int i = 0; i < 8; ++i)
    800003b8:	fdc42783          	lw	a5,-36(s0)
    800003bc:	2785                	addiw	a5,a5,1
    800003be:	fcf42e23          	sw	a5,-36(s0)
    800003c2:	fdc42783          	lw	a5,-36(s0)
    800003c6:	0007871b          	sext.w	a4,a5
    800003ca:	479d                	li	a5,7
    800003cc:	fce7d5e3          	bge	a5,a4,80000396 <chacha_cipher+0x2c>

    for (int i = 0; i < 16; ++i)
    800003d0:	fc042c23          	sw	zero,-40(s0)
    800003d4:	a805                	j	80000404 <chacha_cipher+0x9a>
        chacha_write_to_address(CHACHA_ADDR_DATA_IN_BASE + i, data_in[i]);
    800003d6:	fd842783          	lw	a5,-40(s0)
    800003da:	0407879b          	addiw	a5,a5,64
    800003de:	2781                	sext.w	a5,a5
    800003e0:	0007869b          	sext.w	a3,a5
    800003e4:	fd842783          	lw	a5,-40(s0)
    800003e8:	078a                	slli	a5,a5,0x2
    800003ea:	fb043703          	ld	a4,-80(s0)
    800003ee:	97ba                	add	a5,a5,a4
    800003f0:	439c                	lw	a5,0(a5)
    800003f2:	85be                	mv	a1,a5
    800003f4:	8536                	mv	a0,a3
    800003f6:	ebbff0ef          	jal	800002b0 <chacha_write_to_address>
    for (int i = 0; i < 16; ++i)
    800003fa:	fd842783          	lw	a5,-40(s0)
    800003fe:	2785                	addiw	a5,a5,1
    80000400:	fcf42c23          	sw	a5,-40(s0)
    80000404:	fd842783          	lw	a5,-40(s0)
    80000408:	0007871b          	sext.w	a4,a5
    8000040c:	47bd                	li	a5,15
    8000040e:	fce7d4e3          	bge	a5,a4,800003d6 <chacha_cipher+0x6c>

    chacha_write_to_address(CHACHA_ADDR_IV0, iv[0]);
    80000412:	fb843783          	ld	a5,-72(s0)
    80000416:	439c                	lw	a5,0(a5)
    80000418:	85be                	mv	a1,a5
    8000041a:	02000513          	li	a0,32
    8000041e:	e93ff0ef          	jal	800002b0 <chacha_write_to_address>
    chacha_write_to_address(CHACHA_ADDR_IV1, iv[1]);
    80000422:	fb843783          	ld	a5,-72(s0)
    80000426:	0791                	addi	a5,a5,4
    80000428:	439c                	lw	a5,0(a5)
    8000042a:	85be                	mv	a1,a5
    8000042c:	02100513          	li	a0,33
    80000430:	e81ff0ef          	jal	800002b0 <chacha_write_to_address>

    chacha_write_to_address(CHACHA_ADDR_KEYLEN, key_len);
    80000434:	fcc42783          	lw	a5,-52(s0)
    80000438:	85be                	mv	a1,a5
    8000043a:	4529                	li	a0,10
    8000043c:	e75ff0ef          	jal	800002b0 <chacha_write_to_address>
    chacha_write_to_address(CHACHA_ADDR_ROUNDS, num_round);
    80000440:	fc842783          	lw	a5,-56(s0)
    80000444:	85be                	mv	a1,a5
    80000446:	452d                	li	a0,11
    80000448:	e69ff0ef          	jal	800002b0 <chacha_write_to_address>
    chacha_write_to_address(CHACHA_ADDR_CTRL, 0x01);
    8000044c:	4585                	li	a1,1
    8000044e:	4521                	li	a0,8
    80000450:	e61ff0ef          	jal	800002b0 <chacha_write_to_address>

    while(chacha_read_from_address(CHACHA_ADDR_STATUS) == 0);
    80000454:	0001                	nop
    80000456:	4525                	li	a0,9
    80000458:	eb1ff0ef          	jal	80000308 <chacha_read_from_address>
    8000045c:	87aa                	mv	a5,a0
    8000045e:	2781                	sext.w	a5,a5
    80000460:	dbfd                	beqz	a5,80000456 <chacha_cipher+0xec>

    for (int i = 0; i < 16; ++i)
    80000462:	fc042a23          	sw	zero,-44(s0)
    80000466:	a815                	j	8000049a <chacha_cipher+0x130>
        data_out[i] = chacha_read_from_address(CHACHA_ADDR_DATA_OUT_BASE + i);
    80000468:	fd442783          	lw	a5,-44(s0)
    8000046c:	0807879b          	addiw	a5,a5,128
    80000470:	2781                	sext.w	a5,a5
    80000472:	0007869b          	sext.w	a3,a5
    80000476:	fd442783          	lw	a5,-44(s0)
    8000047a:	078a                	slli	a5,a5,0x2
    8000047c:	fa843703          	ld	a4,-88(s0)
    80000480:	00f704b3          	add	s1,a4,a5
    80000484:	8536                	mv	a0,a3
    80000486:	e83ff0ef          	jal	80000308 <chacha_read_from_address>
    8000048a:	87aa                	mv	a5,a0
    8000048c:	2781                	sext.w	a5,a5
    8000048e:	c09c                	sw	a5,0(s1)
    for (int i = 0; i < 16; ++i)
    80000490:	fd442783          	lw	a5,-44(s0)
    80000494:	2785                	addiw	a5,a5,1
    80000496:	fcf42a23          	sw	a5,-44(s0)
    8000049a:	fd442783          	lw	a5,-44(s0)
    8000049e:	0007871b          	sext.w	a4,a5
    800004a2:	47bd                	li	a5,15
    800004a4:	fce7d2e3          	bge	a5,a4,80000468 <chacha_cipher+0xfe>
}
    800004a8:	0001                	nop
    800004aa:	0001                	nop
    800004ac:	60e6                	ld	ra,88(sp)
    800004ae:	6446                	ld	s0,80(sp)
    800004b0:	64a6                	ld	s1,72(sp)
    800004b2:	6125                	addi	sp,sp,96
    800004b4:	8082                	ret

00000000800004b6 <chacha_cipher_next_block>:

static void chacha_cipher_next_block(unsigned int *data_out) {
    800004b6:	7139                	addi	sp,sp,-64
    800004b8:	fc06                	sd	ra,56(sp)
    800004ba:	f822                	sd	s0,48(sp)
    800004bc:	f426                	sd	s1,40(sp)
    800004be:	0080                	addi	s0,sp,64
    800004c0:	fca43423          	sd	a0,-56(s0)
    chacha_write_to_address(CHACHA_ADDR_CTRL, 0x02);
    800004c4:	4589                	li	a1,2
    800004c6:	4521                	li	a0,8
    800004c8:	de9ff0ef          	jal	800002b0 <chacha_write_to_address>

    while(chacha_read_from_address(CHACHA_ADDR_STATUS) == 0);
    800004cc:	0001                	nop
    800004ce:	4525                	li	a0,9
    800004d0:	e39ff0ef          	jal	80000308 <chacha_read_from_address>
    800004d4:	87aa                	mv	a5,a0
    800004d6:	2781                	sext.w	a5,a5
    800004d8:	dbfd                	beqz	a5,800004ce <chacha_cipher_next_block+0x18>

    for (int i = 0; i < 16; ++i)
    800004da:	fc042e23          	sw	zero,-36(s0)
    800004de:	a815                	j	80000512 <chacha_cipher_next_block+0x5c>
        data_out[i] = chacha_read_from_address(CHACHA_ADDR_DATA_OUT_BASE + i);
    800004e0:	fdc42783          	lw	a5,-36(s0)
    800004e4:	0807879b          	addiw	a5,a5,128
    800004e8:	2781                	sext.w	a5,a5
    800004ea:	0007869b          	sext.w	a3,a5
    800004ee:	fdc42783          	lw	a5,-36(s0)
    800004f2:	078a                	slli	a5,a5,0x2
    800004f4:	fc843703          	ld	a4,-56(s0)
    800004f8:	00f704b3          	add	s1,a4,a5
    800004fc:	8536                	mv	a0,a3
    800004fe:	e0bff0ef          	jal	80000308 <chacha_read_from_address>
    80000502:	87aa                	mv	a5,a0
    80000504:	2781                	sext.w	a5,a5
    80000506:	c09c                	sw	a5,0(s1)
    for (int i = 0; i < 16; ++i)
    80000508:	fdc42783          	lw	a5,-36(s0)
    8000050c:	2785                	addiw	a5,a5,1
    8000050e:	fcf42e23          	sw	a5,-36(s0)
    80000512:	fdc42783          	lw	a5,-36(s0)
    80000516:	0007871b          	sext.w	a4,a5
    8000051a:	47bd                	li	a5,15
    8000051c:	fce7d2e3          	bge	a5,a4,800004e0 <chacha_cipher_next_block+0x2a>
}
    80000520:	0001                	nop
    80000522:	0001                	nop
    80000524:	70e2                	ld	ra,56(sp)
    80000526:	7442                	ld	s0,48(sp)
    80000528:	74a2                	ld	s1,40(sp)
    8000052a:	6121                	addi	sp,sp,64
    8000052c:	8082                	ret

000000008000052e <chacha_test_cases>:

static void chacha_test_cases() {
    8000052e:	716d                	addi	sp,sp,-272
    80000530:	e606                	sd	ra,264(sp)
    80000532:	e222                	sd	s0,256(sp)
    80000534:	0a00                	addi	s0,sp,272
  unsigned int chacha_key[8] 	= {0x0, 0x0, 0x0, 0x0, 0x0, 0x0, 0x0, 0x0};
    80000536:	fc042023          	sw	zero,-64(s0)
    8000053a:	fc042223          	sw	zero,-60(s0)
    8000053e:	fc042423          	sw	zero,-56(s0)
    80000542:	fc042623          	sw	zero,-52(s0)
    80000546:	fc042823          	sw	zero,-48(s0)
    8000054a:	fc042a23          	sw	zero,-44(s0)
    8000054e:	fc042c23          	sw	zero,-40(s0)
    80000552:	fc042e23          	sw	zero,-36(s0)
	unsigned int chacha_iv[2] 	= {0x0, 0x0};
    80000556:	fa042c23          	sw	zero,-72(s0)
    8000055a:	fa042e23          	sw	zero,-68(s0)
	unsigned int chacha_data_in[16] 	= {
    8000055e:	f6042c23          	sw	zero,-136(s0)
    80000562:	f6042e23          	sw	zero,-132(s0)
    80000566:	f8042023          	sw	zero,-128(s0)
    8000056a:	f8042223          	sw	zero,-124(s0)
    8000056e:	f8042423          	sw	zero,-120(s0)
    80000572:	f8042623          	sw	zero,-116(s0)
    80000576:	f8042823          	sw	zero,-112(s0)
    8000057a:	f8042a23          	sw	zero,-108(s0)
    8000057e:	f8042c23          	sw	zero,-104(s0)
    80000582:	f8042e23          	sw	zero,-100(s0)
    80000586:	fa042023          	sw	zero,-96(s0)
    8000058a:	fa042223          	sw	zero,-92(s0)
    8000058e:	fa042423          	sw	zero,-88(s0)
    80000592:	fa042623          	sw	zero,-84(s0)
    80000596:	fa042823          	sw	zero,-80(s0)
    8000059a:	fa042a23          	sw	zero,-76(s0)
			0x0, 0x0, 0x0, 0x0,
			0x0, 0x0, 0x0, 0x0,
			0x0, 0x0, 0x0, 0x0,
			0x0, 0x0, 0x0, 0x0};

	unsigned int chacha_dump[16] 	= {
    8000059e:	f2042c23          	sw	zero,-200(s0)
    800005a2:	f2042e23          	sw	zero,-196(s0)
    800005a6:	f4042023          	sw	zero,-192(s0)
    800005aa:	f4042223          	sw	zero,-188(s0)
    800005ae:	f4042423          	sw	zero,-184(s0)
    800005b2:	f4042623          	sw	zero,-180(s0)
    800005b6:	f4042823          	sw	zero,-176(s0)
    800005ba:	f4042a23          	sw	zero,-172(s0)
    800005be:	f4042c23          	sw	zero,-168(s0)
    800005c2:	f4042e23          	sw	zero,-164(s0)
    800005c6:	f6042023          	sw	zero,-160(s0)
    800005ca:	f6042223          	sw	zero,-156(s0)
    800005ce:	f6042423          	sw	zero,-152(s0)
    800005d2:	f6042623          	sw	zero,-148(s0)
    800005d6:	f6042823          	sw	zero,-144(s0)
    800005da:	f6042a23          	sw	zero,-140(s0)
			0x0, 0x0, 0x0, 0x0,
			0x0, 0x0, 0x0, 0x0,
			0x0, 0x0, 0x0, 0x0,
			0x0, 0x0, 0x0, 0x0};

	unsigned int chacha_expected[16] 	= {
    800005de:	00002797          	auipc	a5,0x2
    800005e2:	f7278793          	addi	a5,a5,-142 # 80002550 <__tbss_end+0x284>
    800005e6:	0007b883          	ld	a7,0(a5)
    800005ea:	0087b803          	ld	a6,8(a5)
    800005ee:	6b88                	ld	a0,16(a5)
    800005f0:	6f8c                	ld	a1,24(a5)
    800005f2:	7390                	ld	a2,32(a5)
    800005f4:	7794                	ld	a3,40(a5)
    800005f6:	7b98                	ld	a4,48(a5)
    800005f8:	7f9c                	ld	a5,56(a5)
    800005fa:	ef143c23          	sd	a7,-264(s0)
    800005fe:	f1043023          	sd	a6,-256(s0)
    80000602:	f0a43423          	sd	a0,-248(s0)
    80000606:	f0b43823          	sd	a1,-240(s0)
    8000060a:	f0c43c23          	sd	a2,-232(s0)
    8000060e:	f2d43023          	sd	a3,-224(s0)
    80000612:	f2e43423          	sd	a4,-216(s0)
    80000616:	f2f43823          	sd	a5,-208(s0)
			0xb64ab8e7, 0x2b8deb85, 0xcd6aea7c, 0xb6089a10,
			0x1824beeb, 0x08814a42, 0x8aab1fa2, 0xc816081b};

  // ================================= TEST ONE =================================

  chacha_cipher(CHACHA_KEYLEN_128, chacha_key, chacha_iv, 0x08, chacha_data_in, chacha_dump);
    8000061a:	f3840793          	addi	a5,s0,-200
    8000061e:	f7840713          	addi	a4,s0,-136
    80000622:	fb840613          	addi	a2,s0,-72
    80000626:	fc040593          	addi	a1,s0,-64
    8000062a:	46a1                	li	a3,8
    8000062c:	4501                	li	a0,0
    8000062e:	d3dff0ef          	jal	8000036a <chacha_cipher>

  kprintf("# ChaCha - 8 rounds, 128-bit key =============================================\r\n");
    80000632:	00002517          	auipc	a0,0x2
    80000636:	c9e50513          	addi	a0,a0,-866 # 800022d0 <__tbss_end+0x4>
    8000063a:	54b000ef          	jal	80001384 <kprintf>
//
//  kprintf("\r\nIV (nonce):      ");
//  for(int i = 0; i < 2; i++)
//      kprintf("%x", chacha_iv[i]);

  kprintf("Expected result: ");
    8000063e:	00002517          	auipc	a0,0x2
    80000642:	cea50513          	addi	a0,a0,-790 # 80002328 <__tbss_end+0x5c>
    80000646:	53f000ef          	jal	80001384 <kprintf>
  for(int i = 0; i < 16; i++)
    8000064a:	fe042623          	sw	zero,-20(s0)
    8000064e:	a025                	j	80000676 <chacha_test_cases+0x148>
      kprintf("%x", chacha_expected[i]);
    80000650:	fec42783          	lw	a5,-20(s0)
    80000654:	078a                	slli	a5,a5,0x2
    80000656:	17c1                	addi	a5,a5,-16
    80000658:	97a2                	add	a5,a5,s0
    8000065a:	f087a783          	lw	a5,-248(a5)
    8000065e:	85be                	mv	a1,a5
    80000660:	00002517          	auipc	a0,0x2
    80000664:	ce050513          	addi	a0,a0,-800 # 80002340 <__tbss_end+0x74>
    80000668:	51d000ef          	jal	80001384 <kprintf>
  for(int i = 0; i < 16; i++)
    8000066c:	fec42783          	lw	a5,-20(s0)
    80000670:	2785                	addiw	a5,a5,1
    80000672:	fef42623          	sw	a5,-20(s0)
    80000676:	fec42783          	lw	a5,-20(s0)
    8000067a:	0007871b          	sext.w	a4,a5
    8000067e:	47bd                	li	a5,15
    80000680:	fce7d8e3          	bge	a5,a4,80000650 <chacha_test_cases+0x122>

	kprintf("\r\nResult dump:     ");
    80000684:	00002517          	auipc	a0,0x2
    80000688:	cc450513          	addi	a0,a0,-828 # 80002348 <__tbss_end+0x7c>
    8000068c:	4f9000ef          	jal	80001384 <kprintf>
	for(int i = 0; i < 16; i++)
    80000690:	fe042423          	sw	zero,-24(s0)
    80000694:	a025                	j	800006bc <chacha_test_cases+0x18e>
	    kprintf("%x", chacha_dump[i]);
    80000696:	fe842783          	lw	a5,-24(s0)
    8000069a:	078a                	slli	a5,a5,0x2
    8000069c:	17c1                	addi	a5,a5,-16
    8000069e:	97a2                	add	a5,a5,s0
    800006a0:	f487a783          	lw	a5,-184(a5)
    800006a4:	85be                	mv	a1,a5
    800006a6:	00002517          	auipc	a0,0x2
    800006aa:	c9a50513          	addi	a0,a0,-870 # 80002340 <__tbss_end+0x74>
    800006ae:	4d7000ef          	jal	80001384 <kprintf>
	for(int i = 0; i < 16; i++)
    800006b2:	fe842783          	lw	a5,-24(s0)
    800006b6:	2785                	addiw	a5,a5,1
    800006b8:	fef42423          	sw	a5,-24(s0)
    800006bc:	fe842783          	lw	a5,-24(s0)
    800006c0:	0007871b          	sext.w	a4,a5
    800006c4:	47bd                	li	a5,15
    800006c6:	fce7d8e3          	bge	a5,a4,80000696 <chacha_test_cases+0x168>

  kprintf("\r\n\r\n");
    800006ca:	00002517          	auipc	a0,0x2
    800006ce:	c9650513          	addi	a0,a0,-874 # 80002360 <__tbss_end+0x94>
    800006d2:	4b3000ef          	jal	80001384 <kprintf>

  // ================================= TEST TWO =================================
  chacha_key[0] = 0x00;
    800006d6:	fc042023          	sw	zero,-64(s0)
  chacha_key[1] = 0x00;
    800006da:	fc042223          	sw	zero,-60(s0)
  chacha_key[2] = 0x00;
    800006de:	fc042423          	sw	zero,-56(s0)
  chacha_key[3] = 0x00;
    800006e2:	fc042623          	sw	zero,-52(s0)
  chacha_key[4] = 0x00;
    800006e6:	fc042823          	sw	zero,-48(s0)
  chacha_key[5] = 0x00;
    800006ea:	fc042a23          	sw	zero,-44(s0)
  chacha_key[6] = 0x00;
    800006ee:	fc042c23          	sw	zero,-40(s0)
  chacha_key[7] = 0x00;
    800006f2:	fc042e23          	sw	zero,-36(s0)

  chacha_iv[0] = 0x00;
    800006f6:	fa042c23          	sw	zero,-72(s0)
  chacha_iv[1] = 0x00;
    800006fa:	fa042e23          	sw	zero,-68(s0)

  chacha_expected[0] = 0x76b8e0ad;
    800006fe:	76b8e7b7          	lui	a5,0x76b8e
    80000702:	0ad78793          	addi	a5,a5,173 # 76b8e0ad <__heap_size+0x76b6e0ad>
    80000706:	eef42c23          	sw	a5,-264(s0)
  chacha_expected[1] = 0xa0f13d90;
    8000070a:	a0f147b7          	lui	a5,0xa0f14
    8000070e:	d9078793          	addi	a5,a5,-624 # ffffffffa0f13d90 <__heap_end+0xffffffff20ef0d90>
    80000712:	eef42e23          	sw	a5,-260(s0)
  chacha_expected[2] = 0x405d6ae5;
    80000716:	405d77b7          	lui	a5,0x405d7
    8000071a:	ae578793          	addi	a5,a5,-1307 # 405d6ae5 <__heap_size+0x405b6ae5>
    8000071e:	f0f42023          	sw	a5,-256(s0)
  chacha_expected[3] = 0x5386bd28;
    80000722:	5386c7b7          	lui	a5,0x5386c
    80000726:	d2878793          	addi	a5,a5,-728 # 5386bd28 <__heap_size+0x5384bd28>
    8000072a:	f0f42223          	sw	a5,-252(s0)
  chacha_expected[4] = 0xbdd219b8;
    8000072e:	bdd227b7          	lui	a5,0xbdd22
    80000732:	9b878793          	addi	a5,a5,-1608 # ffffffffbdd219b8 <__heap_end+0xffffffff3dcfe9b8>
    80000736:	f0f42423          	sw	a5,-248(s0)
  chacha_expected[5] = 0xa08ded1a;
    8000073a:	a08df7b7          	lui	a5,0xa08df
    8000073e:	d1a78793          	addi	a5,a5,-742 # ffffffffa08ded1a <__heap_end+0xffffffff208bbd1a>
    80000742:	f0f42623          	sw	a5,-244(s0)
  chacha_expected[6] = 0xa836efcc;
    80000746:	a836f7b7          	lui	a5,0xa836f
    8000074a:	fcc78793          	addi	a5,a5,-52 # ffffffffa836efcc <__heap_end+0xffffffff2834bfcc>
    8000074e:	f0f42823          	sw	a5,-240(s0)
  chacha_expected[7] = 0x8b770dc7;
    80000752:	8b7717b7          	lui	a5,0x8b771
    80000756:	dc778793          	addi	a5,a5,-569 # ffffffff8b770dc7 <__heap_end+0xffffffff0b74ddc7>
    8000075a:	f0f42a23          	sw	a5,-236(s0)
  chacha_expected[8] = 0xda41597c;
    8000075e:	da4167b7          	lui	a5,0xda416
    80000762:	97c78793          	addi	a5,a5,-1668 # ffffffffda41597c <__heap_end+0xffffffff5a3f297c>
    80000766:	f0f42c23          	sw	a5,-232(s0)
  chacha_expected[9] = 0x5157488d;
    8000076a:	515757b7          	lui	a5,0x51575
    8000076e:	88d78793          	addi	a5,a5,-1907 # 5157488d <__heap_size+0x5155488d>
    80000772:	f0f42e23          	sw	a5,-228(s0)
  chacha_expected[10] = 0x7724e03f;
    80000776:	7724e7b7          	lui	a5,0x7724e
    8000077a:	03f78793          	addi	a5,a5,63 # 7724e03f <__heap_size+0x7722e03f>
    8000077e:	f2f42023          	sw	a5,-224(s0)
  chacha_expected[11] = 0xb8d84a37;
    80000782:	b8d857b7          	lui	a5,0xb8d85
    80000786:	a3778793          	addi	a5,a5,-1481 # ffffffffb8d84a37 <__heap_end+0xffffffff38d61a37>
    8000078a:	f2f42223          	sw	a5,-220(s0)
  chacha_expected[12] = 0x6a43b8f4;
    8000078e:	6a43c7b7          	lui	a5,0x6a43c
    80000792:	8f478793          	addi	a5,a5,-1804 # 6a43b8f4 <__heap_size+0x6a41b8f4>
    80000796:	f2f42423          	sw	a5,-216(s0)
  chacha_expected[13] = 0x1518a11c;
    8000079a:	1518a7b7          	lui	a5,0x1518a
    8000079e:	11c78793          	addi	a5,a5,284 # 1518a11c <__heap_size+0x1516a11c>
    800007a2:	f2f42623          	sw	a5,-212(s0)
  chacha_expected[14] = 0xc387b669;
    800007a6:	c387b7b7          	lui	a5,0xc387b
    800007aa:	66978793          	addi	a5,a5,1641 # ffffffffc387b669 <__heap_end+0xffffffff43858669>
    800007ae:	f2f42823          	sw	a5,-208(s0)
  chacha_expected[15] = 0xb2ee6586;
    800007b2:	b2ee67b7          	lui	a5,0xb2ee6
    800007b6:	58678793          	addi	a5,a5,1414 # ffffffffb2ee6586 <__heap_end+0xffffffff32ec3586>
    800007ba:	f2f42a23          	sw	a5,-204(s0)

  chacha_cipher(CHACHA_KEYLEN_256, chacha_key, chacha_iv, 0x14, chacha_data_in, chacha_dump);
    800007be:	f3840793          	addi	a5,s0,-200
    800007c2:	f7840713          	addi	a4,s0,-136
    800007c6:	fb840613          	addi	a2,s0,-72
    800007ca:	fc040593          	addi	a1,s0,-64
    800007ce:	46d1                	li	a3,20
    800007d0:	4505                	li	a0,1
    800007d2:	b99ff0ef          	jal	8000036a <chacha_cipher>

  kprintf("# ChaCha - 20 rounds, 256-bit key ============================================\r\n");
    800007d6:	00002517          	auipc	a0,0x2
    800007da:	b9250513          	addi	a0,a0,-1134 # 80002368 <__tbss_end+0x9c>
    800007de:	3a7000ef          	jal	80001384 <kprintf>
//
//  kprintf("\r\nIV (nonce):      ");
//  for(int i = 0; i < 2; i++)
//      kprintf("%x", chacha_iv[i]);

  kprintf("Expected result: ");
    800007e2:	00002517          	auipc	a0,0x2
    800007e6:	b4650513          	addi	a0,a0,-1210 # 80002328 <__tbss_end+0x5c>
    800007ea:	39b000ef          	jal	80001384 <kprintf>
  for(int i = 0; i < 16; i++)
    800007ee:	fe042223          	sw	zero,-28(s0)
    800007f2:	a025                	j	8000081a <chacha_test_cases+0x2ec>
      kprintf("%x", chacha_expected[i]);
    800007f4:	fe442783          	lw	a5,-28(s0)
    800007f8:	078a                	slli	a5,a5,0x2
    800007fa:	17c1                	addi	a5,a5,-16
    800007fc:	97a2                	add	a5,a5,s0
    800007fe:	f087a783          	lw	a5,-248(a5)
    80000802:	85be                	mv	a1,a5
    80000804:	00002517          	auipc	a0,0x2
    80000808:	b3c50513          	addi	a0,a0,-1220 # 80002340 <__tbss_end+0x74>
    8000080c:	379000ef          	jal	80001384 <kprintf>
  for(int i = 0; i < 16; i++)
    80000810:	fe442783          	lw	a5,-28(s0)
    80000814:	2785                	addiw	a5,a5,1
    80000816:	fef42223          	sw	a5,-28(s0)
    8000081a:	fe442783          	lw	a5,-28(s0)
    8000081e:	0007871b          	sext.w	a4,a5
    80000822:	47bd                	li	a5,15
    80000824:	fce7d8e3          	bge	a5,a4,800007f4 <chacha_test_cases+0x2c6>

	kprintf("\r\nResult dump:     ");
    80000828:	00002517          	auipc	a0,0x2
    8000082c:	b2050513          	addi	a0,a0,-1248 # 80002348 <__tbss_end+0x7c>
    80000830:	355000ef          	jal	80001384 <kprintf>
	for(int i = 0; i < 16; i++)
    80000834:	fe042023          	sw	zero,-32(s0)
    80000838:	a025                	j	80000860 <chacha_test_cases+0x332>
	    kprintf("%x", chacha_dump[i]);
    8000083a:	fe042783          	lw	a5,-32(s0)
    8000083e:	078a                	slli	a5,a5,0x2
    80000840:	17c1                	addi	a5,a5,-16
    80000842:	97a2                	add	a5,a5,s0
    80000844:	f487a783          	lw	a5,-184(a5)
    80000848:	85be                	mv	a1,a5
    8000084a:	00002517          	auipc	a0,0x2
    8000084e:	af650513          	addi	a0,a0,-1290 # 80002340 <__tbss_end+0x74>
    80000852:	333000ef          	jal	80001384 <kprintf>
	for(int i = 0; i < 16; i++)
    80000856:	fe042783          	lw	a5,-32(s0)
    8000085a:	2785                	addiw	a5,a5,1
    8000085c:	fef42023          	sw	a5,-32(s0)
    80000860:	fe042783          	lw	a5,-32(s0)
    80000864:	0007871b          	sext.w	a4,a5
    80000868:	47bd                	li	a5,15
    8000086a:	fce7d8e3          	bge	a5,a4,8000083a <chacha_test_cases+0x30c>

  kprintf("\r\n\r\n");
    8000086e:	00002517          	auipc	a0,0x2
    80000872:	af250513          	addi	a0,a0,-1294 # 80002360 <__tbss_end+0x94>
    80000876:	30f000ef          	jal	80001384 <kprintf>

  chacha_cipher_next_block(chacha_dump);
    8000087a:	f3840793          	addi	a5,s0,-200
    8000087e:	853e                	mv	a0,a5
    80000880:	c37ff0ef          	jal	800004b6 <chacha_cipher_next_block>

  kprintf("# ChaCha - 20 rounds, 256-bit key, next block ================================\r\n");
    80000884:	00002517          	auipc	a0,0x2
    80000888:	b3c50513          	addi	a0,a0,-1220 # 800023c0 <__tbss_end+0xf4>
    8000088c:	2f9000ef          	jal	80001384 <kprintf>
	kprintf("Expected result: 9f07e7be5551387a98ba977c732d080dcb0f29a048e3656912c6533e32ee7aed29b721769ce64e43d57133b074d839d531ed1f28510afb45ace10a1f4b794d6f");
    80000890:	00002517          	auipc	a0,0x2
    80000894:	b8850513          	addi	a0,a0,-1144 # 80002418 <__tbss_end+0x14c>
    80000898:	2ed000ef          	jal	80001384 <kprintf>
	kprintf("\r\n");
    8000089c:	00002517          	auipc	a0,0x2
    800008a0:	c1450513          	addi	a0,a0,-1004 # 800024b0 <__tbss_end+0x1e4>
    800008a4:	2e1000ef          	jal	80001384 <kprintf>
	kprintf("Result dump:     9f07e7be5551387a98ba977c732d080dcb0f29a048e3656912c6533e32ee7aed29b721769ce64e43d57133b074d839d531ed1f28510afb45ace10a1f4b794d6f");
    800008a8:	00002517          	auipc	a0,0x2
    800008ac:	c1050513          	addi	a0,a0,-1008 # 800024b8 <__tbss_end+0x1ec>
    800008b0:	2d5000ef          	jal	80001384 <kprintf>
//	kprintf("Result dump:     ");
//	for(int i = 0; i < 16; i++)
//	    kprintf("%x", chacha_dump[i]);

  kprintf("\r\n\r\n");
    800008b4:	00002517          	auipc	a0,0x2
    800008b8:	aac50513          	addi	a0,a0,-1364 # 80002360 <__tbss_end+0x94>
    800008bc:	2c9000ef          	jal	80001384 <kprintf>
}
    800008c0:	0001                	nop
    800008c2:	60b2                	ld	ra,264(sp)
    800008c4:	6412                	ld	s0,256(sp)
    800008c6:	6151                	addi	sp,sp,272
    800008c8:	8082                	ret

00000000800008ca <chacha_test_elapsed>:

static void chacha_test_elapsed() {
    800008ca:	7135                	addi	sp,sp,-160
    800008cc:	ed06                	sd	ra,152(sp)
    800008ce:	e922                	sd	s0,144(sp)
    800008d0:	1100                	addi	s0,sp,160
  unsigned int chacha_key[8] 	= {0x0, 0x0, 0x0, 0x0, 0x0, 0x0, 0x0, 0x0};
    800008d2:	fa042823          	sw	zero,-80(s0)
    800008d6:	fa042a23          	sw	zero,-76(s0)
    800008da:	fa042c23          	sw	zero,-72(s0)
    800008de:	fa042e23          	sw	zero,-68(s0)
    800008e2:	fc042023          	sw	zero,-64(s0)
    800008e6:	fc042223          	sw	zero,-60(s0)
    800008ea:	fc042423          	sw	zero,-56(s0)
    800008ee:	fc042623          	sw	zero,-52(s0)
	unsigned int chacha_iv[2] 	= {0x0, 0x0};
    800008f2:	fa042423          	sw	zero,-88(s0)
    800008f6:	fa042623          	sw	zero,-84(s0)
	unsigned int chacha_data_in[16] 	= {
    800008fa:	f6042423          	sw	zero,-152(s0)
    800008fe:	f6042623          	sw	zero,-148(s0)
    80000902:	f6042823          	sw	zero,-144(s0)
    80000906:	f6042a23          	sw	zero,-140(s0)
    8000090a:	f6042c23          	sw	zero,-136(s0)
    8000090e:	f6042e23          	sw	zero,-132(s0)
    80000912:	f8042023          	sw	zero,-128(s0)
    80000916:	f8042223          	sw	zero,-124(s0)
    8000091a:	f8042423          	sw	zero,-120(s0)
    8000091e:	f8042623          	sw	zero,-116(s0)
    80000922:	f8042823          	sw	zero,-112(s0)
    80000926:	f8042a23          	sw	zero,-108(s0)
    8000092a:	f8042c23          	sw	zero,-104(s0)
    8000092e:	f8042e23          	sw	zero,-100(s0)
    80000932:	fa042023          	sw	zero,-96(s0)
    80000936:	fa042223          	sw	zero,-92(s0)
			0x0, 0x0, 0x0, 0x0,
			0x0, 0x0, 0x0, 0x0,
			0x0, 0x0, 0x0, 0x0,
			0x0, 0x0, 0x0, 0x0};

  for (int i = 0; i < 8; ++i)
    8000093a:	fe042623          	sw	zero,-20(s0)
    8000093e:	a03d                	j	8000096c <chacha_test_elapsed+0xa2>
      chacha_write_to_address(CHACHA_ADDR_KEY_BASE + i, chacha_key[i]);
    80000940:	fec42783          	lw	a5,-20(s0)
    80000944:	27c1                	addiw	a5,a5,16
    80000946:	2781                	sext.w	a5,a5
    80000948:	0007871b          	sext.w	a4,a5
    8000094c:	fec42783          	lw	a5,-20(s0)
    80000950:	078a                	slli	a5,a5,0x2
    80000952:	17c1                	addi	a5,a5,-16
    80000954:	97a2                	add	a5,a5,s0
    80000956:	fc07a783          	lw	a5,-64(a5)
    8000095a:	85be                	mv	a1,a5
    8000095c:	853a                	mv	a0,a4
    8000095e:	953ff0ef          	jal	800002b0 <chacha_write_to_address>
  for (int i = 0; i < 8; ++i)
    80000962:	fec42783          	lw	a5,-20(s0)
    80000966:	2785                	addiw	a5,a5,1
    80000968:	fef42623          	sw	a5,-20(s0)
    8000096c:	fec42783          	lw	a5,-20(s0)
    80000970:	0007871b          	sext.w	a4,a5
    80000974:	479d                	li	a5,7
    80000976:	fce7d5e3          	bge	a5,a4,80000940 <chacha_test_elapsed+0x76>

  for (int i = 0; i < 16; ++i)
    8000097a:	fe042423          	sw	zero,-24(s0)
    8000097e:	a805                	j	800009ae <chacha_test_elapsed+0xe4>
      chacha_write_to_address(CHACHA_ADDR_DATA_IN_BASE + i, chacha_data_in[i]);
    80000980:	fe842783          	lw	a5,-24(s0)
    80000984:	0407879b          	addiw	a5,a5,64
    80000988:	2781                	sext.w	a5,a5
    8000098a:	0007871b          	sext.w	a4,a5
    8000098e:	fe842783          	lw	a5,-24(s0)
    80000992:	078a                	slli	a5,a5,0x2
    80000994:	17c1                	addi	a5,a5,-16
    80000996:	97a2                	add	a5,a5,s0
    80000998:	f787a783          	lw	a5,-136(a5)
    8000099c:	85be                	mv	a1,a5
    8000099e:	853a                	mv	a0,a4
    800009a0:	911ff0ef          	jal	800002b0 <chacha_write_to_address>
  for (int i = 0; i < 16; ++i)
    800009a4:	fe842783          	lw	a5,-24(s0)
    800009a8:	2785                	addiw	a5,a5,1
    800009aa:	fef42423          	sw	a5,-24(s0)
    800009ae:	fe842783          	lw	a5,-24(s0)
    800009b2:	0007871b          	sext.w	a4,a5
    800009b6:	47bd                	li	a5,15
    800009b8:	fce7d4e3          	bge	a5,a4,80000980 <chacha_test_elapsed+0xb6>

  chacha_write_to_address(CHACHA_ADDR_IV0, chacha_iv[0]);
    800009bc:	fa842783          	lw	a5,-88(s0)
    800009c0:	85be                	mv	a1,a5
    800009c2:	02000513          	li	a0,32
    800009c6:	8ebff0ef          	jal	800002b0 <chacha_write_to_address>
  chacha_write_to_address(CHACHA_ADDR_IV1, chacha_iv[1]);
    800009ca:	fac42783          	lw	a5,-84(s0)
    800009ce:	85be                	mv	a1,a5
    800009d0:	02100513          	li	a0,33
    800009d4:	8ddff0ef          	jal	800002b0 <chacha_write_to_address>

  chacha_write_to_address(CHACHA_ADDR_KEYLEN, CHACHA_KEYLEN_256);
    800009d8:	4585                	li	a1,1
    800009da:	4529                	li	a0,10
    800009dc:	8d5ff0ef          	jal	800002b0 <chacha_write_to_address>
  chacha_write_to_address(CHACHA_ADDR_ROUNDS, 0x14);
    800009e0:	45d1                	li	a1,20
    800009e2:	452d                	li	a0,11
    800009e4:	8cdff0ef          	jal	800002b0 <chacha_write_to_address>

  // ====================================================

  chacha_write_to_address(CHACHA_ADDR_CTRL, 0x01);
    800009e8:	4585                	li	a1,1
    800009ea:	4521                	li	a0,8
    800009ec:	8c5ff0ef          	jal	800002b0 <chacha_write_to_address>
  unsigned long count_cycles = -read_csr(mcycle); // Start counter
    800009f0:	b00027f3          	csrr	a5,mcycle
    800009f4:	fef43023          	sd	a5,-32(s0)
    800009f8:	fe043783          	ld	a5,-32(s0)
    800009fc:	40f007b3          	neg	a5,a5
    80000a00:	fcf43c23          	sd	a5,-40(s0)

  while(chacha_read_from_address(CHACHA_ADDR_STATUS) == 0);
    80000a04:	0001                	nop
    80000a06:	4525                	li	a0,9
    80000a08:	901ff0ef          	jal	80000308 <chacha_read_from_address>
    80000a0c:	87aa                	mv	a5,a0
    80000a0e:	2781                	sext.w	a5,a5
    80000a10:	dbfd                	beqz	a5,80000a06 <chacha_test_elapsed+0x13c>
  count_cycles += read_csr(mcycle);
    80000a12:	b00027f3          	csrr	a5,mcycle
    80000a16:	fcf43823          	sd	a5,-48(s0)
    80000a1a:	fd043783          	ld	a5,-48(s0)
    80000a1e:	fd843703          	ld	a4,-40(s0)
    80000a22:	97ba                	add	a5,a5,a4
    80000a24:	fcf43c23          	sd	a5,-40(s0)
  // ====================================================

  kprintf("# ChaCha20 - Cryptography Accelerator ===============================\r\n");
    80000a28:	00002517          	auipc	a0,0x2
    80000a2c:	b6850513          	addi	a0,a0,-1176 # 80002590 <__tbss_end+0x2c4>
    80000a30:	155000ef          	jal	80001384 <kprintf>
  kprintf("Elapsed cycles: %d\r\n", count_cycles);
    80000a34:	fd843583          	ld	a1,-40(s0)
    80000a38:	00002517          	auipc	a0,0x2
    80000a3c:	ba050513          	addi	a0,a0,-1120 # 800025d8 <__tbss_end+0x30c>
    80000a40:	145000ef          	jal	80001384 <kprintf>

}
    80000a44:	0001                	nop
    80000a46:	60ea                	ld	ra,152(sp)
    80000a48:	644a                	ld	s0,144(sp)
    80000a4a:	610d                	addi	sp,sp,160
    80000a4c:	8082                	ret

0000000080000a4e <klein_write_to_address>:

#define KLEIN_ADDR_RESULT0  0x30
#define KLEIN_ADDR_RESULT1  0x31

void klein_write_to_address(uint32_t address, uint32_t data)
{
    80000a4e:	1101                	addi	sp,sp,-32
    80000a50:	ec06                	sd	ra,24(sp)
    80000a52:	e822                	sd	s0,16(sp)
    80000a54:	1000                	addi	s0,sp,32
    80000a56:	87aa                	mv	a5,a0
    80000a58:	872e                	mv	a4,a1
    80000a5a:	fef42623          	sw	a5,-20(s0)
    80000a5e:	87ba                	mv	a5,a4
    80000a60:	fef42423          	sw	a5,-24(s0)
  reg_write32(KLEIN_DATA_A, address);
    80000a64:	fec42783          	lw	a5,-20(s0)
    80000a68:	85be                	mv	a1,a5
    80000a6a:	100067b7          	lui	a5,0x10006
    80000a6e:	00478513          	addi	a0,a5,4 # 10006004 <__heap_size+0xffe6004>
    80000a72:	fccff0ef          	jal	8000023e <reg_write32>
  reg_write32(KLEIN_DATA_B, data);
    80000a76:	fe842783          	lw	a5,-24(s0)
    80000a7a:	85be                	mv	a1,a5
    80000a7c:	100067b7          	lui	a5,0x10006
    80000a80:	00878513          	addi	a0,a5,8 # 10006008 <__heap_size+0xffe6008>
    80000a84:	fbaff0ef          	jal	8000023e <reg_write32>
  reg_write32(KLEIN_TRIGGER, 0x00000101);
    80000a88:	10100593          	li	a1,257
    80000a8c:	10006537          	lui	a0,0x10006
    80000a90:	faeff0ef          	jal	8000023e <reg_write32>
  reg_write32(KLEIN_TRIGGER, 0x00000000);
    80000a94:	4581                	li	a1,0
    80000a96:	10006537          	lui	a0,0x10006
    80000a9a:	fa4ff0ef          	jal	8000023e <reg_write32>
}
    80000a9e:	0001                	nop
    80000aa0:	60e2                	ld	ra,24(sp)
    80000aa2:	6442                	ld	s0,16(sp)
    80000aa4:	6105                	addi	sp,sp,32
    80000aa6:	8082                	ret

0000000080000aa8 <klein_read_to_address>:

uint32_t klein_read_to_address(uint32_t address)
{
    80000aa8:	7179                	addi	sp,sp,-48
    80000aaa:	f406                	sd	ra,40(sp)
    80000aac:	f022                	sd	s0,32(sp)
    80000aae:	1800                	addi	s0,sp,48
    80000ab0:	87aa                	mv	a5,a0
    80000ab2:	fcf42e23          	sw	a5,-36(s0)
  reg_write32(KLEIN_DATA_A, address);
    80000ab6:	fdc42783          	lw	a5,-36(s0)
    80000aba:	85be                	mv	a1,a5
    80000abc:	100067b7          	lui	a5,0x10006
    80000ac0:	00478513          	addi	a0,a5,4 # 10006004 <__heap_size+0xffe6004>
    80000ac4:	f7aff0ef          	jal	8000023e <reg_write32>
  reg_write32(KLEIN_DATA_B, 0);
    80000ac8:	4581                	li	a1,0
    80000aca:	100067b7          	lui	a5,0x10006
    80000ace:	00878513          	addi	a0,a5,8 # 10006008 <__heap_size+0xffe6008>
    80000ad2:	f6cff0ef          	jal	8000023e <reg_write32>
  reg_write32(KLEIN_TRIGGER, 0x00000001);
    80000ad6:	4585                	li	a1,1
    80000ad8:	10006537          	lui	a0,0x10006
    80000adc:	f62ff0ef          	jal	8000023e <reg_write32>
  uint32_t temp = reg_read32(KLEIN_DATA_C);
    80000ae0:	100067b7          	lui	a5,0x10006
    80000ae4:	00c78513          	addi	a0,a5,12 # 1000600c <__heap_size+0xffe600c>
    80000ae8:	f80ff0ef          	jal	80000268 <reg_read32>
    80000aec:	87aa                	mv	a5,a0
    80000aee:	fef42623          	sw	a5,-20(s0)
  reg_write32(KLEIN_TRIGGER, 0x00000000);
    80000af2:	4581                	li	a1,0
    80000af4:	10006537          	lui	a0,0x10006
    80000af8:	f46ff0ef          	jal	8000023e <reg_write32>
  return temp;
    80000afc:	fec42783          	lw	a5,-20(s0)
}
    80000b00:	853e                	mv	a0,a5
    80000b02:	70a2                	ld	ra,40(sp)
    80000b04:	7402                	ld	s0,32(sp)
    80000b06:	6145                	addi	sp,sp,48
    80000b08:	8082                	ret

0000000080000b0a <klein_test>:

void klein_test(void)
{
    80000b0a:	1101                	addi	sp,sp,-32
    80000b0c:	ec06                	sd	ra,24(sp)
    80000b0e:	e822                	sd	s0,16(sp)
    80000b10:	1000                	addi	s0,sp,32
  // reset
  reg_write32(KLEIN_TRIGGER, 0x00010000);
    80000b12:	65c1                	lui	a1,0x10
    80000b14:	10006537          	lui	a0,0x10006
    80000b18:	f26ff0ef          	jal	8000023e <reg_write32>
  reg_write32(KLEIN_TRIGGER, 0x00000000);
    80000b1c:	4581                	li	a1,0
    80000b1e:	10006537          	lui	a0,0x10006
    80000b22:	f1cff0ef          	jal	8000023e <reg_write32>
  // cipher
  klein_write_to_address(KLEIN_ADDR_BLOCK0, 0xdeadbeef); // inp
    80000b26:	deadc7b7          	lui	a5,0xdeadc
    80000b2a:	eef78593          	addi	a1,a5,-273 # ffffffffdeadbeef <__heap_end+0xffffffff5eab8eef>
    80000b2e:	02000513          	li	a0,32
    80000b32:	f1dff0ef          	jal	80000a4e <klein_write_to_address>
  klein_write_to_address(KLEIN_ADDR_BLOCK1, 0xf000000f);
    80000b36:	f00007b7          	lui	a5,0xf0000
    80000b3a:	00f78593          	addi	a1,a5,15 # fffffffff000000f <__heap_end+0xffffffff6ffdd00f>
    80000b3e:	02100513          	li	a0,33
    80000b42:	f0dff0ef          	jal	80000a4e <klein_write_to_address>
  klein_write_to_address(KLEIN_ADDR_KEY0, 0x12345678); // key
    80000b46:	123457b7          	lui	a5,0x12345
    80000b4a:	67878593          	addi	a1,a5,1656 # 12345678 <__heap_size+0x12325678>
    80000b4e:	4541                	li	a0,16
    80000b50:	effff0ef          	jal	80000a4e <klein_write_to_address>
  klein_write_to_address(KLEIN_ADDR_KEY1, 0x90abcdef);
    80000b54:	90abd7b7          	lui	a5,0x90abd
    80000b58:	def78593          	addi	a1,a5,-529 # ffffffff90abcdef <__heap_end+0xffffffff10a99def>
    80000b5c:	4545                	li	a0,17
    80000b5e:	ef1ff0ef          	jal	80000a4e <klein_write_to_address>

  klein_write_to_address(KLEIN_ADDR_CONF, 0x01);
    80000b62:	4585                	li	a1,1
    80000b64:	4505                	li	a0,1
    80000b66:	ee9ff0ef          	jal	80000a4e <klein_write_to_address>
  klein_write_to_address(KLEIN_ADDR_CTRL, 0x02);
    80000b6a:	4589                	li	a1,2
    80000b6c:	4501                	li	a0,0
    80000b6e:	ee1ff0ef          	jal	80000a4e <klein_write_to_address>

  while(!(klein_read_to_address(KLEIN_ADDR_STATUS) == 0x03));
    80000b72:	0001                	nop
    80000b74:	4509                	li	a0,2
    80000b76:	f33ff0ef          	jal	80000aa8 <klein_read_to_address>
    80000b7a:	87aa                	mv	a5,a0
    80000b7c:	2781                	sext.w	a5,a5
    80000b7e:	873e                	mv	a4,a5
    80000b80:	478d                	li	a5,3
    80000b82:	fef719e3          	bne	a4,a5,80000b74 <klein_test+0x6a>

  uint32_t block_1, block_2;
  block_1 = klein_read_to_address(KLEIN_ADDR_RESULT0);
    80000b86:	03000513          	li	a0,48
    80000b8a:	f1fff0ef          	jal	80000aa8 <klein_read_to_address>
    80000b8e:	87aa                	mv	a5,a0
    80000b90:	fef42623          	sw	a5,-20(s0)
  block_2 = klein_read_to_address(KLEIN_ADDR_RESULT1);
    80000b94:	03100513          	li	a0,49
    80000b98:	f11ff0ef          	jal	80000aa8 <klein_read_to_address>
    80000b9c:	87aa                	mv	a5,a0
    80000b9e:	fef42423          	sw	a5,-24(s0)

  kprintf("\r# KLEIN-64 - Cipher and Decipher ====================================\r\n");
    80000ba2:	00002517          	auipc	a0,0x2
    80000ba6:	a4e50513          	addi	a0,a0,-1458 # 800025f0 <__tbss_end+0x324>
    80000baa:	7da000ef          	jal	80001384 <kprintf>
  kprintf("\rBlock:    deadbeeff000000f\r\n");
    80000bae:	00002517          	auipc	a0,0x2
    80000bb2:	a9250513          	addi	a0,a0,-1390 # 80002640 <__tbss_end+0x374>
    80000bb6:	7ce000ef          	jal	80001384 <kprintf>
  kprintf("\rKey:      1234567890abcdef\r\n");
    80000bba:	00002517          	auipc	a0,0x2
    80000bbe:	aa650513          	addi	a0,a0,-1370 # 80002660 <__tbss_end+0x394>
    80000bc2:	7c2000ef          	jal	80001384 <kprintf>
  kprintf("\rCipher:   %w%w\r\n", block_1, block_2);
    80000bc6:	fe842703          	lw	a4,-24(s0)
    80000bca:	fec42783          	lw	a5,-20(s0)
    80000bce:	863a                	mv	a2,a4
    80000bd0:	85be                	mv	a1,a5
    80000bd2:	00002517          	auipc	a0,0x2
    80000bd6:	aae50513          	addi	a0,a0,-1362 # 80002680 <__tbss_end+0x3b4>
    80000bda:	7aa000ef          	jal	80001384 <kprintf>

  // decipher
  klein_write_to_address(KLEIN_ADDR_BLOCK0, block_1); // inp
    80000bde:	fec42783          	lw	a5,-20(s0)
    80000be2:	85be                	mv	a1,a5
    80000be4:	02000513          	li	a0,32
    80000be8:	e67ff0ef          	jal	80000a4e <klein_write_to_address>
  klein_write_to_address(KLEIN_ADDR_BLOCK1, block_2);
    80000bec:	fe842783          	lw	a5,-24(s0)
    80000bf0:	85be                	mv	a1,a5
    80000bf2:	02100513          	li	a0,33
    80000bf6:	e59ff0ef          	jal	80000a4e <klein_write_to_address>
  klein_write_to_address(KLEIN_ADDR_KEY0, 0x12345678); // key
    80000bfa:	123457b7          	lui	a5,0x12345
    80000bfe:	67878593          	addi	a1,a5,1656 # 12345678 <__heap_size+0x12325678>
    80000c02:	4541                	li	a0,16
    80000c04:	e4bff0ef          	jal	80000a4e <klein_write_to_address>
  klein_write_to_address(KLEIN_ADDR_KEY1, 0x90abcdef);
    80000c08:	90abd7b7          	lui	a5,0x90abd
    80000c0c:	def78593          	addi	a1,a5,-529 # ffffffff90abcdef <__heap_end+0xffffffff10a99def>
    80000c10:	4545                	li	a0,17
    80000c12:	e3dff0ef          	jal	80000a4e <klein_write_to_address>

  klein_write_to_address(KLEIN_ADDR_CONF, 0x00);
    80000c16:	4581                	li	a1,0
    80000c18:	4505                	li	a0,1
    80000c1a:	e35ff0ef          	jal	80000a4e <klein_write_to_address>
  klein_write_to_address(KLEIN_ADDR_CTRL, 0x01);
    80000c1e:	4585                	li	a1,1
    80000c20:	4501                	li	a0,0
    80000c22:	e2dff0ef          	jal	80000a4e <klein_write_to_address>

  while(!(klein_read_to_address(KLEIN_ADDR_STATUS) == 0x01));
    80000c26:	0001                	nop
    80000c28:	4509                	li	a0,2
    80000c2a:	e7fff0ef          	jal	80000aa8 <klein_read_to_address>
    80000c2e:	87aa                	mv	a5,a0
    80000c30:	2781                	sext.w	a5,a5
    80000c32:	873e                	mv	a4,a5
    80000c34:	4785                	li	a5,1
    80000c36:	fef719e3          	bne	a4,a5,80000c28 <klein_test+0x11e>
  klein_write_to_address(KLEIN_ADDR_CTRL, 0x02);
    80000c3a:	4589                	li	a1,2
    80000c3c:	4501                	li	a0,0
    80000c3e:	e11ff0ef          	jal	80000a4e <klein_write_to_address>
  while(!(klein_read_to_address(KLEIN_ADDR_STATUS) == 0x03));
    80000c42:	0001                	nop
    80000c44:	4509                	li	a0,2
    80000c46:	e63ff0ef          	jal	80000aa8 <klein_read_to_address>
    80000c4a:	87aa                	mv	a5,a0
    80000c4c:	2781                	sext.w	a5,a5
    80000c4e:	873e                	mv	a4,a5
    80000c50:	478d                	li	a5,3
    80000c52:	fef719e3          	bne	a4,a5,80000c44 <klein_test+0x13a>

  block_1 = klein_read_to_address(KLEIN_ADDR_RESULT0);
    80000c56:	03000513          	li	a0,48
    80000c5a:	e4fff0ef          	jal	80000aa8 <klein_read_to_address>
    80000c5e:	87aa                	mv	a5,a0
    80000c60:	fef42623          	sw	a5,-20(s0)
  block_2 = klein_read_to_address(KLEIN_ADDR_RESULT1);
    80000c64:	03100513          	li	a0,49
    80000c68:	e41ff0ef          	jal	80000aa8 <klein_read_to_address>
    80000c6c:	87aa                	mv	a5,a0
    80000c6e:	fef42423          	sw	a5,-24(s0)

  kprintf("\rDecipher: %w%w\r\n\r\n", block_1, block_2);
    80000c72:	fe842703          	lw	a4,-24(s0)
    80000c76:	fec42783          	lw	a5,-20(s0)
    80000c7a:	863a                	mv	a2,a4
    80000c7c:	85be                	mv	a1,a5
    80000c7e:	00002517          	auipc	a0,0x2
    80000c82:	a1a50513          	addi	a0,a0,-1510 # 80002698 <__tbss_end+0x3cc>
    80000c86:	6fe000ef          	jal	80001384 <kprintf>
}
    80000c8a:	0001                	nop
    80000c8c:	60e2                	ld	ra,24(sp)
    80000c8e:	6442                	ld	s0,16(sp)
    80000c90:	6105                	addi	sp,sp,32
    80000c92:	8082                	ret

0000000080000c94 <klein_test_encryption_elapsed>:

void klein_test_encryption_elapsed() {
    80000c94:	7179                	addi	sp,sp,-48
    80000c96:	f406                	sd	ra,40(sp)
    80000c98:	f022                	sd	s0,32(sp)
    80000c9a:	1800                	addi	s0,sp,48
    // Reset the KLEIN cipher
    reg_write32(KLEIN_TRIGGER, 0x00010000);
    80000c9c:	65c1                	lui	a1,0x10
    80000c9e:	10006537          	lui	a0,0x10006
    80000ca2:	d9cff0ef          	jal	8000023e <reg_write32>
    reg_write32(KLEIN_TRIGGER, 0x00000000);
    80000ca6:	4581                	li	a1,0
    80000ca8:	10006537          	lui	a0,0x10006
    80000cac:	d92ff0ef          	jal	8000023e <reg_write32>

    // Set input data (plaintext)
    klein_write_to_address(KLEIN_ADDR_BLOCK0, 0xdeadbeef);
    80000cb0:	deadc7b7          	lui	a5,0xdeadc
    80000cb4:	eef78593          	addi	a1,a5,-273 # ffffffffdeadbeef <__heap_end+0xffffffff5eab8eef>
    80000cb8:	02000513          	li	a0,32
    80000cbc:	d93ff0ef          	jal	80000a4e <klein_write_to_address>
    klein_write_to_address(KLEIN_ADDR_BLOCK1, 0xf000000f);
    80000cc0:	f00007b7          	lui	a5,0xf0000
    80000cc4:	00f78593          	addi	a1,a5,15 # fffffffff000000f <__heap_end+0xffffffff6ffdd00f>
    80000cc8:	02100513          	li	a0,33
    80000ccc:	d83ff0ef          	jal	80000a4e <klein_write_to_address>

    // Set encryption key
    klein_write_to_address(KLEIN_ADDR_KEY0, 0x12345678);
    80000cd0:	123457b7          	lui	a5,0x12345
    80000cd4:	67878593          	addi	a1,a5,1656 # 12345678 <__heap_size+0x12325678>
    80000cd8:	4541                	li	a0,16
    80000cda:	d75ff0ef          	jal	80000a4e <klein_write_to_address>
    klein_write_to_address(KLEIN_ADDR_KEY1, 0x90abcdef);
    80000cde:	90abd7b7          	lui	a5,0x90abd
    80000ce2:	def78593          	addi	a1,a5,-529 # ffffffff90abcdef <__heap_end+0xffffffff10a99def>
    80000ce6:	4545                	li	a0,17
    80000ce8:	d67ff0ef          	jal	80000a4e <klein_write_to_address>

    // Configure and start encryption
    klein_write_to_address(KLEIN_ADDR_CONF, 0x01);
    80000cec:	4585                	li	a1,1
    80000cee:	4505                	li	a0,1
    80000cf0:	d5fff0ef          	jal	80000a4e <klein_write_to_address>

    // Start measuring time
    klein_write_to_address(KLEIN_ADDR_CTRL, 0x02);
    80000cf4:	4589                	li	a1,2
    80000cf6:	4501                	li	a0,0
    80000cf8:	d57ff0ef          	jal	80000a4e <klein_write_to_address>
    unsigned long _encryption_cycles = -read_csr(mcycle);
    80000cfc:	b00027f3          	csrr	a5,mcycle
    80000d00:	fef43423          	sd	a5,-24(s0)
    80000d04:	fe843783          	ld	a5,-24(s0)
    80000d08:	40f007b3          	neg	a5,a5
    80000d0c:	fef43023          	sd	a5,-32(s0)

    // Wait for encryption to complete
    while (!(klein_read_to_address(KLEIN_ADDR_STATUS) == 0x03));
    80000d10:	0001                	nop
    80000d12:	4509                	li	a0,2
    80000d14:	d95ff0ef          	jal	80000aa8 <klein_read_to_address>
    80000d18:	87aa                	mv	a5,a0
    80000d1a:	2781                	sext.w	a5,a5
    80000d1c:	873e                	mv	a4,a5
    80000d1e:	478d                	li	a5,3
    80000d20:	fef719e3          	bne	a4,a5,80000d12 <klein_test_encryption_elapsed+0x7e>

    // Stop the timer and get elapsed cycles
    _encryption_cycles += read_csr(mcycle);
    80000d24:	b00027f3          	csrr	a5,mcycle
    80000d28:	fcf43c23          	sd	a5,-40(s0)
    80000d2c:	fd843783          	ld	a5,-40(s0)
    80000d30:	fe043703          	ld	a4,-32(s0)
    80000d34:	97ba                	add	a5,a5,a4
    80000d36:	fef43023          	sd	a5,-32(s0)
//    cipher_1 = klein_read_to_address(KLEIN_ADDR_RESULT0);
//    cipher_2 = klein_read_to_address(KLEIN_ADDR_RESULT1);

    // Print results
//    kprintf("\r\n# ELAPSED - KLEIN-64 Cipher Encryption ======================\r\n");
    kprintf("Executed cycles for encryption: %d\r\n", _encryption_cycles);
    80000d3a:	fe043583          	ld	a1,-32(s0)
    80000d3e:	00002517          	auipc	a0,0x2
    80000d42:	97250513          	addi	a0,a0,-1678 # 800026b0 <__tbss_end+0x3e4>
    80000d46:	63e000ef          	jal	80001384 <kprintf>
//    kprintf("Cipher text:    %w%w\r\n", cipher_1, cipher_2);
}
    80000d4a:	0001                	nop
    80000d4c:	70a2                	ld	ra,40(sp)
    80000d4e:	7402                	ld	s0,32(sp)
    80000d50:	6145                	addi	sp,sp,48
    80000d52:	8082                	ret

0000000080000d54 <klein_test_decryption_elapsed>:

void klein_test_decryption_elapsed() {
    80000d54:	7179                	addi	sp,sp,-48
    80000d56:	f406                	sd	ra,40(sp)
    80000d58:	f022                	sd	s0,32(sp)
    80000d5a:	1800                	addi	s0,sp,48
    // Reset the KLEIN cipher
    reg_write32(KLEIN_TRIGGER, 0x00010000);
    80000d5c:	65c1                	lui	a1,0x10
    80000d5e:	10006537          	lui	a0,0x10006
    80000d62:	cdcff0ef          	jal	8000023e <reg_write32>
    reg_write32(KLEIN_TRIGGER, 0x00000000);
    80000d66:	4581                	li	a1,0
    80000d68:	10006537          	lui	a0,0x10006
    80000d6c:	cd2ff0ef          	jal	8000023e <reg_write32>

    // Set input data (ciphertext from previous encryption)
    uint32_t block_1 = 0x5a14d676; // Example ciphertext
    80000d70:	5a14d7b7          	lui	a5,0x5a14d
    80000d74:	67678793          	addi	a5,a5,1654 # 5a14d676 <__heap_size+0x5a12d676>
    80000d78:	fef42623          	sw	a5,-20(s0)
    uint32_t block_2 = 0x98fa7e4c;
    80000d7c:	98fa87b7          	lui	a5,0x98fa8
    80000d80:	e4c78793          	addi	a5,a5,-436 # ffffffff98fa7e4c <__heap_end+0xffffffff18f84e4c>
    80000d84:	fef42423          	sw	a5,-24(s0)

    klein_write_to_address(KLEIN_ADDR_BLOCK0, block_1);
    80000d88:	fec42783          	lw	a5,-20(s0)
    80000d8c:	85be                	mv	a1,a5
    80000d8e:	02000513          	li	a0,32
    80000d92:	cbdff0ef          	jal	80000a4e <klein_write_to_address>
    klein_write_to_address(KLEIN_ADDR_BLOCK1, block_2);
    80000d96:	fe842783          	lw	a5,-24(s0)
    80000d9a:	85be                	mv	a1,a5
    80000d9c:	02100513          	li	a0,33
    80000da0:	cafff0ef          	jal	80000a4e <klein_write_to_address>

    // Set the same encryption key for decryption
    klein_write_to_address(KLEIN_ADDR_KEY0, 0x12345678);
    80000da4:	123457b7          	lui	a5,0x12345
    80000da8:	67878593          	addi	a1,a5,1656 # 12345678 <__heap_size+0x12325678>
    80000dac:	4541                	li	a0,16
    80000dae:	ca1ff0ef          	jal	80000a4e <klein_write_to_address>
    klein_write_to_address(KLEIN_ADDR_KEY1, 0x90abcdef);
    80000db2:	90abd7b7          	lui	a5,0x90abd
    80000db6:	def78593          	addi	a1,a5,-529 # ffffffff90abcdef <__heap_end+0xffffffff10a99def>
    80000dba:	4545                	li	a0,17
    80000dbc:	c93ff0ef          	jal	80000a4e <klein_write_to_address>

    // Configure for decryption mode
    klein_write_to_address(KLEIN_ADDR_CONF, 0x00);
    80000dc0:	4581                	li	a1,0
    80000dc2:	4505                	li	a0,1
    80000dc4:	c8bff0ef          	jal	80000a4e <klein_write_to_address>

    // Start measuring time
    klein_write_to_address(KLEIN_ADDR_CTRL, 0x01);
    80000dc8:	4585                	li	a1,1
    80000dca:	4501                	li	a0,0
    80000dcc:	c83ff0ef          	jal	80000a4e <klein_write_to_address>
    unsigned long _decryption_cycles = -read_csr(mcycle);
    80000dd0:	b00027f3          	csrr	a5,mcycle
    80000dd4:	fef43023          	sd	a5,-32(s0)
    80000dd8:	fe043783          	ld	a5,-32(s0)
    80000ddc:	40f007b3          	neg	a5,a5
    80000de0:	fcf43c23          	sd	a5,-40(s0)

    // Wait for keyschedule ready
    while (!(klein_read_to_address(KLEIN_ADDR_STATUS) == 0x01));
    80000de4:	0001                	nop
    80000de6:	4509                	li	a0,2
    80000de8:	cc1ff0ef          	jal	80000aa8 <klein_read_to_address>
    80000dec:	87aa                	mv	a5,a0
    80000dee:	2781                	sext.w	a5,a5
    80000df0:	873e                	mv	a4,a5
    80000df2:	4785                	li	a5,1
    80000df4:	fef719e3          	bne	a4,a5,80000de6 <klein_test_decryption_elapsed+0x92>

    // Trigger decryption
    klein_write_to_address(KLEIN_ADDR_CTRL, 0x02);
    80000df8:	4589                	li	a1,2
    80000dfa:	4501                	li	a0,0
    80000dfc:	c53ff0ef          	jal	80000a4e <klein_write_to_address>

    // Wait for decryption to complete
    while (!(klein_read_to_address(KLEIN_ADDR_STATUS) == 0x03));
    80000e00:	0001                	nop
    80000e02:	4509                	li	a0,2
    80000e04:	ca5ff0ef          	jal	80000aa8 <klein_read_to_address>
    80000e08:	87aa                	mv	a5,a0
    80000e0a:	2781                	sext.w	a5,a5
    80000e0c:	873e                	mv	a4,a5
    80000e0e:	478d                	li	a5,3
    80000e10:	fef719e3          	bne	a4,a5,80000e02 <klein_test_decryption_elapsed+0xae>

    // Stop the timer and get elapsed cycles
    _decryption_cycles += read_csr(mcycle);
    80000e14:	b00027f3          	csrr	a5,mcycle
    80000e18:	fcf43823          	sd	a5,-48(s0)
    80000e1c:	fd043783          	ld	a5,-48(s0)
    80000e20:	fd843703          	ld	a4,-40(s0)
    80000e24:	97ba                	add	a5,a5,a4
    80000e26:	fcf43c23          	sd	a5,-40(s0)
//    decipher_1 = klein_read_to_address(KLEIN_ADDR_RESULT0);
//    decipher_2 = klein_read_to_address(KLEIN_ADDR_RESULT1);

    // Print results
//    kprintf("\r\n# ELAPSED - KLEIN-64 Cipher Decryption ======================\r\n");
    kprintf("Executed cycles for decryption: %d\r\n", _decryption_cycles);
    80000e2a:	fd843583          	ld	a1,-40(s0)
    80000e2e:	00002517          	auipc	a0,0x2
    80000e32:	8aa50513          	addi	a0,a0,-1878 # 800026d8 <__tbss_end+0x40c>
    80000e36:	54e000ef          	jal	80001384 <kprintf>
//    kprintf("Decipher text:  %w%w\r\n", decipher_1, decipher_2);
}
    80000e3a:	0001                	nop
    80000e3c:	70a2                	ld	ra,40(sp)
    80000e3e:	7402                	ld	s0,32(sp)
    80000e40:	6145                	addi	sp,sp,48
    80000e42:	8082                	ret

0000000080000e44 <sha3_soft_reset>:
#define SHA3_ADDR_IN_LAST		0x03
#define SHA3_ADDR_STATUS		0x0f

#define SHA3_ADDR_DIGEST_BASE		0x10

static void sha3_soft_reset() {
    80000e44:	1141                	addi	sp,sp,-16
    80000e46:	e406                	sd	ra,8(sp)
    80000e48:	e022                	sd	s0,0(sp)
    80000e4a:	0800                	addi	s0,sp,16
  reg_write32(SHA3_control, CTRL_SHA3_RESET);
    80000e4c:	4591                	li	a1,4
    80000e4e:	10008537          	lui	a0,0x10008
    80000e52:	becff0ef          	jal	8000023e <reg_write32>
  reg_write32(SHA3_control, CTRL_SHA3_IDLE);
    80000e56:	4581                	li	a1,0
    80000e58:	10008537          	lui	a0,0x10008
    80000e5c:	be2ff0ef          	jal	8000023e <reg_write32>
}
    80000e60:	0001                	nop
    80000e62:	60a2                	ld	ra,8(sp)
    80000e64:	6402                	ld	s0,0(sp)
    80000e66:	0141                	addi	sp,sp,16
    80000e68:	8082                	ret

0000000080000e6a <sha3_write_to_address>:

static void sha3_write_to_address(unsigned int address, unsigned int data) {
    80000e6a:	1101                	addi	sp,sp,-32
    80000e6c:	ec06                	sd	ra,24(sp)
    80000e6e:	e822                	sd	s0,16(sp)
    80000e70:	1000                	addi	s0,sp,32
    80000e72:	87aa                	mv	a5,a0
    80000e74:	872e                	mv	a4,a1
    80000e76:	fef42623          	sw	a5,-20(s0)
    80000e7a:	87ba                	mv	a5,a4
    80000e7c:	fef42423          	sw	a5,-24(s0)
    reg_write32(SHA3_addr,  address);
    80000e80:	fec42783          	lw	a5,-20(s0)
    80000e84:	85be                	mv	a1,a5
    80000e86:	100087b7          	lui	a5,0x10008
    80000e8a:	00478513          	addi	a0,a5,4 # 10008004 <__heap_size+0xffe8004>
    80000e8e:	bb0ff0ef          	jal	8000023e <reg_write32>
    reg_write32(SHA3_write, data);
    80000e92:	fe842783          	lw	a5,-24(s0)
    80000e96:	85be                	mv	a1,a5
    80000e98:	100087b7          	lui	a5,0x10008
    80000e9c:	00878513          	addi	a0,a5,8 # 10008008 <__heap_size+0xffe8008>
    80000ea0:	b9eff0ef          	jal	8000023e <reg_write32>
    reg_write32(SHA3_control, CTRL_SHA3_WRITE);
    80000ea4:	458d                	li	a1,3
    80000ea6:	10008537          	lui	a0,0x10008
    80000eaa:	b94ff0ef          	jal	8000023e <reg_write32>
    reg_write32(SHA3_control, CTRL_SHA3_IDLE);
    80000eae:	4581                	li	a1,0
    80000eb0:	10008537          	lui	a0,0x10008
    80000eb4:	b8aff0ef          	jal	8000023e <reg_write32>
}
    80000eb8:	0001                	nop
    80000eba:	60e2                	ld	ra,24(sp)
    80000ebc:	6442                	ld	s0,16(sp)
    80000ebe:	6105                	addi	sp,sp,32
    80000ec0:	8082                	ret

0000000080000ec2 <sha3_read_from_address>:

static unsigned int sha3_read_from_address(unsigned int address) {
    80000ec2:	7179                	addi	sp,sp,-48
    80000ec4:	f406                	sd	ra,40(sp)
    80000ec6:	f022                	sd	s0,32(sp)
    80000ec8:	1800                	addi	s0,sp,48
    80000eca:	87aa                	mv	a5,a0
    80000ecc:	fcf42e23          	sw	a5,-36(s0)
    reg_write32(SHA3_addr,  address);
    80000ed0:	fdc42783          	lw	a5,-36(s0)
    80000ed4:	85be                	mv	a1,a5
    80000ed6:	100087b7          	lui	a5,0x10008
    80000eda:	00478513          	addi	a0,a5,4 # 10008004 <__heap_size+0xffe8004>
    80000ede:	b60ff0ef          	jal	8000023e <reg_write32>
    reg_write32(SHA3_write, 0x00);
    80000ee2:	4581                	li	a1,0
    80000ee4:	100087b7          	lui	a5,0x10008
    80000ee8:	00878513          	addi	a0,a5,8 # 10008008 <__heap_size+0xffe8008>
    80000eec:	b52ff0ef          	jal	8000023e <reg_write32>

    reg_write32(SHA3_control, CTRL_SHA3_READ);
    80000ef0:	4585                	li	a1,1
    80000ef2:	10008537          	lui	a0,0x10008
    80000ef6:	b48ff0ef          	jal	8000023e <reg_write32>
    unsigned int temp = reg_read32(SHA3_read);
    80000efa:	100087b7          	lui	a5,0x10008
    80000efe:	00c78513          	addi	a0,a5,12 # 1000800c <__heap_size+0xffe800c>
    80000f02:	b66ff0ef          	jal	80000268 <reg_read32>
    80000f06:	87aa                	mv	a5,a0
    80000f08:	fef42623          	sw	a5,-20(s0)
    reg_write32(SHA3_control, CTRL_SHA3_IDLE);
    80000f0c:	4581                	li	a1,0
    80000f0e:	10008537          	lui	a0,0x10008
    80000f12:	b2cff0ef          	jal	8000023e <reg_write32>
    return temp;
    80000f16:	fec42783          	lw	a5,-20(s0)
}
    80000f1a:	853e                	mv	a0,a5
    80000f1c:	70a2                	ld	ra,40(sp)
    80000f1e:	7402                	ld	s0,32(sp)
    80000f20:	6145                	addi	sp,sp,48
    80000f22:	8082                	ret

0000000080000f24 <sha3_512_hash>:


static void sha3_512_hash(unsigned int *message, unsigned int msg_len_word, unsigned int last_byte_num, unsigned int *digest) {
    80000f24:	715d                	addi	sp,sp,-80
    80000f26:	e486                	sd	ra,72(sp)
    80000f28:	e0a2                	sd	s0,64(sp)
    80000f2a:	fc26                	sd	s1,56(sp)
    80000f2c:	0880                	addi	s0,sp,80
    80000f2e:	fca43423          	sd	a0,-56(s0)
    80000f32:	87ae                	mv	a5,a1
    80000f34:	8732                	mv	a4,a2
    80000f36:	fad43c23          	sd	a3,-72(s0)
    80000f3a:	fcf42223          	sw	a5,-60(s0)
    80000f3e:	87ba                	mv	a5,a4
    80000f40:	fcf42023          	sw	a5,-64(s0)
	sha3_write_to_address(SHA3_ADDR_RESET, 0x00);
    80000f44:	4581                	li	a1,0
    80000f46:	4501                	li	a0,0
    80000f48:	f23ff0ef          	jal	80000e6a <sha3_write_to_address>

	unsigned char i = 0;
    80000f4c:	fc040fa3          	sb	zero,-33(s0)
	for(i = 0; i < (msg_len_word - 1); i++)
    80000f50:	fc040fa3          	sb	zero,-33(s0)
    80000f54:	a00d                	j	80000f76 <sha3_512_hash+0x52>
		sha3_write_to_address(SHA3_ADDR_IN, message[i]);
    80000f56:	fdf44783          	lbu	a5,-33(s0)
    80000f5a:	078a                	slli	a5,a5,0x2
    80000f5c:	fc843703          	ld	a4,-56(s0)
    80000f60:	97ba                	add	a5,a5,a4
    80000f62:	439c                	lw	a5,0(a5)
    80000f64:	85be                	mv	a1,a5
    80000f66:	4505                	li	a0,1
    80000f68:	f03ff0ef          	jal	80000e6a <sha3_write_to_address>
	for(i = 0; i < (msg_len_word - 1); i++)
    80000f6c:	fdf44783          	lbu	a5,-33(s0)
    80000f70:	2785                	addiw	a5,a5,1
    80000f72:	fcf40fa3          	sb	a5,-33(s0)
    80000f76:	fdf44783          	lbu	a5,-33(s0)
    80000f7a:	0007871b          	sext.w	a4,a5
    80000f7e:	fc442783          	lw	a5,-60(s0)
    80000f82:	37fd                	addiw	a5,a5,-1
    80000f84:	2781                	sext.w	a5,a5
    80000f86:	fcf768e3          	bltu	a4,a5,80000f56 <sha3_512_hash+0x32>

	sha3_write_to_address(SHA3_ADDR_BYTE_NUM, last_byte_num);
    80000f8a:	fc042783          	lw	a5,-64(s0)
    80000f8e:	85be                	mv	a1,a5
    80000f90:	4509                	li	a0,2
    80000f92:	ed9ff0ef          	jal	80000e6a <sha3_write_to_address>
	sha3_write_to_address(SHA3_ADDR_IN_LAST, message[msg_len_word - 1]);
    80000f96:	fc442783          	lw	a5,-60(s0)
    80000f9a:	37fd                	addiw	a5,a5,-1
    80000f9c:	2781                	sext.w	a5,a5
    80000f9e:	1782                	slli	a5,a5,0x20
    80000fa0:	9381                	srli	a5,a5,0x20
    80000fa2:	078a                	slli	a5,a5,0x2
    80000fa4:	fc843703          	ld	a4,-56(s0)
    80000fa8:	97ba                	add	a5,a5,a4
    80000faa:	439c                	lw	a5,0(a5)
    80000fac:	85be                	mv	a1,a5
    80000fae:	450d                	li	a0,3
    80000fb0:	ebbff0ef          	jal	80000e6a <sha3_write_to_address>

	while(sha3_read_from_address(SHA3_ADDR_STATUS) == 0);
    80000fb4:	0001                	nop
    80000fb6:	453d                	li	a0,15
    80000fb8:	f0bff0ef          	jal	80000ec2 <sha3_read_from_address>
    80000fbc:	87aa                	mv	a5,a0
    80000fbe:	2781                	sext.w	a5,a5
    80000fc0:	dbfd                	beqz	a5,80000fb6 <sha3_512_hash+0x92>
//  kprintf("STATUS: %w\r\n", sha3_read_from_address(SHA3_ADDR_STATUS));

	for(i = 0; i < 16; i++)
    80000fc2:	fc040fa3          	sb	zero,-33(s0)
    80000fc6:	a815                	j	80000ffa <sha3_512_hash+0xd6>
		digest[i] = sha3_read_from_address(SHA3_ADDR_DIGEST_BASE + i);
    80000fc8:	fdf44783          	lbu	a5,-33(s0)
    80000fcc:	2781                	sext.w	a5,a5
    80000fce:	27c1                	addiw	a5,a5,16
    80000fd0:	2781                	sext.w	a5,a5
    80000fd2:	0007869b          	sext.w	a3,a5
    80000fd6:	fdf44783          	lbu	a5,-33(s0)
    80000fda:	078a                	slli	a5,a5,0x2
    80000fdc:	fb843703          	ld	a4,-72(s0)
    80000fe0:	00f704b3          	add	s1,a4,a5
    80000fe4:	8536                	mv	a0,a3
    80000fe6:	eddff0ef          	jal	80000ec2 <sha3_read_from_address>
    80000fea:	87aa                	mv	a5,a0
    80000fec:	2781                	sext.w	a5,a5
    80000fee:	c09c                	sw	a5,0(s1)
	for(i = 0; i < 16; i++)
    80000ff0:	fdf44783          	lbu	a5,-33(s0)
    80000ff4:	2785                	addiw	a5,a5,1
    80000ff6:	fcf40fa3          	sb	a5,-33(s0)
    80000ffa:	fdf44783          	lbu	a5,-33(s0)
    80000ffe:	0ff7f713          	zext.b	a4,a5
    80001002:	47bd                	li	a5,15
    80001004:	fce7f2e3          	bgeu	a5,a4,80000fc8 <sha3_512_hash+0xa4>

}
    80001008:	0001                	nop
    8000100a:	0001                	nop
    8000100c:	60a6                	ld	ra,72(sp)
    8000100e:	6406                	ld	s0,64(sp)
    80001010:	74e2                	ld	s1,56(sp)
    80001012:	6161                	addi	sp,sp,80
    80001014:	8082                	ret

0000000080001016 <sha3_test_cases>:


static void sha3_test_cases() {
    80001016:	7131                	addi	sp,sp,-192
    80001018:	fd06                	sd	ra,184(sp)
    8000101a:	f922                	sd	s0,176(sp)
    8000101c:	0180                	addi	s0,sp,192

	unsigned int message_1[11] = {
    8000101e:	00002797          	auipc	a5,0x2
    80001022:	8ea78793          	addi	a5,a5,-1814 # 80002908 <__tbss_end+0x63c>
    80001026:	6388                	ld	a0,0(a5)
    80001028:	678c                	ld	a1,8(a5)
    8000102a:	6b90                	ld	a2,16(a5)
    8000102c:	6f94                	ld	a3,24(a5)
    8000102e:	7398                	ld	a4,32(a5)
    80001030:	faa43c23          	sd	a0,-72(s0)
    80001034:	fcb43023          	sd	a1,-64(s0)
    80001038:	fcc43423          	sd	a2,-56(s0)
    8000103c:	fcd43823          	sd	a3,-48(s0)
    80001040:	fce43c23          	sd	a4,-40(s0)
    80001044:	579c                	lw	a5,40(a5)
    80001046:	fef42023          	sw	a5,-32(s0)
							0x54686520, 0x71756963, 0x6b206272, 0x6f776e20,
							0x666f7820, 0x6a756d70, 0x73206f76, 0x65722074,
							0x6865206c, 0x617a7920, 0x646f6700};

	unsigned int message_2[12] = {
    8000104a:	00002797          	auipc	a5,0x2
    8000104e:	8ee78793          	addi	a5,a5,-1810 # 80002938 <__tbss_end+0x66c>
    80001052:	6388                	ld	a0,0(a5)
    80001054:	678c                	ld	a1,8(a5)
    80001056:	6b90                	ld	a2,16(a5)
    80001058:	6f94                	ld	a3,24(a5)
    8000105a:	7398                	ld	a4,32(a5)
    8000105c:	779c                	ld	a5,40(a5)
    8000105e:	f8a43423          	sd	a0,-120(s0)
    80001062:	f8b43823          	sd	a1,-112(s0)
    80001066:	f8c43c23          	sd	a2,-104(s0)
    8000106a:	fad43023          	sd	a3,-96(s0)
    8000106e:	fae43423          	sd	a4,-88(s0)
    80001072:	faf43823          	sd	a5,-80(s0)

//	unsigned int message_4[5] = {
//							0x48434D55, 0x53204645, 0x54454C20, 0x4445534C,
//							0x41420000};

	unsigned int digest[16] = {
    80001076:	f4042423          	sw	zero,-184(s0)
    8000107a:	f4042623          	sw	zero,-180(s0)
    8000107e:	f4042823          	sw	zero,-176(s0)
    80001082:	f4042a23          	sw	zero,-172(s0)
    80001086:	f4042c23          	sw	zero,-168(s0)
    8000108a:	f4042e23          	sw	zero,-164(s0)
    8000108e:	f6042023          	sw	zero,-160(s0)
    80001092:	f6042223          	sw	zero,-156(s0)
    80001096:	f6042423          	sw	zero,-152(s0)
    8000109a:	f6042623          	sw	zero,-148(s0)
    8000109e:	f6042823          	sw	zero,-144(s0)
    800010a2:	f6042a23          	sw	zero,-140(s0)
    800010a6:	f6042c23          	sw	zero,-136(s0)
    800010aa:	f6042e23          	sw	zero,-132(s0)
    800010ae:	f8042023          	sw	zero,-128(s0)
    800010b2:	f8042223          	sw	zero,-124(s0)
//  kprintf("STATUS: %w\r\n", sha3_read_from_address(SHA3_ADDR_STATUS));

	// ============================= TEST 1 =============================
	// "The quick brown fox jumps over the lazy dog "
//	sha3_soft_reset();
	sha3_512_hash(message_1, 11, 3, digest);
    800010b6:	f4840713          	addi	a4,s0,-184
    800010ba:	fb840793          	addi	a5,s0,-72
    800010be:	86ba                	mv	a3,a4
    800010c0:	460d                	li	a2,3
    800010c2:	45ad                	li	a1,11
    800010c4:	853e                	mv	a0,a5
    800010c6:	e5fff0ef          	jal	80000f24 <sha3_512_hash>

	kprintf("# SHA3-512 ===============================================================\r\n");
    800010ca:	00001517          	auipc	a0,0x1
    800010ce:	63650513          	addi	a0,a0,1590 # 80002700 <__tbss_end+0x434>
    800010d2:	2b2000ef          	jal	80001384 <kprintf>
	kprintf("Message:  \"The quick brown fox jumps over the lazy dog \"\r\n");
    800010d6:	00001517          	auipc	a0,0x1
    800010da:	67a50513          	addi	a0,a0,1658 # 80002750 <__tbss_end+0x484>
    800010de:	2a6000ef          	jal	80001384 <kprintf>
	kprintf("Expected: 01dedd5de4ef14642445ba5f5b97c15e47b9ad931326e4b0727cd94cefc44fff23f07bf543139939b49128caf436dc1bdee54fcb24023a08d9403f9b4bf0d450\r\n");
    800010e2:	00001517          	auipc	a0,0x1
    800010e6:	6ae50513          	addi	a0,a0,1710 # 80002790 <__tbss_end+0x4c4>
    800010ea:	29a000ef          	jal	80001384 <kprintf>
	kprintf("Digest:   ");
    800010ee:	00001517          	auipc	a0,0x1
    800010f2:	73250513          	addi	a0,a0,1842 # 80002820 <__tbss_end+0x554>
    800010f6:	28e000ef          	jal	80001384 <kprintf>
	for(int i = 0; i < 16; i++)
    800010fa:	fe042623          	sw	zero,-20(s0)
    800010fe:	a025                	j	80001126 <sha3_test_cases+0x110>
		kprintf("%w", digest[i]);
    80001100:	fec42783          	lw	a5,-20(s0)
    80001104:	078a                	slli	a5,a5,0x2
    80001106:	17c1                	addi	a5,a5,-16
    80001108:	97a2                	add	a5,a5,s0
    8000110a:	f587a783          	lw	a5,-168(a5)
    8000110e:	85be                	mv	a1,a5
    80001110:	00001517          	auipc	a0,0x1
    80001114:	72050513          	addi	a0,a0,1824 # 80002830 <__tbss_end+0x564>
    80001118:	26c000ef          	jal	80001384 <kprintf>
	for(int i = 0; i < 16; i++)
    8000111c:	fec42783          	lw	a5,-20(s0)
    80001120:	2785                	addiw	a5,a5,1
    80001122:	fef42623          	sw	a5,-20(s0)
    80001126:	fec42783          	lw	a5,-20(s0)
    8000112a:	0007871b          	sext.w	a4,a5
    8000112e:	47bd                	li	a5,15
    80001130:	fce7d8e3          	bge	a5,a4,80001100 <sha3_test_cases+0xea>
  kprintf("\r\n\r\n");
    80001134:	00001517          	auipc	a0,0x1
    80001138:	22c50513          	addi	a0,a0,556 # 80002360 <__tbss_end+0x94>
    8000113c:	248000ef          	jal	80001384 <kprintf>


	// ============================= TEST 2 =============================
	// "The quick brown fox jumps over the lazy dog."
//	sha3_soft_reset();
	sha3_512_hash(message_2, 12, 0, digest);
    80001140:	f4840713          	addi	a4,s0,-184
    80001144:	f8840793          	addi	a5,s0,-120
    80001148:	86ba                	mv	a3,a4
    8000114a:	4601                	li	a2,0
    8000114c:	45b1                	li	a1,12
    8000114e:	853e                	mv	a0,a5
    80001150:	dd5ff0ef          	jal	80000f24 <sha3_512_hash>

	kprintf("# SHA3-512 ===============================================================\r\n");
    80001154:	00001517          	auipc	a0,0x1
    80001158:	5ac50513          	addi	a0,a0,1452 # 80002700 <__tbss_end+0x434>
    8000115c:	228000ef          	jal	80001384 <kprintf>
	kprintf("Message:  \"The quick brown fox jumps over the lazy dog.\"\r\n");
    80001160:	00001517          	auipc	a0,0x1
    80001164:	6d850513          	addi	a0,a0,1752 # 80002838 <__tbss_end+0x56c>
    80001168:	21c000ef          	jal	80001384 <kprintf>
	kprintf("Expected: 18f4f4bd419603f95538837003d9d254c26c23765565162247483f65c50303597bc9ce4d289f21d1c2f1f458828e33dc442100331b35e7eb031b5d38ba6460f8\r\n");
    8000116c:	00001517          	auipc	a0,0x1
    80001170:	70c50513          	addi	a0,a0,1804 # 80002878 <__tbss_end+0x5ac>
    80001174:	210000ef          	jal	80001384 <kprintf>
	kprintf("Digest:   ");
    80001178:	00001517          	auipc	a0,0x1
    8000117c:	6a850513          	addi	a0,a0,1704 # 80002820 <__tbss_end+0x554>
    80001180:	204000ef          	jal	80001384 <kprintf>
	for(int i = 0; i < 16; i++)
    80001184:	fe042423          	sw	zero,-24(s0)
    80001188:	a025                	j	800011b0 <sha3_test_cases+0x19a>
		kprintf("%w", digest[i]);
    8000118a:	fe842783          	lw	a5,-24(s0)
    8000118e:	078a                	slli	a5,a5,0x2
    80001190:	17c1                	addi	a5,a5,-16
    80001192:	97a2                	add	a5,a5,s0
    80001194:	f587a783          	lw	a5,-168(a5)
    80001198:	85be                	mv	a1,a5
    8000119a:	00001517          	auipc	a0,0x1
    8000119e:	69650513          	addi	a0,a0,1686 # 80002830 <__tbss_end+0x564>
    800011a2:	1e2000ef          	jal	80001384 <kprintf>
	for(int i = 0; i < 16; i++)
    800011a6:	fe842783          	lw	a5,-24(s0)
    800011aa:	2785                	addiw	a5,a5,1
    800011ac:	fef42423          	sw	a5,-24(s0)
    800011b0:	fe842783          	lw	a5,-24(s0)
    800011b4:	0007871b          	sext.w	a4,a5
    800011b8:	47bd                	li	a5,15
    800011ba:	fce7d8e3          	bge	a5,a4,8000118a <sha3_test_cases+0x174>


	kprintf("\r\n\r\n");
    800011be:	00001517          	auipc	a0,0x1
    800011c2:	1a250513          	addi	a0,a0,418 # 80002360 <__tbss_end+0x94>
    800011c6:	1be000ef          	jal	80001384 <kprintf>
}
    800011ca:	0001                	nop
    800011cc:	70ea                	ld	ra,184(sp)
    800011ce:	744a                	ld	s0,176(sp)
    800011d0:	6129                	addi	sp,sp,192
    800011d2:	8082                	ret

00000000800011d4 <sha3_test_elapsed>:

static void sha3_test_elapsed() {
    800011d4:	7119                	addi	sp,sp,-128
    800011d6:	fc86                	sd	ra,120(sp)
    800011d8:	f8a2                	sd	s0,112(sp)
    800011da:	0100                	addi	s0,sp,128
  unsigned int message_4[5] = {
    800011dc:	00001797          	auipc	a5,0x1
    800011e0:	7d478793          	addi	a5,a5,2004 # 800029b0 <__tbss_end+0x6e4>
    800011e4:	6398                	ld	a4,0(a5)
    800011e6:	fce43023          	sd	a4,-64(s0)
    800011ea:	6798                	ld	a4,8(a5)
    800011ec:	fce43423          	sd	a4,-56(s0)
    800011f0:	4b9c                	lw	a5,16(a5)
    800011f2:	fcf42823          	sw	a5,-48(s0)
              0x48434D55, 0x53204645, 0x54454C20, 0x4445534C,
              0x41420000};

  unsigned int digest[16] = {
    800011f6:	f8042023          	sw	zero,-128(s0)
    800011fa:	f8042223          	sw	zero,-124(s0)
    800011fe:	f8042423          	sw	zero,-120(s0)
    80001202:	f8042623          	sw	zero,-116(s0)
    80001206:	f8042823          	sw	zero,-112(s0)
    8000120a:	f8042a23          	sw	zero,-108(s0)
    8000120e:	f8042c23          	sw	zero,-104(s0)
    80001212:	f8042e23          	sw	zero,-100(s0)
    80001216:	fa042023          	sw	zero,-96(s0)
    8000121a:	fa042223          	sw	zero,-92(s0)
    8000121e:	fa042423          	sw	zero,-88(s0)
    80001222:	fa042623          	sw	zero,-84(s0)
    80001226:	fa042823          	sw	zero,-80(s0)
    8000122a:	fa042a23          	sw	zero,-76(s0)
    8000122e:	fa042c23          	sw	zero,-72(s0)
    80001232:	fa042e23          	sw	zero,-68(s0)
              0x00, 0x00, 0x00, 0x00,
              0x00, 0x00, 0x00, 0x00,
              0x00, 0x00, 0x00, 0x00,
              0x00, 0x00, 0x00, 0x00};

  unsigned long count_cycles = -read_csr(mcycle); // Start counter
    80001236:	b00027f3          	csrr	a5,mcycle
    8000123a:	fef43423          	sd	a5,-24(s0)
    8000123e:	fe843783          	ld	a5,-24(s0)
    80001242:	40f007b3          	neg	a5,a5
    80001246:	fef43023          	sd	a5,-32(s0)
  sha3_512_hash(message_4, 5, 2, digest);
    8000124a:	f8040713          	addi	a4,s0,-128
    8000124e:	fc040793          	addi	a5,s0,-64
    80001252:	86ba                	mv	a3,a4
    80001254:	4609                	li	a2,2
    80001256:	4595                	li	a1,5
    80001258:	853e                	mv	a0,a5
    8000125a:	ccbff0ef          	jal	80000f24 <sha3_512_hash>
  count_cycles += read_csr(mcycle);
    8000125e:	b00027f3          	csrr	a5,mcycle
    80001262:	fcf43c23          	sd	a5,-40(s0)
    80001266:	fd843783          	ld	a5,-40(s0)
    8000126a:	fe043703          	ld	a4,-32(s0)
    8000126e:	97ba                	add	a5,a5,a4
    80001270:	fef43023          	sd	a5,-32(s0)

  kprintf("# SHA3-512 - Cryptography Accelerator ===============================\r\n");
    80001274:	00001517          	auipc	a0,0x1
    80001278:	6f450513          	addi	a0,a0,1780 # 80002968 <__tbss_end+0x69c>
    8000127c:	108000ef          	jal	80001384 <kprintf>
  kprintf("Elapsed cycles: %d\r\n", count_cycles);
    80001280:	fe043583          	ld	a1,-32(s0)
    80001284:	00001517          	auipc	a0,0x1
    80001288:	35450513          	addi	a0,a0,852 # 800025d8 <__tbss_end+0x30c>
    8000128c:	0f8000ef          	jal	80001384 <kprintf>
}
    80001290:	0001                	nop
    80001292:	70e6                	ld	ra,120(sp)
    80001294:	7446                	ld	s0,112(sp)
    80001296:	6109                	addi	sp,sp,128
    80001298:	8082                	ret

000000008000129a <main>:
int main(int hartid, char **arv) {
    8000129a:	1101                	addi	sp,sp,-32
    8000129c:	ec06                	sd	ra,24(sp)
    8000129e:	e822                	sd	s0,16(sp)
    800012a0:	1000                	addi	s0,sp,32
    800012a2:	87aa                	mv	a5,a0
    800012a4:	feb43023          	sd	a1,-32(s0)
    800012a8:	fef42623          	sw	a5,-20(s0)
  if(hartid == 0)
    800012ac:	fec42783          	lw	a5,-20(s0)
    800012b0:	2781                	sext.w	a5,a5
    800012b2:	e799                	bnez	a5,800012c0 <main+0x26>
    kprintf("Hello world!\r\n");
    800012b4:	00001517          	auipc	a0,0x1
    800012b8:	71450513          	addi	a0,a0,1812 # 800029c8 <__tbss_end+0x6fc>
    800012bc:	0c8000ef          	jal	80001384 <kprintf>
  klein_test();
    800012c0:	84bff0ef          	jal	80000b0a <klein_test>
  chacha_test_cases();
    800012c4:	a6aff0ef          	jal	8000052e <chacha_test_cases>
  sha3_test_cases();
    800012c8:	d4fff0ef          	jal	80001016 <sha3_test_cases>
//  poly_test_rfc8439();

  return 0;
    800012cc:	4781                	li	a5,0
}
    800012ce:	853e                	mv	a0,a5
    800012d0:	60e2                	ld	ra,24(sp)
    800012d2:	6442                	ld	s0,16(sp)
    800012d4:	6105                	addi	sp,sp,32
    800012d6:	8082                	ret

00000000800012d8 <kputc>:
	_kputs(s);
	kputc('\r');
	kputc('\n');
}

void kprintf(const char *fmt, ...)
    800012d8:	7179                	addi	sp,sp,-48
    800012da:	f422                	sd	s0,40(sp)
    800012dc:	1800                	addi	s0,sp,48
    800012de:	87aa                	mv	a5,a0
    800012e0:	fcf40fa3          	sb	a5,-33(s0)
{
    800012e4:	640007b7          	lui	a5,0x64000
    800012e8:	fef43423          	sd	a5,-24(s0)
    va_list vl;
    bool is_format, is_long, is_char;
    char c;

    800012ec:	fe843703          	ld	a4,-24(s0)
    800012f0:	fdf44783          	lbu	a5,-33(s0)
    800012f4:	86be                	mv	a3,a5
    800012f6:	fe843783          	ld	a5,-24(s0)
    800012fa:	40d727af          	amoor.w	a5,a3,(a4)
    800012fe:	fef42223          	sw	a5,-28(s0)
    va_start(vl, fmt);
    is_format = false;
    is_long = false;
    is_char = false;
    80001302:	fe442783          	lw	a5,-28(s0)
    80001306:	2781                	sext.w	a5,a5
    80001308:	fe07c2e3          	bltz	a5,800012ec <kputc+0x14>

    while ((c = *fmt++) != '\0') {
        if (is_format) {
            switch (c) {
            case 'l':
    8000130c:	0001                	nop
    8000130e:	0001                	nop
    80001310:	7422                	ld	s0,40(sp)
    80001312:	6145                	addi	sp,sp,48
    80001314:	8082                	ret

0000000080001316 <_kputs>:
{
    80001316:	7179                	addi	sp,sp,-48
    80001318:	f406                	sd	ra,40(sp)
    8000131a:	f022                	sd	s0,32(sp)
    8000131c:	1800                	addi	s0,sp,48
    8000131e:	fca43c23          	sd	a0,-40(s0)
	for (; (c = *s) != '\0'; s++)
    80001322:	a819                	j	80001338 <_kputs+0x22>
		kputc(c);
    80001324:	fef44783          	lbu	a5,-17(s0)
    80001328:	853e                	mv	a0,a5
    8000132a:	fafff0ef          	jal	800012d8 <kputc>
	for (; (c = *s) != '\0'; s++)
    8000132e:	fd843783          	ld	a5,-40(s0)
    80001332:	0785                	addi	a5,a5,1 # 64000001 <__heap_size+0x63fe0001>
    80001334:	fcf43c23          	sd	a5,-40(s0)
    80001338:	fd843783          	ld	a5,-40(s0)
    8000133c:	0007c783          	lbu	a5,0(a5)
    80001340:	fef407a3          	sb	a5,-17(s0)
    80001344:	fef44783          	lbu	a5,-17(s0)
    80001348:	0ff7f793          	zext.b	a5,a5
    8000134c:	ffe1                	bnez	a5,80001324 <_kputs+0xe>
}
    8000134e:	0001                	nop
    80001350:	0001                	nop
    80001352:	70a2                	ld	ra,40(sp)
    80001354:	7402                	ld	s0,32(sp)
    80001356:	6145                	addi	sp,sp,48
    80001358:	8082                	ret

000000008000135a <kputs>:
{
    8000135a:	1101                	addi	sp,sp,-32
    8000135c:	ec06                	sd	ra,24(sp)
    8000135e:	e822                	sd	s0,16(sp)
    80001360:	1000                	addi	s0,sp,32
    80001362:	fea43423          	sd	a0,-24(s0)
	_kputs(s);
    80001366:	fe843503          	ld	a0,-24(s0)
    8000136a:	fadff0ef          	jal	80001316 <_kputs>
	kputc('\r');
    8000136e:	4535                	li	a0,13
    80001370:	f69ff0ef          	jal	800012d8 <kputc>
	kputc('\n');
    80001374:	4529                	li	a0,10
    80001376:	f63ff0ef          	jal	800012d8 <kputc>
}
    8000137a:	0001                	nop
    8000137c:	60e2                	ld	ra,24(sp)
    8000137e:	6442                	ld	s0,16(sp)
    80001380:	6105                	addi	sp,sp,32
    80001382:	8082                	ret

0000000080001384 <kprintf>:
{
    80001384:	7155                	addi	sp,sp,-208
    80001386:	e506                	sd	ra,136(sp)
    80001388:	e122                	sd	s0,128(sp)
    8000138a:	0900                	addi	s0,sp,144
    8000138c:	f6a43c23          	sd	a0,-136(s0)
    80001390:	e40c                	sd	a1,8(s0)
    80001392:	e810                	sd	a2,16(s0)
    80001394:	ec14                	sd	a3,24(s0)
    80001396:	f018                	sd	a4,32(s0)
    80001398:	f41c                	sd	a5,40(s0)
    8000139a:	03043823          	sd	a6,48(s0)
    8000139e:	03143c23          	sd	a7,56(s0)
    va_start(vl, fmt);
    800013a2:	04040793          	addi	a5,s0,64
    800013a6:	f6f43823          	sd	a5,-144(s0)
    800013aa:	f7043783          	ld	a5,-144(s0)
    800013ae:	fc878793          	addi	a5,a5,-56
    800013b2:	faf43423          	sd	a5,-88(s0)
    is_format = false;
    800013b6:	fe0407a3          	sb	zero,-17(s0)
    is_long = false;
    800013ba:	fe040723          	sb	zero,-18(s0)
    is_char = false;
    800013be:	fe0406a3          	sb	zero,-19(s0)
    while ((c = *fmt++) != '\0') {
    800013c2:	a4c9                	j	80001684 <kprintf+0x300>
        if (is_format) {
    800013c4:	fef44783          	lbu	a5,-17(s0)
    800013c8:	0ff7f793          	zext.b	a5,a5
    800013cc:	28078b63          	beqz	a5,80001662 <kprintf+0x2de>
            switch (c) {
    800013d0:	fc744783          	lbu	a5,-57(s0)
    800013d4:	2781                	sext.w	a5,a5
    800013d6:	f9d7869b          	addiw	a3,a5,-99
    800013da:	0006871b          	sext.w	a4,a3
    800013de:	47d5                	li	a5,21
    800013e0:	26e7ea63          	bltu	a5,a4,80001654 <kprintf+0x2d0>
    800013e4:	02069793          	slli	a5,a3,0x20
    800013e8:	9381                	srli	a5,a5,0x20
    800013ea:	00279713          	slli	a4,a5,0x2
    800013ee:	00001797          	auipc	a5,0x1
    800013f2:	5ea78793          	addi	a5,a5,1514 # 800029d8 <__tbss_end+0x70c>
    800013f6:	97ba                	add	a5,a5,a4
    800013f8:	439c                	lw	a5,0(a5)
    800013fa:	0007871b          	sext.w	a4,a5
    800013fe:	00001797          	auipc	a5,0x1
    80001402:	5da78793          	addi	a5,a5,1498 # 800029d8 <__tbss_end+0x70c>
    80001406:	97ba                	add	a5,a5,a4
    80001408:	8782                	jr	a5
                /* 'l' indicates a "long" modifier (e.g. %ld) */
                is_long = true;
    8000140a:	4785                	li	a5,1
    8000140c:	fef40723          	sb	a5,-18(s0)
                continue;
    80001410:	ac95                	j	80001684 <kprintf+0x300>
            case 'h':
                /* 'h' indicates a "short" modifier (e.g. %hd) */
                is_char = true;  /* re-using is_char to represent short */
    80001412:	4785                	li	a5,1
    80001414:	fef406a3          	sb	a5,-19(s0)
                continue;
    80001418:	a4b5                	j	80001684 <kprintf+0x300>
            case 'x': {
                /* Print in hexadecimal. Existing code. */
                unsigned long n;
                long i;
                if (is_long) {
    8000141a:	fee44783          	lbu	a5,-18(s0)
    8000141e:	0ff7f793          	zext.b	a5,a5
    80001422:	cf99                	beqz	a5,80001440 <kprintf+0xbc>
                    n = va_arg(vl, unsigned long);
    80001424:	fa843783          	ld	a5,-88(s0)
    80001428:	00878713          	addi	a4,a5,8
    8000142c:	fae43423          	sd	a4,-88(s0)
    80001430:	639c                	ld	a5,0(a5)
    80001432:	fef43023          	sd	a5,-32(s0)
                    i = (sizeof(unsigned long) << 3) - 4;
    80001436:	03c00793          	li	a5,60
    8000143a:	fcf43c23          	sd	a5,-40(s0)
    8000143e:	a041                	j	800014be <kprintf+0x13a>
                } else {
                    n = va_arg(vl, unsigned int);
    80001440:	fa843783          	ld	a5,-88(s0)
    80001444:	00878713          	addi	a4,a5,8
    80001448:	fae43423          	sd	a4,-88(s0)
    8000144c:	439c                	lw	a5,0(a5)
    8000144e:	1782                	slli	a5,a5,0x20
    80001450:	9381                	srli	a5,a5,0x20
    80001452:	fef43023          	sd	a5,-32(s0)
                    i = is_char ? 4 : (sizeof(unsigned int) << 3) - 4;
    80001456:	fed44783          	lbu	a5,-19(s0)
    8000145a:	0ff7f793          	zext.b	a5,a5
    8000145e:	c399                	beqz	a5,80001464 <kprintf+0xe0>
    80001460:	4791                	li	a5,4
    80001462:	a011                	j	80001466 <kprintf+0xe2>
    80001464:	47f1                	li	a5,28
    80001466:	fcf43c23          	sd	a5,-40(s0)
                }
                for (; i >= 0; i -= 4) {
    8000146a:	a891                	j	800014be <kprintf+0x13a>
                    long d = (n >> i) & 0xF;
    8000146c:	fd843783          	ld	a5,-40(s0)
    80001470:	2781                	sext.w	a5,a5
    80001472:	873e                	mv	a4,a5
    80001474:	fe043783          	ld	a5,-32(s0)
    80001478:	00e7d7b3          	srl	a5,a5,a4
    8000147c:	8bbd                	andi	a5,a5,15
    8000147e:	faf43c23          	sd	a5,-72(s0)
                    kputc(d < 10 ? '0' + d : 'a' + d - 10);
    80001482:	fb843703          	ld	a4,-72(s0)
    80001486:	47a5                	li	a5,9
    80001488:	00e7cb63          	blt	a5,a4,8000149e <kprintf+0x11a>
    8000148c:	fb843783          	ld	a5,-72(s0)
    80001490:	0ff7f793          	zext.b	a5,a5
    80001494:	0307879b          	addiw	a5,a5,48
    80001498:	0ff7f793          	zext.b	a5,a5
    8000149c:	a809                	j	800014ae <kprintf+0x12a>
    8000149e:	fb843783          	ld	a5,-72(s0)
    800014a2:	0ff7f793          	zext.b	a5,a5
    800014a6:	0577879b          	addiw	a5,a5,87
    800014aa:	0ff7f793          	zext.b	a5,a5
    800014ae:	853e                	mv	a0,a5
    800014b0:	e29ff0ef          	jal	800012d8 <kputc>
                for (; i >= 0; i -= 4) {
    800014b4:	fd843783          	ld	a5,-40(s0)
    800014b8:	17f1                	addi	a5,a5,-4
    800014ba:	fcf43c23          	sd	a5,-40(s0)
    800014be:	fd843783          	ld	a5,-40(s0)
    800014c2:	fa07d5e3          	bgez	a5,8000146c <kprintf+0xe8>
                }
                break;
    800014c6:	a279                	j	80001654 <kprintf+0x2d0>
                 * If 'l' was present: treat as 'long'
                 * If 'h' was present: treat as 'short'
                 * otherwise treat as regular 'int'.
                 */
                long num;
                if (is_long) {
    800014c8:	fee44783          	lbu	a5,-18(s0)
    800014cc:	0ff7f793          	zext.b	a5,a5
    800014d0:	cb99                	beqz	a5,800014e6 <kprintf+0x162>
                    num = va_arg(vl, long);
    800014d2:	fa843783          	ld	a5,-88(s0)
    800014d6:	00878713          	addi	a4,a5,8
    800014da:	fae43423          	sd	a4,-88(s0)
    800014de:	639c                	ld	a5,0(a5)
    800014e0:	fcf43823          	sd	a5,-48(s0)
    800014e4:	a03d                	j	80001512 <kprintf+0x18e>
                } else {
                    /* Variadic arguments of type short/char
                     * are promoted to int, but we can cast later if needed. */
                    num = va_arg(vl, int);
    800014e6:	fa843783          	ld	a5,-88(s0)
    800014ea:	00878713          	addi	a4,a5,8
    800014ee:	fae43423          	sd	a4,-88(s0)
    800014f2:	439c                	lw	a5,0(a5)
    800014f4:	fcf43823          	sd	a5,-48(s0)
                    if (is_char) {
    800014f8:	fed44783          	lbu	a5,-19(s0)
    800014fc:	0ff7f793          	zext.b	a5,a5
    80001500:	cb89                	beqz	a5,80001512 <kprintf+0x18e>
                        /* For %hd, cast down to short (optional). */
                        num = (short)num;
    80001502:	fd043783          	ld	a5,-48(s0)
    80001506:	0107979b          	slliw	a5,a5,0x10
    8000150a:	4107d79b          	sraiw	a5,a5,0x10
    8000150e:	fcf43823          	sd	a5,-48(s0)
                    }
                }

                /* Handle negative sign if needed */
                if (num < 0) {
    80001512:	fd043783          	ld	a5,-48(s0)
    80001516:	0007dc63          	bgez	a5,8000152e <kprintf+0x1aa>
                    kputc('-');
    8000151a:	02d00513          	li	a0,45
    8000151e:	dbbff0ef          	jal	800012d8 <kputc>
                    num = -num;
    80001522:	fd043783          	ld	a5,-48(s0)
    80001526:	40f007b3          	neg	a5,a5
    8000152a:	fcf43823          	sd	a5,-48(s0)
                }

                /* Convert number to decimal string (in reverse) */
                char buffer[32];
                int pos = 0;
    8000152e:	fc042623          	sw	zero,-52(s0)
                do {
                    buffer[pos++] = '0' + (num % 10);
    80001532:	fd043703          	ld	a4,-48(s0)
    80001536:	47a9                	li	a5,10
    80001538:	02f767b3          	rem	a5,a4,a5
    8000153c:	0ff7f713          	zext.b	a4,a5
    80001540:	fcc42783          	lw	a5,-52(s0)
    80001544:	0017869b          	addiw	a3,a5,1
    80001548:	fcd42623          	sw	a3,-52(s0)
    8000154c:	0307071b          	addiw	a4,a4,48
    80001550:	0ff77713          	zext.b	a4,a4
    80001554:	17c1                	addi	a5,a5,-16
    80001556:	97a2                	add	a5,a5,s0
    80001558:	f8e78c23          	sb	a4,-104(a5)
                    num /= 10;
    8000155c:	fd043703          	ld	a4,-48(s0)
    80001560:	47a9                	li	a5,10
    80001562:	02f747b3          	div	a5,a4,a5
    80001566:	fcf43823          	sd	a5,-48(s0)
                } while (num > 0 && pos < (int)sizeof(buffer));
    8000156a:	fd043783          	ld	a5,-48(s0)
    8000156e:	02f05863          	blez	a5,8000159e <kprintf+0x21a>
    80001572:	fcc42783          	lw	a5,-52(s0)
    80001576:	0007871b          	sext.w	a4,a5
    8000157a:	47fd                	li	a5,31
    8000157c:	fae7dbe3          	bge	a5,a4,80001532 <kprintf+0x1ae>

                /* Write out the digits in correct order */
                while (pos > 0) {
    80001580:	a839                	j	8000159e <kprintf+0x21a>
                    kputc(buffer[--pos]);
    80001582:	fcc42783          	lw	a5,-52(s0)
    80001586:	37fd                	addiw	a5,a5,-1
    80001588:	fcf42623          	sw	a5,-52(s0)
    8000158c:	fcc42783          	lw	a5,-52(s0)
    80001590:	17c1                	addi	a5,a5,-16
    80001592:	97a2                	add	a5,a5,s0
    80001594:	f987c783          	lbu	a5,-104(a5)
    80001598:	853e                	mv	a0,a5
    8000159a:	d3fff0ef          	jal	800012d8 <kputc>
                while (pos > 0) {
    8000159e:	fcc42783          	lw	a5,-52(s0)
    800015a2:	2781                	sext.w	a5,a5
    800015a4:	fcf04fe3          	bgtz	a5,80001582 <kprintf+0x1fe>
                }
                break;
    800015a8:	a075                	j	80001654 <kprintf+0x2d0>
            }
            case 's':
                _kputs(va_arg(vl, const char *));
    800015aa:	fa843783          	ld	a5,-88(s0)
    800015ae:	00878713          	addi	a4,a5,8
    800015b2:	fae43423          	sd	a4,-88(s0)
    800015b6:	639c                	ld	a5,0(a5)
    800015b8:	853e                	mv	a0,a5
    800015ba:	d5dff0ef          	jal	80001316 <_kputs>
                break;
    800015be:	a859                	j	80001654 <kprintf+0x2d0>
            case 'c':
                kputc(va_arg(vl, int));
    800015c0:	fa843783          	ld	a5,-88(s0)
    800015c4:	00878713          	addi	a4,a5,8
    800015c8:	fae43423          	sd	a4,-88(s0)
    800015cc:	439c                	lw	a5,0(a5)
    800015ce:	0ff7f793          	zext.b	a5,a5
    800015d2:	853e                	mv	a0,a5
    800015d4:	d05ff0ef          	jal	800012d8 <kputc>
                break;
    800015d8:	a8b5                	j	80001654 <kprintf+0x2d0>
            case 'w': /* Force 32-bit hex output */
                unsigned int n = va_arg(vl, unsigned int);
    800015da:	fa843783          	ld	a5,-88(s0)
    800015de:	00878713          	addi	a4,a5,8
    800015e2:	fae43423          	sd	a4,-88(s0)
    800015e6:	439c                	lw	a5,0(a5)
    800015e8:	faf42a23          	sw	a5,-76(s0)
                /* We want exactly 32 bits (8 hex digits). Start at bit 28 (the top nibble). */
                for (int i = 28; i >= 0; i -= 4) {
    800015ec:	47f1                	li	a5,28
    800015ee:	fcf42423          	sw	a5,-56(s0)
    800015f2:	a899                	j	80001648 <kprintf+0x2c4>
                    unsigned int d = (n >> i) & 0xF;
    800015f4:	fc842783          	lw	a5,-56(s0)
    800015f8:	fb442703          	lw	a4,-76(s0)
    800015fc:	00f757bb          	srlw	a5,a4,a5
    80001600:	2781                	sext.w	a5,a5
    80001602:	8bbd                	andi	a5,a5,15
    80001604:	faf42823          	sw	a5,-80(s0)
                    kputc(d < 10 ? '0' + d : 'a' + d - 10);
    80001608:	fb042783          	lw	a5,-80(s0)
    8000160c:	0007871b          	sext.w	a4,a5
    80001610:	47a5                	li	a5,9
    80001612:	00e7eb63          	bltu	a5,a4,80001628 <kprintf+0x2a4>
    80001616:	fb042783          	lw	a5,-80(s0)
    8000161a:	0ff7f793          	zext.b	a5,a5
    8000161e:	0307879b          	addiw	a5,a5,48
    80001622:	0ff7f793          	zext.b	a5,a5
    80001626:	a809                	j	80001638 <kprintf+0x2b4>
    80001628:	fb042783          	lw	a5,-80(s0)
    8000162c:	0ff7f793          	zext.b	a5,a5
    80001630:	0577879b          	addiw	a5,a5,87
    80001634:	0ff7f793          	zext.b	a5,a5
    80001638:	853e                	mv	a0,a5
    8000163a:	c9fff0ef          	jal	800012d8 <kputc>
                for (int i = 28; i >= 0; i -= 4) {
    8000163e:	fc842783          	lw	a5,-56(s0)
    80001642:	37f1                	addiw	a5,a5,-4
    80001644:	fcf42423          	sw	a5,-56(s0)
    80001648:	fc842783          	lw	a5,-56(s0)
    8000164c:	2781                	sext.w	a5,a5
    8000164e:	fa07d3e3          	bgez	a5,800015f4 <kprintf+0x270>
                }
                break;
    80001652:	0001                	nop
            }

            /* Reset state after handling a format specifier */
            is_format = false;
    80001654:	fe0407a3          	sb	zero,-17(s0)
            is_long   = false;
    80001658:	fe040723          	sb	zero,-18(s0)
            is_char   = false;
    8000165c:	fe0406a3          	sb	zero,-19(s0)
    80001660:	a015                	j	80001684 <kprintf+0x300>
        } else if (c == '%') {
    80001662:	fc744783          	lbu	a5,-57(s0)
    80001666:	0ff7f713          	zext.b	a4,a5
    8000166a:	02500793          	li	a5,37
    8000166e:	00f71663          	bne	a4,a5,8000167a <kprintf+0x2f6>
            /* Next character(s) will define a format specifier */
            is_format = true;
    80001672:	4785                	li	a5,1
    80001674:	fef407a3          	sb	a5,-17(s0)
    80001678:	a031                	j	80001684 <kprintf+0x300>
        } else {
            /* Normal character output */
            kputc(c);
    8000167a:	fc744783          	lbu	a5,-57(s0)
    8000167e:	853e                	mv	a0,a5
    80001680:	c59ff0ef          	jal	800012d8 <kputc>
    while ((c = *fmt++) != '\0') {
    80001684:	f7843783          	ld	a5,-136(s0)
    80001688:	00178713          	addi	a4,a5,1
    8000168c:	f6e43c23          	sd	a4,-136(s0)
    80001690:	0007c783          	lbu	a5,0(a5)
    80001694:	fcf403a3          	sb	a5,-57(s0)
    80001698:	fc744783          	lbu	a5,-57(s0)
    8000169c:	0ff7f793          	zext.b	a5,a5
    800016a0:	d20792e3          	bnez	a5,800013c4 <kprintf+0x40>
        }
    }

    va_end(vl);
}
    800016a4:	0001                	nop
    800016a6:	0001                	nop
    800016a8:	60aa                	ld	ra,136(sp)
    800016aa:	640a                	ld	s0,128(sp)
    800016ac:	6169                	addi	sp,sp,208
    800016ae:	8082                	ret

00000000800016b0 <handle_trap>:
#include <stdint.h>
#include "syscall.h"

void __attribute__((weak)) handle_trap(uintptr_t epc, uintptr_t cause, uintptr_t tval, uintptr_t regs[32])
{
    800016b0:	1141                	addi	sp,sp,-16
    /* Extract low-order bits of exception code as positive int */
    int code = cause & ((1UL << ((sizeof(int)<<3)-1)) - 1);
    800016b2:	02159513          	slli	a0,a1,0x21
{
    800016b6:	e406                	sd	ra,8(sp)
    int code = cause & ((1UL << ((sizeof(int)<<3)-1)) - 1);
    800016b8:	9105                	srli	a0,a0,0x21
    /* Encode interrupt as negative value */
    code = ((intptr_t)cause < 0) ? -code : code;
    800016ba:	0005d463          	bgez	a1,800016c2 <handle_trap+0x12>
    800016be:	40a0053b          	negw	a0,a0
    _exit(code);
    800016c2:	038000ef          	jal	800016fa <_exit>

00000000800016c6 <__init_tls>:
#include <string.h>

void __init_tls(void)
{
    800016c6:	1141                	addi	sp,sp,-16
    extern char __tdata_start[];
    extern char __tbss_offset[];
    extern char __tdata_size[];
    extern char __tbss_size[];

    memcpy(__thread_self, __tdata_start, (size_t)__tdata_size);
    800016c8:	00000613          	li	a2,0
    800016cc:	00001597          	auipc	a1,0x1
    800016d0:	c0058593          	addi	a1,a1,-1024 # 800022cc <__tbss_end>
    800016d4:	8512                	mv	a0,tp
{
    800016d6:	e022                	sd	s0,0(sp)
    800016d8:	e406                	sd	ra,8(sp)
    memcpy(__thread_self, __tdata_start, (size_t)__tdata_size);
    800016da:	8412                	mv	s0,tp
    800016dc:	61a000ef          	jal	80001cf6 <memcpy>
    memset(__thread_self + (size_t)__tbss_offset, 0, (size_t)__tbss_size);
    800016e0:	00000513          	li	a0,0
    800016e4:	9522                	add	a0,a0,s0
}
    800016e6:	6402                	ld	s0,0(sp)
    800016e8:	60a2                	ld	ra,8(sp)
    memset(__thread_self + (size_t)__tbss_offset, 0, (size_t)__tbss_size);
    800016ea:	00000613          	li	a2,0
    800016ee:	4581                	li	a1,0
}
    800016f0:	0141                	addi	sp,sp,16
    memset(__thread_self + (size_t)__tbss_offset, 0, (size_t)__tbss_size);
    800016f2:	abd5                	j	80001ce6 <memset>

00000000800016f4 <__main>:
 * Multi-threaded programs should provide their own implementation.
 */
void  __attribute__ ((weak,noreturn)) __main(void)
{
    for (;;) {
        __asm__ __volatile__ ("wfi");
    800016f4:	10500073          	wfi
    800016f8:	bff5                	j	800016f4 <__main>

00000000800016fa <_exit>:
#include "syscall.h"
#include "htif.h"

void __attribute__ ((noreturn)) _exit(int code)
{
    uint64_t cmd = HTIF_TOHOST(0, 0, (code << 1) | 0x1);
    800016fa:	0015179b          	slliw	a5,a0,0x1
    800016fe:	0017e793          	ori	a5,a5,1
    80001702:	2781                	sext.w	a5,a5
    80001704:	07c2                	slli	a5,a5,0x10
    80001706:	83c1                	srli	a5,a5,0x10
    for (;;) {
        fromhost = 0;
    80001708:	00001717          	auipc	a4,0x1
    8000170c:	38073023          	sd	zero,896(a4) # 80002a88 <fromhost>
        tohost = cmd;
    80001710:	00001717          	auipc	a4,0x1
    80001714:	36f73823          	sd	a5,880(a4) # 80002a80 <tohost>
    80001718:	bfc5                	j	80001708 <_exit+0xe>

000000008000171a <htif_syscall>:
volatile uint64_t fromhost __attribute__ ((section (".htif")));

static spinlock_t htif_lock = SPINLOCK_INIT;

long htif_syscall(uint64_t a0, uint64_t a1, uint64_t a2, unsigned long n)
{
    8000171a:	7139                	addi	sp,sp,-64
    volatile uint64_t buf[8];
    uint64_t sc;

    buf[0] = n;
    8000171c:	e036                	sd	a3,0(sp)
    buf[1] = a0;
    8000171e:	e42a                	sd	a0,8(sp)
    buf[2] = a1;
    80001720:	e82e                	sd	a1,16(sp)
    buf[3] = a2;

    sc = HTIF_TOHOST(0, 0, (uintptr_t)&buf);
    80001722:	57fd                	li	a5,-1
    buf[3] = a2;
    80001724:	ec32                	sd	a2,24(sp)
    sc = HTIF_TOHOST(0, 0, (uintptr_t)&buf);
    80001726:	83c1                	srli	a5,a5,0x10
    80001728:	860a                	mv	a2,sp
    8000172a:	8e7d                	and	a2,a2,a5
    spin_lock(&htif_lock);
    8000172c:	83018713          	addi	a4,gp,-2000 # 80002b68 <htif_lock>

static inline long atomic_swap_acquire(atomic_t *p, atomic_t v)
{
    long n;
#ifdef __riscv_atomic
    __asm__ __volatile__ (
    80001730:	56fd                	li	a3,-1
    return *((volatile const atomic_t *)p);
    80001732:	431c                	lw	a5,0(a4)
    80001734:	2781                	sext.w	a5,a5

static inline void spin_lock(spinlock_t *lock)
{
    do {
#ifdef __riscv_atomic
        while (atomic_load(&lock->lock));
    80001736:	fff5                	bnez	a5,80001732 <htif_syscall+0x18>
    __asm__ __volatile__ (
    80001738:	0cd727af          	amoswap.w.aq	a5,a3,(a4)
#endif
    } while (atomic_swap_acquire(&lock->lock, -1));
    8000173c:	fbfd                	bnez	a5,80001732 <htif_syscall+0x18>
static inline void wmb(void) { fence(w, w); }
    8000173e:	0110000f          	fence	w,w
    wmb();
    tohost = sc;
    80001742:	00001697          	auipc	a3,0x1
    80001746:	33e68693          	addi	a3,a3,830 # 80002a80 <tohost>
    8000174a:	00001797          	auipc	a5,0x1
    8000174e:	32c7bb23          	sd	a2,822(a5) # 80002a80 <tohost>
    while (fromhost == 0);
    80001752:	669c                	ld	a5,8(a3)
    80001754:	dffd                	beqz	a5,80001752 <htif_syscall+0x38>
    fromhost = 0;
    80001756:	00001797          	auipc	a5,0x1
    8000175a:	3207b923          	sd	zero,818(a5) # 80002a88 <fromhost>
}

static inline void atomic_clear_release(atomic_t *p)
{
#ifdef __riscv_atomic
    __asm__ __volatile__ (
    8000175e:	0a07202f          	amoswap.w.rl	zero,zero,(a4)
static inline void rmb(void) { fence(r, r); }
    80001762:	0220000f          	fence	r,r
    spin_unlock(&htif_lock);

    rmb();
    return buf[0];
    80001766:	6502                	ld	a0,0(sp)
}
    80001768:	6121                	addi	sp,sp,64
    8000176a:	8082                	ret

000000008000176c <atexit>:
    8000176c:	85aa                	mv	a1,a0
    8000176e:	4681                	li	a3,0
    80001770:	4601                	li	a2,0
    80001772:	4501                	li	a0,0
    80001774:	ab61                	j	80001d0c <__register_exitproc>

0000000080001776 <exit>:
    80001776:	1141                	addi	sp,sp,-16
    80001778:	e022                	sd	s0,0(sp)
    8000177a:	e406                	sd	ra,8(sp)
    8000177c:	00000797          	auipc	a5,0x0
    80001780:	60678793          	addi	a5,a5,1542 # 80001d82 <__call_exitprocs>
    80001784:	842a                	mv	s0,a0
    80001786:	c781                	beqz	a5,8000178e <exit+0x18>
    80001788:	4581                	li	a1,0
    8000178a:	5f8000ef          	jal	80001d82 <__call_exitprocs>
    8000178e:	8401b783          	ld	a5,-1984(gp) # 80002b78 <__stdio_exit_handler>
    80001792:	c391                	beqz	a5,80001796 <exit+0x20>
    80001794:	9782                	jalr	a5
    80001796:	8522                	mv	a0,s0
    80001798:	f63ff0ef          	jal	800016fa <_exit>

000000008000179c <__fp_lock>:
    8000179c:	4501                	li	a0,0
    8000179e:	8082                	ret

00000000800017a0 <std>:
    800017a0:	1141                	addi	sp,sp,-16
    800017a2:	e022                	sd	s0,0(sp)
    800017a4:	e406                	sd	ra,8(sp)
    800017a6:	842a                	mv	s0,a0
    800017a8:	00b51823          	sh	a1,16(a0)
    800017ac:	00c51923          	sh	a2,18(a0)
    800017b0:	00053023          	sd	zero,0(a0)
    800017b4:	00053423          	sd	zero,8(a0)
    800017b8:	0a052623          	sw	zero,172(a0)
    800017bc:	00053c23          	sd	zero,24(a0)
    800017c0:	02052023          	sw	zero,32(a0)
    800017c4:	02052423          	sw	zero,40(a0)
    800017c8:	4621                	li	a2,8
    800017ca:	4581                	li	a1,0
    800017cc:	0a450513          	addi	a0,a0,164
    800017d0:	516000ef          	jal	80001ce6 <memset>
    800017d4:	00000797          	auipc	a5,0x0
    800017d8:	23e78793          	addi	a5,a5,574 # 80001a12 <__sread>
    800017dc:	e03c                	sd	a5,64(s0)
    800017de:	00000797          	auipc	a5,0x0
    800017e2:	26a78793          	addi	a5,a5,618 # 80001a48 <__swrite>
    800017e6:	e43c                	sd	a5,72(s0)
    800017e8:	00000797          	auipc	a5,0x0
    800017ec:	2b078793          	addi	a5,a5,688 # 80001a98 <__sseek>
    800017f0:	e83c                	sd	a5,80(s0)
    800017f2:	00000797          	auipc	a5,0x0
    800017f6:	2de78793          	addi	a5,a5,734 # 80001ad0 <__sclose>
    800017fa:	60a2                	ld	ra,8(sp)
    800017fc:	fc00                	sd	s0,56(s0)
    800017fe:	ec3c                	sd	a5,88(s0)
    80001800:	6402                	ld	s0,0(sp)
    80001802:	0141                	addi	sp,sp,16
    80001804:	8082                	ret

0000000080001806 <stdio_exit_handler>:
    80001806:	00001617          	auipc	a2,0x1
    8000180a:	28a60613          	addi	a2,a2,650 # 80002a90 <__sglue>
    8000180e:	00001597          	auipc	a1,0x1
    80001812:	9aa58593          	addi	a1,a1,-1622 # 800021b8 <_fflush_r>
    80001816:	00001517          	auipc	a0,0x1
    8000181a:	29250513          	addi	a0,a0,658 # 80002aa8 <_impure_data>
    8000181e:	a269                	j	800019a8 <_fwalk_sglue>

0000000080001820 <cleanup_stdio>:
    80001820:	650c                	ld	a1,8(a0)
    80001822:	1141                	addi	sp,sp,-16
    80001824:	e022                	sd	s0,0(sp)
    80001826:	e406                	sd	ra,8(sp)
    80001828:	00001797          	auipc	a5,0x1
    8000182c:	38078793          	addi	a5,a5,896 # 80002ba8 <__sf>
    80001830:	842a                	mv	s0,a0
    80001832:	00f58463          	beq	a1,a5,8000183a <cleanup_stdio+0x1a>
    80001836:	183000ef          	jal	800021b8 <_fflush_r>
    8000183a:	680c                	ld	a1,16(s0)
    8000183c:	00001797          	auipc	a5,0x1
    80001840:	41c78793          	addi	a5,a5,1052 # 80002c58 <__sf+0xb0>
    80001844:	00f58563          	beq	a1,a5,8000184e <cleanup_stdio+0x2e>
    80001848:	8522                	mv	a0,s0
    8000184a:	16f000ef          	jal	800021b8 <_fflush_r>
    8000184e:	6c0c                	ld	a1,24(s0)
    80001850:	9d018793          	addi	a5,gp,-1584 # 80002d08 <__sf+0x160>
    80001854:	00f58863          	beq	a1,a5,80001864 <cleanup_stdio+0x44>
    80001858:	8522                	mv	a0,s0
    8000185a:	6402                	ld	s0,0(sp)
    8000185c:	60a2                	ld	ra,8(sp)
    8000185e:	0141                	addi	sp,sp,16
    80001860:	1590006f          	j	800021b8 <_fflush_r>
    80001864:	60a2                	ld	ra,8(sp)
    80001866:	6402                	ld	s0,0(sp)
    80001868:	0141                	addi	sp,sp,16
    8000186a:	8082                	ret

000000008000186c <global_stdio_init.part.0>:
    8000186c:	1141                	addi	sp,sp,-16
    8000186e:	00000797          	auipc	a5,0x0
    80001872:	f9878793          	addi	a5,a5,-104 # 80001806 <stdio_exit_handler>
    80001876:	4601                	li	a2,0
    80001878:	4591                	li	a1,4
    8000187a:	00001517          	auipc	a0,0x1
    8000187e:	32e50513          	addi	a0,a0,814 # 80002ba8 <__sf>
    80001882:	e406                	sd	ra,8(sp)
    80001884:	84f1b023          	sd	a5,-1984(gp) # 80002b78 <__stdio_exit_handler>
    80001888:	f19ff0ef          	jal	800017a0 <std>
    8000188c:	4605                	li	a2,1
    8000188e:	45a5                	li	a1,9
    80001890:	00001517          	auipc	a0,0x1
    80001894:	3c850513          	addi	a0,a0,968 # 80002c58 <__sf+0xb0>
    80001898:	f09ff0ef          	jal	800017a0 <std>
    8000189c:	60a2                	ld	ra,8(sp)
    8000189e:	4609                	li	a2,2
    800018a0:	45c9                	li	a1,18
    800018a2:	9d018513          	addi	a0,gp,-1584 # 80002d08 <__sf+0x160>
    800018a6:	0141                	addi	sp,sp,16
    800018a8:	bde5                	j	800017a0 <std>

00000000800018aa <__fp_unlock>:
    800018aa:	4501                	li	a0,0
    800018ac:	8082                	ret

00000000800018ae <__sfp>:
    800018ae:	1101                	addi	sp,sp,-32
    800018b0:	e04a                	sd	s2,0(sp)
    800018b2:	ec06                	sd	ra,24(sp)
    800018b4:	e822                	sd	s0,16(sp)
    800018b6:	e426                	sd	s1,8(sp)
    800018b8:	8401b783          	ld	a5,-1984(gp) # 80002b78 <__stdio_exit_handler>
    800018bc:	892a                	mv	s2,a0
    800018be:	e399                	bnez	a5,800018c4 <__sfp+0x16>
    800018c0:	fadff0ef          	jal	8000186c <global_stdio_init.part.0>
    800018c4:	00001497          	auipc	s1,0x1
    800018c8:	1cc48493          	addi	s1,s1,460 # 80002a90 <__sglue>
    800018cc:	6880                	ld	s0,16(s1)
    800018ce:	449c                	lw	a5,8(s1)
    800018d0:	37fd                	addiw	a5,a5,-1
    800018d2:	0207d163          	bgez	a5,800018f4 <__sfp+0x46>
    800018d6:	609c                	ld	a5,0(s1)
    800018d8:	e7c1                	bnez	a5,80001960 <__sfp+0xb2>
    800018da:	2d800593          	li	a1,728
    800018de:	854a                	mv	a0,s2
    800018e0:	664000ef          	jal	80001f44 <_malloc_r>
    800018e4:	842a                	mv	s0,a0
    800018e6:	e12d                	bnez	a0,80001948 <__sfp+0x9a>
    800018e8:	0004b023          	sd	zero,0(s1)
    800018ec:	47b1                	li	a5,12
    800018ee:	00f92023          	sw	a5,0(s2)
    800018f2:	a089                	j	80001934 <__sfp+0x86>
    800018f4:	01041703          	lh	a4,16(s0)
    800018f8:	e729                	bnez	a4,80001942 <__sfp+0x94>
    800018fa:	77c1                	lui	a5,0xffff0
    800018fc:	0785                	addi	a5,a5,1 # ffffffffffff0001 <__heap_end+0xffffffff7ffcd001>
    800018fe:	0a042623          	sw	zero,172(s0)
    80001902:	00043023          	sd	zero,0(s0)
    80001906:	00043423          	sd	zero,8(s0)
    8000190a:	c81c                	sw	a5,16(s0)
    8000190c:	00043c23          	sd	zero,24(s0)
    80001910:	02042023          	sw	zero,32(s0)
    80001914:	02042423          	sw	zero,40(s0)
    80001918:	4621                	li	a2,8
    8000191a:	4581                	li	a1,0
    8000191c:	0a440513          	addi	a0,s0,164
    80001920:	3c6000ef          	jal	80001ce6 <memset>
    80001924:	06043023          	sd	zero,96(s0)
    80001928:	06042423          	sw	zero,104(s0)
    8000192c:	08043023          	sd	zero,128(s0)
    80001930:	08042423          	sw	zero,136(s0)
    80001934:	60e2                	ld	ra,24(sp)
    80001936:	8522                	mv	a0,s0
    80001938:	6442                	ld	s0,16(sp)
    8000193a:	64a2                	ld	s1,8(sp)
    8000193c:	6902                	ld	s2,0(sp)
    8000193e:	6105                	addi	sp,sp,32
    80001940:	8082                	ret
    80001942:	0b040413          	addi	s0,s0,176
    80001946:	b769                	j	800018d0 <__sfp+0x22>
    80001948:	4791                	li	a5,4
    8000194a:	00053023          	sd	zero,0(a0)
    8000194e:	c51c                	sw	a5,8(a0)
    80001950:	0561                	addi	a0,a0,24
    80001952:	e808                	sd	a0,16(s0)
    80001954:	2c000613          	li	a2,704
    80001958:	4581                	li	a1,0
    8000195a:	38c000ef          	jal	80001ce6 <memset>
    8000195e:	e080                	sd	s0,0(s1)
    80001960:	6084                	ld	s1,0(s1)
    80001962:	b7ad                	j	800018cc <__sfp+0x1e>

0000000080001964 <__sinit>:
    80001964:	613c                	ld	a5,64(a0)
    80001966:	eb91                	bnez	a5,8000197a <__sinit+0x16>
    80001968:	00000797          	auipc	a5,0x0
    8000196c:	eb878793          	addi	a5,a5,-328 # 80001820 <cleanup_stdio>
    80001970:	e13c                	sd	a5,64(a0)
    80001972:	8401b783          	ld	a5,-1984(gp) # 80002b78 <__stdio_exit_handler>
    80001976:	e391                	bnez	a5,8000197a <__sinit+0x16>
    80001978:	bdd5                	j	8000186c <global_stdio_init.part.0>
    8000197a:	8082                	ret

000000008000197c <__sfp_lock_acquire>:
    8000197c:	8082                	ret

000000008000197e <__sfp_lock_release>:
    8000197e:	8082                	ret

0000000080001980 <__fp_lock_all>:
    80001980:	00001617          	auipc	a2,0x1
    80001984:	11060613          	addi	a2,a2,272 # 80002a90 <__sglue>
    80001988:	00000597          	auipc	a1,0x0
    8000198c:	e1458593          	addi	a1,a1,-492 # 8000179c <__fp_lock>
    80001990:	4501                	li	a0,0
    80001992:	a819                	j	800019a8 <_fwalk_sglue>

0000000080001994 <__fp_unlock_all>:
    80001994:	00001617          	auipc	a2,0x1
    80001998:	0fc60613          	addi	a2,a2,252 # 80002a90 <__sglue>
    8000199c:	00000597          	auipc	a1,0x0
    800019a0:	f0e58593          	addi	a1,a1,-242 # 800018aa <__fp_unlock>
    800019a4:	4501                	li	a0,0
    800019a6:	a009                	j	800019a8 <_fwalk_sglue>

00000000800019a8 <_fwalk_sglue>:
    800019a8:	715d                	addi	sp,sp,-80
    800019aa:	e0a2                	sd	s0,64(sp)
    800019ac:	fc26                	sd	s1,56(sp)
    800019ae:	f44e                	sd	s3,40(sp)
    800019b0:	f052                	sd	s4,32(sp)
    800019b2:	e85a                	sd	s6,16(sp)
    800019b4:	e45e                	sd	s7,8(sp)
    800019b6:	e486                	sd	ra,72(sp)
    800019b8:	f84a                	sd	s2,48(sp)
    800019ba:	ec56                	sd	s5,24(sp)
    800019bc:	89aa                	mv	s3,a0
    800019be:	8a2e                	mv	s4,a1
    800019c0:	8432                	mv	s0,a2
    800019c2:	4481                	li	s1,0
    800019c4:	4b05                	li	s6,1
    800019c6:	5bfd                	li	s7,-1
    800019c8:	01043903          	ld	s2,16(s0)
    800019cc:	00842a83          	lw	s5,8(s0)
    800019d0:	3afd                	addiw	s5,s5,-1
    800019d2:	020ad063          	bgez	s5,800019f2 <_fwalk_sglue+0x4a>
    800019d6:	6000                	ld	s0,0(s0)
    800019d8:	f865                	bnez	s0,800019c8 <_fwalk_sglue+0x20>
    800019da:	60a6                	ld	ra,72(sp)
    800019dc:	6406                	ld	s0,64(sp)
    800019de:	7942                	ld	s2,48(sp)
    800019e0:	79a2                	ld	s3,40(sp)
    800019e2:	7a02                	ld	s4,32(sp)
    800019e4:	6ae2                	ld	s5,24(sp)
    800019e6:	6b42                	ld	s6,16(sp)
    800019e8:	6ba2                	ld	s7,8(sp)
    800019ea:	8526                	mv	a0,s1
    800019ec:	74e2                	ld	s1,56(sp)
    800019ee:	6161                	addi	sp,sp,80
    800019f0:	8082                	ret
    800019f2:	01095783          	lhu	a5,16(s2)
    800019f6:	00fb7b63          	bgeu	s6,a5,80001a0c <_fwalk_sglue+0x64>
    800019fa:	01291783          	lh	a5,18(s2)
    800019fe:	01778763          	beq	a5,s7,80001a0c <_fwalk_sglue+0x64>
    80001a02:	85ca                	mv	a1,s2
    80001a04:	854e                	mv	a0,s3
    80001a06:	9a02                	jalr	s4
    80001a08:	8cc9                	or	s1,s1,a0
    80001a0a:	2481                	sext.w	s1,s1
    80001a0c:	0b090913          	addi	s2,s2,176
    80001a10:	b7c1                	j	800019d0 <_fwalk_sglue+0x28>

0000000080001a12 <__sread>:
    80001a12:	1141                	addi	sp,sp,-16
    80001a14:	e022                	sd	s0,0(sp)
    80001a16:	842e                	mv	s0,a1
    80001a18:	01259583          	lh	a1,18(a1)
    80001a1c:	e406                	sd	ra,8(sp)
    80001a1e:	1dc000ef          	jal	80001bfa <_read_r>
    80001a22:	00054963          	bltz	a0,80001a34 <__sread+0x22>
    80001a26:	6c5c                	ld	a5,152(s0)
    80001a28:	97aa                	add	a5,a5,a0
    80001a2a:	ec5c                	sd	a5,152(s0)
    80001a2c:	60a2                	ld	ra,8(sp)
    80001a2e:	6402                	ld	s0,0(sp)
    80001a30:	0141                	addi	sp,sp,16
    80001a32:	8082                	ret
    80001a34:	01045783          	lhu	a5,16(s0)
    80001a38:	777d                	lui	a4,0xfffff
    80001a3a:	177d                	addi	a4,a4,-1 # ffffffffffffefff <__heap_end+0xffffffff7ffdbfff>
    80001a3c:	8ff9                	and	a5,a5,a4
    80001a3e:	00f41823          	sh	a5,16(s0)
    80001a42:	b7ed                	j	80001a2c <__sread+0x1a>

0000000080001a44 <__seofread>:
    80001a44:	4501                	li	a0,0
    80001a46:	8082                	ret

0000000080001a48 <__swrite>:
    80001a48:	0105d783          	lhu	a5,16(a1)
    80001a4c:	7179                	addi	sp,sp,-48
    80001a4e:	f022                	sd	s0,32(sp)
    80001a50:	ec26                	sd	s1,24(sp)
    80001a52:	e84a                	sd	s2,16(sp)
    80001a54:	e44e                	sd	s3,8(sp)
    80001a56:	f406                	sd	ra,40(sp)
    80001a58:	1007f793          	andi	a5,a5,256
    80001a5c:	84aa                	mv	s1,a0
    80001a5e:	842e                	mv	s0,a1
    80001a60:	8932                	mv	s2,a2
    80001a62:	89b6                	mv	s3,a3
    80001a64:	c799                	beqz	a5,80001a72 <__swrite+0x2a>
    80001a66:	01259583          	lh	a1,18(a1)
    80001a6a:	4689                	li	a3,2
    80001a6c:	4601                	li	a2,0
    80001a6e:	160000ef          	jal	80001bce <_lseek_r>
    80001a72:	01045783          	lhu	a5,16(s0)
    80001a76:	777d                	lui	a4,0xfffff
    80001a78:	177d                	addi	a4,a4,-1 # ffffffffffffefff <__heap_end+0xffffffff7ffdbfff>
    80001a7a:	8ff9                	and	a5,a5,a4
    80001a7c:	01241583          	lh	a1,18(s0)
    80001a80:	00f41823          	sh	a5,16(s0)
    80001a84:	7402                	ld	s0,32(sp)
    80001a86:	70a2                	ld	ra,40(sp)
    80001a88:	86ce                	mv	a3,s3
    80001a8a:	864a                	mv	a2,s2
    80001a8c:	69a2                	ld	s3,8(sp)
    80001a8e:	6942                	ld	s2,16(sp)
    80001a90:	8526                	mv	a0,s1
    80001a92:	64e2                	ld	s1,24(sp)
    80001a94:	6145                	addi	sp,sp,48
    80001a96:	aa41                	j	80001c26 <_write_r>

0000000080001a98 <__sseek>:
    80001a98:	1141                	addi	sp,sp,-16
    80001a9a:	e022                	sd	s0,0(sp)
    80001a9c:	842e                	mv	s0,a1
    80001a9e:	01259583          	lh	a1,18(a1)
    80001aa2:	e406                	sd	ra,8(sp)
    80001aa4:	12a000ef          	jal	80001bce <_lseek_r>
    80001aa8:	577d                	li	a4,-1
    80001aaa:	01045783          	lhu	a5,16(s0)
    80001aae:	00e51b63          	bne	a0,a4,80001ac4 <__sseek+0x2c>
    80001ab2:	777d                	lui	a4,0xfffff
    80001ab4:	177d                	addi	a4,a4,-1 # ffffffffffffefff <__heap_end+0xffffffff7ffdbfff>
    80001ab6:	8ff9                	and	a5,a5,a4
    80001ab8:	00f41823          	sh	a5,16(s0)
    80001abc:	60a2                	ld	ra,8(sp)
    80001abe:	6402                	ld	s0,0(sp)
    80001ac0:	0141                	addi	sp,sp,16
    80001ac2:	8082                	ret
    80001ac4:	6705                	lui	a4,0x1
    80001ac6:	8fd9                	or	a5,a5,a4
    80001ac8:	00f41823          	sh	a5,16(s0)
    80001acc:	ec48                	sd	a0,152(s0)
    80001ace:	b7fd                	j	80001abc <__sseek+0x24>

0000000080001ad0 <__sclose>:
    80001ad0:	01259583          	lh	a1,18(a1)
    80001ad4:	a009                	j	80001ad6 <_close_r>

0000000080001ad6 <_close_r>:
    80001ad6:	1141                	addi	sp,sp,-16
    80001ad8:	e022                	sd	s0,0(sp)
    80001ada:	842a                	mv	s0,a0
    80001adc:	852e                	mv	a0,a1
    80001ade:	8401a423          	sw	zero,-1976(gp) # 80002b80 <errno>
    80001ae2:	e406                	sd	ra,8(sp)
    80001ae4:	75e000ef          	jal	80002242 <_close>
    80001ae8:	57fd                	li	a5,-1
    80001aea:	00f51663          	bne	a0,a5,80001af6 <_close_r+0x20>
    80001aee:	8481a783          	lw	a5,-1976(gp) # 80002b80 <errno>
    80001af2:	c391                	beqz	a5,80001af6 <_close_r+0x20>
    80001af4:	c01c                	sw	a5,0(s0)
    80001af6:	60a2                	ld	ra,8(sp)
    80001af8:	6402                	ld	s0,0(sp)
    80001afa:	0141                	addi	sp,sp,16
    80001afc:	8082                	ret

0000000080001afe <_reclaim_reent>:
    80001afe:	00001797          	auipc	a5,0x1
    80001b02:	0427b783          	ld	a5,66(a5) # 80002b40 <_impure_ptr>
    80001b06:	0ca78363          	beq	a5,a0,80001bcc <_reclaim_reent+0xce>
    80001b0a:	7d1c                	ld	a5,56(a0)
    80001b0c:	7179                	addi	sp,sp,-48
    80001b0e:	f022                	sd	s0,32(sp)
    80001b10:	f406                	sd	ra,40(sp)
    80001b12:	ec26                	sd	s1,24(sp)
    80001b14:	e84a                	sd	s2,16(sp)
    80001b16:	e44e                	sd	s3,8(sp)
    80001b18:	842a                	mv	s0,a0
    80001b1a:	cb8d                	beqz	a5,80001b4c <_reclaim_reent+0x4e>
    80001b1c:	6f9c                	ld	a5,24(a5)
    80001b1e:	c38d                	beqz	a5,80001b40 <_reclaim_reent+0x42>
    80001b20:	4481                	li	s1,0
    80001b22:	20000913          	li	s2,512
    80001b26:	7c1c                	ld	a5,56(s0)
    80001b28:	6f9c                	ld	a5,24(a5)
    80001b2a:	97a6                	add	a5,a5,s1
    80001b2c:	638c                	ld	a1,0(a5)
    80001b2e:	e1c9                	bnez	a1,80001bb0 <_reclaim_reent+0xb2>
    80001b30:	04a1                	addi	s1,s1,8
    80001b32:	ff249ae3          	bne	s1,s2,80001b26 <_reclaim_reent+0x28>
    80001b36:	7c1c                	ld	a5,56(s0)
    80001b38:	8522                	mv	a0,s0
    80001b3a:	6f8c                	ld	a1,24(a5)
    80001b3c:	30e000ef          	jal	80001e4a <_free_r>
    80001b40:	7c1c                	ld	a5,56(s0)
    80001b42:	638c                	ld	a1,0(a5)
    80001b44:	c581                	beqz	a1,80001b4c <_reclaim_reent+0x4e>
    80001b46:	8522                	mv	a0,s0
    80001b48:	302000ef          	jal	80001e4a <_free_r>
    80001b4c:	740c                	ld	a1,40(s0)
    80001b4e:	c581                	beqz	a1,80001b56 <_reclaim_reent+0x58>
    80001b50:	8522                	mv	a0,s0
    80001b52:	2f8000ef          	jal	80001e4a <_free_r>
    80001b56:	7c0c                	ld	a1,56(s0)
    80001b58:	c581                	beqz	a1,80001b60 <_reclaim_reent+0x62>
    80001b5a:	8522                	mv	a0,s0
    80001b5c:	2ee000ef          	jal	80001e4a <_free_r>
    80001b60:	6c2c                	ld	a1,88(s0)
    80001b62:	c581                	beqz	a1,80001b6a <_reclaim_reent+0x6c>
    80001b64:	8522                	mv	a0,s0
    80001b66:	2e4000ef          	jal	80001e4a <_free_r>
    80001b6a:	702c                	ld	a1,96(s0)
    80001b6c:	c581                	beqz	a1,80001b74 <_reclaim_reent+0x76>
    80001b6e:	8522                	mv	a0,s0
    80001b70:	2da000ef          	jal	80001e4a <_free_r>
    80001b74:	742c                	ld	a1,104(s0)
    80001b76:	c581                	beqz	a1,80001b7e <_reclaim_reent+0x80>
    80001b78:	8522                	mv	a0,s0
    80001b7a:	2d0000ef          	jal	80001e4a <_free_r>
    80001b7e:	644c                	ld	a1,136(s0)
    80001b80:	c581                	beqz	a1,80001b88 <_reclaim_reent+0x8a>
    80001b82:	8522                	mv	a0,s0
    80001b84:	2c6000ef          	jal	80001e4a <_free_r>
    80001b88:	604c                	ld	a1,128(s0)
    80001b8a:	c581                	beqz	a1,80001b92 <_reclaim_reent+0x94>
    80001b8c:	8522                	mv	a0,s0
    80001b8e:	2bc000ef          	jal	80001e4a <_free_r>
    80001b92:	682c                	ld	a1,80(s0)
    80001b94:	c581                	beqz	a1,80001b9c <_reclaim_reent+0x9e>
    80001b96:	8522                	mv	a0,s0
    80001b98:	2b2000ef          	jal	80001e4a <_free_r>
    80001b9c:	603c                	ld	a5,64(s0)
    80001b9e:	c385                	beqz	a5,80001bbe <_reclaim_reent+0xc0>
    80001ba0:	8522                	mv	a0,s0
    80001ba2:	7402                	ld	s0,32(sp)
    80001ba4:	70a2                	ld	ra,40(sp)
    80001ba6:	64e2                	ld	s1,24(sp)
    80001ba8:	6942                	ld	s2,16(sp)
    80001baa:	69a2                	ld	s3,8(sp)
    80001bac:	6145                	addi	sp,sp,48
    80001bae:	8782                	jr	a5
    80001bb0:	0005b983          	ld	s3,0(a1)
    80001bb4:	8522                	mv	a0,s0
    80001bb6:	294000ef          	jal	80001e4a <_free_r>
    80001bba:	85ce                	mv	a1,s3
    80001bbc:	bf8d                	j	80001b2e <_reclaim_reent+0x30>
    80001bbe:	70a2                	ld	ra,40(sp)
    80001bc0:	7402                	ld	s0,32(sp)
    80001bc2:	64e2                	ld	s1,24(sp)
    80001bc4:	6942                	ld	s2,16(sp)
    80001bc6:	69a2                	ld	s3,8(sp)
    80001bc8:	6145                	addi	sp,sp,48
    80001bca:	8082                	ret
    80001bcc:	8082                	ret

0000000080001bce <_lseek_r>:
    80001bce:	1141                	addi	sp,sp,-16
    80001bd0:	e022                	sd	s0,0(sp)
    80001bd2:	842a                	mv	s0,a0
    80001bd4:	852e                	mv	a0,a1
    80001bd6:	85b2                	mv	a1,a2
    80001bd8:	8636                	mv	a2,a3
    80001bda:	8401a423          	sw	zero,-1976(gp) # 80002b80 <errno>
    80001bde:	e406                	sd	ra,8(sp)
    80001be0:	676000ef          	jal	80002256 <_lseek>
    80001be4:	57fd                	li	a5,-1
    80001be6:	00f51663          	bne	a0,a5,80001bf2 <_lseek_r+0x24>
    80001bea:	8481a783          	lw	a5,-1976(gp) # 80002b80 <errno>
    80001bee:	c391                	beqz	a5,80001bf2 <_lseek_r+0x24>
    80001bf0:	c01c                	sw	a5,0(s0)
    80001bf2:	60a2                	ld	ra,8(sp)
    80001bf4:	6402                	ld	s0,0(sp)
    80001bf6:	0141                	addi	sp,sp,16
    80001bf8:	8082                	ret

0000000080001bfa <_read_r>:
    80001bfa:	1141                	addi	sp,sp,-16
    80001bfc:	e022                	sd	s0,0(sp)
    80001bfe:	842a                	mv	s0,a0
    80001c00:	852e                	mv	a0,a1
    80001c02:	85b2                	mv	a1,a2
    80001c04:	8636                	mv	a2,a3
    80001c06:	8401a423          	sw	zero,-1976(gp) # 80002b80 <errno>
    80001c0a:	e406                	sd	ra,8(sp)
    80001c0c:	65e000ef          	jal	8000226a <_read>
    80001c10:	57fd                	li	a5,-1
    80001c12:	00f51663          	bne	a0,a5,80001c1e <_read_r+0x24>
    80001c16:	8481a783          	lw	a5,-1976(gp) # 80002b80 <errno>
    80001c1a:	c391                	beqz	a5,80001c1e <_read_r+0x24>
    80001c1c:	c01c                	sw	a5,0(s0)
    80001c1e:	60a2                	ld	ra,8(sp)
    80001c20:	6402                	ld	s0,0(sp)
    80001c22:	0141                	addi	sp,sp,16
    80001c24:	8082                	ret

0000000080001c26 <_write_r>:
    80001c26:	1141                	addi	sp,sp,-16
    80001c28:	e022                	sd	s0,0(sp)
    80001c2a:	842a                	mv	s0,a0
    80001c2c:	852e                	mv	a0,a1
    80001c2e:	85b2                	mv	a1,a2
    80001c30:	8636                	mv	a2,a3
    80001c32:	8401a423          	sw	zero,-1976(gp) # 80002b80 <errno>
    80001c36:	e406                	sd	ra,8(sp)
    80001c38:	682000ef          	jal	800022ba <_write>
    80001c3c:	57fd                	li	a5,-1
    80001c3e:	00f51663          	bne	a0,a5,80001c4a <_write_r+0x24>
    80001c42:	8481a783          	lw	a5,-1976(gp) # 80002b80 <errno>
    80001c46:	c391                	beqz	a5,80001c4a <_write_r+0x24>
    80001c48:	c01c                	sw	a5,0(s0)
    80001c4a:	60a2                	ld	ra,8(sp)
    80001c4c:	6402                	ld	s0,0(sp)
    80001c4e:	0141                	addi	sp,sp,16
    80001c50:	8082                	ret

0000000080001c52 <__libc_init_array>:
    80001c52:	1101                	addi	sp,sp,-32
    80001c54:	e822                	sd	s0,16(sp)
    80001c56:	e426                	sd	s1,8(sp)
    80001c58:	00001417          	auipc	s0,0x1
    80001c5c:	e2040413          	addi	s0,s0,-480 # 80002a78 <__fini_array_end>
    80001c60:	00001497          	auipc	s1,0x1
    80001c64:	e1848493          	addi	s1,s1,-488 # 80002a78 <__fini_array_end>
    80001c68:	8c81                	sub	s1,s1,s0
    80001c6a:	e04a                	sd	s2,0(sp)
    80001c6c:	ec06                	sd	ra,24(sp)
    80001c6e:	848d                	srai	s1,s1,0x3
    80001c70:	4901                	li	s2,0
    80001c72:	02991563          	bne	s2,s1,80001c9c <__libc_init_array+0x4a>
    80001c76:	00001417          	auipc	s0,0x1
    80001c7a:	e0240413          	addi	s0,s0,-510 # 80002a78 <__fini_array_end>
    80001c7e:	00001497          	auipc	s1,0x1
    80001c82:	dfa48493          	addi	s1,s1,-518 # 80002a78 <__fini_array_end>
    80001c86:	8c81                	sub	s1,s1,s0
    80001c88:	848d                	srai	s1,s1,0x3
    80001c8a:	4901                	li	s2,0
    80001c8c:	00991d63          	bne	s2,s1,80001ca6 <__libc_init_array+0x54>
    80001c90:	60e2                	ld	ra,24(sp)
    80001c92:	6442                	ld	s0,16(sp)
    80001c94:	64a2                	ld	s1,8(sp)
    80001c96:	6902                	ld	s2,0(sp)
    80001c98:	6105                	addi	sp,sp,32
    80001c9a:	8082                	ret
    80001c9c:	601c                	ld	a5,0(s0)
    80001c9e:	0905                	addi	s2,s2,1
    80001ca0:	0421                	addi	s0,s0,8
    80001ca2:	9782                	jalr	a5
    80001ca4:	b7f9                	j	80001c72 <__libc_init_array+0x20>
    80001ca6:	601c                	ld	a5,0(s0)
    80001ca8:	0905                	addi	s2,s2,1
    80001caa:	0421                	addi	s0,s0,8
    80001cac:	9782                	jalr	a5
    80001cae:	bff9                	j	80001c8c <__libc_init_array+0x3a>

0000000080001cb0 <__libc_fini_array>:
    80001cb0:	1101                	addi	sp,sp,-32
    80001cb2:	e822                	sd	s0,16(sp)
    80001cb4:	e426                	sd	s1,8(sp)
    80001cb6:	00001417          	auipc	s0,0x1
    80001cba:	dc240413          	addi	s0,s0,-574 # 80002a78 <__fini_array_end>
    80001cbe:	00001497          	auipc	s1,0x1
    80001cc2:	dba48493          	addi	s1,s1,-582 # 80002a78 <__fini_array_end>
    80001cc6:	8c05                	sub	s0,s0,s1
    80001cc8:	ec06                	sd	ra,24(sp)
    80001cca:	840d                	srai	s0,s0,0x3
    80001ccc:	e411                	bnez	s0,80001cd8 <__libc_fini_array+0x28>
    80001cce:	60e2                	ld	ra,24(sp)
    80001cd0:	6442                	ld	s0,16(sp)
    80001cd2:	64a2                	ld	s1,8(sp)
    80001cd4:	6105                	addi	sp,sp,32
    80001cd6:	8082                	ret
    80001cd8:	147d                	addi	s0,s0,-1
    80001cda:	00341793          	slli	a5,s0,0x3
    80001cde:	97a6                	add	a5,a5,s1
    80001ce0:	639c                	ld	a5,0(a5)
    80001ce2:	9782                	jalr	a5
    80001ce4:	b7e5                	j	80001ccc <__libc_fini_array+0x1c>

0000000080001ce6 <memset>:
    80001ce6:	832a                	mv	t1,a0
    80001ce8:	c611                	beqz	a2,80001cf4 <memset+0xe>
    80001cea:	00b30023          	sb	a1,0(t1)
    80001cee:	167d                	addi	a2,a2,-1
    80001cf0:	0305                	addi	t1,t1,1
    80001cf2:	fe65                	bnez	a2,80001cea <memset+0x4>
    80001cf4:	8082                	ret

0000000080001cf6 <memcpy>:
    80001cf6:	832a                	mv	t1,a0
    80001cf8:	ca09                	beqz	a2,80001d0a <memcpy+0x14>
    80001cfa:	00058383          	lb	t2,0(a1)
    80001cfe:	00730023          	sb	t2,0(t1)
    80001d02:	167d                	addi	a2,a2,-1
    80001d04:	0305                	addi	t1,t1,1
    80001d06:	0585                	addi	a1,a1,1
    80001d08:	fa6d                	bnez	a2,80001cfa <memcpy+0x4>
    80001d0a:	8082                	ret

0000000080001d0c <__register_exitproc>:
    80001d0c:	88aa                	mv	a7,a0
    80001d0e:	85018513          	addi	a0,gp,-1968 # 80002b88 <__atexit>
    80001d12:	6118                	ld	a4,0(a0)
    80001d14:	ef01                	bnez	a4,80001d2c <__register_exitproc+0x20>
    80001d16:	a8018793          	addi	a5,gp,-1408 # 80002db8 <__atexit0>
    80001d1a:	e11c                	sd	a5,0(a0)
    80001d1c:	00000713          	li	a4,0
    80001d20:	c701                	beqz	a4,80001d28 <__register_exitproc+0x1c>
    80001d22:	6318                	ld	a4,0(a4)
    80001d24:	10e7b823          	sd	a4,272(a5)
    80001d28:	a8018713          	addi	a4,gp,-1408 # 80002db8 <__atexit0>
    80001d2c:	471c                	lw	a5,8(a4)
    80001d2e:	487d                	li	a6,31
    80001d30:	557d                	li	a0,-1
    80001d32:	04f84763          	blt	a6,a5,80001d80 <__register_exitproc+0x74>
    80001d36:	02088d63          	beqz	a7,80001d70 <__register_exitproc+0x64>
    80001d3a:	11073803          	ld	a6,272(a4) # 1110 <__stack_align+0x1100>
    80001d3e:	04080163          	beqz	a6,80001d80 <__register_exitproc+0x74>
    80001d42:	00379513          	slli	a0,a5,0x3
    80001d46:	9542                	add	a0,a0,a6
    80001d48:	e110                	sd	a2,0(a0)
    80001d4a:	20082303          	lw	t1,512(a6)
    80001d4e:	4605                	li	a2,1
    80001d50:	00f6163b          	sllw	a2,a2,a5
    80001d54:	00c36333          	or	t1,t1,a2
    80001d58:	20682023          	sw	t1,512(a6)
    80001d5c:	10d53023          	sd	a3,256(a0)
    80001d60:	4689                	li	a3,2
    80001d62:	00d89763          	bne	a7,a3,80001d70 <__register_exitproc+0x64>
    80001d66:	20482683          	lw	a3,516(a6)
    80001d6a:	8ed1                	or	a3,a3,a2
    80001d6c:	20d82223          	sw	a3,516(a6)
    80001d70:	0017869b          	addiw	a3,a5,1
    80001d74:	0789                	addi	a5,a5,2
    80001d76:	078e                	slli	a5,a5,0x3
    80001d78:	c714                	sw	a3,8(a4)
    80001d7a:	973e                	add	a4,a4,a5
    80001d7c:	e30c                	sd	a1,0(a4)
    80001d7e:	4501                	li	a0,0
    80001d80:	8082                	ret

0000000080001d82 <__call_exitprocs>:
    80001d82:	711d                	addi	sp,sp,-96
    80001d84:	f852                	sd	s4,48(sp)
    80001d86:	f456                	sd	s5,40(sp)
    80001d88:	f05a                	sd	s6,32(sp)
    80001d8a:	ec5e                	sd	s7,24(sp)
    80001d8c:	ec86                	sd	ra,88(sp)
    80001d8e:	e8a2                	sd	s0,80(sp)
    80001d90:	e4a6                	sd	s1,72(sp)
    80001d92:	e0ca                	sd	s2,64(sp)
    80001d94:	fc4e                	sd	s3,56(sp)
    80001d96:	e862                	sd	s8,16(sp)
    80001d98:	e466                	sd	s9,8(sp)
    80001d9a:	8aaa                	mv	s5,a0
    80001d9c:	8a2e                	mv	s4,a1
    80001d9e:	85018b13          	addi	s6,gp,-1968 # 80002b88 <__atexit>
    80001da2:	4b85                	li	s7,1
    80001da4:	000b3483          	ld	s1,0(s6)
    80001da8:	cc81                	beqz	s1,80001dc0 <__call_exitprocs+0x3e>
    80001daa:	4480                	lw	s0,8(s1)
    80001dac:	1104b983          	ld	s3,272(s1)
    80001db0:	fff4091b          	addiw	s2,s0,-1
    80001db4:	040e                	slli	s0,s0,0x3
    80001db6:	00898cb3          	add	s9,s3,s0
    80001dba:	9426                	add	s0,s0,s1
    80001dbc:	00095f63          	bgez	s2,80001dda <__call_exitprocs+0x58>
    80001dc0:	60e6                	ld	ra,88(sp)
    80001dc2:	6446                	ld	s0,80(sp)
    80001dc4:	64a6                	ld	s1,72(sp)
    80001dc6:	6906                	ld	s2,64(sp)
    80001dc8:	79e2                	ld	s3,56(sp)
    80001dca:	7a42                	ld	s4,48(sp)
    80001dcc:	7aa2                	ld	s5,40(sp)
    80001dce:	7b02                	ld	s6,32(sp)
    80001dd0:	6be2                	ld	s7,24(sp)
    80001dd2:	6c42                	ld	s8,16(sp)
    80001dd4:	6ca2                	ld	s9,8(sp)
    80001dd6:	6125                	addi	sp,sp,96
    80001dd8:	8082                	ret
    80001dda:	000a0c63          	beqz	s4,80001df2 <__call_exitprocs+0x70>
    80001dde:	00099663          	bnez	s3,80001dea <__call_exitprocs+0x68>
    80001de2:	397d                	addiw	s2,s2,-1
    80001de4:	1ce1                	addi	s9,s9,-8
    80001de6:	1461                	addi	s0,s0,-8
    80001de8:	bfd1                	j	80001dbc <__call_exitprocs+0x3a>
    80001dea:	0f8cb783          	ld	a5,248(s9)
    80001dee:	ff479ae3          	bne	a5,s4,80001de2 <__call_exitprocs+0x60>
    80001df2:	449c                	lw	a5,8(s1)
    80001df4:	6418                	ld	a4,8(s0)
    80001df6:	37fd                	addiw	a5,a5,-1
    80001df8:	03279963          	bne	a5,s2,80001e2a <__call_exitprocs+0xa8>
    80001dfc:	0124a423          	sw	s2,8(s1)
    80001e00:	d36d                	beqz	a4,80001de2 <__call_exitprocs+0x60>
    80001e02:	0084ac03          	lw	s8,8(s1)
    80001e06:	00098963          	beqz	s3,80001e18 <__call_exitprocs+0x96>
    80001e0a:	2009a783          	lw	a5,512(s3)
    80001e0e:	012b96bb          	sllw	a3,s7,s2
    80001e12:	8ff5                	and	a5,a5,a3
    80001e14:	2781                	sext.w	a5,a5
    80001e16:	ef89                	bnez	a5,80001e30 <__call_exitprocs+0xae>
    80001e18:	9702                	jalr	a4
    80001e1a:	4498                	lw	a4,8(s1)
    80001e1c:	000b3783          	ld	a5,0(s6)
    80001e20:	f98712e3          	bne	a4,s8,80001da4 <__call_exitprocs+0x22>
    80001e24:	faf48fe3          	beq	s1,a5,80001de2 <__call_exitprocs+0x60>
    80001e28:	bfb5                	j	80001da4 <__call_exitprocs+0x22>
    80001e2a:	00043423          	sd	zero,8(s0)
    80001e2e:	bfc9                	j	80001e00 <__call_exitprocs+0x7e>
    80001e30:	2049a783          	lw	a5,516(s3)
    80001e34:	ff8cb583          	ld	a1,-8(s9)
    80001e38:	8ff5                	and	a5,a5,a3
    80001e3a:	2781                	sext.w	a5,a5
    80001e3c:	e781                	bnez	a5,80001e44 <__call_exitprocs+0xc2>
    80001e3e:	8556                	mv	a0,s5
    80001e40:	9702                	jalr	a4
    80001e42:	bfe1                	j	80001e1a <__call_exitprocs+0x98>
    80001e44:	852e                	mv	a0,a1
    80001e46:	9702                	jalr	a4
    80001e48:	bfc9                	j	80001e1a <__call_exitprocs+0x98>

0000000080001e4a <_free_r>:
    80001e4a:	cdd9                	beqz	a1,80001ee8 <_free_r+0x9e>
    80001e4c:	ff85b783          	ld	a5,-8(a1)
    80001e50:	1101                	addi	sp,sp,-32
    80001e52:	e822                	sd	s0,16(sp)
    80001e54:	ec06                	sd	ra,24(sp)
    80001e56:	ff858413          	addi	s0,a1,-8
    80001e5a:	0007d363          	bgez	a5,80001e60 <_free_r+0x16>
    80001e5e:	943e                	add	s0,s0,a5
    80001e60:	e42a                	sd	a0,8(sp)
    80001e62:	212000ef          	jal	80002074 <__malloc_lock>
    80001e66:	86018713          	addi	a4,gp,-1952 # 80002b98 <__malloc_free_list>
    80001e6a:	631c                	ld	a5,0(a4)
    80001e6c:	6522                	ld	a0,8(sp)
    80001e6e:	eb81                	bnez	a5,80001e7e <_free_r+0x34>
    80001e70:	00043423          	sd	zero,8(s0)
    80001e74:	e300                	sd	s0,0(a4)
    80001e76:	6442                	ld	s0,16(sp)
    80001e78:	60e2                	ld	ra,24(sp)
    80001e7a:	6105                	addi	sp,sp,32
    80001e7c:	aaed                	j	80002076 <__malloc_unlock>
    80001e7e:	00f47d63          	bgeu	s0,a5,80001e98 <_free_r+0x4e>
    80001e82:	6010                	ld	a2,0(s0)
    80001e84:	00c406b3          	add	a3,s0,a2
    80001e88:	00d79663          	bne	a5,a3,80001e94 <_free_r+0x4a>
    80001e8c:	6394                	ld	a3,0(a5)
    80001e8e:	679c                	ld	a5,8(a5)
    80001e90:	96b2                	add	a3,a3,a2
    80001e92:	e014                	sd	a3,0(s0)
    80001e94:	e41c                	sd	a5,8(s0)
    80001e96:	bff9                	j	80001e74 <_free_r+0x2a>
    80001e98:	873e                	mv	a4,a5
    80001e9a:	679c                	ld	a5,8(a5)
    80001e9c:	c399                	beqz	a5,80001ea2 <_free_r+0x58>
    80001e9e:	fef47de3          	bgeu	s0,a5,80001e98 <_free_r+0x4e>
    80001ea2:	6314                	ld	a3,0(a4)
    80001ea4:	00d70633          	add	a2,a4,a3
    80001ea8:	00861f63          	bne	a2,s0,80001ec6 <_free_r+0x7c>
    80001eac:	6010                	ld	a2,0(s0)
    80001eae:	96b2                	add	a3,a3,a2
    80001eb0:	e314                	sd	a3,0(a4)
    80001eb2:	00d70633          	add	a2,a4,a3
    80001eb6:	fcc790e3          	bne	a5,a2,80001e76 <_free_r+0x2c>
    80001eba:	6390                	ld	a2,0(a5)
    80001ebc:	679c                	ld	a5,8(a5)
    80001ebe:	96b2                	add	a3,a3,a2
    80001ec0:	e314                	sd	a3,0(a4)
    80001ec2:	e71c                	sd	a5,8(a4)
    80001ec4:	bf4d                	j	80001e76 <_free_r+0x2c>
    80001ec6:	00c47563          	bgeu	s0,a2,80001ed0 <_free_r+0x86>
    80001eca:	47b1                	li	a5,12
    80001ecc:	c11c                	sw	a5,0(a0)
    80001ece:	b765                	j	80001e76 <_free_r+0x2c>
    80001ed0:	6010                	ld	a2,0(s0)
    80001ed2:	00c406b3          	add	a3,s0,a2
    80001ed6:	00d79663          	bne	a5,a3,80001ee2 <_free_r+0x98>
    80001eda:	6394                	ld	a3,0(a5)
    80001edc:	679c                	ld	a5,8(a5)
    80001ede:	96b2                	add	a3,a3,a2
    80001ee0:	e014                	sd	a3,0(s0)
    80001ee2:	e41c                	sd	a5,8(s0)
    80001ee4:	e700                	sd	s0,8(a4)
    80001ee6:	bf41                	j	80001e76 <_free_r+0x2c>
    80001ee8:	8082                	ret

0000000080001eea <sbrk_aligned>:
    80001eea:	1101                	addi	sp,sp,-32
    80001eec:	e04a                	sd	s2,0(sp)
    80001eee:	85818913          	addi	s2,gp,-1960 # 80002b90 <__malloc_sbrk_start>
    80001ef2:	00093783          	ld	a5,0(s2)
    80001ef6:	e822                	sd	s0,16(sp)
    80001ef8:	e426                	sd	s1,8(sp)
    80001efa:	ec06                	sd	ra,24(sp)
    80001efc:	84aa                	mv	s1,a0
    80001efe:	842e                	mv	s0,a1
    80001f00:	e791                	bnez	a5,80001f0c <sbrk_aligned+0x22>
    80001f02:	4581                	li	a1,0
    80001f04:	316000ef          	jal	8000221a <_sbrk_r>
    80001f08:	00a93023          	sd	a0,0(s2)
    80001f0c:	85a2                	mv	a1,s0
    80001f0e:	8526                	mv	a0,s1
    80001f10:	30a000ef          	jal	8000221a <_sbrk_r>
    80001f14:	597d                	li	s2,-1
    80001f16:	01251a63          	bne	a0,s2,80001f2a <sbrk_aligned+0x40>
    80001f1a:	547d                	li	s0,-1
    80001f1c:	60e2                	ld	ra,24(sp)
    80001f1e:	8522                	mv	a0,s0
    80001f20:	6442                	ld	s0,16(sp)
    80001f22:	64a2                	ld	s1,8(sp)
    80001f24:	6902                	ld	s2,0(sp)
    80001f26:	6105                	addi	sp,sp,32
    80001f28:	8082                	ret
    80001f2a:	00750413          	addi	s0,a0,7
    80001f2e:	9861                	andi	s0,s0,-8
    80001f30:	fe8506e3          	beq	a0,s0,80001f1c <sbrk_aligned+0x32>
    80001f34:	40a405b3          	sub	a1,s0,a0
    80001f38:	8526                	mv	a0,s1
    80001f3a:	2e0000ef          	jal	8000221a <_sbrk_r>
    80001f3e:	fd251fe3          	bne	a0,s2,80001f1c <sbrk_aligned+0x32>
    80001f42:	bfe1                	j	80001f1a <sbrk_aligned+0x30>

0000000080001f44 <_malloc_r>:
    80001f44:	00758793          	addi	a5,a1,7
    80001f48:	7179                	addi	sp,sp,-48
    80001f4a:	9be1                	andi	a5,a5,-8
    80001f4c:	ec26                	sd	s1,24(sp)
    80001f4e:	e84a                	sd	s2,16(sp)
    80001f50:	f406                	sd	ra,40(sp)
    80001f52:	f022                	sd	s0,32(sp)
    80001f54:	e44e                	sd	s3,8(sp)
    80001f56:	e052                	sd	s4,0(sp)
    80001f58:	07a1                	addi	a5,a5,8
    80001f5a:	4741                	li	a4,16
    80001f5c:	892a                	mv	s2,a0
    80001f5e:	44c1                	li	s1,16
    80001f60:	00e7e363          	bltu	a5,a4,80001f66 <_malloc_r+0x22>
    80001f64:	84be                	mv	s1,a5
    80001f66:	80000737          	lui	a4,0x80000
    80001f6a:	fff74713          	not	a4,a4
    80001f6e:	00f76463          	bltu	a4,a5,80001f76 <_malloc_r+0x32>
    80001f72:	00b4fe63          	bgeu	s1,a1,80001f8e <_malloc_r+0x4a>
    80001f76:	47b1                	li	a5,12
    80001f78:	00f92023          	sw	a5,0(s2)
    80001f7c:	4501                	li	a0,0
    80001f7e:	70a2                	ld	ra,40(sp)
    80001f80:	7402                	ld	s0,32(sp)
    80001f82:	64e2                	ld	s1,24(sp)
    80001f84:	6942                	ld	s2,16(sp)
    80001f86:	69a2                	ld	s3,8(sp)
    80001f88:	6a02                	ld	s4,0(sp)
    80001f8a:	6145                	addi	sp,sp,48
    80001f8c:	8082                	ret
    80001f8e:	854a                	mv	a0,s2
    80001f90:	0e4000ef          	jal	80002074 <__malloc_lock>
    80001f94:	86018993          	addi	s3,gp,-1952 # 80002b98 <__malloc_free_list>
    80001f98:	0009b783          	ld	a5,0(s3)
    80001f9c:	843e                	mv	s0,a5
    80001f9e:	ec21                	bnez	s0,80001ff6 <_malloc_r+0xb2>
    80001fa0:	85a6                	mv	a1,s1
    80001fa2:	854a                	mv	a0,s2
    80001fa4:	f47ff0ef          	jal	80001eea <sbrk_aligned>
    80001fa8:	57fd                	li	a5,-1
    80001faa:	842a                	mv	s0,a0
    80001fac:	0af51f63          	bne	a0,a5,8000206a <_malloc_r+0x126>
    80001fb0:	0009b403          	ld	s0,0(s3)
    80001fb4:	87a2                	mv	a5,s0
    80001fb6:	efd1                	bnez	a5,80002052 <_malloc_r+0x10e>
    80001fb8:	c055                	beqz	s0,8000205c <_malloc_r+0x118>
    80001fba:	00043a03          	ld	s4,0(s0)
    80001fbe:	4581                	li	a1,0
    80001fc0:	854a                	mv	a0,s2
    80001fc2:	9a22                	add	s4,s4,s0
    80001fc4:	256000ef          	jal	8000221a <_sbrk_r>
    80001fc8:	08aa1a63          	bne	s4,a0,8000205c <_malloc_r+0x118>
    80001fcc:	601c                	ld	a5,0(s0)
    80001fce:	854a                	mv	a0,s2
    80001fd0:	8c9d                	sub	s1,s1,a5
    80001fd2:	85a6                	mv	a1,s1
    80001fd4:	f17ff0ef          	jal	80001eea <sbrk_aligned>
    80001fd8:	57fd                	li	a5,-1
    80001fda:	08f50163          	beq	a0,a5,8000205c <_malloc_r+0x118>
    80001fde:	601c                	ld	a5,0(s0)
    80001fe0:	97a6                	add	a5,a5,s1
    80001fe2:	e01c                	sd	a5,0(s0)
    80001fe4:	0009b783          	ld	a5,0(s3)
    80001fe8:	c3d9                	beqz	a5,8000206e <_malloc_r+0x12a>
    80001fea:	6798                	ld	a4,8(a5)
    80001fec:	06871663          	bne	a4,s0,80002058 <_malloc_r+0x114>
    80001ff0:	0007b423          	sd	zero,8(a5)
    80001ff4:	a015                	j	80002018 <_malloc_r+0xd4>
    80001ff6:	6014                	ld	a3,0(s0)
    80001ff8:	9e85                	subw	a3,a3,s1
    80001ffa:	0406c963          	bltz	a3,8000204c <_malloc_r+0x108>
    80001ffe:	473d                	li	a4,15
    80002000:	02d75e63          	bge	a4,a3,8000203c <_malloc_r+0xf8>
    80002004:	e004                	sd	s1,0(s0)
    80002006:	00940733          	add	a4,s0,s1
    8000200a:	02879763          	bne	a5,s0,80002038 <_malloc_r+0xf4>
    8000200e:	00e9b023          	sd	a4,0(s3)
    80002012:	641c                	ld	a5,8(s0)
    80002014:	e314                	sd	a3,0(a4)
    80002016:	e71c                	sd	a5,8(a4)
    80002018:	854a                	mv	a0,s2
    8000201a:	05c000ef          	jal	80002076 <__malloc_unlock>
    8000201e:	00f40513          	addi	a0,s0,15
    80002022:	00840793          	addi	a5,s0,8
    80002026:	9961                	andi	a0,a0,-8
    80002028:	40f507bb          	subw	a5,a0,a5
    8000202c:	dba9                	beqz	a5,80001f7e <_malloc_r+0x3a>
    8000202e:	943e                	add	s0,s0,a5
    80002030:	40f007bb          	negw	a5,a5
    80002034:	e01c                	sd	a5,0(s0)
    80002036:	b7a1                	j	80001f7e <_malloc_r+0x3a>
    80002038:	e798                	sd	a4,8(a5)
    8000203a:	bfe1                	j	80002012 <_malloc_r+0xce>
    8000203c:	6418                	ld	a4,8(s0)
    8000203e:	00879563          	bne	a5,s0,80002048 <_malloc_r+0x104>
    80002042:	00e9b023          	sd	a4,0(s3)
    80002046:	bfc9                	j	80002018 <_malloc_r+0xd4>
    80002048:	e798                	sd	a4,8(a5)
    8000204a:	b7f9                	j	80002018 <_malloc_r+0xd4>
    8000204c:	87a2                	mv	a5,s0
    8000204e:	6400                	ld	s0,8(s0)
    80002050:	b7b9                	j	80001f9e <_malloc_r+0x5a>
    80002052:	843e                	mv	s0,a5
    80002054:	679c                	ld	a5,8(a5)
    80002056:	b785                	j	80001fb6 <_malloc_r+0x72>
    80002058:	87ba                	mv	a5,a4
    8000205a:	b779                	j	80001fe8 <_malloc_r+0xa4>
    8000205c:	47b1                	li	a5,12
    8000205e:	00f92023          	sw	a5,0(s2)
    80002062:	854a                	mv	a0,s2
    80002064:	012000ef          	jal	80002076 <__malloc_unlock>
    80002068:	bf11                	j	80001f7c <_malloc_r+0x38>
    8000206a:	e104                	sd	s1,0(a0)
    8000206c:	b775                	j	80002018 <_malloc_r+0xd4>
    8000206e:	00003423          	sd	zero,8(zero) # 8 <__boot_hart+0x8>
    80002072:	9002                	ebreak

0000000080002074 <__malloc_lock>:
    80002074:	8082                	ret

0000000080002076 <__malloc_unlock>:
    80002076:	8082                	ret

0000000080002078 <__sflush_r>:
    80002078:	01059783          	lh	a5,16(a1)
    8000207c:	7179                	addi	sp,sp,-48
    8000207e:	f022                	sd	s0,32(sp)
    80002080:	ec26                	sd	s1,24(sp)
    80002082:	f406                	sd	ra,40(sp)
    80002084:	e84a                	sd	s2,16(sp)
    80002086:	e44e                	sd	s3,8(sp)
    80002088:	0087f713          	andi	a4,a5,8
    8000208c:	84aa                	mv	s1,a0
    8000208e:	842e                	mv	s0,a1
    80002090:	eb69                	bnez	a4,80002162 <__sflush_r+0xea>
    80002092:	4598                	lw	a4,8(a1)
    80002094:	00e04563          	bgtz	a4,8000209e <__sflush_r+0x26>
    80002098:	5db8                	lw	a4,120(a1)
    8000209a:	0ae05b63          	blez	a4,80002150 <__sflush_r+0xd8>
    8000209e:	6838                	ld	a4,80(s0)
    800020a0:	cb45                	beqz	a4,80002150 <__sflush_r+0xd8>
    800020a2:	0004a903          	lw	s2,0(s1)
    800020a6:	03379693          	slli	a3,a5,0x33
    800020aa:	0004a023          	sw	zero,0(s1)
    800020ae:	7c0c                	ld	a1,56(s0)
    800020b0:	0606de63          	bgez	a3,8000212c <__sflush_r+0xb4>
    800020b4:	6c50                	ld	a2,152(s0)
    800020b6:	01045783          	lhu	a5,16(s0)
    800020ba:	8b91                	andi	a5,a5,4
    800020bc:	c799                	beqz	a5,800020ca <__sflush_r+0x52>
    800020be:	441c                	lw	a5,8(s0)
    800020c0:	8e1d                	sub	a2,a2,a5
    800020c2:	703c                	ld	a5,96(s0)
    800020c4:	c399                	beqz	a5,800020ca <__sflush_r+0x52>
    800020c6:	5c3c                	lw	a5,120(s0)
    800020c8:	8e1d                	sub	a2,a2,a5
    800020ca:	683c                	ld	a5,80(s0)
    800020cc:	7c0c                	ld	a1,56(s0)
    800020ce:	4681                	li	a3,0
    800020d0:	8526                	mv	a0,s1
    800020d2:	9782                	jalr	a5
    800020d4:	577d                	li	a4,-1
    800020d6:	01045783          	lhu	a5,16(s0)
    800020da:	00e51d63          	bne	a0,a4,800020f4 <__sflush_r+0x7c>
    800020de:	4094                	lw	a3,0(s1)
    800020e0:	4775                	li	a4,29
    800020e2:	06d76963          	bltu	a4,a3,80002154 <__sflush_r+0xdc>
    800020e6:	20400737          	lui	a4,0x20400
    800020ea:	0705                	addi	a4,a4,1 # 20400001 <__heap_size+0x203e0001>
    800020ec:	00d75733          	srl	a4,a4,a3
    800020f0:	8b05                	andi	a4,a4,1
    800020f2:	c32d                	beqz	a4,80002154 <__sflush_r+0xdc>
    800020f4:	6c18                	ld	a4,24(s0)
    800020f6:	00042423          	sw	zero,8(s0)
    800020fa:	e018                	sd	a4,0(s0)
    800020fc:	03379713          	slli	a4,a5,0x33
    80002100:	00075863          	bgez	a4,80002110 <__sflush_r+0x98>
    80002104:	57fd                	li	a5,-1
    80002106:	00f51463          	bne	a0,a5,8000210e <__sflush_r+0x96>
    8000210a:	409c                	lw	a5,0(s1)
    8000210c:	e391                	bnez	a5,80002110 <__sflush_r+0x98>
    8000210e:	ec48                	sd	a0,152(s0)
    80002110:	702c                	ld	a1,96(s0)
    80002112:	0124a023          	sw	s2,0(s1)
    80002116:	cd8d                	beqz	a1,80002150 <__sflush_r+0xd8>
    80002118:	07c40793          	addi	a5,s0,124
    8000211c:	00f58563          	beq	a1,a5,80002126 <__sflush_r+0xae>
    80002120:	8526                	mv	a0,s1
    80002122:	d29ff0ef          	jal	80001e4a <_free_r>
    80002126:	06043023          	sd	zero,96(s0)
    8000212a:	a01d                	j	80002150 <__sflush_r+0xd8>
    8000212c:	4601                	li	a2,0
    8000212e:	4685                	li	a3,1
    80002130:	8526                	mv	a0,s1
    80002132:	9702                	jalr	a4
    80002134:	57fd                	li	a5,-1
    80002136:	862a                	mv	a2,a0
    80002138:	f6f51fe3          	bne	a0,a5,800020b6 <__sflush_r+0x3e>
    8000213c:	409c                	lw	a5,0(s1)
    8000213e:	dfa5                	beqz	a5,800020b6 <__sflush_r+0x3e>
    80002140:	4775                	li	a4,29
    80002142:	00e78563          	beq	a5,a4,8000214c <__sflush_r+0xd4>
    80002146:	4759                	li	a4,22
    80002148:	04e79663          	bne	a5,a4,80002194 <__sflush_r+0x11c>
    8000214c:	0124a023          	sw	s2,0(s1)
    80002150:	4501                	li	a0,0
    80002152:	a881                	j	800021a2 <__sflush_r+0x12a>
    80002154:	0407e793          	ori	a5,a5,64
    80002158:	0107979b          	slliw	a5,a5,0x10
    8000215c:	4107d79b          	sraiw	a5,a5,0x10
    80002160:	a835                	j	8000219c <__sflush_r+0x124>
    80002162:	0185b983          	ld	s3,24(a1)
    80002166:	fe0985e3          	beqz	s3,80002150 <__sflush_r+0xd8>
    8000216a:	0005b903          	ld	s2,0(a1)
    8000216e:	8b8d                	andi	a5,a5,3
    80002170:	0135b023          	sd	s3,0(a1)
    80002174:	4139093b          	subw	s2,s2,s3
    80002178:	4701                	li	a4,0
    8000217a:	e391                	bnez	a5,8000217e <__sflush_r+0x106>
    8000217c:	5198                	lw	a4,32(a1)
    8000217e:	c458                	sw	a4,12(s0)
    80002180:	fd2058e3          	blez	s2,80002150 <__sflush_r+0xd8>
    80002184:	643c                	ld	a5,72(s0)
    80002186:	7c0c                	ld	a1,56(s0)
    80002188:	86ca                	mv	a3,s2
    8000218a:	864e                	mv	a2,s3
    8000218c:	8526                	mv	a0,s1
    8000218e:	9782                	jalr	a5
    80002190:	02a04063          	bgtz	a0,800021b0 <__sflush_r+0x138>
    80002194:	01041783          	lh	a5,16(s0)
    80002198:	0407e793          	ori	a5,a5,64
    8000219c:	00f41823          	sh	a5,16(s0)
    800021a0:	557d                	li	a0,-1
    800021a2:	70a2                	ld	ra,40(sp)
    800021a4:	7402                	ld	s0,32(sp)
    800021a6:	64e2                	ld	s1,24(sp)
    800021a8:	6942                	ld	s2,16(sp)
    800021aa:	69a2                	ld	s3,8(sp)
    800021ac:	6145                	addi	sp,sp,48
    800021ae:	8082                	ret
    800021b0:	99aa                	add	s3,s3,a0
    800021b2:	40a9093b          	subw	s2,s2,a0
    800021b6:	b7e9                	j	80002180 <__sflush_r+0x108>

00000000800021b8 <_fflush_r>:
    800021b8:	6d9c                	ld	a5,24(a1)
    800021ba:	cb8d                	beqz	a5,800021ec <_fflush_r+0x34>
    800021bc:	1101                	addi	sp,sp,-32
    800021be:	e822                	sd	s0,16(sp)
    800021c0:	ec06                	sd	ra,24(sp)
    800021c2:	842a                	mv	s0,a0
    800021c4:	c519                	beqz	a0,800021d2 <_fflush_r+0x1a>
    800021c6:	613c                	ld	a5,64(a0)
    800021c8:	e789                	bnez	a5,800021d2 <_fflush_r+0x1a>
    800021ca:	e42e                	sd	a1,8(sp)
    800021cc:	f98ff0ef          	jal	80001964 <__sinit>
    800021d0:	65a2                	ld	a1,8(sp)
    800021d2:	01059783          	lh	a5,16(a1)
    800021d6:	c791                	beqz	a5,800021e2 <_fflush_r+0x2a>
    800021d8:	8522                	mv	a0,s0
    800021da:	6442                	ld	s0,16(sp)
    800021dc:	60e2                	ld	ra,24(sp)
    800021de:	6105                	addi	sp,sp,32
    800021e0:	bd61                	j	80002078 <__sflush_r>
    800021e2:	60e2                	ld	ra,24(sp)
    800021e4:	6442                	ld	s0,16(sp)
    800021e6:	4501                	li	a0,0
    800021e8:	6105                	addi	sp,sp,32
    800021ea:	8082                	ret
    800021ec:	4501                	li	a0,0
    800021ee:	8082                	ret

00000000800021f0 <fflush>:
    800021f0:	85aa                	mv	a1,a0
    800021f2:	ed19                	bnez	a0,80002210 <fflush+0x20>
    800021f4:	00001617          	auipc	a2,0x1
    800021f8:	89c60613          	addi	a2,a2,-1892 # 80002a90 <__sglue>
    800021fc:	00000597          	auipc	a1,0x0
    80002200:	fbc58593          	addi	a1,a1,-68 # 800021b8 <_fflush_r>
    80002204:	00001517          	auipc	a0,0x1
    80002208:	8a450513          	addi	a0,a0,-1884 # 80002aa8 <_impure_data>
    8000220c:	f9cff06f          	j	800019a8 <_fwalk_sglue>
    80002210:	00001517          	auipc	a0,0x1
    80002214:	93053503          	ld	a0,-1744(a0) # 80002b40 <_impure_ptr>
    80002218:	b745                	j	800021b8 <_fflush_r>

000000008000221a <_sbrk_r>:
    8000221a:	1141                	addi	sp,sp,-16
    8000221c:	e022                	sd	s0,0(sp)
    8000221e:	842a                	mv	s0,a0
    80002220:	852e                	mv	a0,a1
    80002222:	8401a423          	sw	zero,-1976(gp) # 80002b80 <errno>
    80002226:	e406                	sd	ra,8(sp)
    80002228:	058000ef          	jal	80002280 <_sbrk>
    8000222c:	57fd                	li	a5,-1
    8000222e:	00f51663          	bne	a0,a5,8000223a <_sbrk_r+0x20>
    80002232:	8481a783          	lw	a5,-1976(gp) # 80002b80 <errno>
    80002236:	c391                	beqz	a5,8000223a <_sbrk_r+0x20>
    80002238:	c01c                	sw	a5,0(s0)
    8000223a:	60a2                	ld	ra,8(sp)
    8000223c:	6402                	ld	s0,0(sp)
    8000223e:	0141                	addi	sp,sp,16
    80002240:	8082                	ret

0000000080002242 <_close>:
#include <errno.h>
#include "syscall.h"

int _close(int file)
{
    80002242:	1141                	addi	sp,sp,-16
    80002244:	e406                	sd	ra,8(sp)
    errno = EBADF;
    80002246:	07c000ef          	jal	800022c2 <__errno>
    return -1;
}
    8000224a:	60a2                	ld	ra,8(sp)
    errno = EBADF;
    8000224c:	47a5                	li	a5,9
    8000224e:	c11c                	sw	a5,0(a0)
}
    80002250:	557d                	li	a0,-1
    80002252:	0141                	addi	sp,sp,16
    80002254:	8082                	ret

0000000080002256 <_lseek>:
#include <errno.h>
#include <sys/types.h>
#include "syscall.h"

off_t _lseek(int file, off_t ptr, int dir)
{
    80002256:	1141                	addi	sp,sp,-16
    80002258:	e406                	sd	ra,8(sp)
    errno = EBADF;
    8000225a:	068000ef          	jal	800022c2 <__errno>
    return -1;
}
    8000225e:	60a2                	ld	ra,8(sp)
    errno = EBADF;
    80002260:	47a5                	li	a5,9
    80002262:	c11c                	sw	a5,0(a0)
}
    80002264:	557d                	li	a0,-1
    80002266:	0141                	addi	sp,sp,16
    80002268:	8082                	ret

000000008000226a <_read>:
#include <errno.h>
#include <sys/types.h>
#include "syscall.h"

ssize_t _read(int file, void *ptr, size_t len)
{
    8000226a:	1141                	addi	sp,sp,-16
    8000226c:	e406                	sd	ra,8(sp)
    errno = ENOSYS;
    8000226e:	054000ef          	jal	800022c2 <__errno>
    return -1;
}
    80002272:	60a2                	ld	ra,8(sp)
    errno = ENOSYS;
    80002274:	05800793          	li	a5,88
    80002278:	c11c                	sw	a5,0(a0)
}
    8000227a:	557d                	li	a0,-1
    8000227c:	0141                	addi	sp,sp,16
    8000227e:	8082                	ret

0000000080002280 <_sbrk>:
{
    extern char __heap_end[];
    char *newbrk;
    char *oldbrk;

    oldbrk = curbrk;
    80002280:	81818793          	addi	a5,gp,-2024 # 80002b50 <curbrk>
    80002284:	639c                	ld	a5,0(a5)
    newbrk = oldbrk + incr;
    if (unlikely((newbrk < _end) || (newbrk >= __heap_end))) {
    80002286:	b9818713          	addi	a4,gp,-1128 # 80002ed0 <_end>
    newbrk = oldbrk + incr;
    8000228a:	953e                	add	a0,a0,a5
    if (unlikely((newbrk < _end) || (newbrk >= __heap_end))) {
    8000228c:	00e56c63          	bltu	a0,a4,800022a4 <_sbrk+0x24>
    80002290:	00021717          	auipc	a4,0x21
    80002294:	d7070713          	addi	a4,a4,-656 # 80023000 <__heap_end>
    80002298:	00e57663          	bgeu	a0,a4,800022a4 <_sbrk+0x24>
        errno = ENOMEM;
        return (void *)(-1);
    }

    curbrk = newbrk;
    8000229c:	80a1bc23          	sd	a0,-2024(gp) # 80002b50 <curbrk>
    return oldbrk;
}
    800022a0:	853e                	mv	a0,a5
    800022a2:	8082                	ret
{
    800022a4:	1141                	addi	sp,sp,-16
    800022a6:	e406                	sd	ra,8(sp)
        errno = ENOMEM;
    800022a8:	01a000ef          	jal	800022c2 <__errno>
}
    800022ac:	60a2                	ld	ra,8(sp)
        errno = ENOMEM;
    800022ae:	47b1                	li	a5,12
    800022b0:	c11c                	sw	a5,0(a0)
        return (void *)(-1);
    800022b2:	57fd                	li	a5,-1
}
    800022b4:	853e                	mv	a0,a5
    800022b6:	0141                	addi	sp,sp,16
    800022b8:	8082                	ret

00000000800022ba <_write>:
#include <sys/types.h>
#include "syscall.h"

ssize_t _write(int fd, const void *ptr, size_t len)
{
    return SYSCALL3(SYS_write, fd, (uintptr_t)ptr, len);
    800022ba:	04000693          	li	a3,64
    800022be:	c5cff06f          	j	8000171a <htif_syscall>

00000000800022c2 <__errno>:
    800022c2:	00001517          	auipc	a0,0x1
    800022c6:	87e53503          	ld	a0,-1922(a0) # 80002b40 <_impure_ptr>
    800022ca:	8082                	ret

Disassembly of section .rodata:

00000000800022d0 <__tbss_end+0x4>:
    800022d0:	68432023          	sw	tp,1664(t1)
    800022d4:	4361                	li	t1,24
    800022d6:	6168                	ld	a0,192(a0)
    800022d8:	2d20                	fld	fs0,88(a0)
    800022da:	3820                	fld	fs0,112(s0)
    800022dc:	7220                	ld	s0,96(a2)
    800022de:	646e756f          	jal	a0,800e9924 <__heap_end+0xc6924>
    800022e2:	31202c73          	csrr	s8,0x312
    800022e6:	3832                	fld	fa6,296(sp)
    800022e8:	622d                	lui	tp,0xb
    800022ea:	7469                	lui	s0,0xffffa
    800022ec:	6b20                	ld	s0,80(a4)
    800022ee:	7965                	lui	s2,0xffff9
    800022f0:	3d20                	fld	fs0,120(a0)
    800022f2:	3d3d                	addiw	s10,s10,-17
    800022f4:	3d3d                	addiw	s10,s10,-17
    800022f6:	3d3d                	addiw	s10,s10,-17
    800022f8:	3d3d                	addiw	s10,s10,-17
    800022fa:	3d3d                	addiw	s10,s10,-17
    800022fc:	3d3d                	addiw	s10,s10,-17
    800022fe:	3d3d                	addiw	s10,s10,-17
    80002300:	3d3d                	addiw	s10,s10,-17
    80002302:	3d3d                	addiw	s10,s10,-17
    80002304:	3d3d                	addiw	s10,s10,-17
    80002306:	3d3d                	addiw	s10,s10,-17
    80002308:	3d3d                	addiw	s10,s10,-17
    8000230a:	3d3d                	addiw	s10,s10,-17
    8000230c:	3d3d                	addiw	s10,s10,-17
    8000230e:	3d3d                	addiw	s10,s10,-17
    80002310:	3d3d                	addiw	s10,s10,-17
    80002312:	3d3d                	addiw	s10,s10,-17
    80002314:	3d3d                	addiw	s10,s10,-17
    80002316:	3d3d                	addiw	s10,s10,-17
    80002318:	3d3d                	addiw	s10,s10,-17
    8000231a:	3d3d                	addiw	s10,s10,-17
    8000231c:	3d3d                	addiw	s10,s10,-17
    8000231e:	0a0d                	addi	s4,s4,3
	...
    80002328:	7845                	lui	a6,0xffff1
    8000232a:	6570                	ld	a2,200(a0)
    8000232c:	64657463          	bgeu	a0,t1,80002974 <__tbss_end+0x6a8>
    80002330:	7220                	ld	s0,96(a2)
    80002332:	7365                	lui	t1,0xffff9
    80002334:	6c75                	lui	s8,0x1d
    80002336:	3a74                	fld	fa3,240(a2)
    80002338:	0020                	addi	s0,sp,8
    8000233a:	0000                	unimp
    8000233c:	0000                	unimp
    8000233e:	0000                	unimp
    80002340:	7825                	lui	a6,0xfffe9
    80002342:	0000                	unimp
    80002344:	0000                	unimp
    80002346:	0000                	unimp
    80002348:	0a0d                	addi	s4,s4,3
    8000234a:	6552                	ld	a0,272(sp)
    8000234c:	746c7573          	csrrci	a0,0x746,24
    80002350:	6420                	ld	s0,72(s0)
    80002352:	6d75                	lui	s10,0x1d
    80002354:	3a70                	fld	fa2,240(a2)
    80002356:	2020                	fld	fs0,64(s0)
    80002358:	2020                	fld	fs0,64(s0)
    8000235a:	0020                	addi	s0,sp,8
    8000235c:	0000                	unimp
    8000235e:	0000                	unimp
    80002360:	0a0d                	addi	s4,s4,3
    80002362:	0a0d                	addi	s4,s4,3
    80002364:	0000                	unimp
    80002366:	0000                	unimp
    80002368:	68432023          	sw	tp,1664(t1) # ffffffffffff9680 <__heap_end+0xffffffff7ffd6680>
    8000236c:	4361                	li	t1,24
    8000236e:	6168                	ld	a0,192(a0)
    80002370:	2d20                	fld	fs0,88(a0)
    80002372:	3220                	fld	fs0,96(a2)
    80002374:	2030                	fld	fa2,64(s0)
    80002376:	6f72                	ld	t5,280(sp)
    80002378:	6e75                	lui	t3,0x1d
    8000237a:	7364                	ld	s1,224(a4)
    8000237c:	202c                	fld	fa1,64(s0)
    8000237e:	3532                	fld	fa0,296(sp)
    80002380:	2d36                	fld	fs10,328(sp)
    80002382:	6962                	ld	s2,24(sp)
    80002384:	2074                	fld	fa3,192(s0)
    80002386:	2079656b          	.insn	4, 0x2079656b
    8000238a:	3d3d                	addiw	s10,s10,-17 # 1cfef <__stack_size+0x14fef>
    8000238c:	3d3d                	addiw	s10,s10,-17
    8000238e:	3d3d                	addiw	s10,s10,-17
    80002390:	3d3d                	addiw	s10,s10,-17
    80002392:	3d3d                	addiw	s10,s10,-17
    80002394:	3d3d                	addiw	s10,s10,-17
    80002396:	3d3d                	addiw	s10,s10,-17
    80002398:	3d3d                	addiw	s10,s10,-17
    8000239a:	3d3d                	addiw	s10,s10,-17
    8000239c:	3d3d                	addiw	s10,s10,-17
    8000239e:	3d3d                	addiw	s10,s10,-17
    800023a0:	3d3d                	addiw	s10,s10,-17
    800023a2:	3d3d                	addiw	s10,s10,-17
    800023a4:	3d3d                	addiw	s10,s10,-17
    800023a6:	3d3d                	addiw	s10,s10,-17
    800023a8:	3d3d                	addiw	s10,s10,-17
    800023aa:	3d3d                	addiw	s10,s10,-17
    800023ac:	3d3d                	addiw	s10,s10,-17
    800023ae:	3d3d                	addiw	s10,s10,-17
    800023b0:	3d3d                	addiw	s10,s10,-17
    800023b2:	3d3d                	addiw	s10,s10,-17
    800023b4:	3d3d                	addiw	s10,s10,-17
    800023b6:	0a0d                	addi	s4,s4,3
	...
    800023c0:	68432023          	sw	tp,1664(t1)
    800023c4:	4361                	li	t1,24
    800023c6:	6168                	ld	a0,192(a0)
    800023c8:	2d20                	fld	fs0,88(a0)
    800023ca:	3220                	fld	fs0,96(a2)
    800023cc:	2030                	fld	fa2,64(s0)
    800023ce:	6f72                	ld	t5,280(sp)
    800023d0:	6e75                	lui	t3,0x1d
    800023d2:	7364                	ld	s1,224(a4)
    800023d4:	202c                	fld	fa1,64(s0)
    800023d6:	3532                	fld	fa0,296(sp)
    800023d8:	2d36                	fld	fs10,328(sp)
    800023da:	6962                	ld	s2,24(sp)
    800023dc:	2074                	fld	fa3,192(s0)
    800023de:	2c79656b          	.insn	4, 0x2c79656b
    800023e2:	6e20                	ld	s0,88(a2)
    800023e4:	7865                	lui	a6,0xffff9
    800023e6:	2074                	fld	fa3,192(s0)
    800023e8:	6c62                	ld	s8,24(sp)
    800023ea:	206b636f          	jal	t1,800b85f0 <__heap_end+0x955f0>
    800023ee:	3d3d                	addiw	s10,s10,-17
    800023f0:	3d3d                	addiw	s10,s10,-17
    800023f2:	3d3d                	addiw	s10,s10,-17
    800023f4:	3d3d                	addiw	s10,s10,-17
    800023f6:	3d3d                	addiw	s10,s10,-17
    800023f8:	3d3d                	addiw	s10,s10,-17
    800023fa:	3d3d                	addiw	s10,s10,-17
    800023fc:	3d3d                	addiw	s10,s10,-17
    800023fe:	3d3d                	addiw	s10,s10,-17
    80002400:	3d3d                	addiw	s10,s10,-17
    80002402:	3d3d                	addiw	s10,s10,-17
    80002404:	3d3d                	addiw	s10,s10,-17
    80002406:	3d3d                	addiw	s10,s10,-17
    80002408:	3d3d                	addiw	s10,s10,-17
    8000240a:	3d3d                	addiw	s10,s10,-17
    8000240c:	3d3d                	addiw	s10,s10,-17
    8000240e:	0a0d                	addi	s4,s4,3
	...
    80002418:	7845                	lui	a6,0xffff1
    8000241a:	6570                	ld	a2,200(a0)
    8000241c:	64657463          	bgeu	a0,t1,80002a64 <name+0x24>
    80002420:	7220                	ld	s0,96(a2)
    80002422:	7365                	lui	t1,0xffff9
    80002424:	6c75                	lui	s8,0x1d
    80002426:	3a74                	fld	fa3,240(a2)
    80002428:	3920                	fld	fs0,112(a0)
    8000242a:	3066                	fld	ft0,120(sp)
    8000242c:	62376537          	lui	a0,0x62376
    80002430:	3565                	addiw	a0,a0,-7 # 62375ff9 <__heap_size+0x62355ff9>
    80002432:	3535                	addiw	a0,a0,-19
    80002434:	3331                	addiw	t1,t1,-20 # ffffffffffff8fec <__heap_end+0xffffffff7ffd5fec>
    80002436:	3738                	fld	fa4,104(a4)
    80002438:	3961                	addiw	s2,s2,-8 # ffffffffffff8ff8 <__heap_end+0xffffffff7ffd5ff8>
    8000243a:	6238                	ld	a4,64(a2)
    8000243c:	3961                	addiw	s2,s2,-8
    8000243e:	37633737          	lui	a4,0x37633
    80002442:	30643233          	.insn	4, 0x30643233
    80002446:	3038                	fld	fa4,96(s0)
    80002448:	6364                	ld	s1,192(a4)
    8000244a:	3062                	fld	ft0,56(sp)
    8000244c:	3266                	fld	ft4,120(sp)
    8000244e:	6139                	addi	sp,sp,448
    80002450:	3430                	fld	fa2,104(s0)
    80002452:	6538                	ld	a4,72(a0)
    80002454:	36353633          	.insn	4, 0x36353633
    80002458:	3139                	addiw	sp,sp,-18
    8000245a:	6332                	ld	t1,264(sp)
    8000245c:	3536                	fld	fa0,360(sp)
    8000245e:	33653333          	.insn	4, 0x33653333
    80002462:	6532                	ld	a0,264(sp)
    80002464:	3765                	addiw	a4,a4,-7 # 37632ff9 <__heap_size+0x37612ff9>
    80002466:	6561                	lui	a0,0x18
    80002468:	3264                	fld	fs1,224(a2)
    8000246a:	6239                	lui	tp,0xe
    8000246c:	37313237          	lui	tp,0x37313
    80002470:	3936                	fld	fs2,360(sp)
    80002472:	34366563          	bltu	a2,gp,800027bc <__tbss_end+0x4f0>
    80002476:	3465                	addiw	s0,s0,-7 # ffffffffffff9ff9 <__heap_end+0xffffffff7ffd6ff9>
    80002478:	37356433          	.insn	4, 0x37356433
    8000247c:	3331                	addiw	t1,t1,-20
    8000247e:	37306233          	.insn	4, 0x37306233
    80002482:	6434                	ld	a3,72(s0)
    80002484:	3338                	fld	fa4,96(a4)
    80002486:	6439                	lui	s0,0xe
    80002488:	3335                	addiw	t1,t1,-19
    8000248a:	6531                	lui	a0,0xc
    8000248c:	3164                	fld	fs1,224(a0)
    8000248e:	3266                	fld	ft4,120(sp)
    80002490:	3538                	fld	fa4,104(a0)
    80002492:	3031                	.insn	2, 0x3031
    80002494:	6661                	lui	a2,0x18
    80002496:	3462                	fld	fs0,56(sp)
    80002498:	6135                	addi	sp,sp,352
    8000249a:	30316563          	bltu	sp,gp,800027a4 <__tbss_end+0x4d8>
    8000249e:	3161                	addiw	sp,sp,-8
    800024a0:	3466                	fld	fs0,120(sp)
    800024a2:	3762                	fld	fa4,56(sp)
    800024a4:	3439                	addiw	s0,s0,-18 # dfee <__stack_size+0x5fee>
    800024a6:	3664                	fld	fs1,232(a2)
    800024a8:	0066                	c.slli	zero,0x19
    800024aa:	0000                	unimp
    800024ac:	0000                	unimp
    800024ae:	0000                	unimp
    800024b0:	0a0d                	addi	s4,s4,3
    800024b2:	0000                	unimp
    800024b4:	0000                	unimp
    800024b6:	0000                	unimp
    800024b8:	6552                	ld	a0,272(sp)
    800024ba:	746c7573          	csrrci	a0,0x746,24
    800024be:	6420                	ld	s0,72(s0)
    800024c0:	6d75                	lui	s10,0x1d
    800024c2:	3a70                	fld	fa2,240(a2)
    800024c4:	2020                	fld	fs0,64(s0)
    800024c6:	2020                	fld	fs0,64(s0)
    800024c8:	3920                	fld	fs0,112(a0)
    800024ca:	3066                	fld	ft0,120(sp)
    800024cc:	62376537          	lui	a0,0x62376
    800024d0:	3565                	addiw	a0,a0,-7 # 62375ff9 <__heap_size+0x62355ff9>
    800024d2:	3535                	addiw	a0,a0,-19
    800024d4:	3331                	addiw	t1,t1,-20
    800024d6:	3738                	fld	fa4,104(a4)
    800024d8:	3961                	addiw	s2,s2,-8
    800024da:	6238                	ld	a4,64(a2)
    800024dc:	3961                	addiw	s2,s2,-8
    800024de:	37633737          	lui	a4,0x37633
    800024e2:	30643233          	.insn	4, 0x30643233
    800024e6:	3038                	fld	fa4,96(s0)
    800024e8:	6364                	ld	s1,192(a4)
    800024ea:	3062                	fld	ft0,56(sp)
    800024ec:	3266                	fld	ft4,120(sp)
    800024ee:	6139                	addi	sp,sp,448
    800024f0:	3430                	fld	fa2,104(s0)
    800024f2:	6538                	ld	a4,72(a0)
    800024f4:	36353633          	.insn	4, 0x36353633
    800024f8:	3139                	addiw	sp,sp,-18
    800024fa:	6332                	ld	t1,264(sp)
    800024fc:	3536                	fld	fa0,360(sp)
    800024fe:	33653333          	.insn	4, 0x33653333
    80002502:	6532                	ld	a0,264(sp)
    80002504:	3765                	addiw	a4,a4,-7 # 37632ff9 <__heap_size+0x37612ff9>
    80002506:	6561                	lui	a0,0x18
    80002508:	3264                	fld	fs1,224(a2)
    8000250a:	6239                	lui	tp,0xe
    8000250c:	37313237          	lui	tp,0x37313
    80002510:	3936                	fld	fs2,360(sp)
    80002512:	34366563          	bltu	a2,gp,8000285c <__tbss_end+0x590>
    80002516:	3465                	addiw	s0,s0,-7
    80002518:	37356433          	.insn	4, 0x37356433
    8000251c:	3331                	addiw	t1,t1,-20
    8000251e:	37306233          	.insn	4, 0x37306233
    80002522:	6434                	ld	a3,72(s0)
    80002524:	3338                	fld	fa4,96(a4)
    80002526:	6439                	lui	s0,0xe
    80002528:	3335                	addiw	t1,t1,-19
    8000252a:	6531                	lui	a0,0xc
    8000252c:	3164                	fld	fs1,224(a0)
    8000252e:	3266                	fld	ft4,120(sp)
    80002530:	3538                	fld	fa4,104(a0)
    80002532:	3031                	.insn	2, 0x3031
    80002534:	6661                	lui	a2,0x18
    80002536:	3462                	fld	fs0,56(sp)
    80002538:	6135                	addi	sp,sp,352
    8000253a:	30316563          	bltu	sp,gp,80002844 <__tbss_end+0x578>
    8000253e:	3161                	addiw	sp,sp,-8
    80002540:	3466                	fld	fs0,120(sp)
    80002542:	3762                	fld	fa4,56(sp)
    80002544:	3439                	addiw	s0,s0,-18 # dfee <__stack_size+0x5fee>
    80002546:	3664                	fld	fs1,232(a2)
    80002548:	0066                	c.slli	zero,0x19
    8000254a:	0000                	unimp
    8000254c:	0000                	unimp
    8000254e:	0000                	unimp
    80002550:	5fa4                	lw	s1,120(a5)
    80002552:	e28a                	sd	sp,320(sp)
    80002554:	8c5d                	or	s0,s0,a5
    80002556:	a67f 3e6f efed 3486 	.insn	14, 0xaa8427d3b7303486efed3e6fa67f
    8000255e:	b730 27d3 aa84 
    80002564:	a729                	j	80002c6e <__sf+0xc6>
    80002566:	1419                	addi	s0,s0,-26
    80002568:	7779                	lui	a4,0xffffe
    8000256a:	572d                	li	a4,-21
    8000256c:	1120                	addi	s0,sp,168
    8000256e:	5349                	li	t1,-14
    80002570:	b64ab8e7          	.insn	4, 0xb64ab8e7
    80002574:	eb85                	bnez	a5,800025a4 <__tbss_end+0x2d8>
    80002576:	2b8d                	addiw	s7,s7,3
    80002578:	ea7c                	sd	a5,208(a2)
    8000257a:	cd6a                	sw	s10,152(sp)
    8000257c:	9a10                	.insn	2, 0x9a10
    8000257e:	b608                	fsd	fa0,40(a2)
    80002580:	1824beeb          	.insn	4, 0x1824beeb
    80002584:	4a42                	lw	s4,16(sp)
    80002586:	0881                	addi	a7,a7,0
    80002588:	1fa2                	slli	t6,t6,0x28
    8000258a:	081b8aab          	.insn	4, 0x081b8aab
    8000258e:	c816                	sw	t0,16(sp)
    80002590:	68432023          	sw	tp,1664(t1)
    80002594:	4361                	li	t1,24
    80002596:	6168                	ld	a0,192(a0)
    80002598:	3032                	fld	ft0,296(sp)
    8000259a:	2d20                	fld	fs0,88(a0)
    8000259c:	4320                	lw	s0,64(a4)
    8000259e:	7972                	ld	s2,312(sp)
    800025a0:	7470                	ld	a2,232(s0)
    800025a2:	6172676f          	jal	a4,800293b8 <__heap_end+0x63b8>
    800025a6:	6870                	ld	a2,208(s0)
    800025a8:	2079                	.insn	2, 0x2079
    800025aa:	6341                	lui	t1,0x10
    800025ac:	656c6563          	bltu	s8,s6,80002bf6 <__sf+0x4e>
    800025b0:	6172                	ld	sp,280(sp)
    800025b2:	6f74                	ld	a3,216(a4)
    800025b4:	2072                	fld	ft0,280(sp)
    800025b6:	3d3d                	addiw	s10,s10,-17 # 1cfef <__stack_size+0x14fef>
    800025b8:	3d3d                	addiw	s10,s10,-17
    800025ba:	3d3d                	addiw	s10,s10,-17
    800025bc:	3d3d                	addiw	s10,s10,-17
    800025be:	3d3d                	addiw	s10,s10,-17
    800025c0:	3d3d                	addiw	s10,s10,-17
    800025c2:	3d3d                	addiw	s10,s10,-17
    800025c4:	3d3d                	addiw	s10,s10,-17
    800025c6:	3d3d                	addiw	s10,s10,-17
    800025c8:	3d3d                	addiw	s10,s10,-17
    800025ca:	3d3d                	addiw	s10,s10,-17
    800025cc:	3d3d                	addiw	s10,s10,-17
    800025ce:	3d3d                	addiw	s10,s10,-17
    800025d0:	3d3d                	addiw	s10,s10,-17
    800025d2:	3d3d                	addiw	s10,s10,-17
    800025d4:	0d3d                	addi	s10,s10,15
    800025d6:	000a                	c.slli	zero,0x2
    800025d8:	6c45                	lui	s8,0x11
    800025da:	7061                	c.lui	zero,0xffff8
    800025dc:	20646573          	csrrsi	a0,0x206,8
    800025e0:	6c637963          	bgeu	t1,t1,80002cb2 <__sf+0x10a>
    800025e4:	7365                	lui	t1,0xffff9
    800025e6:	203a                	fld	ft0,392(sp)
    800025e8:	6425                	lui	s0,0x9
    800025ea:	0a0d                	addi	s4,s4,3
    800025ec:	0000                	unimp
    800025ee:	0000                	unimp
    800025f0:	230d                	addiw	t1,t1,3 # ffffffffffff9003 <__heap_end+0xffffffff7ffd6003>
    800025f2:	4b20                	lw	s0,80(a4)
    800025f4:	454c                	lw	a1,12(a0)
    800025f6:	4e49                	li	t3,18
    800025f8:	362d                	addiw	a2,a2,-21 # 17feb <__stack_size+0xffeb>
    800025fa:	2034                	fld	fa3,64(s0)
    800025fc:	202d                	.insn	2, 0x202d
    800025fe:	68706943          	fmadd.s	fs2,ft0,ft7,fa3,unknown
    80002602:	7265                	lui	tp,0xffff9
    80002604:	6120                	ld	s0,64(a0)
    80002606:	646e                	ld	s0,216(sp)
    80002608:	4420                	lw	s0,72(s0)
    8000260a:	6365                	lui	t1,0x19
    8000260c:	7069                	c.lui	zero,0xffffa
    8000260e:	6568                	ld	a0,200(a0)
    80002610:	2072                	fld	ft0,280(sp)
    80002612:	3d3d                	addiw	s10,s10,-17
    80002614:	3d3d                	addiw	s10,s10,-17
    80002616:	3d3d                	addiw	s10,s10,-17
    80002618:	3d3d                	addiw	s10,s10,-17
    8000261a:	3d3d                	addiw	s10,s10,-17
    8000261c:	3d3d                	addiw	s10,s10,-17
    8000261e:	3d3d                	addiw	s10,s10,-17
    80002620:	3d3d                	addiw	s10,s10,-17
    80002622:	3d3d                	addiw	s10,s10,-17
    80002624:	3d3d                	addiw	s10,s10,-17
    80002626:	3d3d                	addiw	s10,s10,-17
    80002628:	3d3d                	addiw	s10,s10,-17
    8000262a:	3d3d                	addiw	s10,s10,-17
    8000262c:	3d3d                	addiw	s10,s10,-17
    8000262e:	3d3d                	addiw	s10,s10,-17
    80002630:	3d3d                	addiw	s10,s10,-17
    80002632:	3d3d                	addiw	s10,s10,-17
    80002634:	3d3d                	addiw	s10,s10,-17
    80002636:	0a0d                	addi	s4,s4,3
	...
    80002640:	420d                	li	tp,3
    80002642:	6f6c                	ld	a1,216(a4)
    80002644:	203a6b63          	bltu	s4,gp,8000285a <__tbss_end+0x58e>
    80002648:	2020                	fld	fs0,64(s0)
    8000264a:	6420                	ld	s0,72(s0)
    8000264c:	6165                	addi	sp,sp,112
    8000264e:	6264                	ld	s1,192(a2)
    80002650:	6565                	lui	a0,0x19
    80002652:	6666                	ld	a2,88(sp)
    80002654:	3030                	fld	fa2,96(s0)
    80002656:	3030                	fld	fa2,96(s0)
    80002658:	3030                	fld	fa2,96(s0)
    8000265a:	0d66                	slli	s10,s10,0x19
    8000265c:	000a                	c.slli	zero,0x2
    8000265e:	0000                	unimp
    80002660:	4b0d                	li	s6,3
    80002662:	7965                	lui	s2,0xffff9
    80002664:	203a                	fld	ft0,392(sp)
    80002666:	2020                	fld	fs0,64(s0)
    80002668:	2020                	fld	fs0,64(s0)
    8000266a:	3120                	fld	fs0,96(a0)
    8000266c:	3332                	fld	ft6,296(sp)
    8000266e:	3534                	fld	fa3,104(a0)
    80002670:	3736                	fld	fa4,360(sp)
    80002672:	3938                	fld	fa4,112(a0)
    80002674:	6130                	ld	a2,64(a0)
    80002676:	6362                	ld	t1,24(sp)
    80002678:	6564                	ld	s1,200(a0)
    8000267a:	0d66                	slli	s10,s10,0x19
    8000267c:	000a                	c.slli	zero,0x2
    8000267e:	0000                	unimp
    80002680:	430d                	li	t1,3
    80002682:	7069                	c.lui	zero,0xffffa
    80002684:	6568                	ld	a0,200(a0)
    80002686:	3a72                	fld	fs4,312(sp)
    80002688:	2020                	fld	fs0,64(s0)
    8000268a:	2520                	fld	fs0,72(a0)
    8000268c:	0d772577          	.insn	4, 0x0d772577
    80002690:	000a                	c.slli	zero,0x2
    80002692:	0000                	unimp
    80002694:	0000                	unimp
    80002696:	0000                	unimp
    80002698:	440d                	li	s0,3
    8000269a:	6365                	lui	t1,0x19
    8000269c:	7069                	c.lui	zero,0xffffa
    8000269e:	6568                	ld	a0,200(a0)
    800026a0:	3a72                	fld	fs4,312(sp)
    800026a2:	2520                	fld	fs0,72(a0)
    800026a4:	0d772577          	.insn	4, 0x0d772577
    800026a8:	0d0a                	slli	s10,s10,0x2
    800026aa:	000a                	c.slli	zero,0x2
    800026ac:	0000                	unimp
    800026ae:	0000                	unimp
    800026b0:	7845                	lui	a6,0xffff1
    800026b2:	6365                	lui	t1,0x19
    800026b4:	7475                	lui	s0,0xffffd
    800026b6:	6465                	lui	s0,0x19
    800026b8:	6320                	ld	s0,64(a4)
    800026ba:	6379                	lui	t1,0x1e
    800026bc:	656c                	ld	a1,200(a0)
    800026be:	6f662073          	csrs	0x6f6,a2
    800026c2:	2072                	fld	ft0,280(sp)
    800026c4:	6e65                	lui	t3,0x19
    800026c6:	70797263          	bgeu	s2,t2,80002dca <__atexit0+0x12>
    800026ca:	6974                	ld	a3,208(a0)
    800026cc:	203a6e6f          	jal	t3,800a90ce <__heap_end+0x860ce>
    800026d0:	6425                	lui	s0,0x9
    800026d2:	0a0d                	addi	s4,s4,3
    800026d4:	0000                	unimp
    800026d6:	0000                	unimp
    800026d8:	7845                	lui	a6,0xffff1
    800026da:	6365                	lui	t1,0x19
    800026dc:	7475                	lui	s0,0xffffd
    800026de:	6465                	lui	s0,0x19
    800026e0:	6320                	ld	s0,64(a4)
    800026e2:	6379                	lui	t1,0x1e
    800026e4:	656c                	ld	a1,200(a0)
    800026e6:	6f662073          	csrs	0x6f6,a2
    800026ea:	2072                	fld	ft0,280(sp)
    800026ec:	6564                	ld	s1,200(a0)
    800026ee:	70797263          	bgeu	s2,t2,80002df2 <__atexit0+0x3a>
    800026f2:	6974                	ld	a3,208(a0)
    800026f4:	203a6e6f          	jal	t3,800a90f6 <__heap_end+0x860f6>
    800026f8:	6425                	lui	s0,0x9
    800026fa:	0a0d                	addi	s4,s4,3
    800026fc:	0000                	unimp
    800026fe:	0000                	unimp
    80002700:	48532023          	sw	t0,1152(t1) # 1e480 <__stack_size+0x16480>
    80002704:	3341                	addiw	t1,t1,-16
    80002706:	352d                	addiw	a0,a0,-21 # 18feb <__stack_size+0x10feb>
    80002708:	3231                	addiw	tp,tp,-20 # ffffffffffff8fec <__heap_end+0xffffffff7ffd5fec>
    8000270a:	3d20                	fld	fs0,120(a0)
    8000270c:	3d3d                	addiw	s10,s10,-17
    8000270e:	3d3d                	addiw	s10,s10,-17
    80002710:	3d3d                	addiw	s10,s10,-17
    80002712:	3d3d                	addiw	s10,s10,-17
    80002714:	3d3d                	addiw	s10,s10,-17
    80002716:	3d3d                	addiw	s10,s10,-17
    80002718:	3d3d                	addiw	s10,s10,-17
    8000271a:	3d3d                	addiw	s10,s10,-17
    8000271c:	3d3d                	addiw	s10,s10,-17
    8000271e:	3d3d                	addiw	s10,s10,-17
    80002720:	3d3d                	addiw	s10,s10,-17
    80002722:	3d3d                	addiw	s10,s10,-17
    80002724:	3d3d                	addiw	s10,s10,-17
    80002726:	3d3d                	addiw	s10,s10,-17
    80002728:	3d3d                	addiw	s10,s10,-17
    8000272a:	3d3d                	addiw	s10,s10,-17
    8000272c:	3d3d                	addiw	s10,s10,-17
    8000272e:	3d3d                	addiw	s10,s10,-17
    80002730:	3d3d                	addiw	s10,s10,-17
    80002732:	3d3d                	addiw	s10,s10,-17
    80002734:	3d3d                	addiw	s10,s10,-17
    80002736:	3d3d                	addiw	s10,s10,-17
    80002738:	3d3d                	addiw	s10,s10,-17
    8000273a:	3d3d                	addiw	s10,s10,-17
    8000273c:	3d3d                	addiw	s10,s10,-17
    8000273e:	3d3d                	addiw	s10,s10,-17
    80002740:	3d3d                	addiw	s10,s10,-17
    80002742:	3d3d                	addiw	s10,s10,-17
    80002744:	3d3d                	addiw	s10,s10,-17
    80002746:	3d3d                	addiw	s10,s10,-17
    80002748:	3d3d                	addiw	s10,s10,-17
    8000274a:	0a0d                	addi	s4,s4,3
    8000274c:	0000                	unimp
    8000274e:	0000                	unimp
    80002750:	654d                	lui	a0,0x13
    80002752:	67617373          	csrrci	t1,0x676,2
    80002756:	3a65                	addiw	s4,s4,-7
    80002758:	2020                	fld	fs0,64(s0)
    8000275a:	5422                	lw	s0,40(sp)
    8000275c:	6568                	ld	a0,200(a0)
    8000275e:	7120                	ld	s0,96(a0)
    80002760:	6975                	lui	s2,0x1d
    80002762:	62206b63          	bltu	zero,sp,80002d98 <__sf+0x1f0>
    80002766:	6f72                	ld	t5,280(sp)
    80002768:	66206e77          	.insn	4, 0x66206e77
    8000276c:	6a20786f          	jal	a6,80009e0e <__global_pointer$+0x6ad6>
    80002770:	6d75                	lui	s10,0x1d
    80002772:	7370                	ld	a2,224(a4)
    80002774:	6f20                	ld	s0,88(a4)
    80002776:	6576                	ld	a0,344(sp)
    80002778:	2072                	fld	ft0,280(sp)
    8000277a:	6874                	ld	a3,208(s0)
    8000277c:	2065                	.insn	2, 0x2065
    8000277e:	616c                	ld	a1,192(a0)
    80002780:	797a                	ld	s2,440(sp)
    80002782:	6420                	ld	s0,72(s0)
    80002784:	2220676f          	jal	a4,800089a6 <__global_pointer$+0x566e>
    80002788:	0a0d                	addi	s4,s4,3
    8000278a:	0000                	unimp
    8000278c:	0000                	unimp
    8000278e:	0000                	unimp
    80002790:	7845                	lui	a6,0xffff1
    80002792:	6570                	ld	a2,200(a0)
    80002794:	64657463          	bgeu	a0,t1,80002ddc <__atexit0+0x24>
    80002798:	203a                	fld	ft0,392(sp)
    8000279a:	3130                	fld	fa2,96(a0)
    8000279c:	6564                	ld	s1,200(a0)
    8000279e:	6464                	ld	s1,200(s0)
    800027a0:	6435                	lui	s0,0xd
    800027a2:	3465                	addiw	s0,s0,-7 # cff9 <__stack_size+0x4ff9>
    800027a4:	6665                	lui	a2,0x19
    800027a6:	3431                	addiw	s0,s0,-20
    800027a8:	3436                	fld	fs0,360(sp)
    800027aa:	3432                	fld	fs0,296(sp)
    800027ac:	3534                	fld	fa3,104(a0)
    800027ae:	6162                	ld	sp,24(sp)
    800027b0:	6635                	lui	a2,0xd
    800027b2:	6235                	lui	tp,0xd
    800027b4:	3739                	addiw	a4,a4,-18 # ffffffffffffdfee <__heap_end+0xffffffff7ffdafee>
    800027b6:	65353163          	.insn	4, 0x65353163
    800027ba:	3734                	fld	fa3,104(a4)
    800027bc:	3962                	fld	fs2,56(sp)
    800027be:	6461                	lui	s0,0x18
    800027c0:	3339                	addiw	t1,t1,-18
    800027c2:	3331                	addiw	t1,t1,-20
    800027c4:	3632                	fld	fa2,296(sp)
    800027c6:	3465                	addiw	s0,s0,-7 # 17ff9 <__stack_size+0xfff9>
    800027c8:	3062                	fld	ft0,56(sp)
    800027ca:	63373237          	lui	tp,0x63373
    800027ce:	3964                	fld	fs1,240(a0)
    800027d0:	6334                	ld	a3,64(a4)
    800027d2:	6665                	lui	a2,0x19
    800027d4:	66343463          	.insn	4, 0x66343463
    800027d8:	6666                	ld	a2,88(sp)
    800027da:	3332                	fld	ft6,296(sp)
    800027dc:	3066                	fld	ft0,120(sp)
    800027de:	35666237          	lui	tp,0x35666
    800027e2:	3334                	fld	fa3,96(a4)
    800027e4:	3331                	addiw	t1,t1,-20
    800027e6:	3939                	addiw	s2,s2,-18 # 1cfee <__stack_size+0x14fee>
    800027e8:	34623933          	.insn	4, 0x34623933
    800027ec:	3139                	addiw	sp,sp,-18
    800027ee:	3832                	fld	fa6,296(sp)
    800027f0:	34666163          	bltu	a2,t1,80002b32 <_impure_data+0x8a>
    800027f4:	63643633          	.insn	4, 0x63643633
    800027f8:	6231                	lui	tp,0xc
    800027fa:	6564                	ld	s1,200(a0)
    800027fc:	3565                	addiw	a0,a0,-7 # 12ff9 <__stack_size+0xaff9>
    800027fe:	6634                	ld	a3,72(a2)
    80002800:	34326263          	bltu	tp,gp,80002b44 <_impure_ptr+0x4>
    80002804:	3230                	fld	fa2,96(a2)
    80002806:	38306133          	.insn	4, 0x38306133
    8000280a:	3964                	fld	fs1,240(a0)
    8000280c:	3034                	fld	fa3,96(s0)
    8000280e:	62396633          	.insn	4, 0x62396633
    80002812:	6234                	ld	a3,64(a2)
    80002814:	3066                	fld	ft0,120(sp)
    80002816:	3464                	fld	fs1,232(s0)
    80002818:	3035                	.insn	2, 0x3035
    8000281a:	0a0d                	addi	s4,s4,3
    8000281c:	0000                	unimp
    8000281e:	0000                	unimp
    80002820:	6944                	ld	s1,144(a0)
    80002822:	74736567          	.insn	4, 0x74736567
    80002826:	203a                	fld	ft0,392(sp)
    80002828:	2020                	fld	fs0,64(s0)
    8000282a:	0000                	unimp
    8000282c:	0000                	unimp
    8000282e:	0000                	unimp
    80002830:	7725                	lui	a4,0xfffe9
    80002832:	0000                	unimp
    80002834:	0000                	unimp
    80002836:	0000                	unimp
    80002838:	654d                	lui	a0,0x13
    8000283a:	67617373          	csrrci	t1,0x676,2
    8000283e:	3a65                	addiw	s4,s4,-7
    80002840:	2020                	fld	fs0,64(s0)
    80002842:	5422                	lw	s0,40(sp)
    80002844:	6568                	ld	a0,200(a0)
    80002846:	7120                	ld	s0,96(a0)
    80002848:	6975                	lui	s2,0x1d
    8000284a:	62206b63          	bltu	zero,sp,80002e80 <__atexit0+0xc8>
    8000284e:	6f72                	ld	t5,280(sp)
    80002850:	66206e77          	.insn	4, 0x66206e77
    80002854:	6a20786f          	jal	a6,80009ef6 <__global_pointer$+0x6bbe>
    80002858:	6d75                	lui	s10,0x1d
    8000285a:	7370                	ld	a2,224(a4)
    8000285c:	6f20                	ld	s0,88(a4)
    8000285e:	6576                	ld	a0,344(sp)
    80002860:	2072                	fld	ft0,280(sp)
    80002862:	6874                	ld	a3,208(s0)
    80002864:	2065                	.insn	2, 0x2065
    80002866:	616c                	ld	a1,192(a0)
    80002868:	797a                	ld	s2,440(sp)
    8000286a:	6420                	ld	s0,72(s0)
    8000286c:	222e676f          	jal	a4,800e8a8e <__heap_end+0xc5a8e>
    80002870:	0a0d                	addi	s4,s4,3
    80002872:	0000                	unimp
    80002874:	0000                	unimp
    80002876:	0000                	unimp
    80002878:	7845                	lui	a6,0xffff1
    8000287a:	6570                	ld	a2,200(a0)
    8000287c:	64657463          	bgeu	a0,t1,80002ec4 <__atexit0+0x10c>
    80002880:	203a                	fld	ft0,392(sp)
    80002882:	3831                	addiw	a6,a6,-20 # ffffffffffff0fec <__heap_end+0xffffffff7ffcdfec>
    80002884:	3466                	fld	fs0,120(sp)
    80002886:	3466                	fld	fs0,120(sp)
    80002888:	6462                	ld	s0,24(sp)
    8000288a:	3134                	fld	fa3,96(a0)
    8000288c:	3639                	addiw	a2,a2,-18 # 18fee <__stack_size+0x10fee>
    8000288e:	3330                	fld	fa2,96(a4)
    80002890:	3966                	fld	fs2,120(sp)
    80002892:	3535                	addiw	a0,a0,-19 # 12fed <__stack_size+0xafed>
    80002894:	33383833          	.insn	4, 0x33383833
    80002898:	33303037          	lui	zero,0x33303
    8000289c:	3964                	fld	fs1,240(a0)
    8000289e:	3264                	fld	fs1,224(a2)
    800028a0:	3435                	addiw	s0,s0,-19
    800028a2:	63363263          	.insn	4, 0x63363263
    800028a6:	3332                	fld	ft6,296(sp)
    800028a8:	35353637          	lui	a2,0x35353
    800028ac:	3536                	fld	fa0,360(sp)
    800028ae:	3631                	addiw	a2,a2,-20 # 35352fec <__heap_size+0x35332fec>
    800028b0:	3232                	fld	ft4,296(sp)
    800028b2:	3734                	fld	fa3,104(a4)
    800028b4:	3834                	fld	fa3,112(s0)
    800028b6:	35366633          	.insn	4, 0x35366633
    800028ba:	33303563          	.insn	4, 0x33303563
    800028be:	3330                	fld	fa2,96(a4)
    800028c0:	3935                	addiw	s2,s2,-19 # 1cfed <__stack_size+0x14fed>
    800028c2:	39636237          	lui	tp,0x39636
    800028c6:	64346563          	bltu	s0,gp,80002f10 <_end+0x40>
    800028ca:	3832                	fld	fa6,296(sp)
    800028cc:	6639                	lui	a2,0xe
    800028ce:	3132                	fld	ft2,296(sp)
    800028d0:	3164                	fld	fs1,224(a0)
    800028d2:	31663263          	.insn	4, 0x31663263
    800028d6:	3466                	fld	fs0,120(sp)
    800028d8:	3835                	addiw	a6,a6,-19
    800028da:	3238                	fld	fa4,96(a2)
    800028dc:	6538                	ld	a4,72(a0)
    800028de:	63643333          	.insn	4, 0x63643333
    800028e2:	3434                	fld	fa3,104(s0)
    800028e4:	3132                	fld	ft2,296(sp)
    800028e6:	3030                	fld	fa2,96(s0)
    800028e8:	62313333          	.insn	4, 0x62313333
    800028ec:	37653533          	.insn	4, 0x37653533
    800028f0:	6265                	lui	tp,0x19
    800028f2:	3330                	fld	fa2,96(a4)
    800028f4:	6231                	lui	tp,0xc
    800028f6:	6435                	lui	s0,0xd
    800028f8:	61623833          	.insn	4, 0x61623833
    800028fc:	3436                	fld	fs0,360(sp)
    800028fe:	3036                	fld	ft0,360(sp)
    80002900:	3866                	fld	fa6,120(sp)
    80002902:	0a0d                	addi	s4,s4,3
    80002904:	0000                	unimp
    80002906:	0000                	unimp
    80002908:	6520                	ld	s0,72(a0)
    8000290a:	5468                	lw	a0,108(s0)
    8000290c:	71756963          	bltu	a0,s7,8000301e <_end+0x14e>
    80002910:	6272                	ld	tp,280(sp)
    80002912:	6b20                	ld	s0,80(a4)
    80002914:	6e20                	ld	s0,88(a2)
    80002916:	78206f77          	.insn	4, 0x78206f77
    8000291a:	6d70666f          	jal	a2,800097f0 <__global_pointer$+0x64b8>
    8000291e:	6a75                	lui	s4,0x1d
    80002920:	6f76                	ld	t5,344(sp)
    80002922:	7320                	ld	s0,96(a4)
    80002924:	2074                	fld	fa3,192(s0)
    80002926:	6572                	ld	a0,280(sp)
    80002928:	206c                	fld	fa1,192(s0)
    8000292a:	6865                	lui	a6,0x19
    8000292c:	7920                	ld	s0,112(a0)
    8000292e:	617a                	ld	sp,408(sp)
    80002930:	6700                	ld	s0,8(a4)
    80002932:	0000646f          	jal	s0,80008932 <__global_pointer$+0x55fa>
    80002936:	0000                	unimp
    80002938:	6520                	ld	s0,72(a0)
    8000293a:	5468                	lw	a0,108(s0)
    8000293c:	71756963          	bltu	a0,s7,8000304e <_end+0x17e>
    80002940:	6272                	ld	tp,280(sp)
    80002942:	6b20                	ld	s0,80(a4)
    80002944:	6e20                	ld	s0,88(a2)
    80002946:	78206f77          	.insn	4, 0x78206f77
    8000294a:	6d70666f          	jal	a2,80009820 <__global_pointer$+0x64e8>
    8000294e:	6a75                	lui	s4,0x1d
    80002950:	6f76                	ld	t5,344(sp)
    80002952:	7320                	ld	s0,96(a4)
    80002954:	2074                	fld	fa3,192(s0)
    80002956:	6572                	ld	a0,280(sp)
    80002958:	206c                	fld	fa1,192(s0)
    8000295a:	6865                	lui	a6,0x19
    8000295c:	7920                	ld	s0,112(a0)
    8000295e:	617a                	ld	sp,408(sp)
    80002960:	672e                	ld	a4,200(sp)
    80002962:	0000646f          	jal	s0,80008962 <__global_pointer$+0x562a>
    80002966:	0000                	unimp
    80002968:	48532023          	sw	t0,1152(t1)
    8000296c:	3341                	addiw	t1,t1,-16
    8000296e:	352d                	addiw	a0,a0,-21
    80002970:	3231                	addiw	tp,tp,-20 # bfec <__stack_size+0x3fec>
    80002972:	2d20                	fld	fs0,88(a0)
    80002974:	4320                	lw	s0,64(a4)
    80002976:	7972                	ld	s2,312(sp)
    80002978:	7470                	ld	a2,232(s0)
    8000297a:	6172676f          	jal	a4,80029790 <__heap_end+0x6790>
    8000297e:	6870                	ld	a2,208(s0)
    80002980:	2079                	.insn	2, 0x2079
    80002982:	6341                	lui	t1,0x10
    80002984:	656c6563          	bltu	s8,s6,80002fce <_end+0xfe>
    80002988:	6172                	ld	sp,280(sp)
    8000298a:	6f74                	ld	a3,216(a4)
    8000298c:	2072                	fld	ft0,280(sp)
    8000298e:	3d3d                	addiw	s10,s10,-17 # 1cfef <__stack_size+0x14fef>
    80002990:	3d3d                	addiw	s10,s10,-17
    80002992:	3d3d                	addiw	s10,s10,-17
    80002994:	3d3d                	addiw	s10,s10,-17
    80002996:	3d3d                	addiw	s10,s10,-17
    80002998:	3d3d                	addiw	s10,s10,-17
    8000299a:	3d3d                	addiw	s10,s10,-17
    8000299c:	3d3d                	addiw	s10,s10,-17
    8000299e:	3d3d                	addiw	s10,s10,-17
    800029a0:	3d3d                	addiw	s10,s10,-17
    800029a2:	3d3d                	addiw	s10,s10,-17
    800029a4:	3d3d                	addiw	s10,s10,-17
    800029a6:	3d3d                	addiw	s10,s10,-17
    800029a8:	3d3d                	addiw	s10,s10,-17
    800029aa:	3d3d                	addiw	s10,s10,-17
    800029ac:	0d3d                	addi	s10,s10,15
    800029ae:	000a                	c.slli	zero,0x2
    800029b0:	4d55                	li	s10,21
    800029b2:	46454843          	.insn	4, 0x46454843
    800029b6:	5320                	lw	s0,96(a4)
    800029b8:	4c20                	lw	s0,88(s0)
    800029ba:	5445                	li	s0,-15
    800029bc:	534c                	lw	a1,36(a4)
    800029be:	4445                	li	s0,17
    800029c0:	0000                	unimp
    800029c2:	4142                	lw	sp,16(sp)
    800029c4:	0000                	unimp
    800029c6:	0000                	unimp
    800029c8:	6548                	ld	a0,136(a0)
    800029ca:	6c6c                	ld	a1,216(s0)
    800029cc:	6f77206f          	j	800758c2 <__heap_end+0x528c2>
    800029d0:	6c72                	ld	s8,280(sp)
    800029d2:	2164                	fld	fs1,192(a0)
    800029d4:	0a0d                	addi	s4,s4,3 # 1d003 <__stack_size+0x15003>
    800029d6:	0000                	unimp
    800029d8:	ebe8                	sd	a0,208(a5)
    800029da:	ffff                	.insn	2, 0xffff
    800029dc:	eaf0                	sd	a2,208(a3)
    800029de:	ffff                	.insn	2, 0xffff
    800029e0:	ec7c                	sd	a5,216(s0)
    800029e2:	ffff                	.insn	2, 0xffff
    800029e4:	ec7c                	sd	a5,216(s0)
    800029e6:	ffff                	.insn	2, 0xffff
    800029e8:	ec7c                	sd	a5,216(s0)
    800029ea:	ffff                	.insn	2, 0xffff
    800029ec:	ea3a                	sd	a4,272(sp)
    800029ee:	ffff                	.insn	2, 0xffff
    800029f0:	ec7c                	sd	a5,216(s0)
    800029f2:	ffff                	.insn	2, 0xffff
    800029f4:	ec7c                	sd	a5,216(s0)
    800029f6:	ffff                	.insn	2, 0xffff
    800029f8:	ec7c                	sd	a5,216(s0)
    800029fa:	ffff                	.insn	2, 0xffff
    800029fc:	ea32                	sd	a2,272(sp)
    800029fe:	ffff                	.insn	2, 0xffff
    80002a00:	ec7c                	sd	a5,216(s0)
    80002a02:	ffff                	.insn	2, 0xffff
    80002a04:	ec7c                	sd	a5,216(s0)
    80002a06:	ffff                	.insn	2, 0xffff
    80002a08:	ec7c                	sd	a5,216(s0)
    80002a0a:	ffff                	.insn	2, 0xffff
    80002a0c:	ec7c                	sd	a5,216(s0)
    80002a0e:	ffff                	.insn	2, 0xffff
    80002a10:	ec7c                	sd	a5,216(s0)
    80002a12:	ffff                	.insn	2, 0xffff
    80002a14:	ec7c                	sd	a5,216(s0)
    80002a16:	ffff                	.insn	2, 0xffff
    80002a18:	ebd2                	sd	s4,464(sp)
    80002a1a:	ffff                	.insn	2, 0xffff
    80002a1c:	ec7c                	sd	a5,216(s0)
    80002a1e:	ffff                	.insn	2, 0xffff
    80002a20:	ec7c                	sd	a5,216(s0)
    80002a22:	ffff                	.insn	2, 0xffff
    80002a24:	ec7c                	sd	a5,216(s0)
    80002a26:	ffff                	.insn	2, 0xffff
    80002a28:	ec02                	sd	zero,24(sp)
    80002a2a:	ffff                	.insn	2, 0xffff
    80002a2c:	ea42                	sd	a6,272(sp)
    80002a2e:	ffff                	.insn	2, 0xffff

0000000080002a30 <argv>:
    80002a30:	2a40                	fld	fs0,144(a2)
    80002a32:	8000                	.insn	2, 0x8000
	...

0000000080002a40 <name>:
    80002a40:	70696863          	bltu	s2,t1,80003150 <_end+0x280>
    80002a44:	6179                	addi	sp,sp,464
    80002a46:	6472                	ld	s0,280(sp)
	...

Disassembly of section .eh_frame:

0000000080002a50 <.eh_frame>:
    80002a50:	0010                	.insn	2, 0x0010
    80002a52:	0000                	unimp
    80002a54:	0000                	unimp
    80002a56:	0000                	unimp
    80002a58:	7a01                	lui	s4,0xfffe0
    80002a5a:	0052                	c.slli	zero,0x14
    80002a5c:	7c01                	lui	s8,0xfffe0
    80002a5e:	0101                	addi	sp,sp,0
    80002a60:	00020d1b          	sext.w	s10,tp
    80002a64:	0010                	.insn	2, 0x0010
    80002a66:	0000                	unimp
    80002a68:	0018                	.insn	2, 0x0018
    80002a6a:	0000                	unimp
    80002a6c:	d594                	sw	a3,40(a1)
    80002a6e:	ffff                	.insn	2, 0xffff
    80002a70:	0146                	slli	sp,sp,0x11
    80002a72:	0000                	unimp
    80002a74:	0000                	unimp
	...

Disassembly of section .htif:

0000000080002a80 <tohost>:
	...

0000000080002a88 <fromhost>:
	...

Disassembly of section .data.__sglue:

0000000080002a90 <__sglue>:
	...
    80002a98:	00000003          	lb	zero,0(zero) # 0 <__boot_hart>
    80002a9c:	0000                	unimp
    80002a9e:	0000                	unimp
    80002aa0:	2ba8                	fld	fa0,80(a5)
    80002aa2:	8000                	.insn	2, 0x8000
    80002aa4:	0000                	unimp
	...

Disassembly of section .data._impure_data:

0000000080002aa8 <_impure_data>:
	...
    80002ab0:	2ba8                	fld	fa0,80(a5)
    80002ab2:	8000                	.insn	2, 0x8000
    80002ab4:	0000                	unimp
    80002ab6:	0000                	unimp
    80002ab8:	2c58                	fld	fa4,152(s0)
    80002aba:	8000                	.insn	2, 0x8000
    80002abc:	0000                	unimp
    80002abe:	0000                	unimp
    80002ac0:	2d08                	fld	fa0,24(a0)
    80002ac2:	8000                	.insn	2, 0x8000
	...

Disassembly of section .sdata:

0000000080002b38 <environ>:
    80002b38:	2b70                	fld	fa2,208(a4)
    80002b3a:	8000                	.insn	2, 0x8000
    80002b3c:	0000                	unimp
	...

0000000080002b40 <_impure_ptr>:
    80002b40:	2aa8                	fld	fa0,80(a3)
    80002b42:	8000                	.insn	2, 0x8000
    80002b44:	0000                	unimp
	...

0000000080002b48 <__atexit_dummy>:
    80002b48:	1d82                	slli	s11,s11,0x20
    80002b4a:	8000                	.insn	2, 0x8000
    80002b4c:	0000                	unimp
	...

0000000080002b50 <curbrk>:
static char *curbrk = _end;
    80002b50:	2ed0                	fld	fa2,152(a3)
    80002b52:	8000                	.insn	2, 0x8000
    80002b54:	0000                	unimp
	...

0000000080002b58 <uart>:

  #define _CONCAT3(A, B, C) A ## B ## C
  #define _UART_CTRL_ADDR(UART_NUM) _CONCAT3(UART, UART_NUM, _CTRL_ADDR)
  #define UART_CTRL_ADDR _UART_CTRL_ADDR(UART_NUM)
#endif
static volatile uint32_t * const uart = (void *)(UART_CTRL_ADDR);
    80002b58:	0000                	unimp
    80002b5a:	6400                	ld	s0,8(s0)
    80002b5c:	0000                	unimp
	...

0000000080002b60 <uart>:
    80002b60:	0000                	unimp
    80002b62:	6400                	ld	s0,8(s0)
    80002b64:	0000                	unimp
	...

Disassembly of section .debug_info:

0000000000000000 <.debug_info>:
       0:	09a0                	addi	s0,sp,216
       2:	0000                	unimp
       4:	0005                	c.nop	1
       6:	0801                	addi	a6,a6,0 # 19000 <__stack_size+0x11000>
       8:	0000                	unimp
       a:	0000                	unimp
       c:	ea14                	sd	a3,16(a2)
       e:	0001                	nop
      10:	1d00                	addi	s0,sp,688
      12:	0000                	unimp
      14:	0000                	unimp
      16:	0009                	c.nop	2
      18:	0000                	unimp
      1a:	023e                	slli	tp,tp,0xf
      1c:	8000                	.insn	2, 0x8000
      1e:	0000                	unimp
      20:	0000                	unimp
      22:	109a                	slli	ra,ra,0x26
	...
      2c:	0000                	unimp
      2e:	0105                	addi	sp,sp,1
      30:	de06                	sw	ra,60(sp)
      32:	0001                	nop
      34:	0500                	addi	s0,sp,640
      36:	0801                	addi	a6,a6,0
      38:	01dc                	addi	a5,sp,196
      3a:	0000                	unimp
      3c:	0205                	addi	tp,tp,1 # 1 <__boot_hart+0x1>
      3e:	8605                	srai	a2,a2,0x1
      40:	0002                	c.slli64	zero
      42:	0500                	addi	s0,sp,640
      44:	0702                	c.slli64	a4
      46:	0129                	addi	sp,sp,10
      48:	0000                	unimp
      4a:	0415                	addi	s0,s0,5 # d005 <__stack_size+0x5005>
      4c:	6905                	lui	s2,0x1
      4e:	746e                	ld	s0,248(sp)
      50:	0b00                	addi	s0,sp,400
      52:	000000f7          	.insn	4, 0x00f7
      56:	4f06                	lw	t5,64(sp)
      58:	5d19                	li	s10,-26
      5a:	0000                	unimp
      5c:	0500                	addi	s0,sp,640
      5e:	0704                	addi	s1,sp,896
      60:	0045                	c.nop	17
      62:	0000                	unimp
      64:	0805                	addi	a6,a6,1
      66:	8205                	srli	a2,a2,0x1
      68:	0000                	unimp
      6a:	0500                	addi	s0,sp,640
      6c:	0708                	addi	a0,sp,896
      6e:	0040                	addi	s0,sp,4
      70:	0000                	unimp
      72:	0002900b          	.insn	4, 0x0002900b
      76:	0600                	addi	s0,sp,768
      78:	1ae8                	addi	a0,sp,380
      7a:	0000006b          	.insn	4, 0x006b
      7e:	0000f90b          	.insn	4, 0xf90b
      82:	0700                	addi	s0,sp,896
      84:	1430                	addi	a2,sp,552
      86:	0051                	c.nop	20
      88:	0000                	unimp
      8a:	7e16                	ld	t3,352(sp)
      8c:	0000                	unimp
      8e:	0b00                	addi	s0,sp,400
      90:	0292                	slli	t0,t0,0x4
      92:	0000                	unimp
      94:	72155207          	.insn	4, 0x72155207
      98:	0000                	unimp
      9a:	0500                	addi	s0,sp,640
      9c:	0508                	addi	a0,sp,640
      9e:	007d                	c.nop	31
      a0:	0000                	unimp
      a2:	1005                	c.nop	-31
      a4:	9a04                	.insn	2, 0x9a04
      a6:	0001                	nop
      a8:	0900                	addi	s0,sp,144
      aa:	00ae                	slli	ra,ra,0xb
      ac:	0000                	unimp
      ae:	0105                	addi	sp,sp,1
      b0:	e508                	sd	a0,8(a0)
      b2:	0001                	nop
      b4:	0e00                	addi	s0,sp,784
      b6:	00ae                	slli	ra,ra,0xb
      b8:	0000                	unimp
      ba:	b509                	j	fffffffffffffebc <__heap_end+0xffffffff7ffdcebc>
      bc:	0000                	unimp
      be:	0500                	addi	s0,sp,640
      c0:	0708                	addi	a0,sp,896
      c2:	0000003b          	addw	zero,zero,zero
      c6:	ae01                	j	3d6 <__stack_align+0x3c6>
      c8:	0001                	nop
      ca:	0800                	addi	s0,sp,16
      cc:	00e12213          	slti	tp,sp,14
      d0:	0000                	unimp
      d2:	0309                	addi	t1,t1,2 # 10002 <__stack_size+0x8002>
      d4:	2b58                	fld	fa4,144(a4)
      d6:	8000                	.insn	2, 0x8000
      d8:	0000                	unimp
      da:	0000                	unimp
      dc:	8a09                	andi	a2,a2,2
      de:	0000                	unimp
      e0:	0e00                	addi	s0,sp,784
      e2:	00dc                	addi	a5,sp,68
      e4:	0000                	unimp
      e6:	00031d17          	auipc	s10,0x31
      ea:	0800                	addi	s0,sp,16
      ec:	00f90d27          	.insn	4, 0x00f90d27
      f0:	0000                	unimp
      f2:	ba18                	fsd	fa4,48(a2)
      f4:	0000                	unimp
      f6:	1900                	addi	s0,sp,176
      f8:	0f00                	addi	s0,sp,912
      fa:	093e                	slli	s2,s2,0xf
      fc:	0000                	unimp
      fe:	1705                	addi	a4,a4,-31 # fffffffffffe8fe1 <__heap_end+0xffffffff7ffc5fe1>
     100:	4a05                	li	s4,1
     102:	0000                	unimp
     104:	9a00                	.insn	2, 0x9a00
     106:	0012                	c.slli	zero,0x4
     108:	0080                	addi	s0,sp,64
     10a:	0000                	unimp
     10c:	3e00                	fld	fs0,56(a2)
     10e:	0000                	unimp
     110:	0000                	unimp
     112:	0000                	unimp
     114:	0100                	addi	s0,sp,128
     116:	3a9c                	fld	fa5,48(a3)
     118:	0001                	nop
     11a:	0200                	addi	s0,sp,256
     11c:	00c0                	addi	s0,sp,68
     11e:	0000                	unimp
     120:	1705                	addi	a4,a4,-31
     122:	4a0e                	lw	s4,192(sp)
     124:	0000                	unimp
     126:	0200                	addi	s0,sp,256
     128:	6c91                	lui	s9,0x4
     12a:	610d                	addi	sp,sp,160
     12c:	7672                	ld	a2,312(sp)
     12e:	0500                	addi	s0,sp,640
     130:	013a1d17          	auipc	s10,0x13a1
     134:	0000                	unimp
     136:	9102                	jalr	sp
     138:	0060                	addi	s0,sp,12
     13a:	a909                	j	54c <__stack_align+0x53c>
     13c:	0000                	unimp
     13e:	0c00                	addi	s0,sp,528
     140:	0000008b          	.insn	4, 0x008b
     144:	7d04                	ld	s1,56(a0)
     146:	11d4                	addi	a3,sp,228
     148:	8000                	.insn	2, 0x8000
     14a:	0000                	unimp
     14c:	0000                	unimp
     14e:	00c6                	slli	ra,ra,0x11
     150:	0000                	unimp
     152:	0000                	unimp
     154:	0000                	unimp
     156:	9c01                	subw	s0,s0,s0
     158:	01d1                	addi	gp,gp,20 # 8000334c <__global_pointer$+0x14>
     15a:	0000                	unimp
     15c:	c601                	beqz	a2,164 <__stack_align+0x154>
     15e:	0002                	c.slli64	zero
     160:	0400                	addi	s0,sp,512
     162:	107e                	c.slli	zero,0x3f
     164:	01d1                	addi	gp,gp,20 # 8000334c <__global_pointer$+0x14>
     166:	0000                	unimp
     168:	9102                	jalr	sp
     16a:	0140                	addi	s0,sp,132
     16c:	013c                	addi	a5,sp,136
     16e:	0000                	unimp
     170:	8204                	.insn	2, 0x8204
     172:	e110                	sd	a2,0(a0)
     174:	0001                	nop
     176:	0300                	addi	s0,sp,384
     178:	8091                	srli	s1,s1,0x4
     17a:	017f 011c 0000 8804 	.insn	10, 0x6b1188040000011c017f
     182:	6b11 
     184:	0000                	unimp
     186:	0200                	addi	s0,sp,256
     188:	6091                	lui	ra,0x4
     18a:	3604                	fld	fs1,40(a2)
     18c:	0012                	c.slli	zero,0x4
     18e:	0080                	addi	s0,sp,64
     190:	0000                	unimp
     192:	0c00                	addi	s0,sp,528
     194:	0000                	unimp
     196:	0000                	unimp
     198:	0000                	unimp
     19a:	af00                	fsd	fs0,24(a4)
     19c:	0001                	nop
     19e:	0100                	addi	s0,sp,128
     1a0:	0102                	c.slli64	sp
     1a2:	0000                	unimp
     1a4:	8804                	.insn	2, 0x8804
     1a6:	6b21                	lui	s6,0x8
     1a8:	0000                	unimp
     1aa:	0200                	addi	s0,sp,256
     1ac:	6891                	lui	a7,0x4
     1ae:	0600                	addi	s0,sp,768
     1b0:	125e                	slli	tp,tp,0x37
     1b2:	8000                	.insn	2, 0x8000
     1b4:	0000                	unimp
     1b6:	0000                	unimp
     1b8:	000c                	.insn	2, 0x000c
     1ba:	0000                	unimp
     1bc:	0000                	unimp
     1be:	0000                	unimp
     1c0:	0201                	addi	tp,tp,0 # 0 <__boot_hart>
     1c2:	0001                	nop
     1c4:	0400                	addi	s0,sp,512
     1c6:	138a                	slli	t2,t2,0x22
     1c8:	0000006b          	.insn	4, 0x006b
     1cc:	9102                	jalr	sp
     1ce:	0058                	addi	a4,sp,4
     1d0:	0700                	addi	s0,sp,896
     1d2:	005d                	c.nop	23
     1d4:	0000                	unimp
     1d6:	01e1                	addi	gp,gp,24 # 80003350 <__global_pointer$+0x18>
     1d8:	0000                	unimp
     1da:	6b08                	ld	a0,16(a4)
     1dc:	0000                	unimp
     1de:	0400                	addi	s0,sp,512
     1e0:	0700                	addi	s0,sp,896
     1e2:	005d                	c.nop	23
     1e4:	0000                	unimp
     1e6:	01f1                	addi	gp,gp,28 # 80003354 <__global_pointer$+0x1c>
     1e8:	0000                	unimp
     1ea:	6b08                	ld	a0,16(a4)
     1ec:	0000                	unimp
     1ee:	0f00                	addi	s0,sp,912
     1f0:	0c00                	addi	s0,sp,528
     1f2:	0019                	c.nop	6
     1f4:	0000                	unimp
     1f6:	3f04                	fld	fs1,56(a4)
     1f8:	1016                	c.slli	zero,0x25
     1fa:	8000                	.insn	2, 0x8000
     1fc:	0000                	unimp
     1fe:	0000                	unimp
     200:	01be                	slli	gp,gp,0xf
     202:	0000                	unimp
     204:	0000                	unimp
     206:	0000                	unimp
     208:	9c01                	subw	s0,s0,s0
     20a:	0281                	addi	t0,t0,0
     20c:	0000                	unimp
     20e:	b201                	j	fffffffffffffb0e <__heap_end+0xffffffff7ffdcb0e>
     210:	0002                	c.slli64	zero
     212:	0400                	addi	s0,sp,512
     214:	0f41                	addi	t5,t5,16
     216:	0281                	addi	t0,t0,0
     218:	0000                	unimp
     21a:	7fb89103          	lh	sp,2043(a7) # 47fb <__stack_align+0x47eb>
     21e:	bc01                	j	fffffffffffffc2e <__heap_end+0xffffffff7ffdcc2e>
     220:	0002                	c.slli64	zero
     222:	0400                	addi	s0,sp,512
     224:	0f46                	slli	t5,t5,0x11
     226:	0291                	addi	t0,t0,4
     228:	0000                	unimp
     22a:	7f889103          	lh	sp,2040(a7)
     22e:	3c01                	addiw	s8,s8,-32 # fffffffffffdffe0 <__heap_end+0xffffffff7ffbcfe0>
     230:	0001                	nop
     232:	0400                	addi	s0,sp,512
     234:	01e10f53          	fadd.s	ft10,ft2,ft10,rne
     238:	0000                	unimp
     23a:	7ec89103          	lh	sp,2028(a7)
     23e:	fa04                	sd	s1,48(a2)
     240:	0010                	.insn	2, 0x0010
     242:	0080                	addi	s0,sp,64
     244:	0000                	unimp
     246:	3a00                	fld	fs0,48(a2)
     248:	0000                	unimp
     24a:	0000                	unimp
     24c:	0000                	unimp
     24e:	6100                	ld	s0,0(a0)
     250:	0002                	c.slli64	zero
     252:	0300                	addi	s0,sp,384
     254:	0069                	c.nop	26
     256:	6504                	ld	s1,8(a0)
     258:	4a0a                	lw	s4,128(sp)
     25a:	0000                	unimp
     25c:	0200                	addi	s0,sp,256
     25e:	6c91                	lui	s9,0x4
     260:	0600                	addi	s0,sp,768
     262:	1184                	addi	s1,sp,224
     264:	8000                	.insn	2, 0x8000
     266:	0000                	unimp
     268:	0000                	unimp
     26a:	003a                	c.slli	zero,0xe
     26c:	0000                	unimp
     26e:	0000                	unimp
     270:	0000                	unimp
     272:	04006903          	lwu	s2,64(zero) # 40 <__stack_align+0x30>
     276:	0a76                	slli	s4,s4,0x1d
     278:	004a                	c.slli	zero,0x12
     27a:	0000                	unimp
     27c:	9102                	jalr	sp
     27e:	0068                	addi	a0,sp,12
     280:	0700                	addi	s0,sp,896
     282:	005d                	c.nop	23
     284:	0000                	unimp
     286:	0291                	addi	t0,t0,4
     288:	0000                	unimp
     28a:	6b08                	ld	a0,16(a4)
     28c:	0000                	unimp
     28e:	0a00                	addi	s0,sp,272
     290:	0700                	addi	s0,sp,896
     292:	005d                	c.nop	23
     294:	0000                	unimp
     296:	02a1                	addi	t0,t0,8
     298:	0000                	unimp
     29a:	6b08                	ld	a0,16(a4)
     29c:	0000                	unimp
     29e:	0b00                	addi	s0,sp,400
     2a0:	0a00                	addi	s0,sp,272
     2a2:	0000                	unimp
     2a4:	0000                	unimp
     2a6:	2c04                	fld	fs1,24(s0)
     2a8:	0f24                	addi	s1,sp,920
     2aa:	8000                	.insn	2, 0x8000
     2ac:	0000                	unimp
     2ae:	0000                	unimp
     2b0:	00f2                	slli	ra,ra,0x1c
     2b2:	0000                	unimp
     2b4:	0000                	unimp
     2b6:	0000                	unimp
     2b8:	9c01                	subw	s0,s0,s0
     2ba:	0309                	addi	t1,t1,2
     2bc:	0000                	unimp
     2be:	a602                	fsd	ft0,264(sp)
     2c0:	0001                	nop
     2c2:	0400                	addi	s0,sp,512
     2c4:	292c                	fld	fa1,80(a0)
     2c6:	0309                	addi	t1,t1,2
     2c8:	0000                	unimp
     2ca:	9102                	jalr	sp
     2cc:	0248                	addi	a0,sp,260
     2ce:	0306                	slli	t1,t1,0x1
     2d0:	0000                	unimp
     2d2:	2c04                	fld	fs1,24(s0)
     2d4:	00005d3f 44910200 	.insn	8, 0x4491020000005d3f
     2dc:	7702                	ld	a4,32(sp)
     2de:	04000003          	lb	zero,64(zero) # 40 <__stack_align+0x30>
     2e2:	5a2c                	lw	a1,112(a2)
     2e4:	005d                	c.nop	23
     2e6:	0000                	unimp
     2e8:	9102                	jalr	sp
     2ea:	0240                	addi	s0,sp,260
     2ec:	013c                	addi	a5,sp,136
     2ee:	0000                	unimp
     2f0:	2c04                	fld	fs1,24(s0)
     2f2:	00030977          	.insn	4, 0x00030977
     2f6:	0300                	addi	s0,sp,384
     2f8:	b891                	j	fffffffffffffb4c <__heap_end+0xffffffff7ffdcb4c>
     2fa:	037f 0069 2f04 3510 	.insn	10, 0x35102f040069037f
     302:	0000 
     304:	0200                	addi	s0,sp,256
     306:	5f91                	li	t6,-28
     308:	0900                	addi	s0,sp,144
     30a:	005d                	c.nop	23
     30c:	0000                	unimp
     30e:	4310                	lw	a2,0(a4)
     310:	0001                	nop
     312:	0400                	addi	s0,sp,512
     314:	5d21                	li	s10,-24
     316:	0000                	unimp
     318:	c200                	sw	s0,0(a2)
     31a:	000e                	c.slli	zero,0x3
     31c:	0080                	addi	s0,sp,64
     31e:	0000                	unimp
     320:	6200                	ld	s0,0(a2)
     322:	0000                	unimp
     324:	0000                	unimp
     326:	0000                	unimp
     328:	0100                	addi	s0,sp,128
     32a:	4e9c                	lw	a5,24(a3)
     32c:	02000003          	lb	zero,32(zero) # 20 <__stack_align+0x10>
     330:	0152                	slli	sp,sp,0x14
     332:	0000                	unimp
     334:	2104                	fld	fs1,0(a0)
     336:	5d39                	li	s10,-18
     338:	0000                	unimp
     33a:	0200                	addi	s0,sp,256
     33c:	5c91                	li	s9,-28
     33e:	1701                	addi	a4,a4,-32
     340:	0001                	nop
     342:	0400                	addi	s0,sp,512
     344:	1226                	slli	tp,tp,0x29
     346:	005d                	c.nop	23
     348:	0000                	unimp
     34a:	9102                	jalr	sp
     34c:	006c                	addi	a1,sp,12
     34e:	9c0a                	add	s8,s8,sp
     350:	0002                	c.slli64	zero
     352:	0400                	addi	s0,sp,512
     354:	6a1a                	ld	s4,384(sp)
     356:	000e                	c.slli	zero,0x3
     358:	0080                	addi	s0,sp,64
     35a:	0000                	unimp
     35c:	5800                	lw	s0,48(s0)
     35e:	0000                	unimp
     360:	0000                	unimp
     362:	0000                	unimp
     364:	0100                	addi	s0,sp,128
     366:	8a9c                	.insn	2, 0x8a9c
     368:	02000003          	lb	zero,32(zero) # 20 <__stack_align+0x10>
     36c:	0152                	slli	sp,sp,0x14
     36e:	0000                	unimp
     370:	1a04                	addi	s1,sp,304
     372:	5d30                	lw	a2,120(a0)
     374:	0000                	unimp
     376:	0200                	addi	s0,sp,256
     378:	6c91                	lui	s9,0x4
     37a:	3e02                	fld	ft8,32(sp)
     37c:	0005                	c.nop	1
     37e:	0400                	addi	s0,sp,512
     380:	461a                	lw	a2,132(sp)
     382:	005d                	c.nop	23
     384:	0000                	unimp
     386:	9102                	jalr	sp
     388:	0068                	addi	a0,sp,12
     38a:	9d11                	subw	a0,a0,a2
     38c:	0000                	unimp
     38e:	0400                	addi	s0,sp,512
     390:	4415                	li	s0,5
     392:	000e                	c.slli	zero,0x3
     394:	0080                	addi	s0,sp,64
     396:	0000                	unimp
     398:	2600                	fld	fs0,8(a2)
     39a:	0000                	unimp
     39c:	0000                	unimp
     39e:	0000                	unimp
     3a0:	0100                	addi	s0,sp,128
     3a2:	129c                	addi	a5,sp,352
     3a4:	0359                	addi	t1,t1,22
     3a6:	0000                	unimp
     3a8:	000d5477          	.insn	4, 0x000d5477
     3ac:	0080                	addi	s0,sp,64
     3ae:	0000                	unimp
     3b0:	f000                	sd	s0,32(s0)
     3b2:	0000                	unimp
     3b4:	0000                	unimp
     3b6:	0000                	unimp
     3b8:	0100                	addi	s0,sp,128
     3ba:	339c                	fld	fa5,32(a5)
     3bc:	0004                	.insn	2, 0x0004
     3be:	0100                	addi	s0,sp,128
     3c0:	01cc                	addi	a1,sp,196
     3c2:	0000                	unimp
     3c4:	7e0e7d03          	.insn	4, 0x7e0e7d03
     3c8:	0000                	unimp
     3ca:	0200                	addi	s0,sp,256
     3cc:	6c91                	lui	s9,0x4
     3ce:	d401                	beqz	s0,2d6 <__stack_align+0x2c6>
     3d0:	0001                	nop
     3d2:	0300                	addi	s0,sp,384
     3d4:	0e7e                	slli	t3,t3,0x1f
     3d6:	007e                	c.slli	zero,0x1f
     3d8:	0000                	unimp
     3da:	9102                	jalr	sp
     3dc:	0168                	addi	a0,sp,140
     3de:	02d0                	addi	a2,sp,324
     3e0:	0000                	unimp
     3e2:	6b138c03          	lb	s8,1713(t2)
     3e6:	0000                	unimp
     3e8:	0200                	addi	s0,sp,256
     3ea:	5891                	li	a7,-28
     3ec:	d004                	sw	s1,32(s0)
     3ee:	000d                	c.nop	3
     3f0:	0080                	addi	s0,sp,64
     3f2:	0000                	unimp
     3f4:	0c00                	addi	s0,sp,528
     3f6:	0000                	unimp
     3f8:	0000                	unimp
     3fa:	0000                	unimp
     3fc:	1100                	addi	s0,sp,160
     3fe:	0004                	.insn	2, 0x0004
     400:	0100                	addi	s0,sp,128
     402:	0102                	c.slli64	sp
     404:	0000                	unimp
     406:	6b298c03          	lb	s8,1714(s3)
     40a:	0000                	unimp
     40c:	0200                	addi	s0,sp,256
     40e:	6091                	lui	ra,0x4
     410:	0600                	addi	s0,sp,768
     412:	0e14                	addi	a3,sp,784
     414:	8000                	.insn	2, 0x8000
     416:	0000                	unimp
     418:	0000                	unimp
     41a:	000c                	.insn	2, 0x000c
     41c:	0000                	unimp
     41e:	0000                	unimp
     420:	0000                	unimp
     422:	0201                	addi	tp,tp,0 # 0 <__boot_hart>
     424:	0001                	nop
     426:	0300                	addi	s0,sp,384
     428:	1b98                	addi	a4,sp,496
     42a:	0000006b          	.insn	4, 0x006b
     42e:	9102                	jalr	sp
     430:	0050                	addi	a2,sp,4
     432:	1200                	addi	s0,sp,288
     434:	0000033b          	addw	t1,zero,zero
     438:	9452                	add	s0,s0,s4
     43a:	000c                	.insn	2, 0x000c
     43c:	0080                	addi	s0,sp,64
     43e:	0000                	unimp
     440:	c000                	sw	s0,0(s0)
     442:	0000                	unimp
     444:	0000                	unimp
     446:	0000                	unimp
     448:	0100                	addi	s0,sp,128
     44a:	a59c                	fsd	fa5,8(a1)
     44c:	0004                	.insn	2, 0x0004
     44e:	0100                	addi	s0,sp,128
     450:	00ad                	addi	ra,ra,11 # 400b <__stack_align+0x3ffb>
     452:	0000                	unimp
     454:	6b136403          	lwu	s0,1713(t1)
     458:	0000                	unimp
     45a:	0200                	addi	s0,sp,256
     45c:	6091                	lui	ra,0x4
     45e:	fc04                	sd	s1,56(s0)
     460:	000c                	.insn	2, 0x000c
     462:	0080                	addi	s0,sp,64
     464:	0000                	unimp
     466:	0c00                	addi	s0,sp,528
     468:	0000                	unimp
     46a:	0000                	unimp
     46c:	0000                	unimp
     46e:	8300                	.insn	2, 0x8300
     470:	0004                	.insn	2, 0x0004
     472:	0100                	addi	s0,sp,128
     474:	0102                	c.slli64	sp
     476:	0000                	unimp
     478:	6b296403          	lwu	s0,1714(s2) # 16b2 <__stack_align+0x16a2>
     47c:	0000                	unimp
     47e:	0200                	addi	s0,sp,256
     480:	6891                	lui	a7,0x4
     482:	0600                	addi	s0,sp,768
     484:	0d24                	addi	s1,sp,664
     486:	8000                	.insn	2, 0x8000
     488:	0000                	unimp
     48a:	0000                	unimp
     48c:	000c                	.insn	2, 0x000c
     48e:	0000                	unimp
     490:	0000                	unimp
     492:	0000                	unimp
     494:	0201                	addi	tp,tp,0 # 0 <__boot_hart>
     496:	0001                	nop
     498:	0300                	addi	s0,sp,384
     49a:	1b6a                	slli	s6,s6,0x3a
     49c:	0000006b          	.insn	4, 0x006b
     4a0:	9102                	jalr	sp
     4a2:	0058                	addi	a4,sp,4
     4a4:	1300                	addi	s0,sp,416
     4a6:	000000db          	.insn	4, 0x00db
     4aa:	0a26                	slli	s4,s4,0x9
     4ac:	0080000b          	.insn	4, 0x0080000b
     4b0:	0000                	unimp
     4b2:	8a00                	.insn	2, 0x8a00
     4b4:	0001                	nop
     4b6:	0000                	unimp
     4b8:	0000                	unimp
     4ba:	0100                	addi	s0,sp,128
     4bc:	e09c                	sd	a5,0(s1)
     4be:	0004                	.insn	2, 0x0004
     4c0:	0100                	addi	s0,sp,128
     4c2:	01cc                	addi	a1,sp,196
     4c4:	0000                	unimp
     4c6:	7e0c3603          	ld	a2,2016(s8)
     4ca:	0000                	unimp
     4cc:	0200                	addi	s0,sp,256
     4ce:	6c91                	lui	s9,0x4
     4d0:	d401                	beqz	s0,3d8 <__stack_align+0x3c8>
     4d2:	0001                	nop
     4d4:	0300                	addi	s0,sp,384
     4d6:	1536                	slli	a0,a0,0x2d
     4d8:	007e                	c.slli	zero,0x1f
     4da:	0000                	unimp
     4dc:	9102                	jalr	sp
     4de:	0068                	addi	a0,sp,12
     4e0:	0003250f          	.insn	4, 0x0003250f
     4e4:	0300                	addi	s0,sp,384
     4e6:	0a1c                	addi	a5,sp,272
     4e8:	007e                	c.slli	zero,0x1f
     4ea:	0000                	unimp
     4ec:	0aa8                	addi	a0,sp,344
     4ee:	8000                	.insn	2, 0x8000
     4f0:	0000                	unimp
     4f2:	0000                	unimp
     4f4:	0062                	c.slli	zero,0x18
     4f6:	0000                	unimp
     4f8:	0000                	unimp
     4fa:	0000                	unimp
     4fc:	9c01                	subw	s0,s0,s0
     4fe:	0521                	addi	a0,a0,8
     500:	0000                	unimp
     502:	5202                	lw	tp,32(sp)
     504:	0001                	nop
     506:	0300                	addi	s0,sp,384
     508:	291c                	fld	fa5,16(a0)
     50a:	007e                	c.slli	zero,0x1f
     50c:	0000                	unimp
     50e:	9102                	jalr	sp
     510:	015c                	addi	a5,sp,132
     512:	00000117          	auipc	sp,0x0
     516:	7e0c2103          	lw	sp,2016(s8)
     51a:	0000                	unimp
     51c:	0200                	addi	s0,sp,256
     51e:	6c91                	lui	s9,0x4
     520:	1300                	addi	s0,sp,416
     522:	000002e3          	beqz	zero,d26 <__stack_align+0xd16>
     526:	4e14                	lw	a3,24(a2)
     528:	000a                	c.slli	zero,0x2
     52a:	0080                	addi	s0,sp,64
     52c:	0000                	unimp
     52e:	5a00                	lw	s0,48(a2)
     530:	0000                	unimp
     532:	0000                	unimp
     534:	0000                	unimp
     536:	0100                	addi	s0,sp,128
     538:	5c9c                	lw	a5,56(s1)
     53a:	0005                	c.nop	1
     53c:	0200                	addi	s0,sp,256
     53e:	0152                	slli	sp,sp,0x14
     540:	0000                	unimp
     542:	7e261403          	lh	s0,2018(a2) # e7e2 <__stack_size+0x67e2>
     546:	0000                	unimp
     548:	0200                	addi	s0,sp,256
     54a:	6c91                	lui	s9,0x4
     54c:	3e02                	fld	ft8,32(sp)
     54e:	0005                	c.nop	1
     550:	0300                	addi	s0,sp,384
     552:	3814                	fld	fa3,48(s0)
     554:	007e                	c.slli	zero,0x1f
     556:	0000                	unimp
     558:	9102                	jalr	sp
     55a:	0068                	addi	a0,sp,12
     55c:	c70c                	sw	a1,8(a4)
     55e:	0000                	unimp
     560:	0200                	addi	s0,sp,256
     562:	cac2                	sw	a6,84(sp)
     564:	0008                	.insn	2, 0x0008
     566:	0080                	addi	s0,sp,64
     568:	0000                	unimp
     56a:	8400                	.insn	2, 0x8400
     56c:	0001                	nop
     56e:	0000                	unimp
     570:	0000                	unimp
     572:	0100                	addi	s0,sp,128
     574:	459c                	lw	a5,8(a1)
     576:	0006                	c.slli	zero,0x1
     578:	0100                	addi	s0,sp,128
     57a:	000e                	c.slli	zero,0x3
     57c:	0000                	unimp
     57e:	c302                	sw	zero,132(sp)
     580:	4510                	lw	a2,8(a0)
     582:	0006                	c.slli	zero,0x1
     584:	0300                	addi	s0,sp,384
     586:	b091                	j	fffffffffffffdca <__heap_end+0xffffffff7ffdcdca>
     588:	017f 0313 0000 c402 	.insn	10, 0x550fc40200000313017f
     590:	550f 
     592:	0006                	c.slli	zero,0x1
     594:	0300                	addi	s0,sp,384
     596:	a891                	j	5ea <__stack_align+0x5da>
     598:	017f 0108 0000 c502 	.insn	10, 0xe10fc50200000108017f
     5a0:	e10f 
     5a2:	0001                	nop
     5a4:	0300                	addi	s0,sp,384
     5a6:	e891                	bnez	s1,5ba <__stack_align+0x5aa>
     5a8:	017e                	slli	sp,sp,0x1f
     5aa:	011c                	addi	a5,sp,128
     5ac:	0000                	unimp
     5ae:	da02                	sw	zero,52(sp)
     5b0:	6b11                	lui	s6,0x4
     5b2:	0000                	unimp
     5b4:	0200                	addi	s0,sp,256
     5b6:	5891                	li	a7,-28
     5b8:	3a04                	fld	fs1,48(a2)
     5ba:	0009                	c.nop	2
     5bc:	0080                	addi	s0,sp,64
     5be:	0000                	unimp
     5c0:	4000                	lw	s0,0(s0)
     5c2:	0000                	unimp
     5c4:	0000                	unimp
     5c6:	0000                	unimp
     5c8:	db00                	sw	s0,48(a4)
     5ca:	0005                	c.nop	1
     5cc:	0300                	addi	s0,sp,384
     5ce:	0069                	c.nop	26
     5d0:	cb02                	sw	zero,148(sp)
     5d2:	4a0c                	lw	a1,16(a2)
     5d4:	0000                	unimp
     5d6:	0200                	addi	s0,sp,256
     5d8:	6c91                	lui	s9,0x4
     5da:	0400                	addi	s0,sp,512
     5dc:	097a                	slli	s2,s2,0x1e
     5de:	8000                	.insn	2, 0x8000
     5e0:	0000                	unimp
     5e2:	0000                	unimp
     5e4:	0042                	c.slli	zero,0x10
     5e6:	0000                	unimp
     5e8:	0000                	unimp
     5ea:	0000                	unimp
     5ec:	05fe                	slli	a1,a1,0x1f
     5ee:	0000                	unimp
     5f0:	02006903          	lwu	s2,32(zero) # 20 <__stack_align+0x10>
     5f4:	0cce                	slli	s9,s9,0x13
     5f6:	004a                	c.slli	zero,0x12
     5f8:	0000                	unimp
     5fa:	9102                	jalr	sp
     5fc:	0068                	addi	a0,sp,12
     5fe:	f004                	sd	s1,32(s0)
     600:	0009                	c.nop	2
     602:	0080                	addi	s0,sp,64
     604:	0000                	unimp
     606:	0c00                	addi	s0,sp,528
     608:	0000                	unimp
     60a:	0000                	unimp
     60c:	0000                	unimp
     60e:	2300                	fld	fs0,0(a4)
     610:	0006                	c.slli	zero,0x1
     612:	0100                	addi	s0,sp,128
     614:	0102                	c.slli64	sp
     616:	0000                	unimp
     618:	da02                	sw	zero,52(sp)
     61a:	6b21                	lui	s6,0x8
     61c:	0000                	unimp
     61e:	0200                	addi	s0,sp,256
     620:	6091                	lui	ra,0x4
     622:	0600                	addi	s0,sp,768
     624:	0a12                	slli	s4,s4,0x4
     626:	8000                	.insn	2, 0x8000
     628:	0000                	unimp
     62a:	0000                	unimp
     62c:	000c                	.insn	2, 0x000c
     62e:	0000                	unimp
     630:	0000                	unimp
     632:	0000                	unimp
     634:	0201                	addi	tp,tp,0 # 0 <__boot_hart>
     636:	0001                	nop
     638:	0200                	addi	s0,sp,256
     63a:	13dd                	addi	t2,t2,-9
     63c:	0000006b          	.insn	4, 0x006b
     640:	9102                	jalr	sp
     642:	0050                	addi	a2,sp,4
     644:	0700                	addi	s0,sp,896
     646:	005d                	c.nop	23
     648:	0000                	unimp
     64a:	0655                	addi	a2,a2,21
     64c:	0000                	unimp
     64e:	6b08                	ld	a0,16(a4)
     650:	0000                	unimp
     652:	0700                	addi	s0,sp,896
     654:	0700                	addi	s0,sp,896
     656:	005d                	c.nop	23
     658:	0000                	unimp
     65a:	0665                	addi	a2,a2,25
     65c:	0000                	unimp
     65e:	6b08                	ld	a0,16(a4)
     660:	0000                	unimp
     662:	0100                	addi	s0,sp,128
     664:	0c00                	addi	s0,sp,528
     666:	0385                	addi	t2,t2,1
     668:	0000                	unimp
     66a:	5602                	lw	a2,32(sp)
     66c:	052e                	slli	a0,a0,0xb
     66e:	8000                	.insn	2, 0x8000
     670:	0000                	unimp
     672:	0000                	unimp
     674:	039c                	addi	a5,sp,448
     676:	0000                	unimp
     678:	0000                	unimp
     67a:	0000                	unimp
     67c:	9c01                	subw	s0,s0,s0
     67e:	075a                	slli	a4,a4,0x16
     680:	0000                	unimp
     682:	0e01                	addi	t3,t3,0 # 19000 <__stack_size+0x11000>
     684:	0000                	unimp
     686:	0200                	addi	s0,sp,256
     688:	06451057          	.insn	4, 0x06451057
     68c:	0000                	unimp
     68e:	9102                	jalr	sp
     690:	0140                	addi	s0,sp,132
     692:	00000313          	li	t1,0
     696:	5802                	lw	a6,32(sp)
     698:	0006550f          	.insn	4, 0x0006550f
     69c:	0300                	addi	s0,sp,384
     69e:	b891                	j	fffffffffffffef2 <__heap_end+0xffffffff7ffdcef2>
     6a0:	017f 0108 0000 5902 	.insn	10, 0xe10f590200000108017f
     6a8:	e10f 
     6aa:	0001                	nop
     6ac:	0300                	addi	s0,sp,384
     6ae:	f891                	bnez	s1,5c2 <__stack_align+0x5b2>
     6b0:	017e                	slli	sp,sp,0x1f
     6b2:	017e                	slli	sp,sp,0x1f
     6b4:	0000                	unimp
     6b6:	5f02                	lw	t5,32(sp)
     6b8:	0001e10f          	.insn	4, 0x0001e10f
     6bc:	0300                	addi	s0,sp,384
     6be:	b891                	j	ffffffffffffff12 <__heap_end+0xffffffff7ffdcf12>
     6c0:	017e                	slli	sp,sp,0x1f
     6c2:	018a                	slli	gp,gp,0x2
     6c4:	0000                	unimp
     6c6:	6502                	ld	a0,0(sp)
     6c8:	0001e10f          	.insn	4, 0x0001e10f
     6cc:	0300                	addi	s0,sp,384
     6ce:	f891                	bnez	s1,5e2 <__stack_align+0x5d2>
     6d0:	047d                	addi	s0,s0,31
     6d2:	064a                	slli	a2,a2,0x12
     6d4:	8000                	.insn	2, 0x8000
     6d6:	0000                	unimp
     6d8:	0000                	unimp
     6da:	003a                	c.slli	zero,0xe
     6dc:	0000                	unimp
     6de:	0000                	unimp
     6e0:	0000                	unimp
     6e2:	06f4                	addi	a3,sp,844
     6e4:	0000                	unimp
     6e6:	02006903          	lwu	s2,32(zero) # 20 <__stack_align+0x10>
     6ea:	0b79                	addi	s6,s6,30 # 801e <__stack_size+0x1e>
     6ec:	004a                	c.slli	zero,0x12
     6ee:	0000                	unimp
     6f0:	9102                	jalr	sp
     6f2:	006c                	addi	a1,sp,12
     6f4:	9004                	.insn	2, 0x9004
     6f6:	0006                	c.slli	zero,0x1
     6f8:	0080                	addi	s0,sp,64
     6fa:	0000                	unimp
     6fc:	3a00                	fld	fs0,48(a2)
     6fe:	0000                	unimp
     700:	0000                	unimp
     702:	0000                	unimp
     704:	1700                	addi	s0,sp,928
     706:	03000007          	.insn	4, 0x03000007
     70a:	0069                	c.nop	26
     70c:	7d02                	ld	s10,32(sp)
     70e:	4a0a                	lw	s4,128(sp)
     710:	0000                	unimp
     712:	0200                	addi	s0,sp,256
     714:	6891                	lui	a7,0x4
     716:	0400                	addi	s0,sp,512
     718:	07ee                	slli	a5,a5,0x1b
     71a:	8000                	.insn	2, 0x8000
     71c:	0000                	unimp
     71e:	0000                	unimp
     720:	003a                	c.slli	zero,0xe
     722:	0000                	unimp
     724:	0000                	unimp
     726:	0000                	unimp
     728:	073a                	slli	a4,a4,0xe
     72a:	0000                	unimp
     72c:	02006903          	lwu	s2,32(zero) # 20 <__stack_align+0x10>
     730:	0bac                	addi	a1,sp,472
     732:	004a                	c.slli	zero,0x12
     734:	0000                	unimp
     736:	9102                	jalr	sp
     738:	0064                	addi	s1,sp,12
     73a:	3406                	fld	fs0,96(sp)
     73c:	0008                	.insn	2, 0x0008
     73e:	0080                	addi	s0,sp,64
     740:	0000                	unimp
     742:	3a00                	fld	fs0,48(a2)
     744:	0000                	unimp
     746:	0000                	unimp
     748:	0000                	unimp
     74a:	0300                	addi	s0,sp,384
     74c:	0069                	c.nop	26
     74e:	b002                	fsd	ft0,32(sp)
     750:	4a0a                	lw	s4,128(sp)
     752:	0000                	unimp
     754:	0200                	addi	s0,sp,256
     756:	6091                	lui	ra,0x4
     758:	0000                	unimp
     75a:	b30a                	fsd	ft2,416(sp)
     75c:	0001                	nop
     75e:	0200                	addi	s0,sp,256
     760:	b64d                	j	302 <__stack_align+0x2f2>
     762:	0004                	.insn	2, 0x0004
     764:	0080                	addi	s0,sp,64
     766:	0000                	unimp
     768:	7800                	ld	s0,48(s0)
     76a:	0000                	unimp
     76c:	0000                	unimp
     76e:	0000                	unimp
     770:	0100                	addi	s0,sp,128
     772:	a69c                	fsd	fa5,8(a3)
     774:	02000007          	.insn	4, 0x02000007
     778:	00ee                	slli	ra,ra,0x1b
     77a:	0000                	unimp
     77c:	4d02                	lw	s10,0(sp)
     77e:	0934                	addi	a3,sp,152
     780:	02000003          	lb	zero,32(zero) # 20 <__stack_align+0x10>
     784:	4891                	li	a7,4
     786:	da06                	sw	ra,52(sp)
     788:	0004                	.insn	2, 0x0004
     78a:	0080                	addi	s0,sp,64
     78c:	0000                	unimp
     78e:	4600                	lw	s0,8(a2)
     790:	0000                	unimp
     792:	0000                	unimp
     794:	0000                	unimp
     796:	0300                	addi	s0,sp,384
     798:	0069                	c.nop	26
     79a:	5202                	lw	tp,32(sp)
     79c:	4a0e                	lw	s4,192(sp)
     79e:	0000                	unimp
     7a0:	0200                	addi	s0,sp,256
     7a2:	5c91                	li	s9,-28
     7a4:	0000                	unimp
     7a6:	6f0a                	ld	t5,128(sp)
     7a8:	0000                	unimp
     7aa:	0200                	addi	s0,sp,256
     7ac:	6a32                	ld	s4,264(sp)
     7ae:	00800003          	lb	zero,8(zero) # 8 <__boot_hart+0x8>
     7b2:	0000                	unimp
     7b4:	4c00                	lw	s0,24(s0)
     7b6:	0001                	nop
     7b8:	0000                	unimp
     7ba:	0000                	unimp
     7bc:	0100                	addi	s0,sp,128
     7be:	859c                	.insn	2, 0x859c
     7c0:	0008                	.insn	2, 0x0008
     7c2:	0200                	addi	s0,sp,256
     7c4:	00e6                	slli	ra,ra,0x19
     7c6:	0000                	unimp
     7c8:	3302                	fld	ft6,32(sp)
     7ca:	5d16                	lw	s10,100(sp)
     7cc:	0000                	unimp
     7ce:	0200                	addi	s0,sp,256
     7d0:	4c91                	li	s9,4
     7d2:	6b0d                	lui	s6,0x3
     7d4:	7965                	lui	s2,0xffff9
     7d6:	0200                	addi	s0,sp,256
     7d8:	1734                	addi	a3,sp,936
     7da:	0309                	addi	t1,t1,2
     7dc:	0000                	unimp
     7de:	9102                	jalr	sp
     7e0:	0d40                	addi	s0,sp,660
     7e2:	7669                	lui	a2,0xffffa
     7e4:	0200                	addi	s0,sp,256
     7e6:	1735                	addi	a4,a4,-19
     7e8:	0309                	addi	t1,t1,2
     7ea:	0000                	unimp
     7ec:	7fb89103          	lh	sp,2043(a7) # 47fb <__stack_align+0x47eb>
     7f0:	9702                	jalr	a4
     7f2:	02000003          	lb	zero,32(zero) # 20 <__stack_align+0x10>
     7f6:	1636                	slli	a2,a2,0x2d
     7f8:	005d                	c.nop	23
     7fa:	0000                	unimp
     7fc:	9102                	jalr	sp
     7fe:	0248                	addi	a0,sp,260
     800:	0000010f          	.insn	4, 0x010f
     804:	3702                	fld	fa4,32(sp)
     806:	00030917          	auipc	s2,0x30
     80a:	0300                	addi	s0,sp,384
     80c:	b091                	j	50 <__stack_align+0x40>
     80e:	027f 00ee 0000 3802 	.insn	10, 0x09173802000000ee027f
     816:	0917 
     818:	03000003          	lb	zero,48(zero) # 30 <__stack_align+0x20>
     81c:	a891                	j	870 <__stack_align+0x860>
     81e:	047f 0390 8000 0000 	.insn	10, 0x80000390047f
     826:	0000 
     828:	0040                	addi	s0,sp,4
     82a:	0000                	unimp
     82c:	0000                	unimp
     82e:	0000                	unimp
     830:	0842                	slli	a6,a6,0x10
     832:	0000                	unimp
     834:	02006903          	lwu	s2,32(zero) # 20 <__stack_align+0x10>
     838:	0e3a                	slli	t3,t3,0xe
     83a:	004a                	c.slli	zero,0x12
     83c:	0000                	unimp
     83e:	9102                	jalr	sp
     840:	005c                	addi	a5,sp,4
     842:	d004                	sw	s1,32(s0)
     844:	00800003          	lb	zero,8(zero) # 8 <__boot_hart+0x8>
     848:	0000                	unimp
     84a:	4200                	lw	s0,0(a2)
     84c:	0000                	unimp
     84e:	0000                	unimp
     850:	0000                	unimp
     852:	6500                	ld	s0,8(a0)
     854:	0008                	.insn	2, 0x0008
     856:	0300                	addi	s0,sp,384
     858:	0069                	c.nop	26
     85a:	3d02                	fld	fs10,32(sp)
     85c:	4a0e                	lw	s4,192(sp)
     85e:	0000                	unimp
     860:	0200                	addi	s0,sp,256
     862:	5891                	li	a7,-28
     864:	0600                	addi	s0,sp,768
     866:	0462                	slli	s0,s0,0x18
     868:	8000                	.insn	2, 0x8000
     86a:	0000                	unimp
     86c:	0000                	unimp
     86e:	0046                	c.slli	zero,0x11
     870:	0000                	unimp
     872:	0000                	unimp
     874:	0000                	unimp
     876:	02006903          	lwu	s2,32(zero) # 20 <__stack_align+0x10>
     87a:	0e49                	addi	t3,t3,18
     87c:	004a                	c.slli	zero,0x12
     87e:	0000                	unimp
     880:	9102                	jalr	sp
     882:	0054                	addi	a3,sp,4
     884:	1000                	addi	s0,sp,32
     886:	0165                	addi	sp,sp,25 # 52b <__stack_align+0x51b>
     888:	0000                	unimp
     88a:	2802                	fld	fa6,0(sp)
     88c:	005d                	c.nop	23
     88e:	0000                	unimp
     890:	0308                	addi	a0,sp,384
     892:	8000                	.insn	2, 0x8000
     894:	0000                	unimp
     896:	0000                	unimp
     898:	0062                	c.slli	zero,0x18
     89a:	0000                	unimp
     89c:	0000                	unimp
     89e:	0000                	unimp
     8a0:	9c01                	subw	s0,s0,s0
     8a2:	08c5                	addi	a7,a7,17
     8a4:	0000                	unimp
     8a6:	5202                	lw	tp,32(sp)
     8a8:	0001                	nop
     8aa:	0200                	addi	s0,sp,256
     8ac:	3b28                	fld	fa0,112(a4)
     8ae:	005d                	c.nop	23
     8b0:	0000                	unimp
     8b2:	9102                	jalr	sp
     8b4:	015c                	addi	a5,sp,132
     8b6:	00000117          	auipc	sp,0x0
     8ba:	2d02                	fld	fs10,0(sp)
     8bc:	5d12                	lw	s10,36(sp)
     8be:	0000                	unimp
     8c0:	0200                	addi	s0,sp,256
     8c2:	6c91                	lui	s9,0x4
     8c4:	0a00                	addi	s0,sp,272
     8c6:	00000057          	.insn	4, 0x0057
     8ca:	2102                	fld	ft2,0(sp)
     8cc:	02b0                	addi	a2,sp,328
     8ce:	8000                	.insn	2, 0x8000
     8d0:	0000                	unimp
     8d2:	0000                	unimp
     8d4:	0058                	addi	a4,sp,4
     8d6:	0000                	unimp
     8d8:	0000                	unimp
     8da:	0000                	unimp
     8dc:	9c01                	subw	s0,s0,s0
     8de:	0901                	addi	s2,s2,0 # 30806 <__heap_size+0x10806>
     8e0:	0000                	unimp
     8e2:	5202                	lw	tp,32(sp)
     8e4:	0001                	nop
     8e6:	0200                	addi	s0,sp,256
     8e8:	3221                	addiw	tp,tp,-24 # ffffffffffffffe8 <__heap_end+0xffffffff7ffdcfe8>
     8ea:	005d                	c.nop	23
     8ec:	0000                	unimp
     8ee:	9102                	jalr	sp
     8f0:	026c                	addi	a1,sp,268
     8f2:	053e                	slli	a0,a0,0xf
     8f4:	0000                	unimp
     8f6:	2102                	fld	ft2,0(sp)
     8f8:	5d48                	lw	a0,60(a0)
     8fa:	0000                	unimp
     8fc:	0200                	addi	s0,sp,256
     8fe:	6891                	lui	a7,0x4
     900:	1100                	addi	s0,sp,160
     902:	0029                	c.nop	10
     904:	0000                	unimp
     906:	1c02                	slli	s8,s8,0x20
     908:	028a                	slli	t0,t0,0x2
     90a:	8000                	.insn	2, 0x8000
     90c:	0000                	unimp
     90e:	0000                	unimp
     910:	0026                	c.slli	zero,0x9
     912:	0000                	unimp
     914:	0000                	unimp
     916:	0000                	unimp
     918:	9c01                	subw	s0,s0,s0
     91a:	5a1a                	lw	s4,164(sp)
     91c:	0001                	nop
     91e:	0100                	addi	s0,sp,128
     920:	1824                	addi	s1,sp,56
     922:	007e                	c.slli	zero,0x1f
     924:	0000                	unimp
     926:	0268                	addi	a0,sp,268
     928:	8000                	.insn	2, 0x8000
     92a:	0000                	unimp
     92c:	0000                	unimp
     92e:	0022                	c.slli	zero,0x8
     930:	0000                	unimp
     932:	0000                	unimp
     934:	0000                	unimp
     936:	9c01                	subw	s0,s0,s0
     938:	0000095b          	.insn	4, 0x095b
     93c:	5202                	lw	tp,32(sp)
     93e:	0000                	unimp
     940:	0100                	addi	s0,sp,128
     942:	2d24                	fld	fs1,88(a0)
     944:	0000008f          	.insn	4, 0x008f
     948:	9102                	jalr	sp
     94a:	0358                	addi	a4,sp,388
     94c:	7470                	ld	a2,232(s0)
     94e:	0072                	c.slli	zero,0x1c
     950:	2601                	sext.w	a2,a2
     952:	dc15                	beqz	s0,88e <__stack_align+0x87e>
     954:	0000                	unimp
     956:	0200                	addi	s0,sp,256
     958:	6891                	lui	a7,0x4
     95a:	1b00                	addi	s0,sp,432
     95c:	02fa                	slli	t0,t0,0x1e
     95e:	0000                	unimp
     960:	1e01                	addi	t3,t3,-32
     962:	3e14                	fld	fa3,56(a2)
     964:	0002                	c.slli64	zero
     966:	0080                	addi	s0,sp,64
     968:	0000                	unimp
     96a:	2a00                	fld	fs0,16(a2)
     96c:	0000                	unimp
     96e:	0000                	unimp
     970:	0000                	unimp
     972:	0100                	addi	s0,sp,128
     974:	029c                	addi	a5,sp,320
     976:	0052                	c.slli	zero,0x14
     978:	0000                	unimp
     97a:	1e01                	addi	t3,t3,-32
     97c:	8f2a                	mv	t5,a0
     97e:	0000                	unimp
     980:	0200                	addi	s0,sp,256
     982:	5891                	li	a7,-28
     984:	3e02                	fld	ft8,32(sp)
     986:	0005                	c.nop	1
     988:	0100                	addi	s0,sp,128
     98a:	391e                	fld	fs2,480(sp)
     98c:	007e                	c.slli	zero,0x1f
     98e:	0000                	unimp
     990:	9102                	jalr	sp
     992:	0354                	addi	a3,sp,388
     994:	7470                	ld	a2,232(s0)
     996:	0072                	c.slli	zero,0x1c
     998:	2001                	.insn	2, 0x2001
     99a:	dc15                	beqz	s0,8d6 <__stack_align+0x8c6>
     99c:	0000                	unimp
     99e:	0200                	addi	s0,sp,256
     9a0:	6891                	lui	a7,0x4
     9a2:	0000                	unimp
     9a4:	00000317          	auipc	t1,0x0
     9a8:	0005                	c.nop	1
     9aa:	0801                	addi	a6,a6,0
     9ac:	000001c7          	fmsub.s	ft3,ft0,ft0,ft0,rne
     9b0:	0001ea0b          	.insn	4, 0x0001ea0b
     9b4:	1d00                	addi	s0,sp,688
     9b6:	00000197          	auipc	gp,0x0
     9ba:	0009                	c.nop	2
     9bc:	0000                	unimp
     9be:	12d8                	addi	a4,sp,356
     9c0:	8000                	.insn	2, 0x8000
     9c2:	0000                	unimp
     9c4:	0000                	unimp
     9c6:	03d8                	addi	a4,sp,452
     9c8:	0000                	unimp
     9ca:	0000                	unimp
     9cc:	0000                	unimp
     9ce:	0bb8                	addi	a4,sp,472
     9d0:	0000                	unimp
     9d2:	0003cd03          	lbu	s10,0(t2)
     9d6:	0300                	addi	s0,sp,384
     9d8:	1b28                	addi	a0,sp,440
     9da:	003a                	c.slli	zero,0xe
     9dc:	0000                	unimp
     9de:	080c                	addi	a1,sp,16
     9e0:	03a9                	addi	t2,t2,10
     9e2:	0000                	unimp
     9e4:	0003d403          	lhu	s0,0(t2)
     9e8:	0300                	addi	s0,sp,384
     9ea:	002e1867          	.insn	4, 0x002e1867
     9ee:	0000                	unimp
     9f0:	0102                	c.slli64	sp
     9f2:	de06                	sw	ra,60(sp)
     9f4:	0001                	nop
     9f6:	0200                	addi	s0,sp,256
     9f8:	0801                	addi	a6,a6,0
     9fa:	01dc                	addi	a5,sp,196
     9fc:	0000                	unimp
     9fe:	0202                	c.slli64	tp
     a00:	8605                	srai	a2,a2,0x1
     a02:	0002                	c.slli64	zero
     a04:	0200                	addi	s0,sp,256
     a06:	0702                	c.slli64	a4
     a08:	0129                	addi	sp,sp,10 # 8c0 <__stack_align+0x8b0>
     a0a:	0000                	unimp
     a0c:	0003bb03          	ld	s6,0(t2)
     a10:	0400                	addi	s0,sp,512
     a12:	184d                	addi	a6,a6,-13
     a14:	0074                	addi	a3,sp,12
     a16:	0000                	unimp
     a18:	040d                	addi	s0,s0,3
     a1a:	6905                	lui	s2,0x1
     a1c:	746e                	ld	s0,248(sp)
     a1e:	0300                	addi	s0,sp,384
     a20:	000000f7          	.insn	4, 0x00f7
     a24:	4f04                	lw	s1,24(a4)
     a26:	8719                	srai	a4,a4,0x6
     a28:	0000                	unimp
     a2a:	0200                	addi	s0,sp,256
     a2c:	0704                	addi	s1,sp,896
     a2e:	0045                	c.nop	17
     a30:	0000                	unimp
     a32:	0802                	c.slli64	a6
     a34:	8205                	srli	a2,a2,0x1
     a36:	0000                	unimp
     a38:	0200                	addi	s0,sp,256
     a3a:	0708                	addi	a0,sp,896
     a3c:	0040                	addi	s0,sp,4
     a3e:	0000                	unimp
     a40:	0003bd03          	ld	s10,0(t2)
     a44:	0500                	addi	s0,sp,640
     a46:	132c                	addi	a1,sp,424
     a48:	0068                	addi	a0,sp,12
     a4a:	0000                	unimp
     a4c:	0000f903          	.insn	4, 0xf903
     a50:	0500                	addi	s0,sp,640
     a52:	1430                	addi	a2,sp,552
     a54:	0000007b          	.insn	4, 0x007b
     a58:	a80e                	fsd	ft3,16(sp)
     a5a:	0000                	unimp
     a5c:	0400                	addi	s0,sp,512
     a5e:	01ae                	slli	gp,gp,0xb
     a60:	0000                	unimp
     a62:	1301                	addi	t1,t1,-32 # 984 <__stack_align+0x974>
     a64:	d422                	sw	s0,40(sp)
     a66:	0000                	unimp
     a68:	0900                	addi	s0,sp,144
     a6a:	002b6003          	lwu	zero,2(s6) # 3002 <__stack_align+0x2ff2>
     a6e:	0080                	addi	s0,sp,64
     a70:	0000                	unimp
     a72:	0700                	addi	s0,sp,896
     a74:	00b4                	addi	a3,sp,72
     a76:	0000                	unimp
     a78:	cf08                	sw	a0,24(a4)
     a7a:	0000                	unimp
     a7c:	0900                	addi	s0,sp,144
     a7e:	031d                	addi	t1,t1,7
     a80:	0000                	unimp
     a82:	8416                	mv	s0,t0
     a84:	00800013          	li	zero,8
     a88:	0000                	unimp
     a8a:	2c00                	fld	fs0,24(s0)
     a8c:	00000003          	lb	zero,0(zero) # 0 <__boot_hart>
     a90:	0000                	unimp
     a92:	0100                	addi	s0,sp,128
     a94:	4c9c                	lw	a5,24(s1)
     a96:	0002                	c.slli64	zero
     a98:	0500                	addi	s0,sp,640
     a9a:	6d66                	ld	s10,88(sp)
     a9c:	0074                	addi	a3,sp,12
     a9e:	1602                	slli	a2,a2,0x20
     aa0:	4c1a                	lw	s8,132(sp)
     aa2:	0002                	c.slli64	zero
     aa4:	0300                	addi	s0,sp,384
     aa6:	b891                	j	2fa <__stack_align+0x2ea>
     aa8:	0f7e                	slli	t5,t5,0x1f
     aaa:	7601                	lui	a2,0xfffe0
     aac:	006c                	addi	a1,sp,12
     aae:	1802                	slli	a6,a6,0x20
     ab0:	400d                	c.li	zero,3
     ab2:	0000                	unimp
     ab4:	0300                	addi	s0,sp,384
     ab6:	e891                	bnez	s1,aca <__stack_align+0xaba>
     ab8:	047e                	slli	s0,s0,0x1f
     aba:	03dc                	addi	a5,sp,452
     abc:	0000                	unimp
     abe:	1902                	slli	s2,s2,0x20
     ac0:	5d0a                	lw	s10,160(sp)
     ac2:	0002                	c.slli64	zero
     ac4:	0300                	addi	s0,sp,384
     ac6:	af91                	j	121a <__stack_align+0x120a>
     ac8:	047f 03c5 0000 1902 	.insn	10, 0x5d151902000003c5047f
     ad0:	5d15 
     ad2:	0002                	c.slli64	zero
     ad4:	0300                	addi	s0,sp,384
     ad6:	ae91                	j	e2a <__stack_align+0xe1a>
     ad8:	047f 03a1 0000 1902 	.insn	10, 0x5d1e1902000003a1047f
     ae0:	5d1e 
     ae2:	0002                	c.slli64	zero
     ae4:	0300                	addi	s0,sp,384
     ae6:	ad91                	j	113a <__stack_align+0x112a>
     ae8:	017f 0063 1a02 510a 	.insn	10, 0x0002510a1a020063017f
     af0:	0002 
     af2:	0300                	addi	s0,sp,384
     af4:	8791                	srai	a5,a5,0x4
     af6:	067f 140a 8000 0000 	.insn	10, 0x8000140a067f
     afe:	0000 
     b00:	024a                	slli	tp,tp,0x12
     b02:	0000                	unimp
     b04:	0000                	unimp
     b06:	0000                	unimp
     b08:	6e01                	.insn	2, 0x6e01
     b0a:	0200                	addi	s0,sp,256
     b0c:	1e6c                	addi	a1,sp,828
     b0e:	00000087          	.insn	4, 0x0087
     b12:	7ef49103          	lh	sp,2031(s1)
     b16:	1a0a                	slli	s4,s4,0x22
     b18:	0014                	.insn	2, 0x0014
     b1a:	0080                	addi	s0,sp,64
     b1c:	0000                	unimp
     b1e:	ae00                	fsd	fs0,24(a2)
     b20:	0000                	unimp
     b22:	0000                	unimp
     b24:	0000                	unimp
     b26:	c400                	sw	s0,8(s0)
     b28:	0001                	nop
     b2a:	0100                	addi	s0,sp,128
     b2c:	006e                	c.slli	zero,0x1b
     b2e:	2e02                	fld	ft8,0(sp)
     b30:	951f 0000 0300      	.insn	6, 0x03000000951f
     b36:	a091                	j	b7a <__stack_align+0xb6a>
     b38:	017f 0069 2f02 8e16 	.insn	10, 0x8e162f020069017f
     b40:	0000 
     b42:	0300                	addi	s0,sp,384
     b44:	9891                	andi	s1,s1,-28
     b46:	067f 146c 8000 0000 	.insn	10, 0x8000146c067f
     b4e:	0000 
     b50:	0048                	addi	a0,sp,4
     b52:	0000                	unimp
     b54:	0000                	unimp
     b56:	0000                	unimp
     b58:	6401                	.insn	2, 0x6401
     b5a:	0200                	addi	s0,sp,256
     b5c:	1a38                	addi	a4,sp,312
     b5e:	008e                	slli	ra,ra,0x3
     b60:	0000                	unimp
     b62:	7ef89103          	lh	sp,2031(a7) # 47ef <__stack_align+0x47df>
     b66:	0000                	unimp
     b68:	c80a                	sw	sp,16(sp)
     b6a:	0014                	.insn	2, 0x0014
     b6c:	0080                	addi	s0,sp,64
     b6e:	0000                	unimp
     b70:	e200                	sd	s0,0(a2)
     b72:	0000                	unimp
     b74:	0000                	unimp
     b76:	0000                	unimp
     b78:	0a00                	addi	s0,sp,272
     b7a:	0002                	c.slli64	zero
     b7c:	0100                	addi	s0,sp,128
     b7e:	756e                	ld	a0,248(sp)
     b80:	006d                	c.nop	27
     b82:	4402                	lw	s0,0(sp)
     b84:	8e16                	mv	t3,t0
     b86:	0000                	unimp
     b88:	0300                	addi	s0,sp,384
     b8a:	9091                	srli	s1,s1,0x24
     b8c:	047f 03e6 0000 5802 	.insn	10, 0x64165802000003e6047f
     b94:	6416 
     b96:	0002                	c.slli64	zero
     b98:	0300                	addi	s0,sp,384
     b9a:	c891                	beqz	s1,bae <__stack_align+0xb9e>
     b9c:	017e                	slli	sp,sp,0x1f
     b9e:	6f70                	ld	a2,216(a4)
     ba0:	59020073          	.insn	4, 0x59020073
     ba4:	7415                	lui	s0,0xfffe5
     ba6:	0000                	unimp
     ba8:	0300                	addi	s0,sp,384
     baa:	8c91                	sub	s1,s1,a2
     bac:	007f ec06 0015 0080 	.insn	10, 0x00800015ec06007f
     bb4:	0000 
     bb6:	6600                	ld	s0,8(a2)
     bb8:	0000                	unimp
     bba:	0000                	unimp
     bbc:	0000                	unimp
     bbe:	0100                	addi	s0,sp,128
     bc0:	0069                	c.nop	26
     bc2:	6e02                	ld	t3,0(sp)
     bc4:	741a                	ld	s0,416(sp)
     bc6:	0000                	unimp
     bc8:	0300                	addi	s0,sp,384
     bca:	8891                	andi	s1,s1,4
     bcc:	067f 15f4 8000 0000 	.insn	10, 0x800015f4067f
     bd4:	0000 
     bd6:	004a                	c.slli	zero,0x12
     bd8:	0000                	unimp
     bda:	0000                	unimp
     bdc:	0000                	unimp
     bde:	6401                	.insn	2, 0x6401
     be0:	0200                	addi	s0,sp,256
     be2:	0087226f          	jal	tp,72bea <__heap_size+0x52bea>
     be6:	0000                	unimp
     be8:	7ef09103          	lh	sp,2031(ra) # 47ef <__stack_align+0x47df>
     bec:	0000                	unimp
     bee:	0000                	unimp
     bf0:	00025807          	.insn	4, 0x00025807
     bf4:	0200                	addi	s0,sp,256
     bf6:	0801                	addi	a6,a6,0
     bf8:	01e5                	addi	gp,gp,25 # 9cf <__stack_align+0x9bf>
     bfa:	0000                	unimp
     bfc:	5108                	lw	a0,32(a0)
     bfe:	0002                	c.slli64	zero
     c00:	0200                	addi	s0,sp,256
     c02:	0201                	addi	tp,tp,0 # 0 <__boot_hart>
     c04:	03fa                	slli	t2,t2,0x1e
     c06:	0000                	unimp
     c08:	5110                	lw	a2,32(a0)
     c0a:	0002                	c.slli64	zero
     c0c:	7400                	ld	s0,40(s0)
     c0e:	0002                	c.slli64	zero
     c10:	1100                	addi	s0,sp,160
     c12:	0095                	addi	ra,ra,5
     c14:	0000                	unimp
     c16:	001f ee09 0003      	.insn	6, 0x0003ee09001f
     c1c:	0f00                	addi	s0,sp,912
     c1e:	135a                	slli	t1,t1,0x36
     c20:	8000                	.insn	2, 0x8000
     c22:	0000                	unimp
     c24:	0000                	unimp
     c26:	002a                	c.slli	zero,0xa
     c28:	0000                	unimp
     c2a:	0000                	unimp
     c2c:	0000                	unimp
     c2e:	9c01                	subw	s0,s0,s0
     c30:	029e                	slli	t0,t0,0x7
     c32:	0000                	unimp
     c34:	7305                	lui	t1,0xfffe1
     c36:	0200                	addi	s0,sp,256
     c38:	024c180f          	.insn	4, 0x024c180f
     c3c:	0000                	unimp
     c3e:	9102                	jalr	sp
     c40:	0068                	addi	a0,sp,12
     c42:	ed12                	sd	tp,152(sp)
     c44:	02000003          	lb	zero,32(zero) # 20 <__stack_align+0x10>
     c48:	1408                	addi	a0,sp,544
     c4a:	1316                	slli	t1,t1,0x25
     c4c:	8000                	.insn	2, 0x8000
     c4e:	0000                	unimp
     c50:	0000                	unimp
     c52:	0044                	addi	s1,sp,4
     c54:	0000                	unimp
     c56:	0000                	unimp
     c58:	0000                	unimp
     c5a:	9c01                	subw	s0,s0,s0
     c5c:	000002d7          	.insn	4, 0x02d7
     c60:	7305                	lui	t1,0xfffe1
     c62:	0200                	addi	s0,sp,256
     c64:	2708                	fld	fa0,8(a4)
     c66:	024c                	addi	a1,sp,260
     c68:	0000                	unimp
     c6a:	9102                	jalr	sp
     c6c:	0158                	addi	a4,sp,132
     c6e:	0a020063          	beqz	tp,d0e <__stack_align+0xcfe>
     c72:	00025107          	.insn	4, 0x00025107
     c76:	0200                	addi	s0,sp,256
     c78:	6f91                	lui	t6,0x4
     c7a:	1300                	addi	s0,sp,416
     c7c:	03f4                	addi	a3,sp,460
     c7e:	0000                	unimp
     c80:	1501                	addi	a0,a0,-32
     c82:	d814                	sw	a3,48(s0)
     c84:	0012                	c.slli	zero,0x4
     c86:	0080                	addi	s0,sp,64
     c88:	0000                	unimp
     c8a:	3e00                	fld	fs0,56(a2)
     c8c:	0000                	unimp
     c8e:	0000                	unimp
     c90:	0000                	unimp
     c92:	0100                	addi	s0,sp,128
     c94:	059c                	addi	a5,sp,704
     c96:	15010063          	beq	sp,a6,dd6 <__stack_align+0xdc6>
     c9a:	511f 0002 0200      	.insn	6, 0x02000002511f
     ca0:	5f91                	li	t6,-28
     ca2:	7401                	lui	s0,0xfffe0
     ca4:	0078                	addi	a4,sp,12
     ca6:	1701                	addi	a4,a4,-32
     ca8:	cf15                	beqz	a4,ce4 <__stack_align+0xcd4>
     caa:	0000                	unimp
     cac:	0200                	addi	s0,sp,256
     cae:	6891                	lui	a7,0x4
     cb0:	7201                	lui	tp,0xfffe0
     cb2:	0100                	addi	s0,sp,128
     cb4:	0a19                	addi	s4,s4,6 # fffffffffffe0006 <__heap_end+0xffffffff7ffbd006>
     cb6:	009c                	addi	a5,sp,64
     cb8:	0000                	unimp
     cba:	9102                	jalr	sp
     cbc:	0064                	addi	s1,sp,12
     cbe:	2a00                	fld	fs0,16(a2)
     cc0:	0000                	unimp
     cc2:	0200                	addi	s0,sp,256
     cc4:	cc00                	sw	s0,24(s0)
     cc6:	0002                	c.slli64	zero
     cc8:	0800                	addi	s0,sp,16
     cca:	a601                	j	fca <__stack_align+0xfba>
     ccc:	0000000f          	fence	unknown,unknown
     cd0:	0000                	unimp
     cd2:	0080                	addi	s0,sp,64
     cd4:	0000                	unimp
     cd6:	f400                	sd	s0,40(s0)
     cd8:	0001                	nop
     cda:	0080                	addi	s0,sp,64
     cdc:	0000                	unimp
     cde:	0000                	unimp
     ce0:	0004                	.insn	2, 0x0004
     ce2:	0f00                	addi	s0,sp,912
     ce4:	0004                	.insn	2, 0x0004
     ce6:	3c00                	fld	fs0,56(s0)
     ce8:	0004                	.insn	2, 0x0004
     cea:	0100                	addi	s0,sp,128
     cec:	2a80                	fld	fs0,16(a3)
     cee:	0000                	unimp
     cf0:	0200                	addi	s0,sp,256
     cf2:	e000                	sd	s0,0(s0)
     cf4:	0002                	c.slli64	zero
     cf6:	0800                	addi	s0,sp,16
     cf8:	cd01                	beqz	a0,d10 <__stack_align+0xd00>
     cfa:	f4000013          	li	zero,-192
     cfe:	0001                	nop
     d00:	0080                	addi	s0,sp,64
     d02:	0000                	unimp
     d04:	3e00                	fld	fs0,56(a2)
     d06:	0002                	c.slli64	zero
     d08:	0080                	addi	s0,sp,64
     d0a:	0000                	unimp
     d0c:	4a00                	lw	s0,16(a2)
     d0e:	0004                	.insn	2, 0x0004
     d10:	0f00                	addi	s0,sp,912
     d12:	0004                	.insn	2, 0x0004
     d14:	3c00                	fld	fs0,56(s0)
     d16:	0004                	.insn	2, 0x0004
     d18:	0100                	addi	s0,sp,128
     d1a:	6a80                	ld	s0,16(a3)
     d1c:	0001                	nop
     d1e:	0400                	addi	s0,sp,512
     d20:	f400                	sd	s0,40(s0)
     d22:	0002                	c.slli64	zero
     d24:	0800                	addi	s0,sp,16
     d26:	8b01                	andi	a4,a4,0
     d28:	0004                	.insn	2, 0x0004
     d2a:	0c00                	addi	s0,sp,528
     d2c:	0475                	addi	s0,s0,29 # fffffffffffe001d <__heap_end+0xffffffff7ffbd01d>
     d2e:	0000                	unimp
     d30:	0000040f          	.insn	4, 0x040f
     d34:	16b0                	addi	a2,sp,872
     d36:	8000                	.insn	2, 0x8000
     d38:	0000                	unimp
     d3a:	0000                	unimp
     d3c:	0016                	c.slli	zero,0x5
     d3e:	0000                	unimp
     d40:	0000                	unimp
     d42:	0000                	unimp
     d44:	1425                	addi	s0,s0,-23
     d46:	0000                	unimp
     d48:	0102                	c.slli64	sp
     d4a:	de06                	sw	ra,60(sp)
     d4c:	0001                	nop
     d4e:	0200                	addi	s0,sp,256
     d50:	0801                	addi	a6,a6,0
     d52:	01dc                	addi	a5,sp,196
     d54:	0000                	unimp
     d56:	0202                	c.slli64	tp
     d58:	8605                	srai	a2,a2,0x1
     d5a:	0002                	c.slli64	zero
     d5c:	0200                	addi	s0,sp,256
     d5e:	0702                	c.slli64	a4
     d60:	0129                	addi	sp,sp,10
     d62:	0000                	unimp
     d64:	69050403          	lb	s0,1680(a0)
     d68:	746e                	ld	s0,248(sp)
     d6a:	0200                	addi	s0,sp,256
     d6c:	0704                	addi	s1,sp,896
     d6e:	0045                	c.nop	17
     d70:	0000                	unimp
     d72:	0802                	c.slli64	a6
     d74:	8205                	srli	a2,a2,0x1
     d76:	0000                	unimp
     d78:	0400                	addi	s0,sp,512
     d7a:	0509                	addi	a0,a0,2
     d7c:	0000                	unimp
     d7e:	6902                	ld	s2,0(sp)
     d80:	6a19                	lui	s4,0x6
     d82:	0000                	unimp
     d84:	0200                	addi	s0,sp,256
     d86:	0708                	addi	a0,sp,896
     d88:	0040                	addi	s0,sp,4
     d8a:	0000                	unimp
     d8c:	f004                	sd	s1,32(s0)
     d8e:	0004                	.insn	2, 0x0004
     d90:	0200                	addi	s0,sp,256
     d92:	19e6                	slli	s3,s3,0x39
     d94:	00000057          	.insn	4, 0x0057
     d98:	9004                	.insn	2, 0x9004
     d9a:	0002                	c.slli64	zero
     d9c:	0200                	addi	s0,sp,256
     d9e:	1ae8                	addi	a0,sp,380
     da0:	006a                	c.slli	zero,0x1a
     da2:	0000                	unimp
     da4:	0b04                	addi	s1,sp,400
     da6:	0005                	c.nop	1
     da8:	0300                	addi	s0,sp,384
     daa:	143c                	addi	a5,sp,552
     dac:	005e                	c.slli	zero,0x17
     dae:	0000                	unimp
     db0:	8905                	andi	a0,a0,1
     db2:	0000                	unimp
     db4:	0400                	addi	s0,sp,512
     db6:	04f2                	slli	s1,s1,0x1c
     db8:	0000                	unimp
     dba:	71144d03          	lbu	s10,1809(s0)
     dbe:	0000                	unimp
     dc0:	0400                	addi	s0,sp,512
     dc2:	0292                	slli	t0,t0,0x4
     dc4:	0000                	unimp
     dc6:	7d155203          	lhu	tp,2001(a0)
     dca:	0000                	unimp
     dcc:	0200                	addi	s0,sp,256
     dce:	0508                	addi	a0,sp,640
     dd0:	007d                	c.nop	31
     dd2:	0000                	unimp
     dd4:	1002                	c.slli	zero,0x20
     dd6:	9a04                	.insn	2, 0x9a04
     dd8:	0001                	nop
     dda:	0200                	addi	s0,sp,256
     ddc:	0801                	addi	a6,a6,0
     dde:	01e5                	addi	gp,gp,25 # 80003351 <__global_pointer$+0x19>
     de0:	0000                	unimp
     de2:	6806                	ld	a6,64(sp)
     de4:	0004                	.insn	2, 0x0004
     de6:	0400                	addi	s0,sp,512
     de8:	1a06                	slli	s4,s4,0x21
     dea:	0095                	addi	ra,ra,5
     dec:	0000                	unimp
     dee:	0006                	c.slli	zero,0x1
     df0:	0005                	c.nop	1
     df2:	0400                	addi	s0,sp,512
     df4:	00951a07          	.insn	4, 0x00951a07
     df8:	0000                	unimp
     dfa:	00045c07          	.insn	4, 0x00045c07
     dfe:	0100                	addi	s0,sp,128
     e00:	1c04                	addi	s1,sp,560
     e02:	16b0                	addi	a2,sp,872
     e04:	8000                	.insn	2, 0x8000
     e06:	0000                	unimp
     e08:	0000                	unimp
     e0a:	0016                	c.slli	zero,0x5
     e0c:	0000                	unimp
     e0e:	0000                	unimp
     e10:	0000                	unimp
     e12:	9c01                	subw	s0,s0,s0
     e14:	0000015b          	.insn	4, 0x015b
     e18:	6508                	ld	a0,8(a0)
     e1a:	6370                	ld	a2,192(a4)
     e1c:	0100                	addi	s0,sp,128
     e1e:	3204                	fld	fs1,32(a2)
     e20:	00a6                	slli	ra,ra,0x9
     e22:	0000                	unimp
     e24:	0000                	unimp
     e26:	0000                	unimp
     e28:	6f09                	lui	t5,0x2
     e2a:	0004                	.insn	2, 0x0004
     e2c:	0100                	addi	s0,sp,128
     e2e:	4104                	lw	s1,0(a0)
     e30:	00a6                	slli	ra,ra,0x9
     e32:	0000                	unimp
     e34:	0039                	c.nop	14
     e36:	0000                	unimp
     e38:	1909                	addi	s2,s2,-30 # fe2 <__stack_align+0xfd2>
     e3a:	0005                	c.nop	1
     e3c:	0100                	addi	s0,sp,128
     e3e:	5204                	lw	s1,32(a2)
     e40:	00a6                	slli	ra,ra,0x9
     e42:	0000                	unimp
     e44:	0072                	c.slli	zero,0x1c
     e46:	0000                	unimp
     e48:	fb09                	bnez	a4,d5a <__stack_align+0xd4a>
     e4a:	0004                	.insn	2, 0x0004
     e4c:	0100                	addi	s0,sp,128
     e4e:	6204                	ld	s1,0(a2)
     e50:	0000015b          	.insn	4, 0x015b
     e54:	000000ab          	.insn	4, 0x00ab
     e58:	140a                	slli	s0,s0,0x22
     e5a:	0005                	c.nop	1
     e5c:	0100                	addi	s0,sp,128
     e5e:	00490907          	.insn	4, 0x00490907
     e62:	0000                	unimp
     e64:	00e4                	addi	s1,sp,76
     e66:	0000                	unimp
     e68:	0016c60b          	.insn	4, 0x0016c60b
     e6c:	0080                	addi	s0,sp,64
     e6e:	0000                	unimp
     e70:	6100                	ld	s0,0(a0)
     e72:	0001                	nop
     e74:	0000                	unimp
     e76:	080c                	addi	a1,sp,16
     e78:	00a6                	slli	ra,ra,0x9
     e7a:	0000                	unimp
     e7c:	850d                	srai	a0,a0,0x3
     e7e:	0004                	.insn	2, 0x0004
     e80:	8500                	.insn	2, 0x8500
     e82:	0004                	.insn	2, 0x0004
     e84:	0500                	addi	s0,sp,640
     e86:	0d41                	addi	s10,s10,16 # 13a1140 <__heap_size+0x1381140>
     e88:	d500                	sw	s0,40(a0)
     e8a:	0009                	c.nop	2
     e8c:	0400                	addi	s0,sp,512
     e8e:	bd00                	fsd	fs0,56(a0)
     e90:	08000003          	lb	zero,128(zero) # 80 <__stack_align+0x70>
     e94:	8b01                	andi	a4,a4,0
     e96:	0004                	.insn	2, 0x0004
     e98:	0c00                	addi	s0,sp,528
     e9a:	0849                	addi	a6,a6,18
     e9c:	0000                	unimp
     e9e:	0000040f          	.insn	4, 0x040f
     ea2:	16c6                	slli	a3,a3,0x31
     ea4:	8000                	.insn	2, 0x8000
     ea6:	0000                	unimp
     ea8:	0000                	unimp
     eaa:	002e                	c.slli	zero,0xb
     eac:	0000                	unimp
     eae:	0000                	unimp
     eb0:	0000                	unimp
     eb2:	1558                	addi	a4,sp,676
     eb4:	0000                	unimp
     eb6:	0802                	c.slli64	a6
     eb8:	8205                	srli	a2,a2,0x1
     eba:	0000                	unimp
     ebc:	0300                	addi	s0,sp,384
     ebe:	08c5                	addi	a7,a7,17 # 4011 <__stack_align+0x4001>
     ec0:	0000                	unimp
     ec2:	d802                	sw	zero,48(sp)
     ec4:	00004017          	auipc	zero,0x4
     ec8:	0200                	addi	s0,sp,256
     eca:	0708                	addi	a0,sp,896
     ecc:	0040                	addi	s0,sp,4
     ece:	0000                	unimp
     ed0:	0404                	addi	s1,sp,512
     ed2:	6905                	lui	s2,0x1
     ed4:	746e                	ld	s0,248(sp)
     ed6:	0200                	addi	s0,sp,256
     ed8:	0508                	addi	a0,sp,640
     eda:	007d                	c.nop	31
     edc:	0000                	unimp
     ede:	1002                	c.slli	zero,0x20
     ee0:	9a04                	.insn	2, 0x9a04
     ee2:	0001                	nop
     ee4:	0200                	addi	s0,sp,256
     ee6:	0601                	addi	a2,a2,0 # fffffffffffe0000 <__heap_end+0xffffffff7ffbd000>
     ee8:	01de                	slli	gp,gp,0x17
     eea:	0000                	unimp
     eec:	0102                	c.slli64	sp
     eee:	dc08                	sw	a0,56(s0)
     ef0:	0001                	nop
     ef2:	0200                	addi	s0,sp,256
     ef4:	0502                	c.slli64	a0
     ef6:	0286                	slli	t0,t0,0x1
     ef8:	0000                	unimp
     efa:	0202                	c.slli64	tp
     efc:	00012907          	flw	fs2,0(sp)
     f00:	0200                	addi	s0,sp,256
     f02:	0704                	addi	s1,sp,896
     f04:	0045                	c.nop	17
     f06:	0000                	unimp
     f08:	00076003          	lwu	zero,0(a4)
     f0c:	0300                	addi	s0,sp,384
     f0e:	0d0c                	addi	a1,sp,656
     f10:	00000047          	fmsub.s	ft0,ft0,ft0,ft0,rne
     f14:	000a1403          	lh	s0,0(s4) # 6000 <__stack_size_min>
     f18:	0400                	addi	s0,sp,512
     f1a:	0e2c                	addi	a1,sp,792
     f1c:	002d                	c.nop	11
     f1e:	0000                	unimp
     f20:	00083203          	ld	tp,0(a6)
     f24:	0400                	addi	s0,sp,512
     f26:	0e72                	slli	t3,t3,0x1c
     f28:	002d                	c.nop	11
     f2a:	0000                	unimp
     f2c:	0008c303          	lbu	t1,0(a7)
     f30:	0400                	addi	s0,sp,512
     f32:	1791                	addi	a5,a5,-28
     f34:	002d                	c.nop	11
     f36:	0000                	unimp
     f38:	ee05                	bnez	a2,f70 <__stack_align+0xf60>
     f3a:	0006                	c.slli	zero,0x1
     f3c:	0200                	addi	s0,sp,256
     f3e:	0165                	addi	sp,sp,25
     f40:	00007817          	auipc	a6,0x7
     f44:	0600                	addi	s0,sp,768
     f46:	0404                	addi	s1,sp,512
     f48:	03a6                	slli	t2,t2,0x9
     f4a:	00de                	slli	ra,ra,0x17
     f4c:	0000                	unimp
     f4e:	0006e107          	.insn	4, 0x0006e107
     f52:	0400                	addi	s0,sp,512
     f54:	0ca8                	addi	a0,sp,600
     f56:	000000af          	.insn	4, 0x00af
     f5a:	00068507          	.insn	4, 0x00068507
     f5e:	0400                	addi	s0,sp,512
     f60:	13a9                	addi	t2,t2,-22
     f62:	00de                	slli	ra,ra,0x17
     f64:	0000                	unimp
     f66:	0800                	addi	s0,sp,16
     f68:	00000063          	beqz	zero,f68 <__stack_align+0xf58>
     f6c:	00ee                	slli	ra,ra,0x1b
     f6e:	0000                	unimp
     f70:	4009                	c.li	zero,2
     f72:	0000                	unimp
     f74:	0300                	addi	s0,sp,384
     f76:	0a00                	addi	s0,sp,272
     f78:	0408                	addi	a0,sp,512
     f7a:	011209a3          	sb	a7,19(tp) # fffffffffffe0013 <__heap_end+0xffffffff7ffbd013>
     f7e:	0000                	unimp
     f80:	00081c0b          	.insn	4, 0x00081c0b
     f84:	0400                	addi	s0,sp,512
     f86:	07a5                	addi	a5,a5,9
     f88:	00000047          	fmsub.s	ft0,ft0,ft0,ft0,rne
     f8c:	0b00                	addi	s0,sp,400
     f8e:	0824                	addi	s1,sp,24
     f90:	0000                	unimp
     f92:	aa04                	fsd	fs1,16(a2)
     f94:	bc05                	j	9c4 <__stack_align+0x9b4>
     f96:	0000                	unimp
     f98:	0400                	addi	s0,sp,512
     f9a:	0300                	addi	s0,sp,384
     f9c:	079e                	slli	a5,a5,0x7
     f9e:	0000                	unimp
     fa0:	ab04                	fsd	fs1,16(a4)
     fa2:	0000ee03          	lwu	t3,0(ra)
     fa6:	0300                	addi	s0,sp,384
     fa8:	0648                	addi	a0,sp,772
     faa:	0000                	unimp
     fac:	af04                	fsd	fs1,24(a4)
     fae:	00007f1b          	.insn	4, 0x7f1b
     fb2:	0c00                	addi	s0,sp,528
     fb4:	0d08                	addi	a0,sp,656
     fb6:	3208                	fld	fa0,32(a2)
     fb8:	0001                	nop
     fba:	0200                	addi	s0,sp,256
     fbc:	0801                	addi	a6,a6,0 # 7f40 <__stack_size_min+0x1f40>
     fbe:	01e5                	addi	gp,gp,25 # 80003351 <__global_pointer$+0x19>
     fc0:	0000                	unimp
     fc2:	320e                	fld	ft4,224(sp)
     fc4:	0001                	nop
     fc6:	0300                	addi	s0,sp,384
     fc8:	0872                	slli	a6,a6,0x1c
     fca:	0000                	unimp
     fcc:	1905                	addi	s2,s2,-31 # fe1 <__stack_align+0xfd1>
     fce:	7819                	lui	a6,0xfffe6
     fd0:	0000                	unimp
     fd2:	0f00                	addi	s0,sp,912
     fd4:	0659                	addi	a2,a2,22
     fd6:	0000                	unimp
     fd8:	0520                	addi	s0,sp,648
     fda:	01a4082f          	.insn	4, 0x01a4082f
     fde:	0000                	unimp
     fe0:	0007bf0b          	.insn	4, 0x0007bf0b
     fe4:	0500                	addi	s0,sp,640
     fe6:	1331                	addi	t1,t1,-20 # fffffffffffe0fec <__heap_end+0xffffffff7ffbdfec>
     fe8:	01a4                	addi	s1,sp,200
     fea:	0000                	unimp
     fec:	1000                	addi	s0,sp,32
     fee:	6b5f 0500 0732      	.insn	6, 0x073205006b5f
     ff4:	00000047          	fmsub.s	ft0,ft0,ft0,ft0,rne
     ff8:	0b08                	addi	a0,sp,400
     ffa:	00000807          	.insn	4, 0x0807
     ffe:	3205                	addiw	tp,tp,-31 # ffffffffffffffe1 <__heap_end+0xffffffff7ffdcfe1>
    1000:	0000470b          	.insn	4, 0x470b
    1004:	0c00                	addi	s0,sp,528
    1006:	0006420b          	.insn	4, 0x0006420b
    100a:	0500                	addi	s0,sp,640
    100c:	1432                	slli	s0,s0,0x2c
    100e:	00000047          	fmsub.s	ft0,ft0,ft0,ft0,rne
    1012:	0b10                	addi	a2,sp,400
    1014:	08ae                	slli	a7,a7,0xb
    1016:	0000                	unimp
    1018:	3205                	addiw	tp,tp,-31 # ffffffffffffffe1 <__heap_end+0xffffffff7ffdcfe1>
    101a:	0000471b          	.insn	4, 0x471b
    101e:	1400                	addi	s0,sp,544
    1020:	5f10                	lw	a2,56(a4)
    1022:	0078                	addi	a4,sp,12
    1024:	3305                	addiw	t1,t1,-31
    1026:	0001aa0b          	.insn	4, 0x0001aa0b
    102a:	1800                	addi	s0,sp,48
    102c:	0d00                	addi	s0,sp,656
    102e:	4a08                	lw	a0,16(a2)
    1030:	0001                	nop
    1032:	0800                	addi	s0,sp,16
    1034:	013e                	slli	sp,sp,0xf
    1036:	0000                	unimp
    1038:	01ba                	slli	gp,gp,0xe
    103a:	0000                	unimp
    103c:	4009                	c.li	zero,2
    103e:	0000                	unimp
    1040:	0000                	unimp
    1042:	0f00                	addi	s0,sp,912
    1044:	0680                	addi	s0,sp,832
    1046:	0000                	unimp
    1048:	0524                	addi	s1,sp,648
    104a:	023d0837          	lui	a6,0x23d0
    104e:	0000                	unimp
    1050:	0005940b          	.insn	4, 0x0005940b
    1054:	0500                	addi	s0,sp,640
    1056:	0939                	addi	s2,s2,14
    1058:	00000047          	fmsub.s	ft0,ft0,ft0,ft0,rne
    105c:	0b00                	addi	s0,sp,400
    105e:	083a                	slli	a6,a6,0xe
    1060:	0000                	unimp
    1062:	3a05                	addiw	s4,s4,-31
    1064:	4709                	li	a4,2
    1066:	0000                	unimp
    1068:	0400                	addi	s0,sp,512
    106a:	0005a90b          	.insn	4, 0x0005a90b
    106e:	0500                	addi	s0,sp,640
    1070:	0047093b          	addw	s2,a4,tp
    1074:	0000                	unimp
    1076:	0b08                	addi	a0,sp,400
    1078:	0932                	slli	s2,s2,0xc
    107a:	0000                	unimp
    107c:	3c05                	addiw	s8,s8,-31
    107e:	4709                	li	a4,2
    1080:	0000                	unimp
    1082:	0c00                	addi	s0,sp,528
    1084:	00072c0b          	.insn	4, 0x00072c0b
    1088:	0500                	addi	s0,sp,640
    108a:	093d                	addi	s2,s2,15
    108c:	00000047          	fmsub.s	ft0,ft0,ft0,ft0,rne
    1090:	0b10                	addi	a2,sp,400
    1092:	0704                	addi	s1,sp,896
    1094:	0000                	unimp
    1096:	3e05                	addiw	t3,t3,-31
    1098:	4709                	li	a4,2
    109a:	0000                	unimp
    109c:	1400                	addi	s0,sp,544
    109e:	0008b30b          	.insn	4, 0x0008b30b
    10a2:	0500                	addi	s0,sp,640
    10a4:	0047093f 0b180000 	.insn	8, 0x0b1800000047093f
    10ac:	0780                	addi	s0,sp,960
    10ae:	0000                	unimp
    10b0:	4005                	c.li	zero,1
    10b2:	4709                	li	a4,2
    10b4:	0000                	unimp
    10b6:	1c00                	addi	s0,sp,560
    10b8:	0008f90b          	.insn	4, 0x0008f90b
    10bc:	0500                	addi	s0,sp,640
    10be:	0941                	addi	s2,s2,16
    10c0:	00000047          	fmsub.s	ft0,ft0,ft0,ft0,rne
    10c4:	0020                	addi	s0,sp,8
    10c6:	b811                	j	8da <__stack_align+0x8ca>
    10c8:	0005                	c.nop	1
    10ca:	0800                	addi	s0,sp,16
    10cc:	0502                	c.slli64	a0
    10ce:	084a                	slli	a6,a6,0x12
    10d0:	00000283          	lb	t0,0(zero) # 0 <__boot_hart>
    10d4:	0006290b          	.insn	4, 0x0006290b
    10d8:	0500                	addi	s0,sp,640
    10da:	02830a4b          	fnmsub.d	fs4,ft6,fs0,ft0,rne
    10de:	0000                	unimp
    10e0:	1200                	addi	s0,sp,288
    10e2:	051e                	slli	a0,a0,0x7
    10e4:	0000                	unimp
    10e6:	4c05                	li	s8,1
    10e8:	8309                	srli	a4,a4,0x2
    10ea:	0002                	c.slli64	zero
    10ec:	0000                	unimp
    10ee:	1201                	addi	tp,tp,-32 # ffffffffffffffe0 <__heap_end+0xffffffff7ffdcfe0>
    10f0:	0864                	addi	s1,sp,28
    10f2:	0000                	unimp
    10f4:	4e05                	li	t3,1
    10f6:	3e0a                	fld	ft8,160(sp)
    10f8:	0001                	nop
    10fa:	0000                	unimp
    10fc:	1202                	slli	tp,tp,0x20
    10fe:	05dd                	addi	a1,a1,23
    1100:	0000                	unimp
    1102:	5105                	li	sp,-31
    1104:	3e0a                	fld	ft8,160(sp)
    1106:	0001                	nop
    1108:	0400                	addi	s0,sp,512
    110a:	0002                	c.slli64	zero
    110c:	2a08                	fld	fa0,16(a2)
    110e:	0001                	nop
    1110:	9300                	.insn	2, 0x9300
    1112:	0002                	c.slli64	zero
    1114:	0900                	addi	s0,sp,144
    1116:	0040                	addi	s0,sp,4
    1118:	0000                	unimp
    111a:	001f 3511 0007      	.insn	6, 0x00073511001f
    1120:	1800                	addi	s0,sp,48
    1122:	085d0503          	lb	a0,133(s10)
    1126:	000002d7          	.insn	4, 0x02d7
    112a:	0007bf0b          	.insn	4, 0x0007bf0b
    112e:	0500                	addi	s0,sp,640
    1130:	125e                	slli	tp,tp,0x37
    1132:	000002d7          	.insn	4, 0x02d7
    1136:	0b00                	addi	s0,sp,400
    1138:	000007d7          	.insn	4, 0x07d7
    113c:	5f05                	li	t5,-31
    113e:	4706                	lw	a4,64(sp)
    1140:	0000                	unimp
    1142:	0800                	addi	s0,sp,16
    1144:	00063d0b          	.insn	4, 0x00063d0b
    1148:	0500                	addi	s0,sp,640
    114a:	0961                	addi	s2,s2,24
    114c:	02dd                	addi	t0,t0,23
    114e:	0000                	unimp
    1150:	1210                	addi	a2,sp,288
    1152:	05b8                	addi	a4,sp,712
    1154:	0000                	unimp
    1156:	6205                	lui	tp,0x1
    1158:	3d1e                	fld	fs10,480(sp)
    115a:	0002                	c.slli64	zero
    115c:	1000                	addi	s0,sp,32
    115e:	0001                	nop
    1160:	080d                	addi	a6,a6,3 # 23d0003 <__heap_size+0x23b0003>
    1162:	00000293          	li	t0,0
    1166:	ed08                	sd	a0,24(a0)
    1168:	0002                	c.slli64	zero
    116a:	ed00                	sd	s0,24(a0)
    116c:	0002                	c.slli64	zero
    116e:	0900                	addi	s0,sp,144
    1170:	0040                	addi	s0,sp,4
    1172:	0000                	unimp
    1174:	001f 080d 02f3      	.insn	6, 0x02f3080d001f
    117a:	0000                	unimp
    117c:	078a0f13          	addi	t5,s4,120
    1180:	0000                	unimp
    1182:	0510                	addi	a2,sp,640
    1184:	0875                	addi	a6,a6,29
    1186:	031c                	addi	a5,sp,384
    1188:	0000                	unimp
    118a:	0005a30b          	.insn	4, 0x0005a30b
    118e:	0500                	addi	s0,sp,640
    1190:	1176                	slli	sp,sp,0x3d
    1192:	031c                	addi	a5,sp,384
    1194:	0000                	unimp
    1196:	0b00                	addi	s0,sp,400
    1198:	000005f3          	.insn	4, 0x05f3
    119c:	7705                	lui	a4,0xfffe1
    119e:	4706                	lw	a4,64(sp)
    11a0:	0000                	unimp
    11a2:	0800                	addi	s0,sp,16
    11a4:	0d00                	addi	s0,sp,656
    11a6:	6308                	ld	a0,0(a4)
    11a8:	0000                	unimp
    11aa:	0f00                	addi	s0,sp,912
    11ac:	07a9                	addi	a5,a5,10
    11ae:	0000                	unimp
    11b0:	05b0                	addi	a2,sp,712
    11b2:	08b5                	addi	a7,a7,13
    11b4:	0465                	addi	s0,s0,25
    11b6:	0000                	unimp
    11b8:	5f10                	lw	a2,56(a4)
    11ba:	0070                	addi	a2,sp,12
    11bc:	b605                	j	cdc <__stack_align+0xccc>
    11be:	1c12                	slli	s8,s8,0x24
    11c0:	00000003          	lb	zero,0(zero) # 0 <__boot_hart>
    11c4:	5f10                	lw	a2,56(a4)
    11c6:	0072                	c.slli	zero,0x1c
    11c8:	b705                	j	10e8 <__stack_align+0x10d8>
    11ca:	00004707          	.insn	4, 0x4707
    11ce:	0800                	addi	s0,sp,16
    11d0:	5f10                	lw	a2,56(a4)
    11d2:	b8050077          	.insn	4, 0xb8050077
    11d6:	00004707          	.insn	4, 0x4707
    11da:	0c00                	addi	s0,sp,528
    11dc:	0005d60b          	.insn	4, 0x0005d60b
    11e0:	0500                	addi	s0,sp,640
    11e2:	09b9                	addi	s3,s3,14
    11e4:	006a                	c.slli	zero,0x1a
    11e6:	0000                	unimp
    11e8:	0b10                	addi	a2,sp,400
    11ea:	069c                	addi	a5,sp,832
    11ec:	0000                	unimp
    11ee:	ba05                	j	b1e <__stack_align+0xb0e>
    11f0:	6a09                	lui	s4,0x2
    11f2:	0000                	unimp
    11f4:	1200                	addi	s0,sp,288
    11f6:	5f10                	lw	a2,56(a4)
    11f8:	6662                	ld	a2,24(sp)
    11fa:	0500                	addi	s0,sp,640
    11fc:	02f411bb          	.insn	4, 0x02f411bb
    1200:	0000                	unimp
    1202:	0b18                	addi	a4,sp,400
    1204:	00000563          	beqz	zero,120e <__stack_align+0x11fe>
    1208:	bc05                	j	c38 <__stack_align+0xc28>
    120a:	00004707          	.insn	4, 0x4707
    120e:	2800                	fld	fs0,16(s0)
    1210:	0005c60b          	.insn	4, 0x0005c60b
    1214:	0500                	addi	s0,sp,640
    1216:	012a0ac3          	fmadd.s	fs5,fs4,fs2,ft0,rne
    121a:	0000                	unimp
    121c:	0b30                	addi	a2,sp,408
    121e:	0670                	addi	a2,sp,780
    1220:	0000                	unimp
    1222:	c505                	beqz	a0,124a <__stack_align+0x123a>
    1224:	d71d                	beqz	a4,1152 <__stack_align+0x1142>
    1226:	0005                	c.nop	1
    1228:	3800                	fld	fs0,48(s0)
    122a:	0006fd0b          	.insn	4, 0x0006fd0b
    122e:	0500                	addi	s0,sp,640
    1230:	06011dc7          	.insn	4, 0x06011dc7
    1234:	0000                	unimp
    1236:	0b40                	addi	s0,sp,404
    1238:	082c                	addi	a1,sp,24
    123a:	0000                	unimp
    123c:	ca05                	beqz	a2,126c <__stack_align+0x125c>
    123e:	250d                	addiw	a0,a0,3
    1240:	0006                	c.slli	zero,0x1
    1242:	4800                	lw	s0,16(s0)
    1244:	0009130b          	.insn	4, 0x0009130b
    1248:	0500                	addi	s0,sp,640
    124a:	063f09cb          	.insn	4, 0x063f09cb
    124e:	0000                	unimp
    1250:	1050                	addi	a2,sp,36
    1252:	755f 0062 ce05      	.insn	6, 0xce050062755f
    1258:	f411                	bnez	s0,1164 <__stack_align+0x1154>
    125a:	0002                	c.slli64	zero
    125c:	5800                	lw	s0,48(s0)
    125e:	5f10                	lw	a2,56(a4)
    1260:	7075                	c.lui	zero,0xffffd
    1262:	0500                	addi	s0,sp,640
    1264:	031c12cf          	fnmadd.d	ft5,fs8,fa7,ft0,rtz
    1268:	0000                	unimp
    126a:	1068                	addi	a0,sp,44
    126c:	755f 0072 d005      	.insn	6, 0xd0050072755f
    1272:	00004707          	.insn	4, 0x4707
    1276:	7000                	ld	s0,32(s0)
    1278:	00059d0b          	.insn	4, 0x00059d0b
    127c:	0500                	addi	s0,sp,640
    127e:	064511d3          	.insn	4, 0x064511d3
    1282:	0000                	unimp
    1284:	0b74                	addi	a3,sp,412
    1286:	000008eb          	.insn	4, 0x08eb
    128a:	d405                	beqz	s0,11b2 <__stack_align+0x11a2>
    128c:	5511                	li	a0,-28
    128e:	0006                	c.slli	zero,0x1
    1290:	7700                	ld	s0,40(a4)
    1292:	5f10                	lw	a2,56(a4)
    1294:	626c                	ld	a1,192(a2)
    1296:	0500                	addi	s0,sp,640
    1298:	02f411d7          	.insn	4, 0x02f411d7
    129c:	0000                	unimp
    129e:	0b78                	addi	a4,sp,412
    12a0:	05f9                	addi	a1,a1,30
    12a2:	0000                	unimp
    12a4:	da05                	beqz	a2,11d4 <__stack_align+0x11c4>
    12a6:	00004707          	.insn	4, 0x4707
    12aa:	8800                	.insn	2, 0x8800
    12ac:	00071d0b          	.insn	4, 0x00071d0b
    12b0:	0500                	addi	s0,sp,640
    12b2:	008b0adb          	.insn	4, 0x008b0adb
    12b6:	0000                	unimp
    12b8:	0b90                	addi	a2,sp,464
    12ba:	053d                	addi	a0,a0,15
    12bc:	0000                	unimp
    12be:	de05                	beqz	a2,11f6 <__stack_align+0x11e6>
    12c0:	8312                	mv	t1,tp
    12c2:	0004                	.insn	2, 0x0004
    12c4:	9800                	.insn	2, 0x9800
    12c6:	00097e0b          	.insn	4, 0x00097e0b
    12ca:	0500                	addi	s0,sp,640
    12cc:	0ce2                	slli	s9,s9,0x18
    12ce:	011e                	slli	sp,sp,0x7
    12d0:	0000                	unimp
    12d2:	0ba0                	addi	s0,sp,472
    12d4:	07b1                	addi	a5,a5,12
    12d6:	0000                	unimp
    12d8:	e405                	bnez	s0,1300 <__stack_align+0x12f0>
    12da:	120e                	slli	tp,tp,0x23
    12dc:	0001                	nop
    12de:	a400                	fsd	fs0,8(s0)
    12e0:	0006f50b          	.insn	4, 0x0006f50b
    12e4:	0500                	addi	s0,sp,640
    12e6:	09e5                	addi	s3,s3,25
    12e8:	00000047          	fmsub.s	ft0,ft0,ft0,ft0,rne
    12ec:	00ac                	addi	a1,sp,72
    12ee:	a314                	fsd	fa3,0(a4)
    12f0:	0000                	unimp
    12f2:	8300                	.insn	2, 0x8300
    12f4:	0004                	.insn	2, 0x0004
    12f6:	1500                	addi	s0,sp,672
    12f8:	00000483          	lb	s1,0(zero) # 0 <__boot_hart>
    12fc:	2a15                	addiw	s4,s4,5 # 2005 <__stack_align+0x1ff5>
    12fe:	0001                	nop
    1300:	1500                	addi	s0,sp,672
    1302:	012c                	addi	a1,sp,136
    1304:	0000                	unimp
    1306:	4715                	li	a4,5
    1308:	0000                	unimp
    130a:	0000                	unimp
    130c:	080d                	addi	a6,a6,3
    130e:	048e                	slli	s1,s1,0x3
    1310:	0000                	unimp
    1312:	830e                	mv	t1,gp
    1314:	0004                	.insn	2, 0x0004
    1316:	1600                	addi	s0,sp,800
    1318:	0000080f          	.insn	4, 0x080f
    131c:	0748                	addi	a0,sp,900
    131e:	3905                	addiw	s2,s2,-31
    1320:	0802                	c.slli64	a6
    1322:	000005d7          	.insn	4, 0x05d7
    1326:	0009e617          	auipc	a2,0x9e
    132a:	0500                	addi	s0,sp,640
    132c:	4707023b          	.insn	4, 0x4707023b
    1330:	0000                	unimp
    1332:	0000                	unimp
    1334:	0005e517          	auipc	a0,0x5e
    1338:	0500                	addi	s0,sp,640
    133a:	0240                	addi	s0,sp,260
    133c:	0006b10b          	.insn	4, 0x0006b10b
    1340:	0800                	addi	s0,sp,16
    1342:	00068c17          	auipc	s8,0x68
    1346:	0500                	addi	s0,sp,640
    1348:	0240                	addi	s0,sp,260
    134a:	b114                	fsd	fa3,32(a0)
    134c:	0006                	c.slli	zero,0x1
    134e:	1000                	addi	s0,sp,32
    1350:	00065117          	auipc	sp,0x65
    1354:	0500                	addi	s0,sp,640
    1356:	0240                	addi	s0,sp,260
    1358:	b11e                	fsd	ft7,160(sp)
    135a:	0006                	c.slli	zero,0x1
    135c:	1800                	addi	s0,sp,48
    135e:	0007d217          	auipc	tp,0x7d
    1362:	0500                	addi	s0,sp,640
    1364:	0242                	slli	tp,tp,0x10
    1366:	4708                	lw	a0,8(a4)
    1368:	0000                	unimp
    136a:	2000                	fld	fs0,0(s0)
    136c:	00053217          	auipc	tp,0x53
    1370:	0500                	addi	s0,sp,640
    1372:	ba080243          	fmadd.d	ft4,fa6,ft0,fs7,rne
    1376:	0008                	.insn	2, 0x0008
    1378:	2400                	fld	fs0,8(s0)
    137a:	0007ee17          	auipc	t3,0x7e
    137e:	0500                	addi	s0,sp,640
    1380:	0246                	slli	tp,tp,0x11
    1382:	00004707          	.insn	4, 0x4707
    1386:	4000                	lw	s0,0(s0)
    1388:	0007dc17          	auipc	s8,0x7d
    138c:	0500                	addi	s0,sp,640
    138e:	cf160247          	.insn	4, 0xcf160247
    1392:	0008                	.insn	2, 0x0008
    1394:	4800                	lw	s0,16(s0)
    1396:	00073d17          	auipc	s10,0x73
    139a:	0500                	addi	s0,sp,640
    139c:	0249                	addi	tp,tp,18 # 5437e <__heap_size+0x3437e>
    139e:	00004707          	.insn	4, 0x4707
    13a2:	5000                	lw	s0,32(s0)
    13a4:	0007e417          	auipc	s0,0x7e
    13a8:	0500                	addi	s0,sp,640
    13aa:	e00a024b          	fnmsub.s	ft4,fs4,ft0,ft8,rne
    13ae:	0008                	.insn	2, 0x0008
    13b0:	5800                	lw	s0,48(s0)
    13b2:	0006d917          	auipc	s2,0x6d
    13b6:	0500                	addi	s0,sp,640
    13b8:	024e                	slli	tp,tp,0x13
    13ba:	0001a413          	slti	s0,gp,0
    13be:	6000                	ld	s0,0(s0)
    13c0:	00067617          	auipc	a2,0x67
    13c4:	0500                	addi	s0,sp,640
    13c6:	4707024f          	.insn	4, 0x4707024f
    13ca:	0000                	unimp
    13cc:	6800                	ld	s0,16(s0)
    13ce:	00092d17          	auipc	s10,0x92
    13d2:	0500                	addi	s0,sp,640
    13d4:	0250                	addi	a2,sp,260
    13d6:	0001a413          	slti	s0,gp,0
    13da:	7000                	ld	s0,32(s0)
    13dc:	00074817          	auipc	a6,0x74
    13e0:	0500                	addi	s0,sp,640
    13e2:	0251                	addi	tp,tp,20 # 14 <__stack_align+0x4>
    13e4:	e614                	sd	a3,8(a2)
    13e6:	0008                	.insn	2, 0x0008
    13e8:	7800                	ld	s0,48(s0)
    13ea:	00069417          	auipc	s0,0x69
    13ee:	0500                	addi	s0,sp,640
    13f0:	0254                	addi	a3,sp,260
    13f2:	00004707          	.insn	4, 0x4707
    13f6:	8000                	.insn	2, 0x8000
    13f8:	00060217          	auipc	tp,0x60
    13fc:	0500                	addi	s0,sp,640
    13fe:	0255                	addi	tp,tp,21 # 6140d <__heap_size+0x4140d>
    1400:	2c09                	addiw	s8,s8,2 # 7e38a <__heap_size+0x5e38a>
    1402:	0001                	nop
    1404:	8800                	.insn	2, 0x8800
    1406:	00077217          	auipc	tp,0x77
    140a:	0500                	addi	s0,sp,640
    140c:	0278                	addi	a4,sp,268
    140e:	00089407          	.insn	4, 0x00089407
    1412:	9000                	.insn	2, 0x9000
    1414:	3518                	fld	fa4,40(a0)
    1416:	05000007          	.insn	4, 0x05000007
    141a:	027c                	addi	a5,sp,268
    141c:	0002d713          	srli	a4,t0,0x0
    1420:	f800                	sd	s0,48(s0)
    1422:	1801                	addi	a6,a6,-32 # 753bc <__heap_size+0x553bc>
    1424:	000006b7          	lui	a3,0x0
    1428:	7d05                	lui	s10,0xfffe1
    142a:	1202                	slli	tp,tp,0x20
    142c:	00000293          	li	t0,0
    1430:	0200                	addi	s0,sp,256
    1432:	e118                	sd	a4,0(a0)
    1434:	0008                	.insn	2, 0x0008
    1436:	0500                	addi	s0,sp,640
    1438:	0281                	addi	t0,t0,0
    143a:	f70c                	sd	a1,40(a4)
    143c:	0008                	.insn	2, 0x0008
    143e:	1800                	addi	s0,sp,48
    1440:	1805                	addi	a6,a6,-31
    1442:	05ce                	slli	a1,a1,0x13
    1444:	0000                	unimp
    1446:	8605                	srai	a2,a2,0x1
    1448:	1002                	c.slli	zero,0x20
    144a:	0672                	slli	a2,a2,0x1c
    144c:	0000                	unimp
    144e:	0520                	addi	s0,sp,648
    1450:	b318                	fsd	fa4,32(a4)
    1452:	0005                	c.nop	1
    1454:	0500                	addi	s0,sp,640
    1456:	0288                	addi	a0,sp,320
    1458:	030a                	slli	t1,t1,0x2
    145a:	0009                	c.nop	2
    145c:	3800                	fld	fs0,48(s0)
    145e:	0005                	c.nop	1
    1460:	080d                	addi	a6,a6,3
    1462:	0465                	addi	s0,s0,25 # 6a403 <__heap_size+0x4a403>
    1464:	0000                	unimp
    1466:	a314                	fsd	fa3,0(a4)
    1468:	0000                	unimp
    146a:	fb00                	sd	s0,48(a4)
    146c:	0005                	c.nop	1
    146e:	1500                	addi	s0,sp,672
    1470:	00000483          	lb	s1,0(zero) # 0 <__boot_hart>
    1474:	2a15                	addiw	s4,s4,5
    1476:	0001                	nop
    1478:	1500                	addi	s0,sp,672
    147a:	000005fb          	.insn	4, 0x05fb
    147e:	4715                	li	a4,5
    1480:	0000                	unimp
    1482:	0000                	unimp
    1484:	080d                	addi	a6,a6,3
    1486:	0139                	addi	sp,sp,14 # 6635e <__heap_size+0x4635e>
    1488:	0000                	unimp
    148a:	080d                	addi	a6,a6,3
    148c:	05dd                	addi	a1,a1,23
    148e:	0000                	unimp
    1490:	9714                	.insn	2, 0x9714
    1492:	0000                	unimp
    1494:	2500                	fld	fs0,8(a0)
    1496:	0006                	c.slli	zero,0x1
    1498:	1500                	addi	s0,sp,672
    149a:	00000483          	lb	s1,0(zero) # 0 <__boot_hart>
    149e:	2a15                	addiw	s4,s4,5
    14a0:	0001                	nop
    14a2:	1500                	addi	s0,sp,672
    14a4:	00000097          	auipc	ra,0x0
    14a8:	4715                	li	a4,5
    14aa:	0000                	unimp
    14ac:	0000                	unimp
    14ae:	080d                	addi	a6,a6,3
    14b0:	00000607          	.insn	4, 0x0607
    14b4:	4714                	lw	a3,8(a4)
    14b6:	0000                	unimp
    14b8:	3f00                	fld	fs0,56(a4)
    14ba:	0006                	c.slli	zero,0x1
    14bc:	1500                	addi	s0,sp,672
    14be:	00000483          	lb	s1,0(zero) # 0 <__boot_hart>
    14c2:	2a15                	addiw	s4,s4,5
    14c4:	0001                	nop
    14c6:	0000                	unimp
    14c8:	080d                	addi	a6,a6,3
    14ca:	0000062b          	.insn	4, 0x062b
    14ce:	6308                	ld	a0,0(a4)
    14d0:	0000                	unimp
    14d2:	5500                	lw	s0,40(a0)
    14d4:	0006                	c.slli	zero,0x1
    14d6:	0900                	addi	s0,sp,144
    14d8:	0040                	addi	s0,sp,4
    14da:	0000                	unimp
    14dc:	0002                	c.slli64	zero
    14de:	6308                	ld	a0,0(a4)
    14e0:	0000                	unimp
    14e2:	6500                	ld	s0,8(a0)
    14e4:	0006                	c.slli	zero,0x1
    14e6:	0900                	addi	s0,sp,144
    14e8:	0040                	addi	s0,sp,4
    14ea:	0000                	unimp
    14ec:	0000                	unimp
    14ee:	9705                	srai	a4,a4,0x21
    14f0:	05000007          	.insn	4, 0x05000007
    14f4:	011f 221a 0003      	.insn	6, 0x0003221a011f
    14fa:	1900                	addi	s0,sp,176
    14fc:	08bd                	addi	a7,a7,15
    14fe:	0000                	unimp
    1500:	0518                	addi	a4,sp,640
    1502:	ab080123          	sb	a6,-1374(a6)
    1506:	0006                	c.slli	zero,0x1
    1508:	1700                	addi	s0,sp,928
    150a:	000007bf 11012505 	.insn	8, 0x11012505000007bf
    1512:	000006ab          	.insn	4, 0x06ab
    1516:	1700                	addi	s0,sp,928
    1518:	06b0                	addi	a2,sp,840
    151a:	0000                	unimp
    151c:	2605                	addiw	a2,a2,1 # 683c1 <__heap_size+0x483c1>
    151e:	0701                	addi	a4,a4,0 # fffffffffffe1000 <__heap_end+0xffffffff7ffbe000>
    1520:	00000047          	fmsub.s	ft0,ft0,ft0,ft0,rne
    1524:	1708                	addi	a0,sp,928
    1526:	0791                	addi	a5,a5,4
    1528:	0000                	unimp
    152a:	2705                	addiw	a4,a4,1
    152c:	0b01                	addi	s6,s6,0
    152e:	06b1                	addi	a3,a3,12 # c <__boot_hart+0xc>
    1530:	0000                	unimp
    1532:	0010                	.insn	2, 0x0010
    1534:	080d                	addi	a6,a6,3
    1536:	0672                	slli	a2,a2,0x1c
    1538:	0000                	unimp
    153a:	080d                	addi	a6,a6,3
    153c:	0665                	addi	a2,a2,25
    153e:	0000                	unimp
    1540:	2a19                	addiw	s4,s4,6
    1542:	0005                	c.nop	1
    1544:	0e00                	addi	s0,sp,784
    1546:	3f05                	addiw	t5,t5,-31 # 1fe1 <__stack_align+0x1fd1>
    1548:	0801                	addi	a6,a6,0
    154a:	06f0                	addi	a2,sp,844
    154c:	0000                	unimp
    154e:	00081617          	auipc	a2,0x81
    1552:	0500                	addi	s0,sp,640
    1554:	0140                	addi	s0,sp,132
    1556:	f012                	sd	tp,32(sp)
    1558:	0006                	c.slli	zero,0x1
    155a:	0000                	unimp
    155c:	00084317          	auipc	t1,0x84
    1560:	0500                	addi	s0,sp,640
    1562:	0141                	addi	sp,sp,16
    1564:	f012                	sd	tp,32(sp)
    1566:	0006                	c.slli	zero,0x1
    1568:	0600                	addi	s0,sp,768
    156a:	00086d17          	auipc	s10,0x86
    156e:	0500                	addi	s0,sp,640
    1570:	0142                	slli	sp,sp,0x10
    1572:	7112                	ld	sp,288(sp)
    1574:	0000                	unimp
    1576:	0c00                	addi	s0,sp,528
    1578:	0800                	addi	s0,sp,16
    157a:	0071                	c.nop	28
    157c:	0000                	unimp
    157e:	0700                	addi	s0,sp,896
    1580:	0000                	unimp
    1582:	4009                	c.li	zero,2
    1584:	0000                	unimp
    1586:	0200                	addi	s0,sp,256
    1588:	1a00                	addi	s0,sp,304
    158a:	05d8                	addi	a4,sp,708
    158c:	0259                	addi	tp,tp,22 # 7841c <__heap_size+0x5841c>
    158e:	00081507          	.insn	4, 0x00081507
    1592:	1700                	addi	s0,sp,928
    1594:	08a1                	addi	a7,a7,8
    1596:	0000                	unimp
    1598:	5b05                	li	s6,-31
    159a:	1802                	slli	a6,a6,0x20
    159c:	0078                	addi	a4,sp,12
    159e:	0000                	unimp
    15a0:	1700                	addi	s0,sp,928
    15a2:	00000857          	.insn	4, 0x0857
    15a6:	5c05                	li	s8,-31
    15a8:	1202                	slli	tp,tp,0x20
    15aa:	012c                	addi	a1,sp,136
    15ac:	0000                	unimp
    15ae:	1708                	addi	a0,sp,928
    15b0:	06cc                	addi	a1,sp,836
    15b2:	0000                	unimp
    15b4:	5d05                	li	s10,-31
    15b6:	1002                	c.slli	zero,0x20
    15b8:	0815                	addi	a6,a6,5
    15ba:	0000                	unimp
    15bc:	1710                	addi	a2,sp,928
    15be:	0904                	addi	s1,sp,144
    15c0:	0000                	unimp
    15c2:	5e05                	li	t3,-31
    15c4:	1702                	slli	a4,a4,0x20
    15c6:	01ba                	slli	gp,gp,0xe
    15c8:	0000                	unimp
    15ca:	172c                	addi	a1,sp,936
    15cc:	0661                	addi	a2,a2,24 # 82566 <__heap_size+0x62566>
    15ce:	0000                	unimp
    15d0:	5f05                	li	t5,-31
    15d2:	0f02                	c.slli64	t5
    15d4:	00000047          	fmsub.s	ft0,ft0,ft0,ft0,rne
    15d8:	1750                	addi	a2,sp,932
    15da:	07ba                	slli	a5,a5,0xe
    15dc:	0000                	unimp
    15de:	6005                	c.lui	zero,0x1
    15e0:	2c02                	fld	fs8,0(sp)
    15e2:	0825                	addi	a6,a6,9
    15e4:	0000                	unimp
    15e6:	1758                	addi	a4,sp,932
    15e8:	091a                	slli	s2,s2,0x6
    15ea:	0000                	unimp
    15ec:	6105                	addi	sp,sp,32
    15ee:	1a02                	slli	s4,s4,0x20
    15f0:	000006b7          	lui	a3,0x0
    15f4:	1760                	addi	s0,sp,940
    15f6:	07c5                	addi	a5,a5,17
    15f8:	0000                	unimp
    15fa:	6205                	lui	tp,0x1
    15fc:	1602                	slli	a2,a2,0x20
    15fe:	0112                	slli	sp,sp,0x4
    1600:	0000                	unimp
    1602:	1770                	addi	a2,sp,940
    1604:	091f 0000 6305      	.insn	6, 0x63050000091f
    160a:	1602                	slli	a2,a2,0x20
    160c:	0112                	slli	sp,sp,0x4
    160e:	0000                	unimp
    1610:	1778                	addi	a4,sp,940
    1612:	0586                	slli	a1,a1,0x1
    1614:	0000                	unimp
    1616:	6405                	lui	s0,0x1
    1618:	1602                	slli	a2,a2,0x20
    161a:	0112                	slli	sp,sp,0x4
    161c:	0000                	unimp
    161e:	1780                	addi	s0,sp,992
    1620:	08cc                	addi	a1,sp,84
    1622:	0000                	unimp
    1624:	6505                	lui	a0,0x1
    1626:	1002                	c.slli	zero,0x20
    1628:	082c                	addi	a1,sp,24
    162a:	0000                	unimp
    162c:	1788                	addi	a0,sp,992
    162e:	06c0                	addi	s0,sp,836
    1630:	0000                	unimp
    1632:	6605                	lui	a2,0x1
    1634:	1002                	c.slli	zero,0x20
    1636:	083c                	addi	a5,sp,24
    1638:	0000                	unimp
    163a:	1790                	addi	a2,sp,992
    163c:	087a                	slli	a6,a6,0x1e
    163e:	0000                	unimp
    1640:	6705                	lui	a4,0x1
    1642:	0f02                	c.slli64	t5
    1644:	00000047          	fmsub.s	ft0,ft0,ft0,ft0,rne
    1648:	17a8                	addi	a0,sp,1000
    164a:	0000061b          	sext.w	a2,zero
    164e:	6805                	lui	a6,0x1
    1650:	1602                	slli	a2,a2,0x20
    1652:	0112                	slli	sp,sp,0x4
    1654:	0000                	unimp
    1656:	17ac                	addi	a1,sp,1000
    1658:	00000577          	.insn	4, 0x0577
    165c:	6905                	lui	s2,0x1
    165e:	1602                	slli	a2,a2,0x20
    1660:	0112                	slli	sp,sp,0x4
    1662:	0000                	unimp
    1664:	17b4                	addi	a3,sp,1000
    1666:	060a                	slli	a2,a2,0x2
    1668:	0000                	unimp
    166a:	6a05                	lui	s4,0x1
    166c:	1602                	slli	a2,a2,0x20
    166e:	0112                	slli	sp,sp,0x4
    1670:	0000                	unimp
    1672:	17bc                	addi	a5,sp,1000
    1674:	00000543          	fmadd.s	fa0,ft0,ft0,ft0,rne
    1678:	6b05                	lui	s6,0x1
    167a:	1602                	slli	a2,a2,0x20
    167c:	0112                	slli	sp,sp,0x4
    167e:	0000                	unimp
    1680:	17c4                	addi	s1,sp,996
    1682:	0552                	slli	a0,a0,0x14
    1684:	0000                	unimp
    1686:	6c05                	lui	s8,0x1
    1688:	1602                	slli	a2,a2,0x20
    168a:	0112                	slli	sp,sp,0x4
    168c:	0000                	unimp
    168e:	17cc                	addi	a1,sp,996
    1690:	00000777          	.insn	4, 0x0777
    1694:	6d05                	lui	s10,0x1
    1696:	0802                	c.slli64	a6
    1698:	00000047          	fmsub.s	ft0,ft0,ft0,ft0,rne
    169c:	00d4                	addi	a3,sp,68
    169e:	3208                	fld	fa0,32(a2)
    16a0:	0001                	nop
    16a2:	2500                	fld	fs0,8(a0)
    16a4:	0008                	.insn	2, 0x0008
    16a6:	0900                	addi	s0,sp,144
    16a8:	0040                	addi	s0,sp,4
    16aa:	0000                	unimp
    16ac:	0019                	c.nop	6
    16ae:	0802                	c.slli64	a6
    16b0:	00003b07          	fld	fs6,0(zero) # 0 <__boot_hart>
    16b4:	0800                	addi	s0,sp,16
    16b6:	0132                	slli	sp,sp,0xc
    16b8:	0000                	unimp
    16ba:	083c                	addi	a5,sp,24
    16bc:	0000                	unimp
    16be:	4009                	c.li	zero,2
    16c0:	0000                	unimp
    16c2:	0700                	addi	s0,sp,896
    16c4:	0800                	addi	s0,sp,16
    16c6:	0132                	slli	sp,sp,0xc
    16c8:	0000                	unimp
    16ca:	084c                	addi	a1,sp,20
    16cc:	0000                	unimp
    16ce:	4009                	c.li	zero,2
    16d0:	0000                	unimp
    16d2:	1700                	addi	s0,sp,928
    16d4:	1b00                	addi	s0,sp,432
    16d6:	0168                	addi	a0,sp,140
    16d8:	7205                	lui	tp,0xfffe1
    16da:	0702                	c.slli64	a4
    16dc:	0874                	addi	a3,sp,28
    16de:	0000                	unimp
    16e0:	00072517          	auipc	a0,0x72
    16e4:	0500                	addi	s0,sp,640
    16e6:	0275                	addi	tp,tp,29 # fffffffffffe101d <__heap_end+0xffffffff7ffbe01d>
    16e8:	0008741b          	.insn	4, 0x0008741b
    16ec:	0000                	unimp
    16ee:	00070e17          	auipc	t3,0x70
    16f2:	0500                	addi	s0,sp,640
    16f4:	0276                	slli	tp,tp,0x1d
    16f6:	8418                	.insn	2, 0x8418
    16f8:	0008                	.insn	2, 0x0008
    16fa:	f000                	sd	s0,32(s0)
    16fc:	0800                	addi	s0,sp,16
    16fe:	031c                	addi	a5,sp,384
    1700:	0000                	unimp
    1702:	0884                	addi	s1,sp,80
    1704:	0000                	unimp
    1706:	4009                	c.li	zero,2
    1708:	0000                	unimp
    170a:	1d00                	addi	s0,sp,688
    170c:	0800                	addi	s0,sp,16
    170e:	0078                	addi	a4,sp,12
    1710:	0000                	unimp
    1712:	0894                	addi	a3,sp,80
    1714:	0000                	unimp
    1716:	4009                	c.li	zero,2
    1718:	0000                	unimp
    171a:	1d00                	addi	s0,sp,688
    171c:	1c00                	addi	s0,sp,560
    171e:	0168                	addi	a0,sp,140
    1720:	5705                	li	a4,-31
    1722:	0302                	c.slli64	t1
    1724:	08ba                	slli	a7,a7,0xe
    1726:	0000                	unimp
    1728:	0f1d                	addi	t5,t5,7
    172a:	0008                	.insn	2, 0x0008
    172c:	0500                	addi	s0,sp,640
    172e:	026e                	slli	tp,tp,0x1b
    1730:	0007000b          	.insn	4, 0x0007000b
    1734:	1d00                	addi	s0,sp,688
    1736:	08f1                	addi	a7,a7,28
    1738:	0000                	unimp
    173a:	7705                	lui	a4,0xfffe1
    173c:	0b02                	c.slli64	s6
    173e:	084c                	addi	a1,sp,20
    1740:	0000                	unimp
    1742:	0800                	addi	s0,sp,16
    1744:	0132                	slli	sp,sp,0xc
    1746:	0000                	unimp
    1748:	08ca                	slli	a7,a7,0x12
    174a:	0000                	unimp
    174c:	4009                	c.li	zero,2
    174e:	0000                	unimp
    1750:	1800                	addi	s0,sp,48
    1752:	1e00                	addi	s0,sp,816
    1754:	056c                	addi	a1,sp,652
    1756:	0000                	unimp
    1758:	080d                	addi	a6,a6,3 # 1003 <__stack_align+0xff3>
    175a:	08ca                	slli	a7,a7,0x12
    175c:	0000                	unimp
    175e:	e01f 0008 1500      	.insn	6, 0x15000008e01f
    1764:	00000483          	lb	s1,0(zero) # 0 <__boot_hart>
    1768:	0d00                	addi	s0,sp,656
    176a:	d508                	sw	a0,40(a0)
    176c:	0008                	.insn	2, 0x0008
    176e:	0d00                	addi	s0,sp,656
    1770:	a408                	fsd	fa0,8(s0)
    1772:	0001                	nop
    1774:	1f00                	addi	s0,sp,944
    1776:	000008f7          	.insn	4, 0x08f7
    177a:	4715                	li	a4,5
    177c:	0000                	unimp
    177e:	0000                	unimp
    1780:	080d                	addi	a6,a6,3
    1782:	08fd                	addi	a7,a7,31
    1784:	0000                	unimp
    1786:	080d                	addi	a6,a6,3
    1788:	08ec                	addi	a1,sp,92
    178a:	0000                	unimp
    178c:	6508                	ld	a0,8(a0)
    178e:	0006                	c.slli	zero,0x1
    1790:	1300                	addi	s0,sp,416
    1792:	0009                	c.nop	2
    1794:	0900                	addi	s0,sp,144
    1796:	0040                	addi	s0,sp,4
    1798:	0000                	unimp
    179a:	0002                	c.slli64	zero
    179c:	8e20                	.insn	2, 0x8e20
    179e:	0008                	.insn	2, 0x0008
    17a0:	0500                	addi	s0,sp,640
    17a2:	83170307          	.insn	4, 0x83170307
    17a6:	0004                	.insn	2, 0x0004
    17a8:	2000                	fld	fs0,0(s0)
    17aa:	00000887          	.insn	4, 0x0887
    17ae:	0805                	addi	a6,a6,1
    17b0:	04891d03          	lh	s10,72(s2) # 1048 <__stack_align+0x1038>
    17b4:	0000                	unimp
    17b6:	d621                	beqz	a2,16fe <__stack_align+0x16ee>
    17b8:	0008                	.insn	2, 0x0008
    17ba:	0100                	addi	s0,sp,128
    17bc:	16c60603          	lb	a2,364(a2) # 116c <__stack_align+0x115c>
    17c0:	8000                	.insn	2, 0x8000
    17c2:	0000                	unimp
    17c4:	0000                	unimp
    17c6:	002e                	c.slli	zero,0xb
    17c8:	0000                	unimp
    17ca:	0000                	unimp
    17cc:	0000                	unimp
    17ce:	9c01                	subw	s0,s0,s0
    17d0:	09b5                	addi	s3,s3,13
    17d2:	0000                	unimp
    17d4:	5222                	lw	tp,40(sp)
    17d6:	01000007          	.insn	4, 0x01000007
    17da:	1405                	addi	s0,s0,-31 # fe1 <__stack_align+0xfd1>
    17dc:	012c                	addi	a1,sp,136
    17de:	0000                	unimp
    17e0:	5401                	li	s0,-32
    17e2:	0006a223          	sw	zero,4(a3) # 4 <__boot_hart+0x4>
    17e6:	0100                	addi	s0,sp,128
    17e8:	1106                	slli	sp,sp,0x21
    17ea:	09b5                	addi	s3,s3,13
    17ec:	0000                	unimp
    17ee:	00071723          	sh	zero,14(a4) # fffffffffffe100e <__heap_end+0xffffffff7ffbe00e>
    17f2:	0100                	addi	s0,sp,128
    17f4:	09b51107          	.insn	4, 0x09b51107
    17f8:	0000                	unimp
    17fa:	0005ec23          	.insn	4, 0x0005ec23
    17fe:	0100                	addi	s0,sp,128
    1800:	1108                	addi	a0,sp,160
    1802:	09b5                	addi	s3,s3,13
    1804:	0000                	unimp
    1806:	00063123          	sd	zero,2(a2)
    180a:	0100                	addi	s0,sp,128
    180c:	1109                	addi	sp,sp,-30
    180e:	09b5                	addi	s3,s3,13
    1810:	0000                	unimp
    1812:	e024                	sd	s1,64(s0)
    1814:	0016                	c.slli	zero,0x5
    1816:	0080                	addi	s0,sp,64
    1818:	0000                	unimp
    181a:	c000                	sw	s0,0(s0)
    181c:	0009                	c.nop	2
    181e:	a100                	fsd	fs0,0(a0)
    1820:	0009                	c.nop	2
    1822:	2500                	fld	fs0,8(a0)
    1824:	5a01                	li	s4,-32
    1826:	7802                	ld	a6,32(sp)
    1828:	0000                	unimp
    182a:	f426                	sd	s1,40(sp)
    182c:	0016                	c.slli	zero,0x5
    182e:	0080                	addi	s0,sp,64
    1830:	0000                	unimp
    1832:	cc00                	sw	s0,24(s0)
    1834:	0009                	c.nop	2
    1836:	2500                	fld	fs0,8(a0)
    1838:	5b01                	li	s6,-32
    183a:	3001                	.insn	2, 0x3001
    183c:	0000                	unimp
    183e:	3208                	fld	fa0,32(a2)
    1840:	0001                	nop
    1842:	c000                	sw	s0,0(s0)
    1844:	0009                	c.nop	2
    1846:	2700                	fld	fs0,8(a4)
    1848:	2800                	fld	fs0,16(s0)
    184a:	000006e7          	jalr	a3,zero # 0 <__boot_hart>
    184e:	000006e7          	jalr	a3,zero # 0 <__boot_hart>
    1852:	1f06                	slli	t5,t5,0x21
    1854:	2809                	addiw	a6,a6,2
    1856:	089a                	slli	a7,a7,0x6
    1858:	0000                	unimp
    185a:	089a                	slli	a7,a7,0x6
    185c:	0000                	unimp
    185e:	2106                	fld	ft2,64(sp)
    1860:	0009                	c.nop	2
    1862:	0044                	addi	s1,sp,4
    1864:	0000                	unimp
    1866:	0004                	.insn	2, 0x0004
    1868:	05ed                	addi	a1,a1,27
    186a:	0000                	unimp
    186c:	0108                	addi	a0,sp,128
    186e:	0000048b          	.insn	4, 0x048b
    1872:	430c                	lw	a1,0(a4)
    1874:	0009                	c.nop	2
    1876:	0f00                	addi	s0,sp,912
    1878:	0004                	.insn	2, 0x0004
    187a:	f400                	sd	s0,40(s0)
    187c:	0016                	c.slli	zero,0x5
    187e:	0080                	addi	s0,sp,64
    1880:	0000                	unimp
    1882:	0600                	addi	s0,sp,768
    1884:	0000                	unimp
    1886:	0000                	unimp
    1888:	0000                	unimp
    188a:	d900                	sw	s0,48(a0)
    188c:	0016                	c.slli	zero,0x5
    188e:	0200                	addi	s0,sp,256
    1890:	093c                	addi	a5,sp,152
    1892:	0000                	unimp
    1894:	0701                	addi	a4,a4,0
    1896:	0016f427          	.insn	4, 0x0016f427
    189a:	0080                	addi	s0,sp,64
    189c:	0000                	unimp
    189e:	0600                	addi	s0,sp,768
    18a0:	0000                	unimp
    18a2:	0000                	unimp
    18a4:	0000                	unimp
    18a6:	0100                	addi	s0,sp,128
    18a8:	009c                	addi	a5,sp,64
    18aa:	000000e3          	beqz	zero,20aa <__stack_align+0x209a>
    18ae:	0004                	.insn	2, 0x0004
    18b0:	061e                	slli	a2,a2,0x7
    18b2:	0000                	unimp
    18b4:	0108                	addi	a0,sp,128
    18b6:	0000048b          	.insn	4, 0x048b
    18ba:	520c                	lw	a1,32(a2)
    18bc:	0009                	c.nop	2
    18be:	0f00                	addi	s0,sp,912
    18c0:	0004                	.insn	2, 0x0004
    18c2:	fa00                	sd	s0,48(a2)
    18c4:	0016                	c.slli	zero,0x5
    18c6:	0080                	addi	s0,sp,64
    18c8:	0000                	unimp
    18ca:	2000                	fld	fs0,0(s0)
    18cc:	0000                	unimp
    18ce:	0000                	unimp
    18d0:	0000                	unimp
    18d2:	3400                	fld	fs0,40(s0)
    18d4:	02000017          	auipc	zero,0x2000
    18d8:	0508                	addi	a0,sp,640
    18da:	0082                	c.slli64	ra
    18dc:	0000                	unimp
    18de:	0802                	c.slli64	a6
    18e0:	00004007          	.insn	4, 0x4007
    18e4:	0300                	addi	s0,sp,384
    18e6:	0504                	addi	s1,sp,640
    18e8:	6e69                	lui	t3,0x1a
    18ea:	0074                	addi	a3,sp,12
    18ec:	0802                	c.slli64	a6
    18ee:	7d05                	lui	s10,0xfffe1
    18f0:	0000                	unimp
    18f2:	0200                	addi	s0,sp,256
    18f4:	0410                	addi	a2,sp,512
    18f6:	019a                	slli	gp,gp,0x6
    18f8:	0000                	unimp
    18fa:	0102                	c.slli64	sp
    18fc:	de06                	sw	ra,60(sp)
    18fe:	0001                	nop
    1900:	0200                	addi	s0,sp,256
    1902:	0801                	addi	a6,a6,0
    1904:	01dc                	addi	a5,sp,196
    1906:	0000                	unimp
    1908:	0202                	c.slli64	tp
    190a:	8605                	srai	a2,a2,0x1
    190c:	0002                	c.slli64	zero
    190e:	0200                	addi	s0,sp,256
    1910:	0702                	c.slli64	a4
    1912:	0129                	addi	sp,sp,10
    1914:	0000                	unimp
    1916:	0402                	c.slli64	s0
    1918:	00004507          	.insn	4, 0x4507
    191c:	0400                	addi	s0,sp,512
    191e:	0509                	addi	a0,a0,2 # 736e2 <__heap_size+0x536e2>
    1920:	0000                	unimp
    1922:	6902                	ld	s2,0(sp)
    1924:	3419                	addiw	s0,s0,-26
    1926:	0000                	unimp
    1928:	0400                	addi	s0,sp,512
    192a:	0000050b          	.insn	4, 0x050b
    192e:	73143c03          	ld	s8,1841(s0)
    1932:	0000                	unimp
    1934:	0500                	addi	s0,sp,640
    1936:	007f 0000 0102 e508 	.insn	10, 0x0001e50801020000007f
    193e:	0001 
    1940:	0600                	addi	s0,sp,768
    1942:	0468                	addi	a0,sp,524
    1944:	0000                	unimp
    1946:	0604                	addi	s1,sp,768
    1948:	8b1a                	mv	s6,t1
    194a:	0000                	unimp
    194c:	0600                	addi	s0,sp,768
    194e:	0500                	addi	s0,sp,640
    1950:	0000                	unimp
    1952:	0704                	addi	s1,sp,896
    1954:	8b1a                	mv	s6,t1
    1956:	0000                	unimp
    1958:	0700                	addi	s0,sp,896
    195a:	0485                	addi	s1,s1,1
    195c:	0000                	unimp
    195e:	0401                	addi	s0,s0,0
    1960:	fa21                	bnez	a2,18b0 <__stack_align+0x18a0>
    1962:	0016                	c.slli	zero,0x5
    1964:	0080                	addi	s0,sp,64
    1966:	0000                	unimp
    1968:	2000                	fld	fs0,0(s0)
    196a:	0000                	unimp
    196c:	0000                	unimp
    196e:	0000                	unimp
    1970:	0100                	addi	s0,sp,128
    1972:	089c                	addi	a5,sp,80
    1974:	0514                	addi	a3,sp,640
    1976:	0000                	unimp
    1978:	0401                	addi	s0,s0,0
    197a:	00003b2b          	.insn	4, 0x3b2b
    197e:	0100                	addi	s0,sp,128
    1980:	095a                	slli	s2,s2,0x16
    1982:	00646d63          	bltu	s0,t1,199c <__stack_align+0x198c>
    1986:	0601                	addi	a2,a2,0
    1988:	7f0e                	ld	t5,224(sp)
    198a:	0000                	unimp
    198c:	0100                	addi	s0,sp,128
    198e:	005f 7400 0003      	.insn	6, 0x00037400005f
    1994:	0400                	addi	s0,sp,512
    1996:	b000                	fsd	fs0,32(s0)
    1998:	0006                	c.slli	zero,0x1
    199a:	0800                	addi	s0,sp,16
    199c:	8b01                	andi	a4,a4,0
    199e:	0004                	.insn	2, 0x0004
    19a0:	0c00                	addi	s0,sp,528
    19a2:	0000096b          	.insn	4, 0x096b
    19a6:	0000040f          	.insn	4, 0x040f
    19aa:	171a                	slli	a4,a4,0x26
    19ac:	8000                	.insn	2, 0x8000
    19ae:	0000                	unimp
    19b0:	0000                	unimp
    19b2:	0052                	c.slli	zero,0x14
    19b4:	0000                	unimp
    19b6:	0000                	unimp
    19b8:	0000                	unimp
    19ba:	185f 0000 0102      	.insn	6, 0x01020000185f
    19c0:	de06                	sw	ra,60(sp)
    19c2:	0001                	nop
    19c4:	0200                	addi	s0,sp,256
    19c6:	0801                	addi	a6,a6,0
    19c8:	01dc                	addi	a5,sp,196
    19ca:	0000                	unimp
    19cc:	0202                	c.slli64	tp
    19ce:	8605                	srai	a2,a2,0x1
    19d0:	0002                	c.slli64	zero
    19d2:	0200                	addi	s0,sp,256
    19d4:	0702                	c.slli64	a4
    19d6:	0129                	addi	sp,sp,10
    19d8:	0000                	unimp
    19da:	0003bb03          	ld	s6,0(t2)
    19de:	0400                	addi	s0,sp,512
    19e0:	184d                	addi	a6,a6,-13
    19e2:	0055                	c.nop	21
    19e4:	0000                	unimp
    19e6:	0404                	addi	s1,sp,512
    19e8:	6905                	lui	s2,0x1
    19ea:	746e                	ld	s0,248(sp)
    19ec:	0200                	addi	s0,sp,256
    19ee:	0704                	addi	s1,sp,896
    19f0:	0045                	c.nop	17
    19f2:	0000                	unimp
    19f4:	0802                	c.slli64	a6
    19f6:	8205                	srli	a2,a2,0x1
    19f8:	0000                	unimp
    19fa:	0300                	addi	s0,sp,384
    19fc:	0509                	addi	a0,a0,2
    19fe:	0000                	unimp
    1a00:	6904                	ld	s1,16(a0)
    1a02:	7619                	lui	a2,0xfffe6
    1a04:	0000                	unimp
    1a06:	0200                	addi	s0,sp,256
    1a08:	0708                	addi	a0,sp,896
    1a0a:	0040                	addi	s0,sp,4
    1a0c:	0000                	unimp
    1a0e:	00029003          	lh	zero,0(t0)
    1a12:	0400                	addi	s0,sp,512
    1a14:	1ae8                	addi	a0,sp,380
    1a16:	0076                	c.slli	zero,0x1d
    1a18:	0000                	unimp
    1a1a:	0003bd03          	ld	s10,0(t2)
    1a1e:	0500                	addi	s0,sp,640
    1a20:	132c                	addi	a1,sp,424
    1a22:	0049                	c.nop	18
    1a24:	0000                	unimp
    1a26:	00050b03          	lb	s6,0(a0)
    1a2a:	0500                	addi	s0,sp,640
    1a2c:	143c                	addi	a5,sp,552
    1a2e:	006a                	c.slli	zero,0x1a
    1a30:	0000                	unimp
    1a32:	9505                	srai	a0,a0,0x21
    1a34:	0000                	unimp
    1a36:	0300                	addi	s0,sp,384
    1a38:	0292                	slli	t0,t0,0x4
    1a3a:	0000                	unimp
    1a3c:	5205                	li	tp,-31
    1a3e:	7d15                	lui	s10,0xfffe5
    1a40:	0000                	unimp
    1a42:	0300                	addi	s0,sp,384
    1a44:	09a5                	addi	s3,s3,9
    1a46:	0000                	unimp
    1a48:	1b02                	slli	s6,s6,0x20
    1a4a:	8911                	andi	a0,a0,4
    1a4c:	0000                	unimp
    1a4e:	0600                	addi	s0,sp,768
    1a50:	00b2                	slli	ra,ra,0xc
    1a52:	0000                	unimp
    1a54:	06030407          	.insn	4, 0x06030407
    1a58:	da09                	beqz	a2,196a <__stack_align+0x195a>
    1a5a:	0000                	unimp
    1a5c:	0800                	addi	s0,sp,16
    1a5e:	097f 0000 0703 b20e 	.insn	10, 0xb20e07030000097f
    1a66:	0000 
    1a68:	0000                	unimp
    1a6a:	0300                	addi	s0,sp,384
    1a6c:	0960                	addi	s0,sp,156
    1a6e:	0000                	unimp
    1a70:	c3030803          	lb	a6,-976(t1) # 8518c <__heap_size+0x6518c>
    1a74:	0000                	unimp
    1a76:	0900                	addi	s0,sp,144
    1a78:	0468                	addi	a0,sp,524
    1a7a:	0000                	unimp
    1a7c:	0606                	slli	a2,a2,0x1
    1a7e:	a11a                	fsd	ft6,128(sp)
    1a80:	0000                	unimp
    1a82:	0900                	addi	s0,sp,144
    1a84:	0500                	addi	s0,sp,640
    1a86:	0000                	unimp
    1a88:	0706                	slli	a4,a4,0x1
    1a8a:	a11a                	fsd	ft6,128(sp)
    1a8c:	0000                	unimp
    1a8e:	0a00                	addi	s0,sp,272
    1a90:	00e6                	slli	ra,ra,0x19
    1a92:	0000                	unimp
    1a94:	0701                	addi	a4,a4,0
    1a96:	80030913          	addi	s2,t1,-2048
    1a9a:	002a                	c.slli	zero,0xa
    1a9c:	0080                	addi	s0,sp,64
    1a9e:	0000                	unimp
    1aa0:	0a00                	addi	s0,sp,272
    1aa2:	00f2                	slli	ra,ra,0x1c
    1aa4:	0000                	unimp
    1aa6:	0801                	addi	a6,a6,0
    1aa8:	88030913          	addi	s2,t1,-1920
    1aac:	002a                	c.slli	zero,0xa
    1aae:	0080                	addi	s0,sp,64
    1ab0:	0000                	unimp
    1ab2:	0b00                	addi	s0,sp,400
    1ab4:	097a                	slli	s2,s2,0x1e
    1ab6:	0000                	unimp
    1ab8:	0a01                	addi	s4,s4,0 # 1000 <__stack_align+0xff0>
    1aba:	0000da13          	srli	s4,ra,0x0
    1abe:	0900                	addi	s0,sp,144
    1ac0:	002b6803          	lwu	a6,2(s6) # 1002 <__stack_align+0xff2>
    1ac4:	0080                	addi	s0,sp,64
    1ac6:	0000                	unimp
    1ac8:	0c00                	addi	s0,sp,528
    1aca:	0984                	addi	s1,sp,208
    1acc:	0000                	unimp
    1ace:	0c01                	addi	s8,s8,0 # 1000 <__stack_align+0xff0>
    1ad0:	6306                	ld	t1,64(sp)
    1ad2:	0000                	unimp
    1ad4:	1a00                	addi	s0,sp,304
    1ad6:	00800017          	auipc	zero,0x800
    1ada:	0000                	unimp
    1adc:	5200                	lw	s0,32(a2)
    1ade:	0000                	unimp
    1ae0:	0000                	unimp
    1ae2:	0000                	unimp
    1ae4:	0100                	addi	s0,sp,128
    1ae6:	a69c                	fsd	fa5,8(a3)
    1ae8:	0002                	c.slli64	zero
    1aea:	0d00                	addi	s0,sp,656
    1aec:	3061                	.insn	2, 0x3061
    1aee:	0100                	addi	s0,sp,128
    1af0:	1c0c                	addi	a1,sp,560
    1af2:	0095                	addi	ra,ra,5 # 14a9 <__stack_align+0x1499>
    1af4:	0000                	unimp
    1af6:	00000107          	.insn	4, 0x0107
    1afa:	610e                	ld	sp,192(sp)
    1afc:	0031                	c.nop	12
    1afe:	0c01                	addi	s8,s8,0
    1b00:	9529                	srai	a0,a0,0x2a
    1b02:	0000                	unimp
    1b04:	0100                	addi	s0,sp,128
    1b06:	32610d5b          	.insn	4, 0x32610d5b
    1b0a:	0100                	addi	s0,sp,128
    1b0c:	360c                	fld	fa1,40(a2)
    1b0e:	0095                	addi	ra,ra,5
    1b10:	0000                	unimp
    1b12:	0140                	addi	s0,sp,132
    1b14:	0000                	unimp
    1b16:	6e0d                	lui	t3,0x3
    1b18:	0100                	addi	s0,sp,128
    1b1a:	480c                	lw	a1,16(s0)
    1b1c:	0076                	c.slli	zero,0x1d
    1b1e:	0000                	unimp
    1b20:	018d                	addi	gp,gp,3 # 8000333b <__global_pointer$+0x3>
    1b22:	0000                	unimp
    1b24:	6675620f          	.insn	4, 0x6675620f
    1b28:	0100                	addi	s0,sp,128
    1b2a:	170e                	slli	a4,a4,0x23
    1b2c:	02b6                	slli	t0,t0,0xd
    1b2e:	0000                	unimp
    1b30:	9102                	jalr	sp
    1b32:	0f40                	addi	s0,sp,916
    1b34:	01006373          	csrrsi	t1,0x10,0
    1b38:	00950e0f          	.insn	4, 0x00950e0f
    1b3c:	0000                	unimp
    1b3e:	5c01                	li	s8,-32
    1b40:	db10                	sw	a2,48(a4)
    1b42:	0002                	c.slli64	zero
    1b44:	3000                	fld	fs0,32(s0)
    1b46:	00800017          	auipc	zero,0x800
    1b4a:	0000                	unimp
    1b4c:	0e00                	addi	s0,sp,784
    1b4e:	0000                	unimp
    1b50:	0000                	unimp
    1b52:	0000                	unimp
    1b54:	0100                	addi	s0,sp,128
    1b56:	022d0517          	auipc	a0,0x22d0
    1b5a:	0000                	unimp
    1b5c:	e811                	bnez	s0,1b70 <__stack_align+0x1b60>
    1b5e:	0002                	c.slli64	zero
    1b60:	c600                	sw	s0,8(a2)
    1b62:	0001                	nop
    1b64:	1200                	addi	s0,sp,288
    1b66:	00000313          	li	t1,0
    1b6a:	1730                	addi	a2,sp,936
    1b6c:	8000                	.insn	2, 0x8000
	...
    1b76:	0a0e1203          	lh	tp,160(t3) # 30a0 <__stack_align+0x3090>
    1b7a:	0002                	c.slli64	zero
    1b7c:	1100                	addi	s0,sp,160
    1b7e:	032e                	slli	t1,t1,0xb
    1b80:	0000                	unimp
    1b82:	01f2                	slli	gp,gp,0x1c
    1b84:	0000                	unimp
    1b86:	2411                	addiw	s0,s0,4
    1b88:	17000003          	lb	zero,368(zero) # 170 <__stack_align+0x160>
    1b8c:	0002                	c.slli64	zero
    1b8e:	1300                	addi	s0,sp,416
    1b90:	0000                	unimp
    1b92:	0000                	unimp
    1b94:	3814                	fld	fa3,48(s0)
    1b96:	00000003          	lb	zero,0(zero) # 0 <__boot_hart>
    1b9a:	1500                	addi	s0,sp,672
    1b9c:	00000343          	fmadd.s	ft6,ft0,ft0,ft0,rne
    1ba0:	1732                	slli	a4,a4,0x2c
    1ba2:	8000                	.insn	2, 0x8000
    1ba4:	0000                	unimp
    1ba6:	0000                	unimp
    1ba8:	0004                	.insn	2, 0x0004
    1baa:	0000                	unimp
    1bac:	0000                	unimp
    1bae:	0000                	unimp
    1bb0:	11101003          	lh	zero,273(zero) # 111 <__stack_align+0x101>
    1bb4:	0354                	addi	a3,sp,388
    1bb6:	0000                	unimp
    1bb8:	00000243          	fmadd.s	ft4,ft0,ft0,ft0,rne
    1bbc:	0000                	unimp
    1bbe:	6516                	ld	a0,320(sp)
    1bc0:	3e000003          	lb	zero,992(zero) # 3e0 <__stack_align+0x3d0>
    1bc4:	00800017          	auipc	zero,0x800
    1bc8:	0000                	unimp
    1bca:	0400                	addi	s0,sp,512
    1bcc:	0000                	unimp
    1bce:	0000                	unimp
    1bd0:	0000                	unimp
    1bd2:	0100                	addi	s0,sp,128
    1bd4:	0518                	addi	a4,sp,640
    1bd6:	bb10                	fsd	fa2,48(a4)
    1bd8:	0002                	c.slli64	zero
    1bda:	5e00                	lw	s0,56(a2)
    1bdc:	00800017          	auipc	zero,0x800
    1be0:	0000                	unimp
    1be2:	0400                	addi	s0,sp,512
    1be4:	0000                	unimp
    1be6:	0000                	unimp
    1be8:	0000                	unimp
    1bea:	0100                	addi	s0,sp,128
    1bec:	051c                	addi	a5,sp,640
    1bee:	028d                	addi	t0,t0,3
    1bf0:	0000                	unimp
    1bf2:	c811                	beqz	s0,1c06 <__stack_align+0x1bf6>
    1bf4:	0002                	c.slli64	zero
    1bf6:	6f00                	ld	s0,24(a4)
    1bf8:	0002                	c.slli64	zero
    1bfa:	1500                	addi	s0,sp,672
    1bfc:	02f5                	addi	t0,t0,29
    1bfe:	0000                	unimp
    1c00:	175e                	slli	a4,a4,0x37
    1c02:	8000                	.insn	2, 0x8000
    1c04:	0000                	unimp
    1c06:	0000                	unimp
    1c08:	0004                	.insn	2, 0x0004
    1c0a:	0000                	unimp
    1c0c:	0000                	unimp
    1c0e:	0000                	unimp
    1c10:	11051703          	lh	a4,272(a0) # 22d1c66 <__heap_size+0x22b1c66>
    1c14:	0302                	c.slli64	t1
    1c16:	0000                	unimp
    1c18:	0000026f          	jal	tp,1c18 <__stack_align+0x1c08>
    1c1c:	0000                	unimp
    1c1e:	6e16                	ld	t3,320(sp)
    1c20:	62000003          	lb	zero,1568(zero) # 620 <__stack_align+0x610>
    1c24:	00800017          	auipc	zero,0x800
    1c28:	0000                	unimp
    1c2a:	0400                	addi	s0,sp,512
    1c2c:	0000                	unimp
    1c2e:	0000                	unimp
    1c30:	0000                	unimp
    1c32:	0100                	addi	s0,sp,128
    1c34:	051e                	slli	a0,a0,0x7
    1c36:	1700                	addi	s0,sp,928
    1c38:	00a1                	addi	ra,ra,8
    1c3a:	0000                	unimp
    1c3c:	02b6                	slli	t0,t0,0xd
    1c3e:	0000                	unimp
    1c40:	7618                	ld	a4,40(a2)
    1c42:	0000                	unimp
    1c44:	0700                	addi	s0,sp,896
    1c46:	0500                	addi	s0,sp,640
    1c48:	02a6                	slli	t0,t0,0x9
    1c4a:	0000                	unimp
    1c4c:	c419                	beqz	s0,1c5a <__stack_align+0x1c4a>
    1c4e:	0009                	c.nop	2
    1c50:	0300                	addi	s0,sp,384
    1c52:	1415                	addi	s0,s0,-27
    1c54:	0002d503          	lhu	a0,0(t0)
    1c58:	1a00                	addi	s0,sp,304
    1c5a:	097f 0000 1503 d52c 	.insn	10, 0x0002d52c15030000097f
    1c62:	0002 
    1c64:	0000                	unimp
    1c66:	00da081b          	addiw	a6,s4,13
    1c6a:	0000                	unimp
    1c6c:	ba19                	j	1582 <__stack_align+0x1572>
    1c6e:	0009                	c.nop	2
    1c70:	0300                	addi	s0,sp,384
    1c72:	140c                	addi	a1,sp,544
    1c74:	0002f503          	.insn	4, 0x0002f503
    1c78:	1a00                	addi	s0,sp,304
    1c7a:	097f 0000 0c03 d52a 	.insn	10, 0x0002d52a0c030000097f
    1c82:	0002 
    1c84:	0000                	unimp
    1c86:	d019                	beqz	s0,1b8c <__stack_align+0x1b7c>
    1c88:	0009                	c.nop	2
    1c8a:	0200                	addi	s0,sp,256
    1c8c:	143c                	addi	a5,sp,552
    1c8e:	00030d03          	lb	s10,0(t1)
    1c92:	1c00                	addi	s0,sp,560
    1c94:	0070                	addi	a2,sp,12
    1c96:	3c02                	fld	fs8,32(sp)
    1c98:	00030d33          	add	s10,t1,zero
    1c9c:	0000                	unimp
    1c9e:	00b2081b          	addiw	a6,tp,11 # b <__boot_hart+0xb>
    1ca2:	0000                	unimp
    1ca4:	911d                	srli	a0,a0,0x27
    1ca6:	0009                	c.nop	2
    1ca8:	0200                	addi	s0,sp,256
    1caa:	1428                	addi	a0,sp,552
    1cac:	00000063          	beqz	zero,1cac <__stack_align+0x1c9c>
    1cb0:	00034303          	lbu	t1,0(t1)
    1cb4:	1c00                	addi	s0,sp,560
    1cb6:	0070                	addi	a2,sp,12
    1cb8:	2802                	fld	fa6,0(sp)
    1cba:	0d32                	slli	s10,s10,0xc
    1cbc:	1c000003          	lb	zero,448(zero) # 1c0 <__stack_align+0x1b0>
    1cc0:	0076                	c.slli	zero,0x1d
    1cc2:	2802                	fld	fa6,0(sp)
    1cc4:	b23e                	fsd	fa5,288(sp)
    1cc6:	0000                	unimp
    1cc8:	1e00                	addi	s0,sp,816
    1cca:	006e                	c.slli	zero,0x1b
    1ccc:	2a02                	fld	fs4,0(sp)
    1cce:	630a                	ld	t1,128(sp)
    1cd0:	0000                	unimp
    1cd2:	0000                	unimp
    1cd4:	ae1d                	j	200a <__stack_align+0x1ffa>
    1cd6:	0009                	c.nop	2
    1cd8:	0200                	addi	s0,sp,256
    1cda:	141d                	addi	s0,s0,-25
    1cdc:	00000063          	beqz	zero,1cdc <__stack_align+0x1ccc>
    1ce0:	00035f03          	lhu	t5,0(t1)
    1ce4:	1c00                	addi	s0,sp,560
    1ce6:	0070                	addi	a2,sp,12
    1ce8:	1d02                	slli	s10,s10,0x20
    1cea:	5f30                	lw	a2,120(a4)
    1cec:	00000003          	lb	zero,0(zero) # 0 <__boot_hart>
    1cf0:	00be081b          	addiw	a6,t3,11
    1cf4:	0000                	unimp
    1cf6:	771f 626d 0200      	.insn	6, 0x0200626d771f
    1cfc:	1416                	slli	s0,s0,0x25
    1cfe:	6d721f03          	lh	t5,1751(tp) # 6d7 <__stack_align+0x6c7>
    1d02:	0062                	c.slli	zero,0x18
    1d04:	1502                	slli	a0,a0,0x20
    1d06:	0314                	addi	a3,sp,384
    1d08:	cc00                	sw	s0,24(s0)
    1d0a:	0009                	c.nop	2
    1d0c:	0400                	addi	s0,sp,512
    1d0e:	7b00                	ld	s0,48(a4)
    1d10:	0008                	.insn	2, 0x0008
    1d12:	0800                	addi	s0,sp,16
    1d14:	8b01                	andi	a4,a4,0
    1d16:	0004                	.insn	2, 0x0004
    1d18:	0c00                	addi	s0,sp,528
    1d1a:	09fa                	slli	s3,s3,0x1e
    1d1c:	0000                	unimp
    1d1e:	0000040f          	.insn	4, 0x040f
    1d22:	2242                	fld	ft4,16(sp)
    1d24:	8000                	.insn	2, 0x8000
    1d26:	0000                	unimp
    1d28:	0000                	unimp
    1d2a:	0014                	.insn	2, 0x0014
    1d2c:	0000                	unimp
    1d2e:	0000                	unimp
    1d30:	0000                	unimp
    1d32:	1ac9                	addi	s5,s5,-14
    1d34:	0000                	unimp
    1d36:	0402                	c.slli64	s0
    1d38:	6905                	lui	s2,0x1
    1d3a:	746e                	ld	s0,248(sp)
    1d3c:	0300                	addi	s0,sp,384
    1d3e:	0508                	addi	a0,sp,640
    1d40:	0082                	c.slli64	ra
    1d42:	0000                	unimp
    1d44:	40070803          	lb	a6,1024(a4)
    1d48:	0000                	unimp
    1d4a:	0300                	addi	s0,sp,384
    1d4c:	0508                	addi	a0,sp,640
    1d4e:	007d                	c.nop	31
    1d50:	0000                	unimp
    1d52:	9a041003          	lh	zero,-1632(s0)
    1d56:	0001                	nop
    1d58:	0300                	addi	s0,sp,384
    1d5a:	0601                	addi	a2,a2,0 # fffffffffffe6000 <__heap_end+0xffffffff7ffc3000>
    1d5c:	01de                	slli	gp,gp,0x17
    1d5e:	0000                	unimp
    1d60:	dc080103          	lb	sp,-576(a6)
    1d64:	0001                	nop
    1d66:	0300                	addi	s0,sp,384
    1d68:	0502                	c.slli64	a0
    1d6a:	0286                	slli	t0,t0,0x1
    1d6c:	0000                	unimp
    1d6e:	29070203          	lb	tp,656(a4)
    1d72:	0001                	nop
    1d74:	0300                	addi	s0,sp,384
    1d76:	0704                	addi	s1,sp,896
    1d78:	0045                	c.nop	17
    1d7a:	0000                	unimp
    1d7c:	0904                	addi	s1,sp,144
    1d7e:	0005                	c.nop	1
    1d80:	0200                	addi	s0,sp,256
    1d82:	1969                	addi	s2,s2,-6 # ffa <__stack_align+0xfea>
    1d84:	0000003b          	addw	zero,zero,zero
    1d88:	6004                	ld	s1,0(s0)
    1d8a:	03000007          	.insn	4, 0x03000007
    1d8e:	0d0c                	addi	a1,sp,656
    1d90:	002d                	c.nop	11
    1d92:	0000                	unimp
    1d94:	1404                	addi	s1,sp,544
    1d96:	000a                	c.slli	zero,0x2
    1d98:	0400                	addi	s0,sp,512
    1d9a:	0e2c                	addi	a1,sp,792
    1d9c:	0034                	addi	a3,sp,8
    1d9e:	0000                	unimp
    1da0:	3204                	fld	fs1,32(a2)
    1da2:	0008                	.insn	2, 0x0008
    1da4:	0400                	addi	s0,sp,512
    1da6:	0e72                	slli	t3,t3,0x1c
    1da8:	0034                	addi	a3,sp,8
    1daa:	0000                	unimp
    1dac:	c304                	sw	s1,0(a4)
    1dae:	0008                	.insn	2, 0x0008
    1db0:	0400                	addi	s0,sp,512
    1db2:	1791                	addi	a5,a5,-28
    1db4:	0034                	addi	a3,sp,8
    1db6:	0000                	unimp
    1db8:	ee05                	bnez	a2,1df0 <__stack_align+0x1de0>
    1dba:	0006                	c.slli	zero,0x1
    1dbc:	0500                	addi	s0,sp,640
    1dbe:	0165                	addi	sp,sp,25
    1dc0:	00006c17          	auipc	s8,0x6
    1dc4:	0600                	addi	s0,sp,768
    1dc6:	0404                	addi	s1,sp,512
    1dc8:	03a6                	slli	t2,t2,0x9
    1dca:	00de                	slli	ra,ra,0x17
    1dcc:	0000                	unimp
    1dce:	0006e107          	.insn	4, 0x0006e107
    1dd2:	0400                	addi	s0,sp,512
    1dd4:	0ca8                	addi	a0,sp,600
    1dd6:	000000af          	.insn	4, 0x00af
    1dda:	00068507          	.insn	4, 0x00068507
    1dde:	0400                	addi	s0,sp,512
    1de0:	13a9                	addi	t2,t2,-22
    1de2:	00de                	slli	ra,ra,0x17
    1de4:	0000                	unimp
    1de6:	0800                	addi	s0,sp,16
    1de8:	00000057          	.insn	4, 0x0057
    1dec:	00ee                	slli	ra,ra,0x1b
    1dee:	0000                	unimp
    1df0:	3b09                	addiw	s6,s6,-30
    1df2:	0000                	unimp
    1df4:	0300                	addi	s0,sp,384
    1df6:	0a00                	addi	s0,sp,272
    1df8:	0408                	addi	a0,sp,512
    1dfa:	011209a3          	sb	a7,19(tp) # 13 <__stack_align+0x3>
    1dfe:	0000                	unimp
    1e00:	00081c0b          	.insn	4, 0x00081c0b
    1e04:	0400                	addi	s0,sp,512
    1e06:	07a5                	addi	a5,a5,9
    1e08:	002d                	c.nop	11
    1e0a:	0000                	unimp
    1e0c:	0b00                	addi	s0,sp,400
    1e0e:	0824                	addi	s1,sp,24
    1e10:	0000                	unimp
    1e12:	aa04                	fsd	fs1,16(a2)
    1e14:	bc05                	j	1844 <__stack_align+0x1834>
    1e16:	0000                	unimp
    1e18:	0400                	addi	s0,sp,512
    1e1a:	0400                	addi	s0,sp,512
    1e1c:	079e                	slli	a5,a5,0x7
    1e1e:	0000                	unimp
    1e20:	ab04                	fsd	fs1,16(a4)
    1e22:	0000ee03          	lwu	t3,0(ra)
    1e26:	0400                	addi	s0,sp,512
    1e28:	0648                	addi	a0,sp,772
    1e2a:	0000                	unimp
    1e2c:	af04                	fsd	fs1,24(a4)
    1e2e:	00007f1b          	.insn	4, 0x7f1b
    1e32:	0c00                	addi	s0,sp,528
    1e34:	0d08                	addi	a0,sp,656
    1e36:	3208                	fld	fa0,32(a2)
    1e38:	0001                	nop
    1e3a:	0300                	addi	s0,sp,384
    1e3c:	0801                	addi	a6,a6,0
    1e3e:	01e5                	addi	gp,gp,25 # 80003351 <__global_pointer$+0x19>
    1e40:	0000                	unimp
    1e42:	320e                	fld	ft4,224(sp)
    1e44:	0001                	nop
    1e46:	0400                	addi	s0,sp,512
    1e48:	0872                	slli	a6,a6,0x1c
    1e4a:	0000                	unimp
    1e4c:	1906                	slli	s2,s2,0x21
    1e4e:	6c19                	lui	s8,0x6
    1e50:	0000                	unimp
    1e52:	0f00                	addi	s0,sp,912
    1e54:	0659                	addi	a2,a2,22
    1e56:	0000                	unimp
    1e58:	0620                	addi	s0,sp,776
    1e5a:	01a4082f          	.insn	4, 0x01a4082f
    1e5e:	0000                	unimp
    1e60:	0007bf0b          	.insn	4, 0x0007bf0b
    1e64:	0600                	addi	s0,sp,768
    1e66:	1331                	addi	t1,t1,-20
    1e68:	01a4                	addi	s1,sp,200
    1e6a:	0000                	unimp
    1e6c:	1000                	addi	s0,sp,32
    1e6e:	6b5f 0600 0732      	.insn	6, 0x073206006b5f
    1e74:	002d                	c.nop	11
    1e76:	0000                	unimp
    1e78:	0b08                	addi	a0,sp,400
    1e7a:	00000807          	.insn	4, 0x0807
    1e7e:	3206                	fld	ft4,96(sp)
    1e80:	00002d0b          	.insn	4, 0x2d0b
    1e84:	0c00                	addi	s0,sp,528
    1e86:	0006420b          	.insn	4, 0x0006420b
    1e8a:	0600                	addi	s0,sp,768
    1e8c:	1432                	slli	s0,s0,0x2c
    1e8e:	002d                	c.nop	11
    1e90:	0000                	unimp
    1e92:	0b10                	addi	a2,sp,400
    1e94:	08ae                	slli	a7,a7,0xb
    1e96:	0000                	unimp
    1e98:	3206                	fld	ft4,96(sp)
    1e9a:	00002d1b          	.insn	4, 0x2d1b
    1e9e:	1400                	addi	s0,sp,544
    1ea0:	5f10                	lw	a2,56(a4)
    1ea2:	0078                	addi	a4,sp,12
    1ea4:	3306                	fld	ft6,96(sp)
    1ea6:	0001aa0b          	.insn	4, 0x0001aa0b
    1eaa:	1800                	addi	s0,sp,48
    1eac:	0d00                	addi	s0,sp,656
    1eae:	4a08                	lw	a0,16(a2)
    1eb0:	0001                	nop
    1eb2:	0800                	addi	s0,sp,16
    1eb4:	013e                	slli	sp,sp,0xf
    1eb6:	0000                	unimp
    1eb8:	01ba                	slli	gp,gp,0xe
    1eba:	0000                	unimp
    1ebc:	3b09                	addiw	s6,s6,-30
    1ebe:	0000                	unimp
    1ec0:	0000                	unimp
    1ec2:	0f00                	addi	s0,sp,912
    1ec4:	0680                	addi	s0,sp,832
    1ec6:	0000                	unimp
    1ec8:	0624                	addi	s1,sp,776
    1eca:	023d0837          	lui	a6,0x23d0
    1ece:	0000                	unimp
    1ed0:	0005940b          	.insn	4, 0x0005940b
    1ed4:	0600                	addi	s0,sp,768
    1ed6:	0939                	addi	s2,s2,14
    1ed8:	002d                	c.nop	11
    1eda:	0000                	unimp
    1edc:	0b00                	addi	s0,sp,400
    1ede:	083a                	slli	a6,a6,0xe
    1ee0:	0000                	unimp
    1ee2:	3a06                	fld	fs4,96(sp)
    1ee4:	2d09                	addiw	s10,s10,2 # fffffffffffe5002 <__heap_end+0xffffffff7ffc2002>
    1ee6:	0000                	unimp
    1ee8:	0400                	addi	s0,sp,512
    1eea:	0005a90b          	.insn	4, 0x0005a90b
    1eee:	0600                	addi	s0,sp,768
    1ef0:	002d093b          	addw	s2,s10,sp
    1ef4:	0000                	unimp
    1ef6:	0b08                	addi	a0,sp,400
    1ef8:	0932                	slli	s2,s2,0xc
    1efa:	0000                	unimp
    1efc:	3c06                	fld	fs8,96(sp)
    1efe:	2d09                	addiw	s10,s10,2
    1f00:	0000                	unimp
    1f02:	0c00                	addi	s0,sp,528
    1f04:	00072c0b          	.insn	4, 0x00072c0b
    1f08:	0600                	addi	s0,sp,768
    1f0a:	093d                	addi	s2,s2,15
    1f0c:	002d                	c.nop	11
    1f0e:	0000                	unimp
    1f10:	0b10                	addi	a2,sp,400
    1f12:	0704                	addi	s1,sp,896
    1f14:	0000                	unimp
    1f16:	3e06                	fld	ft8,96(sp)
    1f18:	2d09                	addiw	s10,s10,2
    1f1a:	0000                	unimp
    1f1c:	1400                	addi	s0,sp,544
    1f1e:	0008b30b          	.insn	4, 0x0008b30b
    1f22:	0600                	addi	s0,sp,768
    1f24:	002d093f 0b180000 	.insn	8, 0x0b180000002d093f
    1f2c:	0780                	addi	s0,sp,960
    1f2e:	0000                	unimp
    1f30:	4006                	.insn	2, 0x4006
    1f32:	2d09                	addiw	s10,s10,2
    1f34:	0000                	unimp
    1f36:	1c00                	addi	s0,sp,560
    1f38:	0008f90b          	.insn	4, 0x0008f90b
    1f3c:	0600                	addi	s0,sp,768
    1f3e:	0941                	addi	s2,s2,16
    1f40:	002d                	c.nop	11
    1f42:	0000                	unimp
    1f44:	0020                	addi	s0,sp,8
    1f46:	b811                	j	175a <__stack_align+0x174a>
    1f48:	0005                	c.nop	1
    1f4a:	0800                	addi	s0,sp,16
    1f4c:	0602                	c.slli64	a2
    1f4e:	084a                	slli	a6,a6,0x12
    1f50:	00000283          	lb	t0,0(zero) # 0 <__boot_hart>
    1f54:	0006290b          	.insn	4, 0x0006290b
    1f58:	0600                	addi	s0,sp,768
    1f5a:	02830a4b          	fnmsub.d	fs4,ft6,fs0,ft0,rne
    1f5e:	0000                	unimp
    1f60:	1200                	addi	s0,sp,288
    1f62:	051e                	slli	a0,a0,0x7
    1f64:	0000                	unimp
    1f66:	4c06                	lw	s8,64(sp)
    1f68:	8309                	srli	a4,a4,0x2
    1f6a:	0002                	c.slli64	zero
    1f6c:	0000                	unimp
    1f6e:	1201                	addi	tp,tp,-32 # ffffffffffffffe0 <__heap_end+0xffffffff7ffdcfe0>
    1f70:	0864                	addi	s1,sp,28
    1f72:	0000                	unimp
    1f74:	4e06                	lw	t3,64(sp)
    1f76:	3e0a                	fld	ft8,160(sp)
    1f78:	0001                	nop
    1f7a:	0000                	unimp
    1f7c:	1202                	slli	tp,tp,0x20
    1f7e:	05dd                	addi	a1,a1,23
    1f80:	0000                	unimp
    1f82:	5106                	lw	sp,96(sp)
    1f84:	3e0a                	fld	ft8,160(sp)
    1f86:	0001                	nop
    1f88:	0400                	addi	s0,sp,512
    1f8a:	0002                	c.slli64	zero
    1f8c:	2a08                	fld	fa0,16(a2)
    1f8e:	0001                	nop
    1f90:	9300                	.insn	2, 0x9300
    1f92:	0002                	c.slli64	zero
    1f94:	0900                	addi	s0,sp,144
    1f96:	0000003b          	addw	zero,zero,zero
    1f9a:	001f 3511 0007      	.insn	6, 0x00073511001f
    1fa0:	1800                	addi	s0,sp,48
    1fa2:	085d0603          	lb	a2,133(s10)
    1fa6:	000002d7          	.insn	4, 0x02d7
    1faa:	0007bf0b          	.insn	4, 0x0007bf0b
    1fae:	0600                	addi	s0,sp,768
    1fb0:	125e                	slli	tp,tp,0x37
    1fb2:	000002d7          	.insn	4, 0x02d7
    1fb6:	0b00                	addi	s0,sp,400
    1fb8:	000007d7          	.insn	4, 0x07d7
    1fbc:	5f06                	lw	t5,96(sp)
    1fbe:	2d06                	fld	fs10,64(sp)
    1fc0:	0000                	unimp
    1fc2:	0800                	addi	s0,sp,16
    1fc4:	00063d0b          	.insn	4, 0x00063d0b
    1fc8:	0600                	addi	s0,sp,768
    1fca:	0961                	addi	s2,s2,24
    1fcc:	02dd                	addi	t0,t0,23
    1fce:	0000                	unimp
    1fd0:	1210                	addi	a2,sp,288
    1fd2:	05b8                	addi	a4,sp,712
    1fd4:	0000                	unimp
    1fd6:	6206                	ld	tp,64(sp)
    1fd8:	3d1e                	fld	fs10,480(sp)
    1fda:	0002                	c.slli64	zero
    1fdc:	1000                	addi	s0,sp,32
    1fde:	0001                	nop
    1fe0:	080d                	addi	a6,a6,3 # 23d0003 <__heap_size+0x23b0003>
    1fe2:	00000293          	li	t0,0
    1fe6:	ed08                	sd	a0,24(a0)
    1fe8:	0002                	c.slli64	zero
    1fea:	ed00                	sd	s0,24(a0)
    1fec:	0002                	c.slli64	zero
    1fee:	0900                	addi	s0,sp,144
    1ff0:	0000003b          	addw	zero,zero,zero
    1ff4:	001f 080d 02f3      	.insn	6, 0x02f3080d001f
    1ffa:	0000                	unimp
    1ffc:	078a0f13          	addi	t5,s4,120
    2000:	0000                	unimp
    2002:	0610                	addi	a2,sp,768
    2004:	0875                	addi	a6,a6,29
    2006:	031c                	addi	a5,sp,384
    2008:	0000                	unimp
    200a:	0005a30b          	.insn	4, 0x0005a30b
    200e:	0600                	addi	s0,sp,768
    2010:	1176                	slli	sp,sp,0x3d
    2012:	031c                	addi	a5,sp,384
    2014:	0000                	unimp
    2016:	0b00                	addi	s0,sp,400
    2018:	000005f3          	.insn	4, 0x05f3
    201c:	7706                	ld	a4,96(sp)
    201e:	2d06                	fld	fs10,64(sp)
    2020:	0000                	unimp
    2022:	0800                	addi	s0,sp,16
    2024:	0d00                	addi	s0,sp,656
    2026:	5708                	lw	a0,40(a4)
    2028:	0000                	unimp
    202a:	0f00                	addi	s0,sp,912
    202c:	07a9                	addi	a5,a5,10
    202e:	0000                	unimp
    2030:	06b0                	addi	a2,sp,840
    2032:	08b5                	addi	a7,a7,13
    2034:	0465                	addi	s0,s0,25
    2036:	0000                	unimp
    2038:	5f10                	lw	a2,56(a4)
    203a:	0070                	addi	a2,sp,12
    203c:	b606                	fsd	ft1,296(sp)
    203e:	1c12                	slli	s8,s8,0x24
    2040:	00000003          	lb	zero,0(zero) # 0 <__boot_hart>
    2044:	5f10                	lw	a2,56(a4)
    2046:	0072                	c.slli	zero,0x1c
    2048:	b706                	fsd	ft1,424(sp)
    204a:	00002d07          	flw	fs10,0(zero) # 0 <__boot_hart>
    204e:	0800                	addi	s0,sp,16
    2050:	5f10                	lw	a2,56(a4)
    2052:	b8060077          	.insn	4, 0xb8060077
    2056:	00002d07          	flw	fs10,0(zero) # 0 <__boot_hart>
    205a:	0c00                	addi	s0,sp,528
    205c:	0005d60b          	.insn	4, 0x0005d60b
    2060:	0600                	addi	s0,sp,768
    2062:	09b9                	addi	s3,s3,14
    2064:	005e                	c.slli	zero,0x17
    2066:	0000                	unimp
    2068:	0b10                	addi	a2,sp,400
    206a:	069c                	addi	a5,sp,832
    206c:	0000                	unimp
    206e:	ba06                	fsd	ft1,304(sp)
    2070:	5e09                	li	t3,-30
    2072:	0000                	unimp
    2074:	1200                	addi	s0,sp,288
    2076:	5f10                	lw	a2,56(a4)
    2078:	6662                	ld	a2,24(sp)
    207a:	0600                	addi	s0,sp,768
    207c:	02f411bb          	.insn	4, 0x02f411bb
    2080:	0000                	unimp
    2082:	0b18                	addi	a4,sp,400
    2084:	00000563          	beqz	zero,208e <__stack_align+0x207e>
    2088:	bc06                	fsd	ft1,56(sp)
    208a:	00002d07          	flw	fs10,0(zero) # 0 <__boot_hart>
    208e:	2800                	fld	fs0,16(s0)
    2090:	0005c60b          	.insn	4, 0x0005c60b
    2094:	0600                	addi	s0,sp,768
    2096:	012a0ac3          	fmadd.s	fs5,fs4,fs2,ft0,rne
    209a:	0000                	unimp
    209c:	0b30                	addi	a2,sp,408
    209e:	0670                	addi	a2,sp,780
    20a0:	0000                	unimp
    20a2:	c506                	sw	ra,136(sp)
    20a4:	d71d                	beqz	a4,1fd2 <__stack_align+0x1fc2>
    20a6:	0005                	c.nop	1
    20a8:	3800                	fld	fs0,48(s0)
    20aa:	0006fd0b          	.insn	4, 0x0006fd0b
    20ae:	0600                	addi	s0,sp,768
    20b0:	06061dc7          	.insn	4, 0x06061dc7
    20b4:	0000                	unimp
    20b6:	0b40                	addi	s0,sp,404
    20b8:	082c                	addi	a1,sp,24
    20ba:	0000                	unimp
    20bc:	ca06                	sw	ra,20(sp)
    20be:	2a0d                	addiw	s4,s4,3
    20c0:	0006                	c.slli	zero,0x1
    20c2:	4800                	lw	s0,16(s0)
    20c4:	0009130b          	.insn	4, 0x0009130b
    20c8:	0600                	addi	s0,sp,768
    20ca:	064409cb          	.insn	4, 0x064409cb
    20ce:	0000                	unimp
    20d0:	1050                	addi	a2,sp,36
    20d2:	755f 0062 ce06      	.insn	6, 0xce060062755f
    20d8:	f411                	bnez	s0,1fe4 <__stack_align+0x1fd4>
    20da:	0002                	c.slli64	zero
    20dc:	5800                	lw	s0,48(s0)
    20de:	5f10                	lw	a2,56(a4)
    20e0:	7075                	c.lui	zero,0xffffd
    20e2:	0600                	addi	s0,sp,768
    20e4:	031c12cf          	fnmadd.d	ft5,fs8,fa7,ft0,rtz
    20e8:	0000                	unimp
    20ea:	1068                	addi	a0,sp,44
    20ec:	755f 0072 d006      	.insn	6, 0xd0060072755f
    20f2:	00002d07          	flw	fs10,0(zero) # 0 <__boot_hart>
    20f6:	7000                	ld	s0,32(s0)
    20f8:	00059d0b          	.insn	4, 0x00059d0b
    20fc:	0600                	addi	s0,sp,768
    20fe:	064a11d3          	.insn	4, 0x064a11d3
    2102:	0000                	unimp
    2104:	0b74                	addi	a3,sp,412
    2106:	000008eb          	.insn	4, 0x08eb
    210a:	d406                	sw	ra,40(sp)
    210c:	5a11                	li	s4,-28
    210e:	0006                	c.slli	zero,0x1
    2110:	7700                	ld	s0,40(a4)
    2112:	5f10                	lw	a2,56(a4)
    2114:	626c                	ld	a1,192(a2)
    2116:	0600                	addi	s0,sp,768
    2118:	02f411d7          	.insn	4, 0x02f411d7
    211c:	0000                	unimp
    211e:	0b78                	addi	a4,sp,412
    2120:	05f9                	addi	a1,a1,30
    2122:	0000                	unimp
    2124:	da06                	sw	ra,52(sp)
    2126:	00002d07          	flw	fs10,0(zero) # 0 <__boot_hart>
    212a:	8800                	.insn	2, 0x8800
    212c:	00071d0b          	.insn	4, 0x00071d0b
    2130:	0600                	addi	s0,sp,768
    2132:	008b0adb          	.insn	4, 0x008b0adb
    2136:	0000                	unimp
    2138:	0b90                	addi	a2,sp,464
    213a:	053d                	addi	a0,a0,15
    213c:	0000                	unimp
    213e:	de06                	sw	ra,60(sp)
    2140:	8312                	mv	t1,tp
    2142:	0004                	.insn	2, 0x0004
    2144:	9800                	.insn	2, 0x9800
    2146:	00097e0b          	.insn	4, 0x00097e0b
    214a:	0600                	addi	s0,sp,768
    214c:	0ce2                	slli	s9,s9,0x18
    214e:	011e                	slli	sp,sp,0x7
    2150:	0000                	unimp
    2152:	0ba0                	addi	s0,sp,472
    2154:	07b1                	addi	a5,a5,12
    2156:	0000                	unimp
    2158:	e406                	sd	ra,8(sp)
    215a:	120e                	slli	tp,tp,0x23
    215c:	0001                	nop
    215e:	a400                	fsd	fs0,8(s0)
    2160:	0006f50b          	.insn	4, 0x0006f50b
    2164:	0600                	addi	s0,sp,768
    2166:	09e5                	addi	s3,s3,25
    2168:	002d                	c.nop	11
    216a:	0000                	unimp
    216c:	00ac                	addi	a1,sp,72
    216e:	a314                	fsd	fa3,0(a4)
    2170:	0000                	unimp
    2172:	8300                	.insn	2, 0x8300
    2174:	0004                	.insn	2, 0x0004
    2176:	1500                	addi	s0,sp,672
    2178:	00000483          	lb	s1,0(zero) # 0 <__boot_hart>
    217c:	2a15                	addiw	s4,s4,5
    217e:	0001                	nop
    2180:	1500                	addi	s0,sp,672
    2182:	012c                	addi	a1,sp,136
    2184:	0000                	unimp
    2186:	2d15                	addiw	s10,s10,5
    2188:	0000                	unimp
    218a:	0000                	unimp
    218c:	080d                	addi	a6,a6,3
    218e:	048e                	slli	s1,s1,0x3
    2190:	0000                	unimp
    2192:	830e                	mv	t1,gp
    2194:	0004                	.insn	2, 0x0004
    2196:	1600                	addi	s0,sp,800
    2198:	0000080f          	.insn	4, 0x080f
    219c:	0748                	addi	a0,sp,900
    219e:	3906                	fld	fs2,96(sp)
    21a0:	0802                	c.slli64	a6
    21a2:	000005d7          	.insn	4, 0x05d7
    21a6:	0009e617          	auipc	a2,0x9e
    21aa:	0600                	addi	s0,sp,768
    21ac:	2d07023b          	.insn	4, 0x2d07023b
    21b0:	0000                	unimp
    21b2:	0000                	unimp
    21b4:	0005e517          	auipc	a0,0x5e
    21b8:	0600                	addi	s0,sp,768
    21ba:	0240                	addi	s0,sp,260
    21bc:	0006b60b          	.insn	4, 0x0006b60b
    21c0:	0800                	addi	s0,sp,16
    21c2:	00068c17          	auipc	s8,0x68
    21c6:	0600                	addi	s0,sp,768
    21c8:	0240                	addi	s0,sp,260
    21ca:	b614                	fsd	fa3,40(a2)
    21cc:	0006                	c.slli	zero,0x1
    21ce:	1000                	addi	s0,sp,32
    21d0:	00065117          	auipc	sp,0x65
    21d4:	0600                	addi	s0,sp,768
    21d6:	0240                	addi	s0,sp,260
    21d8:	b61e                	fsd	ft7,296(sp)
    21da:	0006                	c.slli	zero,0x1
    21dc:	1800                	addi	s0,sp,48
    21de:	0007d217          	auipc	tp,0x7d
    21e2:	0600                	addi	s0,sp,768
    21e4:	0242                	slli	tp,tp,0x10
    21e6:	2d08                	fld	fa0,24(a0)
    21e8:	0000                	unimp
    21ea:	2000                	fld	fs0,0(s0)
    21ec:	00053217          	auipc	tp,0x53
    21f0:	0600                	addi	s0,sp,768
    21f2:	bf080243          	.insn	4, 0xbf080243
    21f6:	0008                	.insn	2, 0x0008
    21f8:	2400                	fld	fs0,8(s0)
    21fa:	0007ee17          	auipc	t3,0x7e
    21fe:	0600                	addi	s0,sp,768
    2200:	0246                	slli	tp,tp,0x11
    2202:	00002d07          	flw	fs10,0(zero) # 0 <__boot_hart>
    2206:	4000                	lw	s0,0(s0)
    2208:	0007dc17          	auipc	s8,0x7d
    220c:	0600                	addi	s0,sp,768
    220e:	d4160247          	.insn	4, 0xd4160247
    2212:	0008                	.insn	2, 0x0008
    2214:	4800                	lw	s0,16(s0)
    2216:	00073d17          	auipc	s10,0x73
    221a:	0600                	addi	s0,sp,768
    221c:	0249                	addi	tp,tp,18 # 551fe <__heap_size+0x351fe>
    221e:	00002d07          	flw	fs10,0(zero) # 0 <__boot_hart>
    2222:	5000                	lw	s0,32(s0)
    2224:	0007e417          	auipc	s0,0x7e
    2228:	0600                	addi	s0,sp,768
    222a:	e50a024b          	.insn	4, 0xe50a024b
    222e:	0008                	.insn	2, 0x0008
    2230:	5800                	lw	s0,48(s0)
    2232:	0006d917          	auipc	s2,0x6d
    2236:	0600                	addi	s0,sp,768
    2238:	024e                	slli	tp,tp,0x13
    223a:	0001a413          	slti	s0,gp,0
    223e:	6000                	ld	s0,0(s0)
    2240:	00067617          	auipc	a2,0x67
    2244:	0600                	addi	s0,sp,768
    2246:	2d07024f          	.insn	4, 0x2d07024f
    224a:	0000                	unimp
    224c:	6800                	ld	s0,16(s0)
    224e:	00092d17          	auipc	s10,0x92
    2252:	0600                	addi	s0,sp,768
    2254:	0250                	addi	a2,sp,260
    2256:	0001a413          	slti	s0,gp,0
    225a:	7000                	ld	s0,32(s0)
    225c:	00074817          	auipc	a6,0x74
    2260:	0600                	addi	s0,sp,768
    2262:	0251                	addi	tp,tp,20 # 14 <__stack_align+0x4>
    2264:	eb14                	sd	a3,16(a4)
    2266:	0008                	.insn	2, 0x0008
    2268:	7800                	ld	s0,48(s0)
    226a:	00069417          	auipc	s0,0x69
    226e:	0600                	addi	s0,sp,768
    2270:	0254                	addi	a3,sp,260
    2272:	00002d07          	flw	fs10,0(zero) # 0 <__boot_hart>
    2276:	8000                	.insn	2, 0x8000
    2278:	00060217          	auipc	tp,0x60
    227c:	0600                	addi	s0,sp,768
    227e:	0255                	addi	tp,tp,21 # 6228d <__heap_size+0x4228d>
    2280:	2c09                	addiw	s8,s8,2 # 7f20a <__heap_size+0x5f20a>
    2282:	0001                	nop
    2284:	8800                	.insn	2, 0x8800
    2286:	00077217          	auipc	tp,0x77
    228a:	0600                	addi	s0,sp,768
    228c:	0278                	addi	a4,sp,268
    228e:	00089907          	.insn	4, 0x00089907
    2292:	9000                	.insn	2, 0x9000
    2294:	3518                	fld	fa4,40(a0)
    2296:	06000007          	.insn	4, 0x06000007
    229a:	027c                	addi	a5,sp,268
    229c:	0002d713          	srli	a4,t0,0x0
    22a0:	f800                	sd	s0,48(s0)
    22a2:	1801                	addi	a6,a6,-32 # 7623c <__heap_size+0x5623c>
    22a4:	000006b7          	lui	a3,0x0
    22a8:	7d06                	ld	s10,96(sp)
    22aa:	1202                	slli	tp,tp,0x20
    22ac:	00000293          	li	t0,0
    22b0:	0200                	addi	s0,sp,256
    22b2:	e118                	sd	a4,0(a0)
    22b4:	0008                	.insn	2, 0x0008
    22b6:	0600                	addi	s0,sp,768
    22b8:	0281                	addi	t0,t0,0
    22ba:	fc0c                	sd	a1,56(s0)
    22bc:	0008                	.insn	2, 0x0008
    22be:	1800                	addi	s0,sp,48
    22c0:	1805                	addi	a6,a6,-31
    22c2:	05ce                	slli	a1,a1,0x13
    22c4:	0000                	unimp
    22c6:	8606                	mv	a2,ra
    22c8:	1002                	c.slli	zero,0x20
    22ca:	00000677          	.insn	4, 0x0677
    22ce:	0520                	addi	s0,sp,648
    22d0:	b318                	fsd	fa4,32(a4)
    22d2:	0005                	c.nop	1
    22d4:	0600                	addi	s0,sp,768
    22d6:	0288                	addi	a0,sp,320
    22d8:	080a                	slli	a6,a6,0x2
    22da:	0009                	c.nop	2
    22dc:	3800                	fld	fs0,48(s0)
    22de:	0005                	c.nop	1
    22e0:	080d                	addi	a6,a6,3
    22e2:	0465                	addi	s0,s0,25 # 6b283 <__heap_size+0x4b283>
    22e4:	0000                	unimp
    22e6:	a314                	fsd	fa3,0(a4)
    22e8:	0000                	unimp
    22ea:	fb00                	sd	s0,48(a4)
    22ec:	0005                	c.nop	1
    22ee:	1500                	addi	s0,sp,672
    22f0:	00000483          	lb	s1,0(zero) # 0 <__boot_hart>
    22f4:	2a15                	addiw	s4,s4,5
    22f6:	0001                	nop
    22f8:	1500                	addi	s0,sp,672
    22fa:	000005fb          	.insn	4, 0x05fb
    22fe:	2d15                	addiw	s10,s10,5 # 94253 <__heap_size+0x74253>
    2300:	0000                	unimp
    2302:	0000                	unimp
    2304:	080d                	addi	a6,a6,3
    2306:	0139                	addi	sp,sp,14 # 671de <__heap_size+0x471de>
    2308:	0000                	unimp
    230a:	fb0e                	sd	gp,432(sp)
    230c:	0005                	c.nop	1
    230e:	0d00                	addi	s0,sp,656
    2310:	dd08                	sw	a0,56(a0)
    2312:	0005                	c.nop	1
    2314:	1400                	addi	s0,sp,544
    2316:	00000097          	auipc	ra,0x0
    231a:	062a                	slli	a2,a2,0xa
    231c:	0000                	unimp
    231e:	8315                	srli	a4,a4,0x5
    2320:	0004                	.insn	2, 0x0004
    2322:	1500                	addi	s0,sp,672
    2324:	012a                	slli	sp,sp,0xa
    2326:	0000                	unimp
    2328:	9715                	srai	a4,a4,0x25
    232a:	0000                	unimp
    232c:	1500                	addi	s0,sp,672
    232e:	002d                	c.nop	11
    2330:	0000                	unimp
    2332:	0d00                	addi	s0,sp,656
    2334:	0c08                	addi	a0,sp,528
    2336:	0006                	c.slli	zero,0x1
    2338:	1400                	addi	s0,sp,544
    233a:	002d                	c.nop	11
    233c:	0000                	unimp
    233e:	0644                	addi	s1,sp,772
    2340:	0000                	unimp
    2342:	8315                	srli	a4,a4,0x5
    2344:	0004                	.insn	2, 0x0004
    2346:	1500                	addi	s0,sp,672
    2348:	012a                	slli	sp,sp,0xa
    234a:	0000                	unimp
    234c:	0d00                	addi	s0,sp,656
    234e:	3008                	fld	fa0,32(s0)
    2350:	0006                	c.slli	zero,0x1
    2352:	0800                	addi	s0,sp,16
    2354:	00000057          	.insn	4, 0x0057
    2358:	065a                	slli	a2,a2,0x16
    235a:	0000                	unimp
    235c:	3b09                	addiw	s6,s6,-30
    235e:	0000                	unimp
    2360:	0200                	addi	s0,sp,256
    2362:	0800                	addi	s0,sp,16
    2364:	00000057          	.insn	4, 0x0057
    2368:	066a                	slli	a2,a2,0x1a
    236a:	0000                	unimp
    236c:	3b09                	addiw	s6,s6,-30
    236e:	0000                	unimp
    2370:	0000                	unimp
    2372:	0500                	addi	s0,sp,640
    2374:	00000797          	auipc	a5,0x0
    2378:	1f06                	slli	t5,t5,0x21
    237a:	1a01                	addi	s4,s4,-32
    237c:	0322                	slli	t1,t1,0x8
    237e:	0000                	unimp
    2380:	bd19                	j	2196 <__stack_align+0x2186>
    2382:	0008                	.insn	2, 0x0008
    2384:	1800                	addi	s0,sp,48
    2386:	2306                	fld	ft6,64(sp)
    2388:	0801                	addi	a6,a6,0
    238a:	06b0                	addi	a2,sp,840
    238c:	0000                	unimp
    238e:	0007bf17          	auipc	t5,0x7b
    2392:	0600                	addi	s0,sp,768
    2394:	0125                	addi	sp,sp,9
    2396:	b011                	j	1b9a <__stack_align+0x1b8a>
    2398:	0006                	c.slli	zero,0x1
    239a:	0000                	unimp
    239c:	0006b017          	auipc	zero,0x6b
    23a0:	0600                	addi	s0,sp,768
    23a2:	0126                	slli	sp,sp,0x9
    23a4:	00002d07          	flw	fs10,0(zero) # 0 <__boot_hart>
    23a8:	0800                	addi	s0,sp,16
    23aa:	00079117          	auipc	sp,0x79
    23ae:	0600                	addi	s0,sp,768
    23b0:	b60b0127          	.insn	4, 0xb60b0127
    23b4:	0006                	c.slli	zero,0x1
    23b6:	1000                	addi	s0,sp,32
    23b8:	0d00                	addi	s0,sp,656
    23ba:	7708                	ld	a0,40(a4)
    23bc:	0006                	c.slli	zero,0x1
    23be:	0d00                	addi	s0,sp,656
    23c0:	6a08                	ld	a0,16(a2)
    23c2:	0006                	c.slli	zero,0x1
    23c4:	1900                	addi	s0,sp,176
    23c6:	052a                	slli	a0,a0,0xa
    23c8:	0000                	unimp
    23ca:	060e                	slli	a2,a2,0x3
    23cc:	f508013f 17000006 	.insn	8, 0x17000006f508013f
    23d4:	0816                	slli	a6,a6,0x5
    23d6:	0000                	unimp
    23d8:	4006                	.insn	2, 0x4006
    23da:	1201                	addi	tp,tp,-32 # 79266 <__heap_size+0x59266>
    23dc:	06f5                	addi	a3,a3,29 # 1d <__stack_align+0xd>
    23de:	0000                	unimp
    23e0:	1700                	addi	s0,sp,928
    23e2:	00000843          	fmadd.s	fa6,ft0,ft0,ft0,rne
    23e6:	4106                	lw	sp,64(sp)
    23e8:	1201                	addi	tp,tp,-32 # ffffffffffffffe0 <__heap_end+0xffffffff7ffdcfe0>
    23ea:	06f5                	addi	a3,a3,29
    23ec:	0000                	unimp
    23ee:	1706                	slli	a4,a4,0x21
    23f0:	086d                	addi	a6,a6,27
    23f2:	0000                	unimp
    23f4:	4206                	lw	tp,64(sp)
    23f6:	1201                	addi	tp,tp,-32 # ffffffffffffffe0 <__heap_end+0xffffffff7ffdcfe0>
    23f8:	0065                	c.nop	25
    23fa:	0000                	unimp
    23fc:	000c                	.insn	2, 0x000c
    23fe:	6508                	ld	a0,8(a0)
    2400:	0000                	unimp
    2402:	0500                	addi	s0,sp,640
    2404:	09000007          	.insn	4, 0x09000007
    2408:	0000003b          	addw	zero,zero,zero
    240c:	0002                	c.slli64	zero
    240e:	d81a                	sw	t1,48(sp)
    2410:	5906                	lw	s2,96(sp)
    2412:	0702                	c.slli64	a4
    2414:	081a                	slli	a6,a6,0x6
    2416:	0000                	unimp
    2418:	0008a117          	auipc	sp,0x8a
    241c:	0600                	addi	s0,sp,768
    241e:	6c18025b          	.insn	4, 0x6c18025b
    2422:	0000                	unimp
    2424:	0000                	unimp
    2426:	00085717          	auipc	a4,0x85
    242a:	0600                	addi	s0,sp,768
    242c:	025c                	addi	a5,sp,260
    242e:	2c12                	fld	fs8,256(sp)
    2430:	0001                	nop
    2432:	0800                	addi	s0,sp,16
    2434:	0006cc17          	auipc	s8,0x6c
    2438:	0600                	addi	s0,sp,768
    243a:	025d                	addi	tp,tp,23 # 17 <__stack_align+0x7>
    243c:	1a10                	addi	a2,sp,304
    243e:	0008                	.insn	2, 0x0008
    2440:	1000                	addi	s0,sp,32
    2442:	00090417          	auipc	s0,0x90
    2446:	0600                	addi	s0,sp,768
    2448:	025e                	slli	tp,tp,0x17
    244a:	0001ba17          	auipc	s4,0x1b
    244e:	2c00                	fld	fs0,24(s0)
    2450:	00066117          	auipc	sp,0x66
    2454:	0600                	addi	s0,sp,768
    2456:	025f 2d0f 0000      	.insn	6, 0x2d0f025f
    245c:	5000                	lw	s0,32(s0)
    245e:	0007ba17          	auipc	s4,0x7b
    2462:	0600                	addi	s0,sp,768
    2464:	0260                	addi	s0,sp,268
    2466:	2a2c                	fld	fa1,80(a2)
    2468:	0008                	.insn	2, 0x0008
    246a:	5800                	lw	s0,48(s0)
    246c:	00091a17          	auipc	s4,0x91
    2470:	0600                	addi	s0,sp,768
    2472:	0261                	addi	tp,tp,24 # 18 <__stack_align+0x8>
    2474:	bc1a                	fsd	ft6,56(sp)
    2476:	0006                	c.slli	zero,0x1
    2478:	6000                	ld	s0,0(s0)
    247a:	0007c517          	auipc	a0,0x7c
    247e:	0600                	addi	s0,sp,768
    2480:	0262                	slli	tp,tp,0x18
    2482:	1216                	slli	tp,tp,0x25
    2484:	0001                	nop
    2486:	7000                	ld	s0,32(s0)
    2488:	00091f17          	auipc	t5,0x91
    248c:	0600                	addi	s0,sp,768
    248e:	12160263          	beq	a2,ra,25b2 <__stack_align+0x25a2>
    2492:	0001                	nop
    2494:	7800                	ld	s0,48(s0)
    2496:	00058617          	auipc	a2,0x58
    249a:	0600                	addi	s0,sp,768
    249c:	0264                	addi	s1,sp,268
    249e:	1216                	slli	tp,tp,0x25
    24a0:	0001                	nop
    24a2:	8000                	.insn	2, 0x8000
    24a4:	0008cc17          	auipc	s8,0x8c
    24a8:	0600                	addi	s0,sp,768
    24aa:	0265                	addi	tp,tp,25 # 19 <__stack_align+0x9>
    24ac:	3110                	fld	fa2,32(a0)
    24ae:	0008                	.insn	2, 0x0008
    24b0:	8800                	.insn	2, 0x8800
    24b2:	0006c017          	auipc	zero,0x6c
    24b6:	0600                	addi	s0,sp,768
    24b8:	0266                	slli	tp,tp,0x19
    24ba:	4110                	lw	a2,0(a0)
    24bc:	0008                	.insn	2, 0x0008
    24be:	9000                	.insn	2, 0x9000
    24c0:	00087a17          	auipc	s4,0x87
    24c4:	0600                	addi	s0,sp,768
    24c6:	2d0f0267          	jalr	tp,720(t5) # 93758 <__heap_size+0x73758>
    24ca:	0000                	unimp
    24cc:	a800                	fsd	fs0,16(s0)
    24ce:	00061b17          	auipc	s6,0x61
    24d2:	0600                	addi	s0,sp,768
    24d4:	0268                	addi	a0,sp,268
    24d6:	1216                	slli	tp,tp,0x25
    24d8:	0001                	nop
    24da:	ac00                	fsd	fs0,24(s0)
    24dc:	00057717          	auipc	a4,0x57
    24e0:	0600                	addi	s0,sp,768
    24e2:	0269                	addi	tp,tp,26 # 1a <__stack_align+0xa>
    24e4:	1216                	slli	tp,tp,0x25
    24e6:	0001                	nop
    24e8:	b400                	fsd	fs0,40(s0)
    24ea:	00060a17          	auipc	s4,0x60
    24ee:	0600                	addi	s0,sp,768
    24f0:	026a                	slli	tp,tp,0x1a
    24f2:	1216                	slli	tp,tp,0x25
    24f4:	0001                	nop
    24f6:	bc00                	fsd	fs0,56(s0)
    24f8:	00054317          	auipc	t1,0x54
    24fc:	0600                	addi	s0,sp,768
    24fe:	1216026b          	.insn	4, 0x1216026b
    2502:	0001                	nop
    2504:	c400                	sw	s0,8(s0)
    2506:	00055217          	auipc	tp,0x55
    250a:	0600                	addi	s0,sp,768
    250c:	026c                	addi	a1,sp,268
    250e:	1216                	slli	tp,tp,0x25
    2510:	0001                	nop
    2512:	cc00                	sw	s0,24(s0)
    2514:	00077717          	auipc	a4,0x77
    2518:	0600                	addi	s0,sp,768
    251a:	026d                	addi	tp,tp,27 # 57521 <__heap_size+0x37521>
    251c:	2d08                	fld	fa0,24(a0)
    251e:	0000                	unimp
    2520:	d400                	sw	s0,40(s0)
    2522:	0800                	addi	s0,sp,16
    2524:	0132                	slli	sp,sp,0xc
    2526:	0000                	unimp
    2528:	082a                	slli	a6,a6,0xa
    252a:	0000                	unimp
    252c:	3b09                	addiw	s6,s6,-30 # 634b0 <__heap_size+0x434b0>
    252e:	0000                	unimp
    2530:	1900                	addi	s0,sp,176
    2532:	0300                	addi	s0,sp,384
    2534:	0708                	addi	a0,sp,896
    2536:	0000003b          	addw	zero,zero,zero
    253a:	3208                	fld	fa0,32(a2)
    253c:	0001                	nop
    253e:	4100                	lw	s0,0(a0)
    2540:	0008                	.insn	2, 0x0008
    2542:	0900                	addi	s0,sp,144
    2544:	0000003b          	addw	zero,zero,zero
    2548:	32080007          	.insn	4, 0x32080007
    254c:	0001                	nop
    254e:	5100                	lw	s0,32(a0)
    2550:	0008                	.insn	2, 0x0008
    2552:	0900                	addi	s0,sp,144
    2554:	0000003b          	addw	zero,zero,zero
    2558:	681b0017          	auipc	zero,0x681b0
    255c:	0601                	addi	a2,a2,0 # 5a496 <__heap_size+0x3a496>
    255e:	0272                	slli	tp,tp,0x1c
    2560:	00087907          	.insn	4, 0x00087907
    2564:	1700                	addi	s0,sp,928
    2566:	0725                	addi	a4,a4,9 # 7951d <__heap_size+0x5951d>
    2568:	0000                	unimp
    256a:	7506                	ld	a0,96(sp)
    256c:	1b02                	slli	s6,s6,0x20
    256e:	0879                	addi	a6,a6,30
    2570:	0000                	unimp
    2572:	1700                	addi	s0,sp,928
    2574:	070e                	slli	a4,a4,0x3
    2576:	0000                	unimp
    2578:	7606                	ld	a2,96(sp)
    257a:	1802                	slli	a6,a6,0x20
    257c:	0889                	addi	a7,a7,2
    257e:	0000                	unimp
    2580:	00f0                	addi	a2,sp,76
    2582:	1c08                	addi	a0,sp,560
    2584:	89000003          	lb	zero,-1904(zero) # fffffffffffff890 <__heap_end+0xffffffff7ffdc890>
    2588:	0008                	.insn	2, 0x0008
    258a:	0900                	addi	s0,sp,144
    258c:	0000003b          	addw	zero,zero,zero
    2590:	001d                	c.nop	7
    2592:	6c08                	ld	a0,24(s0)
    2594:	0000                	unimp
    2596:	9900                	.insn	2, 0x9900
    2598:	0008                	.insn	2, 0x0008
    259a:	0900                	addi	s0,sp,144
    259c:	0000003b          	addw	zero,zero,zero
    25a0:	001d                	c.nop	7
    25a2:	681c                	ld	a5,16(s0)
    25a4:	0601                	addi	a2,a2,0
    25a6:	bf030257          	.insn	4, 0xbf030257
    25aa:	0008                	.insn	2, 0x0008
    25ac:	1d00                	addi	s0,sp,688
    25ae:	0000080f          	.insn	4, 0x080f
    25b2:	6e06                	ld	t3,64(sp)
    25b4:	0b02                	c.slli64	s6
    25b6:	0705                	addi	a4,a4,1
    25b8:	0000                	unimp
    25ba:	f11d                	bnez	a0,24e0 <__stack_align+0x24d0>
    25bc:	0008                	.insn	2, 0x0008
    25be:	0600                	addi	s0,sp,768
    25c0:	510b0277          	.insn	4, 0x510b0277
    25c4:	0008                	.insn	2, 0x0008
    25c6:	0000                	unimp
    25c8:	3208                	fld	fa0,32(a2)
    25ca:	0001                	nop
    25cc:	cf00                	sw	s0,24(a4)
    25ce:	0008                	.insn	2, 0x0008
    25d0:	0900                	addi	s0,sp,144
    25d2:	0000003b          	addw	zero,zero,zero
    25d6:	0018                	.insn	2, 0x0018
    25d8:	6c1e                	ld	s8,448(sp)
    25da:	0005                	c.nop	1
    25dc:	0d00                	addi	s0,sp,656
    25de:	cf08                	sw	a0,24(a4)
    25e0:	0008                	.insn	2, 0x0008
    25e2:	1f00                	addi	s0,sp,944
    25e4:	08e5                	addi	a7,a7,25
    25e6:	0000                	unimp
    25e8:	8315                	srli	a4,a4,0x5
    25ea:	0004                	.insn	2, 0x0004
    25ec:	0000                	unimp
    25ee:	080d                	addi	a6,a6,3
    25f0:	08da                	slli	a7,a7,0x16
    25f2:	0000                	unimp
    25f4:	080d                	addi	a6,a6,3
    25f6:	01a4                	addi	s1,sp,200
    25f8:	0000                	unimp
    25fa:	fc1f 0008 1500      	.insn	6, 0x15000008fc1f
    2600:	002d                	c.nop	11
    2602:	0000                	unimp
    2604:	0d00                	addi	s0,sp,656
    2606:	0208                	addi	a0,sp,256
    2608:	0009                	c.nop	2
    260a:	0d00                	addi	s0,sp,656
    260c:	f108                	sd	a0,32(a0)
    260e:	0008                	.insn	2, 0x0008
    2610:	0800                	addi	s0,sp,16
    2612:	066a                	slli	a2,a2,0x1a
    2614:	0000                	unimp
    2616:	0918                	addi	a4,sp,144
    2618:	0000                	unimp
    261a:	3b09                	addiw	s6,s6,-30
    261c:	0000                	unimp
    261e:	0200                	addi	s0,sp,256
    2620:	2000                	fld	fs0,0(s0)
    2622:	088e                	slli	a7,a7,0x3
    2624:	0000                	unimp
    2626:	0706                	slli	a4,a4,0x1
    2628:	04831703          	lh	a4,72(t1) # 56540 <__heap_size+0x36540>
    262c:	0000                	unimp
    262e:	8720                	.insn	2, 0x8720
    2630:	0008                	.insn	2, 0x0008
    2632:	0600                	addi	s0,sp,768
    2634:	0308                	addi	a0,sp,384
    2636:	891d                	andi	a0,a0,7
    2638:	0004                	.insn	2, 0x0004
    263a:	0800                	addi	s0,sp,16
    263c:	0601                	addi	a2,a2,0
    263e:	0000                	unimp
    2640:	093d                	addi	s2,s2,15 # 6f241 <__heap_size+0x4f241>
    2642:	0000                	unimp
    2644:	0021                	c.nop	8
    2646:	320e                	fld	ft4,224(sp)
    2648:	0009                	c.nop	2
    264a:	2200                	fld	fs0,0(a2)
    264c:	09ed                	addi	s3,s3,27
    264e:	0000                	unimp
    2650:	3d241407          	.insn	4, 0x3d241407
    2654:	0009                	c.nop	2
    2656:	2200                	fld	fs0,0(a2)
    2658:	0a09                	addi	s4,s4,2 # 624ec <__heap_size+0x424ec>
    265a:	0000                	unimp
    265c:	2d151507          	.insn	4, 0x2d151507
    2660:	0000                	unimp
    2662:	0400                	addi	s0,sp,512
    2664:	0000050b          	.insn	4, 0x050b
    2668:	3c08                	fld	fa0,56(s0)
    266a:	7314                	ld	a3,32(a4)
    266c:	0000                	unimp
    266e:	2300                	fld	fs0,0(a4)
    2670:	095a                	slli	s2,s2,0x16
    2672:	0000                	unimp
    2674:	6822                	ld	a6,8(sp)
    2676:	0004                	.insn	2, 0x0004
    2678:	0900                	addi	s0,sp,144
    267a:	1a06                	slli	s4,s4,0x21
    267c:	0966                	slli	s2,s2,0x19
    267e:	0000                	unimp
    2680:	0022                	c.slli	zero,0x8
    2682:	0005                	c.nop	1
    2684:	0900                	addi	s0,sp,144
    2686:	09661a07          	.insn	4, 0x09661a07
    268a:	0000                	unimp
    268c:	1324                	addi	s1,sp,424
    268e:	0009                	c.nop	2
    2690:	0100                	addi	s0,sp,128
    2692:	0504                	addi	s1,sp,640
    2694:	002d                	c.nop	11
    2696:	0000                	unimp
    2698:	2242                	fld	ft4,16(sp)
    269a:	8000                	.insn	2, 0x8000
    269c:	0000                	unimp
    269e:	0000                	unimp
    26a0:	0014                	.insn	2, 0x0014
    26a2:	0000                	unimp
    26a4:	0000                	unimp
    26a6:	0000                	unimp
    26a8:	9c01                	subw	s0,s0,s0
    26aa:	000009c3          	fmadd.s	fs3,ft0,ft0,ft0,rne
    26ae:	9d25                	addw	a0,a0,s1
    26b0:	0006                	c.slli	zero,0x1
    26b2:	0100                	addi	s0,sp,128
    26b4:	1004                	addi	s1,sp,32
    26b6:	002d                	c.nop	11
    26b8:	0000                	unimp
    26ba:	0000029b          	sext.w	t0,zero
    26be:	4a26                	lw	s4,72(sp)
    26c0:	0022                	c.slli	zero,0x8
    26c2:	0080                	addi	s0,sp,64
    26c4:	0000                	unimp
    26c6:	c300                	sw	s0,0(a4)
    26c8:	0009                	c.nop	2
    26ca:	0000                	unimp
    26cc:	0009e527          	.insn	4, 0x0009e527
    26d0:	e500                	sd	s0,8(a0)
    26d2:	0009                	c.nop	2
    26d4:	0700                	addi	s0,sp,896
    26d6:	04000d0f          	.insn	4, 0x04000d0f
    26da:	000a                	c.slli	zero,0x2
    26dc:	0400                	addi	s0,sp,512
    26de:	9800                	.insn	2, 0x9800
    26e0:	000a                	c.slli	zero,0x2
    26e2:	0800                	addi	s0,sp,16
    26e4:	8b01                	andi	a4,a4,0
    26e6:	0004                	.insn	2, 0x0004
    26e8:	0c00                	addi	s0,sp,528
    26ea:	0a22                	slli	s4,s4,0x8
    26ec:	0000                	unimp
    26ee:	0000040f          	.insn	4, 0x040f
    26f2:	2256                	fld	ft4,336(sp)
    26f4:	8000                	.insn	2, 0x8000
    26f6:	0000                	unimp
    26f8:	0000                	unimp
    26fa:	0014                	.insn	2, 0x0014
    26fc:	0000                	unimp
    26fe:	0000                	unimp
    2700:	0000                	unimp
    2702:	1c44                	addi	s1,sp,564
    2704:	0000                	unimp
    2706:	0402                	c.slli64	s0
    2708:	6905                	lui	s2,0x1
    270a:	746e                	ld	s0,248(sp)
    270c:	0300                	addi	s0,sp,384
    270e:	0508                	addi	a0,sp,640
    2710:	0082                	c.slli64	ra
    2712:	0000                	unimp
    2714:	40070803          	lb	a6,1024(a4)
    2718:	0000                	unimp
    271a:	0300                	addi	s0,sp,384
    271c:	0508                	addi	a0,sp,640
    271e:	007d                	c.nop	31
    2720:	0000                	unimp
    2722:	9a041003          	lh	zero,-1632(s0) # 91de2 <__heap_size+0x71de2>
    2726:	0001                	nop
    2728:	0300                	addi	s0,sp,384
    272a:	0601                	addi	a2,a2,0
    272c:	01de                	slli	gp,gp,0x17
    272e:	0000                	unimp
    2730:	dc080103          	lb	sp,-576(a6)
    2734:	0001                	nop
    2736:	0300                	addi	s0,sp,384
    2738:	0502                	c.slli64	a0
    273a:	0286                	slli	t0,t0,0x1
    273c:	0000                	unimp
    273e:	29070203          	lb	tp,656(a4)
    2742:	0001                	nop
    2744:	0300                	addi	s0,sp,384
    2746:	0704                	addi	s1,sp,896
    2748:	0045                	c.nop	17
    274a:	0000                	unimp
    274c:	0904                	addi	s1,sp,144
    274e:	0005                	c.nop	1
    2750:	0200                	addi	s0,sp,256
    2752:	1969                	addi	s2,s2,-6 # ffa <__stack_align+0xfea>
    2754:	0000003b          	addw	zero,zero,zero
    2758:	6004                	ld	s1,0(s0)
    275a:	03000007          	.insn	4, 0x03000007
    275e:	0d0c                	addi	a1,sp,656
    2760:	002d                	c.nop	11
    2762:	0000                	unimp
    2764:	1404                	addi	s1,sp,544
    2766:	000a                	c.slli	zero,0x2
    2768:	0400                	addi	s0,sp,512
    276a:	0e2c                	addi	a1,sp,792
    276c:	0034                	addi	a3,sp,8
    276e:	0000                	unimp
    2770:	1304                	addi	s1,sp,416
    2772:	000a                	c.slli	zero,0x2
    2774:	0400                	addi	s0,sp,512
    2776:	1064                	addi	s1,sp,44
    2778:	0000008b          	.insn	4, 0x008b
    277c:	3204                	fld	fs1,32(a2)
    277e:	0008                	.insn	2, 0x0008
    2780:	0400                	addi	s0,sp,512
    2782:	0e72                	slli	t3,t3,0x1c
    2784:	0034                	addi	a3,sp,8
    2786:	0000                	unimp
    2788:	c304                	sw	s1,0(a4)
    278a:	0008                	.insn	2, 0x0008
    278c:	0400                	addi	s0,sp,512
    278e:	1791                	addi	a5,a5,-28 # 2358 <__stack_align+0x2348>
    2790:	0034                	addi	a3,sp,8
    2792:	0000                	unimp
    2794:	ee05                	bnez	a2,27cc <__stack_align+0x27bc>
    2796:	0006                	c.slli	zero,0x1
    2798:	0500                	addi	s0,sp,640
    279a:	0165                	addi	sp,sp,25 # 68469 <__heap_size+0x48469>
    279c:	00006c17          	auipc	s8,0x6
    27a0:	0600                	addi	s0,sp,768
    27a2:	0404                	addi	s1,sp,512
    27a4:	03a6                	slli	t2,t2,0x9
    27a6:	00ea                	slli	ra,ra,0x1a
    27a8:	0000                	unimp
    27aa:	0006e107          	.insn	4, 0x0006e107
    27ae:	0400                	addi	s0,sp,512
    27b0:	0ca8                	addi	a0,sp,600
    27b2:	000000bb          	addw	ra,zero,zero
    27b6:	00068507          	.insn	4, 0x00068507
    27ba:	0400                	addi	s0,sp,512
    27bc:	13a9                	addi	t2,t2,-22
    27be:	00ea                	slli	ra,ra,0x1a
    27c0:	0000                	unimp
    27c2:	0800                	addi	s0,sp,16
    27c4:	00000057          	.insn	4, 0x0057
    27c8:	00fa                	slli	ra,ra,0x1e
    27ca:	0000                	unimp
    27cc:	3b09                	addiw	s6,s6,-30
    27ce:	0000                	unimp
    27d0:	0300                	addi	s0,sp,384
    27d2:	0a00                	addi	s0,sp,272
    27d4:	0408                	addi	a0,sp,512
    27d6:	011e09a3          	sb	a7,19(t3) # 8020d <__heap_size+0x6020d>
    27da:	0000                	unimp
    27dc:	00081c0b          	.insn	4, 0x00081c0b
    27e0:	0400                	addi	s0,sp,512
    27e2:	07a5                	addi	a5,a5,9
    27e4:	002d                	c.nop	11
    27e6:	0000                	unimp
    27e8:	0b00                	addi	s0,sp,400
    27ea:	0824                	addi	s1,sp,24
    27ec:	0000                	unimp
    27ee:	aa04                	fsd	fs1,16(a2)
    27f0:	c805                	beqz	s0,2820 <__stack_align+0x2810>
    27f2:	0000                	unimp
    27f4:	0400                	addi	s0,sp,512
    27f6:	0400                	addi	s0,sp,512
    27f8:	079e                	slli	a5,a5,0x7
    27fa:	0000                	unimp
    27fc:	ab04                	fsd	fs1,16(a4)
    27fe:	0000fa03          	.insn	4, 0xfa03
    2802:	0400                	addi	s0,sp,512
    2804:	0648                	addi	a0,sp,772
    2806:	0000                	unimp
    2808:	af04                	fsd	fs1,24(a4)
    280a:	00007f1b          	.insn	4, 0x7f1b
    280e:	0c00                	addi	s0,sp,528
    2810:	0d08                	addi	a0,sp,656
    2812:	3e08                	fld	fa0,56(a2)
    2814:	0001                	nop
    2816:	0300                	addi	s0,sp,384
    2818:	0801                	addi	a6,a6,0
    281a:	01e5                	addi	gp,gp,25 # 80003351 <__global_pointer$+0x19>
    281c:	0000                	unimp
    281e:	3e0e                	fld	ft8,224(sp)
    2820:	0001                	nop
    2822:	0400                	addi	s0,sp,512
    2824:	0872                	slli	a6,a6,0x1c
    2826:	0000                	unimp
    2828:	1906                	slli	s2,s2,0x21
    282a:	6c19                	lui	s8,0x6
    282c:	0000                	unimp
    282e:	0f00                	addi	s0,sp,912
    2830:	0659                	addi	a2,a2,22
    2832:	0000                	unimp
    2834:	0620                	addi	s0,sp,776
    2836:	01b0082f          	.insn	4, 0x01b0082f
    283a:	0000                	unimp
    283c:	0007bf0b          	.insn	4, 0x0007bf0b
    2840:	0600                	addi	s0,sp,768
    2842:	1331                	addi	t1,t1,-20
    2844:	01b0                	addi	a2,sp,200
    2846:	0000                	unimp
    2848:	1000                	addi	s0,sp,32
    284a:	6b5f 0600 0732      	.insn	6, 0x073206006b5f
    2850:	002d                	c.nop	11
    2852:	0000                	unimp
    2854:	0b08                	addi	a0,sp,400
    2856:	00000807          	.insn	4, 0x0807
    285a:	3206                	fld	ft4,96(sp)
    285c:	00002d0b          	.insn	4, 0x2d0b
    2860:	0c00                	addi	s0,sp,528
    2862:	0006420b          	.insn	4, 0x0006420b
    2866:	0600                	addi	s0,sp,768
    2868:	1432                	slli	s0,s0,0x2c
    286a:	002d                	c.nop	11
    286c:	0000                	unimp
    286e:	0b10                	addi	a2,sp,400
    2870:	08ae                	slli	a7,a7,0xb
    2872:	0000                	unimp
    2874:	3206                	fld	ft4,96(sp)
    2876:	00002d1b          	.insn	4, 0x2d1b
    287a:	1400                	addi	s0,sp,544
    287c:	5f10                	lw	a2,56(a4)
    287e:	0078                	addi	a4,sp,12
    2880:	3306                	fld	ft6,96(sp)
    2882:	0001b60b          	.insn	4, 0x0001b60b
    2886:	1800                	addi	s0,sp,48
    2888:	0d00                	addi	s0,sp,656
    288a:	5608                	lw	a0,40(a2)
    288c:	0001                	nop
    288e:	0800                	addi	s0,sp,16
    2890:	014a                	slli	sp,sp,0x12
    2892:	0000                	unimp
    2894:	01c6                	slli	gp,gp,0x11
    2896:	0000                	unimp
    2898:	3b09                	addiw	s6,s6,-30
    289a:	0000                	unimp
    289c:	0000                	unimp
    289e:	0f00                	addi	s0,sp,912
    28a0:	0680                	addi	s0,sp,832
    28a2:	0000                	unimp
    28a4:	0624                	addi	s1,sp,776
    28a6:	02490837          	lui	a6,0x2490
    28aa:	0000                	unimp
    28ac:	0005940b          	.insn	4, 0x0005940b
    28b0:	0600                	addi	s0,sp,768
    28b2:	0939                	addi	s2,s2,14
    28b4:	002d                	c.nop	11
    28b6:	0000                	unimp
    28b8:	0b00                	addi	s0,sp,400
    28ba:	083a                	slli	a6,a6,0xe
    28bc:	0000                	unimp
    28be:	3a06                	fld	fs4,96(sp)
    28c0:	2d09                	addiw	s10,s10,2
    28c2:	0000                	unimp
    28c4:	0400                	addi	s0,sp,512
    28c6:	0005a90b          	.insn	4, 0x0005a90b
    28ca:	0600                	addi	s0,sp,768
    28cc:	002d093b          	addw	s2,s10,sp
    28d0:	0000                	unimp
    28d2:	0b08                	addi	a0,sp,400
    28d4:	0932                	slli	s2,s2,0xc
    28d6:	0000                	unimp
    28d8:	3c06                	fld	fs8,96(sp)
    28da:	2d09                	addiw	s10,s10,2
    28dc:	0000                	unimp
    28de:	0c00                	addi	s0,sp,528
    28e0:	00072c0b          	.insn	4, 0x00072c0b
    28e4:	0600                	addi	s0,sp,768
    28e6:	093d                	addi	s2,s2,15
    28e8:	002d                	c.nop	11
    28ea:	0000                	unimp
    28ec:	0b10                	addi	a2,sp,400
    28ee:	0704                	addi	s1,sp,896
    28f0:	0000                	unimp
    28f2:	3e06                	fld	ft8,96(sp)
    28f4:	2d09                	addiw	s10,s10,2
    28f6:	0000                	unimp
    28f8:	1400                	addi	s0,sp,544
    28fa:	0008b30b          	.insn	4, 0x0008b30b
    28fe:	0600                	addi	s0,sp,768
    2900:	002d093f 0b180000 	.insn	8, 0x0b180000002d093f
    2908:	0780                	addi	s0,sp,960
    290a:	0000                	unimp
    290c:	4006                	.insn	2, 0x4006
    290e:	2d09                	addiw	s10,s10,2
    2910:	0000                	unimp
    2912:	1c00                	addi	s0,sp,560
    2914:	0008f90b          	.insn	4, 0x0008f90b
    2918:	0600                	addi	s0,sp,768
    291a:	0941                	addi	s2,s2,16
    291c:	002d                	c.nop	11
    291e:	0000                	unimp
    2920:	0020                	addi	s0,sp,8
    2922:	b811                	j	2136 <__stack_align+0x2126>
    2924:	0005                	c.nop	1
    2926:	0800                	addi	s0,sp,16
    2928:	0602                	c.slli64	a2
    292a:	084a                	slli	a6,a6,0x12
    292c:	0000028f          	.insn	4, 0x028f
    2930:	0006290b          	.insn	4, 0x0006290b
    2934:	0600                	addi	s0,sp,768
    2936:	028f0a4b          	fnmsub.d	fs4,ft10,fs0,ft0,rne
    293a:	0000                	unimp
    293c:	1200                	addi	s0,sp,288
    293e:	051e                	slli	a0,a0,0x7
    2940:	0000                	unimp
    2942:	4c06                	lw	s8,64(sp)
    2944:	8f09                	sub	a4,a4,a0
    2946:	0002                	c.slli64	zero
    2948:	0000                	unimp
    294a:	1201                	addi	tp,tp,-32 # ffffffffffffffe0 <__heap_end+0xffffffff7ffdcfe0>
    294c:	0864                	addi	s1,sp,28
    294e:	0000                	unimp
    2950:	4e06                	lw	t3,64(sp)
    2952:	4a0a                	lw	s4,128(sp)
    2954:	0001                	nop
    2956:	0000                	unimp
    2958:	1202                	slli	tp,tp,0x20
    295a:	05dd                	addi	a1,a1,23
    295c:	0000                	unimp
    295e:	5106                	lw	sp,96(sp)
    2960:	4a0a                	lw	s4,128(sp)
    2962:	0001                	nop
    2964:	0400                	addi	s0,sp,512
    2966:	0002                	c.slli64	zero
    2968:	3608                	fld	fa0,40(a2)
    296a:	0001                	nop
    296c:	9f00                	.insn	2, 0x9f00
    296e:	0002                	c.slli64	zero
    2970:	0900                	addi	s0,sp,144
    2972:	0000003b          	addw	zero,zero,zero
    2976:	001f 3511 0007      	.insn	6, 0x00073511001f
    297c:	1800                	addi	s0,sp,48
    297e:	085d0603          	lb	a2,133(s10)
    2982:	000002e3          	beqz	zero,3186 <__stack_align+0x3176>
    2986:	0007bf0b          	.insn	4, 0x0007bf0b
    298a:	0600                	addi	s0,sp,768
    298c:	125e                	slli	tp,tp,0x37
    298e:	000002e3          	beqz	zero,3192 <__stack_align+0x3182>
    2992:	0b00                	addi	s0,sp,400
    2994:	000007d7          	.insn	4, 0x07d7
    2998:	5f06                	lw	t5,96(sp)
    299a:	2d06                	fld	fs10,64(sp)
    299c:	0000                	unimp
    299e:	0800                	addi	s0,sp,16
    29a0:	00063d0b          	.insn	4, 0x00063d0b
    29a4:	0600                	addi	s0,sp,768
    29a6:	0961                	addi	s2,s2,24
    29a8:	02e9                	addi	t0,t0,26
    29aa:	0000                	unimp
    29ac:	1210                	addi	a2,sp,288
    29ae:	05b8                	addi	a4,sp,712
    29b0:	0000                	unimp
    29b2:	6206                	ld	tp,64(sp)
    29b4:	491e                	lw	s2,196(sp)
    29b6:	0002                	c.slli64	zero
    29b8:	1000                	addi	s0,sp,32
    29ba:	0001                	nop
    29bc:	080d                	addi	a6,a6,3 # 2490003 <__heap_size+0x2470003>
    29be:	029f 0000 f908      	.insn	6, 0xf9080000029f
    29c4:	0002                	c.slli64	zero
    29c6:	f900                	sd	s0,48(a0)
    29c8:	0002                	c.slli64	zero
    29ca:	0900                	addi	s0,sp,144
    29cc:	0000003b          	addw	zero,zero,zero
    29d0:	001f 080d 02ff      	.insn	6, 0x02ff080d001f
    29d6:	0000                	unimp
    29d8:	078a0f13          	addi	t5,s4,120
    29dc:	0000                	unimp
    29de:	0610                	addi	a2,sp,768
    29e0:	0875                	addi	a6,a6,29
    29e2:	0328                	addi	a0,sp,392
    29e4:	0000                	unimp
    29e6:	0005a30b          	.insn	4, 0x0005a30b
    29ea:	0600                	addi	s0,sp,768
    29ec:	1176                	slli	sp,sp,0x3d
    29ee:	0328                	addi	a0,sp,392
    29f0:	0000                	unimp
    29f2:	0b00                	addi	s0,sp,400
    29f4:	000005f3          	.insn	4, 0x05f3
    29f8:	7706                	ld	a4,96(sp)
    29fa:	2d06                	fld	fs10,64(sp)
    29fc:	0000                	unimp
    29fe:	0800                	addi	s0,sp,16
    2a00:	0d00                	addi	s0,sp,656
    2a02:	5708                	lw	a0,40(a4)
    2a04:	0000                	unimp
    2a06:	0f00                	addi	s0,sp,912
    2a08:	07a9                	addi	a5,a5,10
    2a0a:	0000                	unimp
    2a0c:	06b0                	addi	a2,sp,840
    2a0e:	08b5                	addi	a7,a7,13
    2a10:	0471                	addi	s0,s0,28
    2a12:	0000                	unimp
    2a14:	5f10                	lw	a2,56(a4)
    2a16:	0070                	addi	a2,sp,12
    2a18:	b606                	fsd	ft1,296(sp)
    2a1a:	2812                	fld	fa6,256(sp)
    2a1c:	00000003          	lb	zero,0(zero) # 0 <__boot_hart>
    2a20:	5f10                	lw	a2,56(a4)
    2a22:	0072                	c.slli	zero,0x1c
    2a24:	b706                	fsd	ft1,424(sp)
    2a26:	00002d07          	flw	fs10,0(zero) # 0 <__boot_hart>
    2a2a:	0800                	addi	s0,sp,16
    2a2c:	5f10                	lw	a2,56(a4)
    2a2e:	b8060077          	.insn	4, 0xb8060077
    2a32:	00002d07          	flw	fs10,0(zero) # 0 <__boot_hart>
    2a36:	0c00                	addi	s0,sp,528
    2a38:	0005d60b          	.insn	4, 0x0005d60b
    2a3c:	0600                	addi	s0,sp,768
    2a3e:	09b9                	addi	s3,s3,14
    2a40:	005e                	c.slli	zero,0x17
    2a42:	0000                	unimp
    2a44:	0b10                	addi	a2,sp,400
    2a46:	069c                	addi	a5,sp,832
    2a48:	0000                	unimp
    2a4a:	ba06                	fsd	ft1,304(sp)
    2a4c:	5e09                	li	t3,-30
    2a4e:	0000                	unimp
    2a50:	1200                	addi	s0,sp,288
    2a52:	5f10                	lw	a2,56(a4)
    2a54:	6662                	ld	a2,24(sp)
    2a56:	0600                	addi	s0,sp,768
    2a58:	030011bb          	.insn	4, 0x030011bb
    2a5c:	0000                	unimp
    2a5e:	0b18                	addi	a4,sp,400
    2a60:	00000563          	beqz	zero,2a6a <__stack_align+0x2a5a>
    2a64:	bc06                	fsd	ft1,56(sp)
    2a66:	00002d07          	flw	fs10,0(zero) # 0 <__boot_hart>
    2a6a:	2800                	fld	fs0,16(s0)
    2a6c:	0005c60b          	.insn	4, 0x0005c60b
    2a70:	0600                	addi	s0,sp,768
    2a72:	01360ac3          	fmadd.s	fs5,fa2,fs3,ft0,rne
    2a76:	0000                	unimp
    2a78:	0b30                	addi	a2,sp,408
    2a7a:	0670                	addi	a2,sp,780
    2a7c:	0000                	unimp
    2a7e:	c506                	sw	ra,136(sp)
    2a80:	e31d                	bnez	a4,2aa6 <__stack_align+0x2a96>
    2a82:	0005                	c.nop	1
    2a84:	3800                	fld	fs0,48(s0)
    2a86:	0006fd0b          	.insn	4, 0x0006fd0b
    2a8a:	0600                	addi	s0,sp,768
    2a8c:	06121dc7          	.insn	4, 0x06121dc7
    2a90:	0000                	unimp
    2a92:	0b40                	addi	s0,sp,404
    2a94:	082c                	addi	a1,sp,24
    2a96:	0000                	unimp
    2a98:	ca06                	sw	ra,20(sp)
    2a9a:	360d                	addiw	a2,a2,-29
    2a9c:	0006                	c.slli	zero,0x1
    2a9e:	4800                	lw	s0,16(s0)
    2aa0:	0009130b          	.insn	4, 0x0009130b
    2aa4:	0600                	addi	s0,sp,768
    2aa6:	065009cb          	.insn	4, 0x065009cb
    2aaa:	0000                	unimp
    2aac:	1050                	addi	a2,sp,36
    2aae:	755f 0062 ce06      	.insn	6, 0xce060062755f
    2ab4:	0011                	c.nop	4
    2ab6:	58000003          	lb	zero,1408(zero) # 580 <__stack_align+0x570>
    2aba:	5f10                	lw	a2,56(a4)
    2abc:	7075                	c.lui	zero,0xffffd
    2abe:	0600                	addi	s0,sp,768
    2ac0:	032812cf          	fnmadd.d	ft5,fa6,fs2,ft0,rtz
    2ac4:	0000                	unimp
    2ac6:	1068                	addi	a0,sp,44
    2ac8:	755f 0072 d006      	.insn	6, 0xd0060072755f
    2ace:	00002d07          	flw	fs10,0(zero) # 0 <__boot_hart>
    2ad2:	7000                	ld	s0,32(s0)
    2ad4:	00059d0b          	.insn	4, 0x00059d0b
    2ad8:	0600                	addi	s0,sp,768
    2ada:	065611d3          	.insn	4, 0x065611d3
    2ade:	0000                	unimp
    2ae0:	0b74                	addi	a3,sp,412
    2ae2:	000008eb          	.insn	4, 0x08eb
    2ae6:	d406                	sw	ra,40(sp)
    2ae8:	6611                	lui	a2,0x4
    2aea:	0006                	c.slli	zero,0x1
    2aec:	7700                	ld	s0,40(a4)
    2aee:	5f10                	lw	a2,56(a4)
    2af0:	626c                	ld	a1,192(a2)
    2af2:	0600                	addi	s0,sp,768
    2af4:	030011d7          	.insn	4, 0x030011d7
    2af8:	0000                	unimp
    2afa:	0b78                	addi	a4,sp,412
    2afc:	05f9                	addi	a1,a1,30
    2afe:	0000                	unimp
    2b00:	da06                	sw	ra,52(sp)
    2b02:	00002d07          	flw	fs10,0(zero) # 0 <__boot_hart>
    2b06:	8800                	.insn	2, 0x8800
    2b08:	00071d0b          	.insn	4, 0x00071d0b
    2b0c:	0600                	addi	s0,sp,768
    2b0e:	008b0adb          	.insn	4, 0x008b0adb
    2b12:	0000                	unimp
    2b14:	0b90                	addi	a2,sp,464
    2b16:	053d                	addi	a0,a0,15 # 7e489 <__heap_size+0x5e489>
    2b18:	0000                	unimp
    2b1a:	de06                	sw	ra,60(sp)
    2b1c:	8f12                	mv	t5,tp
    2b1e:	0004                	.insn	2, 0x0004
    2b20:	9800                	.insn	2, 0x9800
    2b22:	00097e0b          	.insn	4, 0x00097e0b
    2b26:	0600                	addi	s0,sp,768
    2b28:	0ce2                	slli	s9,s9,0x18
    2b2a:	012a                	slli	sp,sp,0xa
    2b2c:	0000                	unimp
    2b2e:	0ba0                	addi	s0,sp,472
    2b30:	07b1                	addi	a5,a5,12
    2b32:	0000                	unimp
    2b34:	e406                	sd	ra,8(sp)
    2b36:	1e0e                	slli	t3,t3,0x23
    2b38:	0001                	nop
    2b3a:	a400                	fsd	fs0,8(s0)
    2b3c:	0006f50b          	.insn	4, 0x0006f50b
    2b40:	0600                	addi	s0,sp,768
    2b42:	09e5                	addi	s3,s3,25
    2b44:	002d                	c.nop	11
    2b46:	0000                	unimp
    2b48:	00ac                	addi	a1,sp,72
    2b4a:	af14                	fsd	fa3,24(a4)
    2b4c:	0000                	unimp
    2b4e:	8f00                	.insn	2, 0x8f00
    2b50:	0004                	.insn	2, 0x0004
    2b52:	1500                	addi	s0,sp,672
    2b54:	0000048f          	.insn	4, 0x048f
    2b58:	3615                	addiw	a2,a2,-27 # 3fe5 <__stack_align+0x3fd5>
    2b5a:	0001                	nop
    2b5c:	1500                	addi	s0,sp,672
    2b5e:	0138                	addi	a4,sp,136
    2b60:	0000                	unimp
    2b62:	2d15                	addiw	s10,s10,5
    2b64:	0000                	unimp
    2b66:	0000                	unimp
    2b68:	080d                	addi	a6,a6,3
    2b6a:	049a                	slli	s1,s1,0x6
    2b6c:	0000                	unimp
    2b6e:	8f0e                	mv	t5,gp
    2b70:	0004                	.insn	2, 0x0004
    2b72:	1600                	addi	s0,sp,800
    2b74:	0000080f          	.insn	4, 0x080f
    2b78:	0748                	addi	a0,sp,900
    2b7a:	3906                	fld	fs2,96(sp)
    2b7c:	0802                	c.slli64	a6
    2b7e:	000005e3          	beqz	zero,3388 <__stack_align+0x3378>
    2b82:	0009e617          	auipc	a2,0x9e
    2b86:	0600                	addi	s0,sp,768
    2b88:	2d07023b          	.insn	4, 0x2d07023b
    2b8c:	0000                	unimp
    2b8e:	0000                	unimp
    2b90:	0005e517          	auipc	a0,0x5e
    2b94:	0600                	addi	s0,sp,768
    2b96:	0240                	addi	s0,sp,260
    2b98:	0006c20b          	.insn	4, 0x0006c20b
    2b9c:	0800                	addi	s0,sp,16
    2b9e:	00068c17          	auipc	s8,0x68
    2ba2:	0600                	addi	s0,sp,768
    2ba4:	0240                	addi	s0,sp,260
    2ba6:	c214                	sw	a3,0(a2)
    2ba8:	0006                	c.slli	zero,0x1
    2baa:	1000                	addi	s0,sp,32
    2bac:	00065117          	auipc	sp,0x65
    2bb0:	0600                	addi	s0,sp,768
    2bb2:	0240                	addi	s0,sp,260
    2bb4:	c21e                	sw	t2,4(sp)
    2bb6:	0006                	c.slli	zero,0x1
    2bb8:	1800                	addi	s0,sp,48
    2bba:	0007d217          	auipc	tp,0x7d
    2bbe:	0600                	addi	s0,sp,768
    2bc0:	0242                	slli	tp,tp,0x10
    2bc2:	2d08                	fld	fa0,24(a0)
    2bc4:	0000                	unimp
    2bc6:	2000                	fld	fs0,0(s0)
    2bc8:	00053217          	auipc	tp,0x53
    2bcc:	0600                	addi	s0,sp,768
    2bce:	cb080243          	fmadd.d	ft4,fa6,fa6,fs9,rne
    2bd2:	0008                	.insn	2, 0x0008
    2bd4:	2400                	fld	fs0,8(s0)
    2bd6:	0007ee17          	auipc	t3,0x7e
    2bda:	0600                	addi	s0,sp,768
    2bdc:	0246                	slli	tp,tp,0x11
    2bde:	00002d07          	flw	fs10,0(zero) # 0 <__boot_hart>
    2be2:	4000                	lw	s0,0(s0)
    2be4:	0007dc17          	auipc	s8,0x7d
    2be8:	0600                	addi	s0,sp,768
    2bea:	e0160247          	fmsub.s	ft4,fa2,ft1,ft8,rne
    2bee:	0008                	.insn	2, 0x0008
    2bf0:	4800                	lw	s0,16(s0)
    2bf2:	00073d17          	auipc	s10,0x73
    2bf6:	0600                	addi	s0,sp,768
    2bf8:	0249                	addi	tp,tp,18 # 55bda <__heap_size+0x35bda>
    2bfa:	00002d07          	flw	fs10,0(zero) # 0 <__boot_hart>
    2bfe:	5000                	lw	s0,32(s0)
    2c00:	0007e417          	auipc	s0,0x7e
    2c04:	0600                	addi	s0,sp,768
    2c06:	f10a024b          	fnmsub.s	ft4,fs4,fa6,ft10,rne
    2c0a:	0008                	.insn	2, 0x0008
    2c0c:	5800                	lw	s0,48(s0)
    2c0e:	0006d917          	auipc	s2,0x6d
    2c12:	0600                	addi	s0,sp,768
    2c14:	024e                	slli	tp,tp,0x13
    2c16:	0001b013          	sltiu	zero,gp,0
    2c1a:	6000                	ld	s0,0(s0)
    2c1c:	00067617          	auipc	a2,0x67
    2c20:	0600                	addi	s0,sp,768
    2c22:	2d07024f          	.insn	4, 0x2d07024f
    2c26:	0000                	unimp
    2c28:	6800                	ld	s0,16(s0)
    2c2a:	00092d17          	auipc	s10,0x92
    2c2e:	0600                	addi	s0,sp,768
    2c30:	0250                	addi	a2,sp,260
    2c32:	0001b013          	sltiu	zero,gp,0
    2c36:	7000                	ld	s0,32(s0)
    2c38:	00074817          	auipc	a6,0x74
    2c3c:	0600                	addi	s0,sp,768
    2c3e:	0251                	addi	tp,tp,20 # 14 <__stack_align+0x4>
    2c40:	f714                	sd	a3,40(a4)
    2c42:	0008                	.insn	2, 0x0008
    2c44:	7800                	ld	s0,48(s0)
    2c46:	00069417          	auipc	s0,0x69
    2c4a:	0600                	addi	s0,sp,768
    2c4c:	0254                	addi	a3,sp,260
    2c4e:	00002d07          	flw	fs10,0(zero) # 0 <__boot_hart>
    2c52:	8000                	.insn	2, 0x8000
    2c54:	00060217          	auipc	tp,0x60
    2c58:	0600                	addi	s0,sp,768
    2c5a:	0255                	addi	tp,tp,21 # 62c69 <__heap_size+0x42c69>
    2c5c:	3809                	addiw	a6,a6,-30 # 76c1a <__heap_size+0x56c1a>
    2c5e:	0001                	nop
    2c60:	8800                	.insn	2, 0x8800
    2c62:	00077217          	auipc	tp,0x77
    2c66:	0600                	addi	s0,sp,768
    2c68:	0278                	addi	a4,sp,268
    2c6a:	0008a507          	flw	fa0,0(a7)
    2c6e:	9000                	.insn	2, 0x9000
    2c70:	3518                	fld	fa4,40(a0)
    2c72:	06000007          	.insn	4, 0x06000007
    2c76:	027c                	addi	a5,sp,268
    2c78:	0002e313          	ori	t1,t0,0
    2c7c:	f800                	sd	s0,48(s0)
    2c7e:	1801                	addi	a6,a6,-32
    2c80:	000006b7          	lui	a3,0x0
    2c84:	7d06                	ld	s10,96(sp)
    2c86:	1202                	slli	tp,tp,0x20
    2c88:	029f 0000 0200      	.insn	6, 0x02000000029f
    2c8e:	e118                	sd	a4,0(a0)
    2c90:	0008                	.insn	2, 0x0008
    2c92:	0600                	addi	s0,sp,768
    2c94:	0281                	addi	t0,t0,0
    2c96:	080c                	addi	a1,sp,16
    2c98:	0009                	c.nop	2
    2c9a:	1800                	addi	s0,sp,48
    2c9c:	1805                	addi	a6,a6,-31
    2c9e:	05ce                	slli	a1,a1,0x13
    2ca0:	0000                	unimp
    2ca2:	8606                	mv	a2,ra
    2ca4:	1002                	c.slli	zero,0x20
    2ca6:	00000683          	lb	a3,0(zero) # 0 <__boot_hart>
    2caa:	0520                	addi	s0,sp,648
    2cac:	b318                	fsd	fa4,32(a4)
    2cae:	0005                	c.nop	1
    2cb0:	0600                	addi	s0,sp,768
    2cb2:	0288                	addi	a0,sp,320
    2cb4:	140a                	slli	s0,s0,0x22
    2cb6:	0009                	c.nop	2
    2cb8:	3800                	fld	fs0,48(s0)
    2cba:	0005                	c.nop	1
    2cbc:	080d                	addi	a6,a6,3
    2cbe:	0471                	addi	s0,s0,28 # 6bc62 <__heap_size+0x4bc62>
    2cc0:	0000                	unimp
    2cc2:	af14                	fsd	fa3,24(a4)
    2cc4:	0000                	unimp
    2cc6:	0700                	addi	s0,sp,896
    2cc8:	0006                	c.slli	zero,0x1
    2cca:	1500                	addi	s0,sp,672
    2ccc:	0000048f          	.insn	4, 0x048f
    2cd0:	3615                	addiw	a2,a2,-27 # 69c01 <__heap_size+0x49c01>
    2cd2:	0001                	nop
    2cd4:	1500                	addi	s0,sp,672
    2cd6:	00000607          	.insn	4, 0x0607
    2cda:	2d15                	addiw	s10,s10,5 # 94c2f <__heap_size+0x74c2f>
    2cdc:	0000                	unimp
    2cde:	0000                	unimp
    2ce0:	080d                	addi	a6,a6,3
    2ce2:	0145                	addi	sp,sp,17 # 67bbd <__heap_size+0x47bbd>
    2ce4:	0000                	unimp
    2ce6:	070e                	slli	a4,a4,0x3
    2ce8:	0006                	c.slli	zero,0x1
    2cea:	0d00                	addi	s0,sp,656
    2cec:	e908                	sd	a0,16(a0)
    2cee:	0005                	c.nop	1
    2cf0:	1400                	addi	s0,sp,544
    2cf2:	000000a3          	sb	zero,1(zero) # 1 <__boot_hart+0x1>
    2cf6:	0636                	slli	a2,a2,0xd
    2cf8:	0000                	unimp
    2cfa:	8f15                	sub	a4,a4,a3
    2cfc:	0004                	.insn	2, 0x0004
    2cfe:	1500                	addi	s0,sp,672
    2d00:	0136                	slli	sp,sp,0xd
    2d02:	0000                	unimp
    2d04:	a315                	j	3228 <__stack_align+0x3218>
    2d06:	0000                	unimp
    2d08:	1500                	addi	s0,sp,672
    2d0a:	002d                	c.nop	11
    2d0c:	0000                	unimp
    2d0e:	0d00                	addi	s0,sp,656
    2d10:	1808                	addi	a0,sp,48
    2d12:	0006                	c.slli	zero,0x1
    2d14:	1400                	addi	s0,sp,544
    2d16:	002d                	c.nop	11
    2d18:	0000                	unimp
    2d1a:	0650                	addi	a2,sp,772
    2d1c:	0000                	unimp
    2d1e:	8f15                	sub	a4,a4,a3
    2d20:	0004                	.insn	2, 0x0004
    2d22:	1500                	addi	s0,sp,672
    2d24:	0136                	slli	sp,sp,0xd
    2d26:	0000                	unimp
    2d28:	0d00                	addi	s0,sp,656
    2d2a:	3c08                	fld	fa0,56(s0)
    2d2c:	0006                	c.slli	zero,0x1
    2d2e:	0800                	addi	s0,sp,16
    2d30:	00000057          	.insn	4, 0x0057
    2d34:	0666                	slli	a2,a2,0x19
    2d36:	0000                	unimp
    2d38:	3b09                	addiw	s6,s6,-30
    2d3a:	0000                	unimp
    2d3c:	0200                	addi	s0,sp,256
    2d3e:	0800                	addi	s0,sp,16
    2d40:	00000057          	.insn	4, 0x0057
    2d44:	0676                	slli	a2,a2,0x1d
    2d46:	0000                	unimp
    2d48:	3b09                	addiw	s6,s6,-30
    2d4a:	0000                	unimp
    2d4c:	0000                	unimp
    2d4e:	0500                	addi	s0,sp,640
    2d50:	00000797          	auipc	a5,0x0
    2d54:	1f06                	slli	t5,t5,0x21
    2d56:	1a01                	addi	s4,s4,-32
    2d58:	032e                	slli	t1,t1,0xb
    2d5a:	0000                	unimp
    2d5c:	bd19                	j	2b72 <__stack_align+0x2b62>
    2d5e:	0008                	.insn	2, 0x0008
    2d60:	1800                	addi	s0,sp,48
    2d62:	2306                	fld	ft6,64(sp)
    2d64:	0801                	addi	a6,a6,0
    2d66:	06bc                	addi	a5,sp,840
    2d68:	0000                	unimp
    2d6a:	0007bf17          	auipc	t5,0x7b
    2d6e:	0600                	addi	s0,sp,768
    2d70:	0125                	addi	sp,sp,9
    2d72:	bc11                	j	2786 <__stack_align+0x2776>
    2d74:	0006                	c.slli	zero,0x1
    2d76:	0000                	unimp
    2d78:	0006b017          	auipc	zero,0x6b
    2d7c:	0600                	addi	s0,sp,768
    2d7e:	0126                	slli	sp,sp,0x9
    2d80:	00002d07          	flw	fs10,0(zero) # 0 <__boot_hart>
    2d84:	0800                	addi	s0,sp,16
    2d86:	00079117          	auipc	sp,0x79
    2d8a:	0600                	addi	s0,sp,768
    2d8c:	c20b0127          	.insn	4, 0xc20b0127
    2d90:	0006                	c.slli	zero,0x1
    2d92:	1000                	addi	s0,sp,32
    2d94:	0d00                	addi	s0,sp,656
    2d96:	8308                	.insn	2, 0x8308
    2d98:	0006                	c.slli	zero,0x1
    2d9a:	0d00                	addi	s0,sp,656
    2d9c:	7608                	ld	a0,40(a2)
    2d9e:	0006                	c.slli	zero,0x1
    2da0:	1900                	addi	s0,sp,176
    2da2:	052a                	slli	a0,a0,0xa
    2da4:	0000                	unimp
    2da6:	060e                	slli	a2,a2,0x3
    2da8:	0108013f 17000007 	.insn	8, 0x170000070108013f
    2db0:	0816                	slli	a6,a6,0x5
    2db2:	0000                	unimp
    2db4:	4006                	.insn	2, 0x4006
    2db6:	1201                	addi	tp,tp,-32 # 79c42 <__heap_size+0x59c42>
    2db8:	0701                	addi	a4,a4,0
    2dba:	0000                	unimp
    2dbc:	1700                	addi	s0,sp,928
    2dbe:	00000843          	fmadd.s	fa6,ft0,ft0,ft0,rne
    2dc2:	4106                	lw	sp,64(sp)
    2dc4:	1201                	addi	tp,tp,-32 # ffffffffffffffe0 <__heap_end+0xffffffff7ffdcfe0>
    2dc6:	0701                	addi	a4,a4,0
    2dc8:	0000                	unimp
    2dca:	1706                	slli	a4,a4,0x21
    2dcc:	086d                	addi	a6,a6,27
    2dce:	0000                	unimp
    2dd0:	4206                	lw	tp,64(sp)
    2dd2:	1201                	addi	tp,tp,-32 # ffffffffffffffe0 <__heap_end+0xffffffff7ffdcfe0>
    2dd4:	0065                	c.nop	25
    2dd6:	0000                	unimp
    2dd8:	000c                	.insn	2, 0x000c
    2dda:	6508                	ld	a0,8(a0)
    2ddc:	0000                	unimp
    2dde:	1100                	addi	s0,sp,160
    2de0:	09000007          	.insn	4, 0x09000007
    2de4:	0000003b          	addw	zero,zero,zero
    2de8:	0002                	c.slli64	zero
    2dea:	d81a                	sw	t1,48(sp)
    2dec:	5906                	lw	s2,96(sp)
    2dee:	0702                	c.slli64	a4
    2df0:	0826                	slli	a6,a6,0x9
    2df2:	0000                	unimp
    2df4:	0008a117          	auipc	sp,0x8a
    2df8:	0600                	addi	s0,sp,768
    2dfa:	6c18025b          	.insn	4, 0x6c18025b
    2dfe:	0000                	unimp
    2e00:	0000                	unimp
    2e02:	00085717          	auipc	a4,0x85
    2e06:	0600                	addi	s0,sp,768
    2e08:	025c                	addi	a5,sp,260
    2e0a:	3812                	fld	fa6,288(sp)
    2e0c:	0001                	nop
    2e0e:	0800                	addi	s0,sp,16
    2e10:	0006cc17          	auipc	s8,0x6c
    2e14:	0600                	addi	s0,sp,768
    2e16:	025d                	addi	tp,tp,23 # 17 <__stack_align+0x7>
    2e18:	2610                	fld	fa2,8(a2)
    2e1a:	0008                	.insn	2, 0x0008
    2e1c:	1000                	addi	s0,sp,32
    2e1e:	00090417          	auipc	s0,0x90
    2e22:	0600                	addi	s0,sp,768
    2e24:	025e                	slli	tp,tp,0x17
    2e26:	0001c617          	auipc	a2,0x1c
    2e2a:	2c00                	fld	fs0,24(s0)
    2e2c:	00066117          	auipc	sp,0x66
    2e30:	0600                	addi	s0,sp,768
    2e32:	025f 2d0f 0000      	.insn	6, 0x2d0f025f
    2e38:	5000                	lw	s0,32(s0)
    2e3a:	0007ba17          	auipc	s4,0x7b
    2e3e:	0600                	addi	s0,sp,768
    2e40:	0260                	addi	s0,sp,268
    2e42:	362c                	fld	fa1,104(a2)
    2e44:	0008                	.insn	2, 0x0008
    2e46:	5800                	lw	s0,48(s0)
    2e48:	00091a17          	auipc	s4,0x91
    2e4c:	0600                	addi	s0,sp,768
    2e4e:	0261                	addi	tp,tp,24 # 18 <__stack_align+0x8>
    2e50:	c81a                	sw	t1,16(sp)
    2e52:	0006                	c.slli	zero,0x1
    2e54:	6000                	ld	s0,0(s0)
    2e56:	0007c517          	auipc	a0,0x7c
    2e5a:	0600                	addi	s0,sp,768
    2e5c:	0262                	slli	tp,tp,0x18
    2e5e:	1e16                	slli	t3,t3,0x25
    2e60:	0001                	nop
    2e62:	7000                	ld	s0,32(s0)
    2e64:	00091f17          	auipc	t5,0x91
    2e68:	0600                	addi	s0,sp,768
    2e6a:	1e160263          	beq	a2,ra,304e <__stack_align+0x303e>
    2e6e:	0001                	nop
    2e70:	7800                	ld	s0,48(s0)
    2e72:	00058617          	auipc	a2,0x58
    2e76:	0600                	addi	s0,sp,768
    2e78:	0264                	addi	s1,sp,268
    2e7a:	1e16                	slli	t3,t3,0x25
    2e7c:	0001                	nop
    2e7e:	8000                	.insn	2, 0x8000
    2e80:	0008cc17          	auipc	s8,0x8c
    2e84:	0600                	addi	s0,sp,768
    2e86:	0265                	addi	tp,tp,25 # 19 <__stack_align+0x9>
    2e88:	3d10                	fld	fa2,56(a0)
    2e8a:	0008                	.insn	2, 0x0008
    2e8c:	8800                	.insn	2, 0x8800
    2e8e:	0006c017          	auipc	zero,0x6c
    2e92:	0600                	addi	s0,sp,768
    2e94:	0266                	slli	tp,tp,0x19
    2e96:	4d10                	lw	a2,24(a0)
    2e98:	0008                	.insn	2, 0x0008
    2e9a:	9000                	.insn	2, 0x9000
    2e9c:	00087a17          	auipc	s4,0x87
    2ea0:	0600                	addi	s0,sp,768
    2ea2:	2d0f0267          	jalr	tp,720(t5) # 94134 <__heap_size+0x74134>
    2ea6:	0000                	unimp
    2ea8:	a800                	fsd	fs0,16(s0)
    2eaa:	00061b17          	auipc	s6,0x61
    2eae:	0600                	addi	s0,sp,768
    2eb0:	0268                	addi	a0,sp,268
    2eb2:	1e16                	slli	t3,t3,0x25
    2eb4:	0001                	nop
    2eb6:	ac00                	fsd	fs0,24(s0)
    2eb8:	00057717          	auipc	a4,0x57
    2ebc:	0600                	addi	s0,sp,768
    2ebe:	0269                	addi	tp,tp,26 # 1a <__stack_align+0xa>
    2ec0:	1e16                	slli	t3,t3,0x25
    2ec2:	0001                	nop
    2ec4:	b400                	fsd	fs0,40(s0)
    2ec6:	00060a17          	auipc	s4,0x60
    2eca:	0600                	addi	s0,sp,768
    2ecc:	026a                	slli	tp,tp,0x1a
    2ece:	1e16                	slli	t3,t3,0x25
    2ed0:	0001                	nop
    2ed2:	bc00                	fsd	fs0,56(s0)
    2ed4:	00054317          	auipc	t1,0x54
    2ed8:	0600                	addi	s0,sp,768
    2eda:	1e16026b          	.insn	4, 0x1e16026b
    2ede:	0001                	nop
    2ee0:	c400                	sw	s0,8(s0)
    2ee2:	00055217          	auipc	tp,0x55
    2ee6:	0600                	addi	s0,sp,768
    2ee8:	026c                	addi	a1,sp,268
    2eea:	1e16                	slli	t3,t3,0x25
    2eec:	0001                	nop
    2eee:	cc00                	sw	s0,24(s0)
    2ef0:	00077717          	auipc	a4,0x77
    2ef4:	0600                	addi	s0,sp,768
    2ef6:	026d                	addi	tp,tp,27 # 57efd <__heap_size+0x37efd>
    2ef8:	2d08                	fld	fa0,24(a0)
    2efa:	0000                	unimp
    2efc:	d400                	sw	s0,40(s0)
    2efe:	0800                	addi	s0,sp,16
    2f00:	013e                	slli	sp,sp,0xf
    2f02:	0000                	unimp
    2f04:	0836                	slli	a6,a6,0xd
    2f06:	0000                	unimp
    2f08:	3b09                	addiw	s6,s6,-30 # 63e8c <__heap_size+0x43e8c>
    2f0a:	0000                	unimp
    2f0c:	1900                	addi	s0,sp,176
    2f0e:	0300                	addi	s0,sp,384
    2f10:	0708                	addi	a0,sp,896
    2f12:	0000003b          	addw	zero,zero,zero
    2f16:	3e08                	fld	fa0,56(a2)
    2f18:	0001                	nop
    2f1a:	4d00                	lw	s0,24(a0)
    2f1c:	0008                	.insn	2, 0x0008
    2f1e:	0900                	addi	s0,sp,144
    2f20:	0000003b          	addw	zero,zero,zero
    2f24:	3e080007          	.insn	4, 0x3e080007
    2f28:	0001                	nop
    2f2a:	5d00                	lw	s0,56(a0)
    2f2c:	0008                	.insn	2, 0x0008
    2f2e:	0900                	addi	s0,sp,144
    2f30:	0000003b          	addw	zero,zero,zero
    2f34:	681b0017          	auipc	zero,0x681b0
    2f38:	0601                	addi	a2,a2,0 # 5ae72 <__heap_size+0x3ae72>
    2f3a:	0272                	slli	tp,tp,0x1c
    2f3c:	00088507          	.insn	4, 0x00088507
    2f40:	1700                	addi	s0,sp,928
    2f42:	0725                	addi	a4,a4,9 # 79ef9 <__heap_size+0x59ef9>
    2f44:	0000                	unimp
    2f46:	7506                	ld	a0,96(sp)
    2f48:	1b02                	slli	s6,s6,0x20
    2f4a:	0885                	addi	a7,a7,1
    2f4c:	0000                	unimp
    2f4e:	1700                	addi	s0,sp,928
    2f50:	070e                	slli	a4,a4,0x3
    2f52:	0000                	unimp
    2f54:	7606                	ld	a2,96(sp)
    2f56:	1802                	slli	a6,a6,0x20
    2f58:	0895                	addi	a7,a7,5
    2f5a:	0000                	unimp
    2f5c:	00f0                	addi	a2,sp,76
    2f5e:	2808                	fld	fa0,16(s0)
    2f60:	95000003          	lb	zero,-1712(zero) # fffffffffffff950 <__heap_end+0xffffffff7ffdc950>
    2f64:	0008                	.insn	2, 0x0008
    2f66:	0900                	addi	s0,sp,144
    2f68:	0000003b          	addw	zero,zero,zero
    2f6c:	001d                	c.nop	7
    2f6e:	6c08                	ld	a0,24(s0)
    2f70:	0000                	unimp
    2f72:	a500                	fsd	fs0,8(a0)
    2f74:	0008                	.insn	2, 0x0008
    2f76:	0900                	addi	s0,sp,144
    2f78:	0000003b          	addw	zero,zero,zero
    2f7c:	001d                	c.nop	7
    2f7e:	681c                	ld	a5,16(s0)
    2f80:	0601                	addi	a2,a2,0
    2f82:	cb030257          	.insn	4, 0xcb030257
    2f86:	0008                	.insn	2, 0x0008
    2f88:	1d00                	addi	s0,sp,688
    2f8a:	0000080f          	.insn	4, 0x080f
    2f8e:	6e06                	ld	t3,64(sp)
    2f90:	0b02                	c.slli64	s6
    2f92:	0711                	addi	a4,a4,4
    2f94:	0000                	unimp
    2f96:	f11d                	bnez	a0,2ebc <__stack_align+0x2eac>
    2f98:	0008                	.insn	2, 0x0008
    2f9a:	0600                	addi	s0,sp,768
    2f9c:	5d0b0277          	.insn	4, 0x5d0b0277
    2fa0:	0008                	.insn	2, 0x0008
    2fa2:	0000                	unimp
    2fa4:	3e08                	fld	fa0,56(a2)
    2fa6:	0001                	nop
    2fa8:	db00                	sw	s0,48(a4)
    2faa:	0008                	.insn	2, 0x0008
    2fac:	0900                	addi	s0,sp,144
    2fae:	0000003b          	addw	zero,zero,zero
    2fb2:	0018                	.insn	2, 0x0018
    2fb4:	6c1e                	ld	s8,448(sp)
    2fb6:	0005                	c.nop	1
    2fb8:	0d00                	addi	s0,sp,656
    2fba:	db08                	sw	a0,48(a4)
    2fbc:	0008                	.insn	2, 0x0008
    2fbe:	1f00                	addi	s0,sp,944
    2fc0:	08f1                	addi	a7,a7,28
    2fc2:	0000                	unimp
    2fc4:	8f15                	sub	a4,a4,a3
    2fc6:	0004                	.insn	2, 0x0004
    2fc8:	0000                	unimp
    2fca:	080d                	addi	a6,a6,3
    2fcc:	08e6                	slli	a7,a7,0x19
    2fce:	0000                	unimp
    2fd0:	080d                	addi	a6,a6,3
    2fd2:	01b0                	addi	a2,sp,200
    2fd4:	0000                	unimp
    2fd6:	081f 0009 1500      	.insn	6, 0x15000009081f
    2fdc:	002d                	c.nop	11
    2fde:	0000                	unimp
    2fe0:	0d00                	addi	s0,sp,656
    2fe2:	0e08                	addi	a0,sp,784
    2fe4:	0009                	c.nop	2
    2fe6:	0d00                	addi	s0,sp,656
    2fe8:	fd08                	sd	a0,56(a0)
    2fea:	0008                	.insn	2, 0x0008
    2fec:	0800                	addi	s0,sp,16
    2fee:	0676                	slli	a2,a2,0x1d
    2ff0:	0000                	unimp
    2ff2:	0924                	addi	s1,sp,152
    2ff4:	0000                	unimp
    2ff6:	3b09                	addiw	s6,s6,-30
    2ff8:	0000                	unimp
    2ffa:	0200                	addi	s0,sp,256
    2ffc:	2000                	fld	fs0,0(s0)
    2ffe:	088e                	slli	a7,a7,0x3
    3000:	0000                	unimp
    3002:	0706                	slli	a4,a4,0x1
    3004:	048f1703          	lh	a4,72(t5)
    3008:	0000                	unimp
    300a:	8720                	.insn	2, 0x8720
    300c:	0008                	.insn	2, 0x0008
    300e:	0600                	addi	s0,sp,768
    3010:	0308                	addi	a0,sp,384
    3012:	951d                	srai	a0,a0,0x27
    3014:	0004                	.insn	2, 0x0004
    3016:	0800                	addi	s0,sp,16
    3018:	060d                	addi	a2,a2,3
    301a:	0000                	unimp
    301c:	0949                	addi	s2,s2,18 # 6fc20 <__heap_size+0x4fc20>
    301e:	0000                	unimp
    3020:	0021                	c.nop	8
    3022:	3e0e                	fld	ft8,224(sp)
    3024:	0009                	c.nop	2
    3026:	2200                	fld	fs0,0(a2)
    3028:	09ed                	addi	s3,s3,27
    302a:	0000                	unimp
    302c:	49241407          	.insn	4, 0x49241407
    3030:	0009                	c.nop	2
    3032:	2200                	fld	fs0,0(a2)
    3034:	0a09                	addi	s4,s4,2 # 62ec8 <__heap_size+0x42ec8>
    3036:	0000                	unimp
    3038:	2d151507          	.insn	4, 0x2d151507
    303c:	0000                	unimp
    303e:	0400                	addi	s0,sp,512
    3040:	0000050b          	.insn	4, 0x050b
    3044:	3c08                	fld	fa0,56(s0)
    3046:	7314                	ld	a3,32(a4)
    3048:	0000                	unimp
    304a:	2300                	fld	fs0,0(a4)
    304c:	0966                	slli	s2,s2,0x19
    304e:	0000                	unimp
    3050:	1504                	addi	s1,sp,672
    3052:	000a                	c.slli	zero,0x2
    3054:	0900                	addi	s0,sp,144
    3056:	12ad                	addi	t0,t0,-21
    3058:	00000097          	auipc	ra,0x0
    305c:	6822                	ld	a6,8(sp)
    305e:	0004                	.insn	2, 0x0004
    3060:	0a00                	addi	s0,sp,272
    3062:	1a06                	slli	s4,s4,0x21
    3064:	0972                	slli	s2,s2,0x1c
    3066:	0000                	unimp
    3068:	0022                	c.slli	zero,0x8
    306a:	0005                	c.nop	1
    306c:	0a00                	addi	s0,sp,272
    306e:	09721a07          	.insn	4, 0x09721a07
    3072:	0000                	unimp
    3074:	1b24                	addi	s1,sp,440
    3076:	000a                	c.slli	zero,0x2
    3078:	0100                	addi	s0,sp,128
    307a:	0705                	addi	a4,a4,1
    307c:	00000977          	.insn	4, 0x0977
    3080:	2256                	fld	ft4,336(sp)
    3082:	8000                	.insn	2, 0x8000
    3084:	0000                	unimp
    3086:	0000                	unimp
    3088:	0014                	.insn	2, 0x0014
    308a:	0000                	unimp
    308c:	0000                	unimp
    308e:	0000                	unimp
    3090:	9c01                	subw	s0,s0,s0
    3092:	000009fb          	.insn	4, 0x09fb
    3096:	9d25                	addw	a0,a0,s1
    3098:	0006                	c.slli	zero,0x1
    309a:	0100                	addi	s0,sp,128
    309c:	1205                	addi	tp,tp,-31 # ffffffffffffffe1 <__heap_end+0xffffffff7ffdcfe1>
    309e:	002d                	c.nop	11
    30a0:	0000                	unimp
    30a2:	02d4                	addi	a3,sp,324
    30a4:	0000                	unimp
    30a6:	7026                	.insn	2, 0x7026
    30a8:	7274                	ld	a3,224(a2)
    30aa:	0100                	addi	s0,sp,128
    30ac:	1e05                	addi	t3,t3,-31 # 80bb7 <__heap_size+0x60bb7>
    30ae:	00000977          	.insn	4, 0x0977
    30b2:	030d                	addi	t1,t1,3 # 56ed7 <__heap_size+0x36ed7>
    30b4:	0000                	unimp
    30b6:	6426                	ld	s0,72(sp)
    30b8:	7269                	lui	tp,0xffffa
    30ba:	0100                	addi	s0,sp,128
    30bc:	2705                	addiw	a4,a4,1
    30be:	002d                	c.nop	11
    30c0:	0000                	unimp
    30c2:	0346                	slli	t1,t1,0x11
    30c4:	0000                	unimp
    30c6:	00225e27          	.insn	4, 0x00225e27
    30ca:	0080                	addi	s0,sp,64
    30cc:	0000                	unimp
    30ce:	fb00                	sd	s0,48(a4)
    30d0:	0009                	c.nop	2
    30d2:	0000                	unimp
    30d4:	e528                	sd	a0,72(a0)
    30d6:	0009                	c.nop	2
    30d8:	e500                	sd	s0,8(a0)
    30da:	0009                	c.nop	2
    30dc:	0700                	addi	s0,sp,896
    30de:	04000d0f          	.insn	4, 0x04000d0f
    30e2:	000a                	c.slli	zero,0x2
    30e4:	0400                	addi	s0,sp,512
    30e6:	c600                	sw	s0,8(a2)
    30e8:	000c                	.insn	2, 0x000c
    30ea:	0800                	addi	s0,sp,16
    30ec:	8b01                	andi	a4,a4,0
    30ee:	0004                	.insn	2, 0x0004
    30f0:	0c00                	addi	s0,sp,528
    30f2:	0a31                	addi	s4,s4,12
    30f4:	0000                	unimp
    30f6:	0000040f          	.insn	4, 0x040f
    30fa:	226a                	fld	ft4,152(sp)
    30fc:	8000                	.insn	2, 0x8000
    30fe:	0000                	unimp
    3100:	0000                	unimp
    3102:	0016                	c.slli	zero,0x5
    3104:	0000                	unimp
    3106:	0000                	unimp
    3108:	0000                	unimp
    310a:	1dca                	slli	s11,s11,0x32
    310c:	0000                	unimp
    310e:	0402                	c.slli64	s0
    3110:	6905                	lui	s2,0x1
    3112:	746e                	ld	s0,248(sp)
    3114:	0300                	addi	s0,sp,384
    3116:	0508                	addi	a0,sp,640
    3118:	0082                	c.slli64	ra
    311a:	0000                	unimp
    311c:	c504                	sw	s1,8(a0)
    311e:	0008                	.insn	2, 0x0008
    3120:	0200                	addi	s0,sp,256
    3122:	17d8                	addi	a4,sp,996
    3124:	00000047          	fmsub.s	ft0,ft0,ft0,ft0,rne
    3128:	40070803          	lb	a6,1024(a4)
    312c:	0000                	unimp
    312e:	0300                	addi	s0,sp,384
    3130:	0508                	addi	a0,sp,640
    3132:	007d                	c.nop	31
    3134:	0000                	unimp
    3136:	9a041003          	lh	zero,-1632(s0) # 927be <__heap_size+0x727be>
    313a:	0001                	nop
    313c:	0300                	addi	s0,sp,384
    313e:	0601                	addi	a2,a2,0
    3140:	01de                	slli	gp,gp,0x17
    3142:	0000                	unimp
    3144:	dc080103          	lb	sp,-576(a6)
    3148:	0001                	nop
    314a:	0300                	addi	s0,sp,384
    314c:	0502                	c.slli64	a0
    314e:	0286                	slli	t0,t0,0x1
    3150:	0000                	unimp
    3152:	29070203          	lb	tp,656(a4)
    3156:	0001                	nop
    3158:	0300                	addi	s0,sp,384
    315a:	0704                	addi	s1,sp,896
    315c:	0045                	c.nop	17
    315e:	0000                	unimp
    3160:	0904                	addi	s1,sp,144
    3162:	0005                	c.nop	1
    3164:	0300                	addi	s0,sp,384
    3166:	1969                	addi	s2,s2,-6 # ffa <__stack_align+0xfea>
    3168:	00000047          	fmsub.s	ft0,ft0,ft0,ft0,rne
    316c:	6004                	ld	s1,0(s0)
    316e:	04000007          	.insn	4, 0x04000007
    3172:	0d0c                	addi	a1,sp,656
    3174:	002d                	c.nop	11
    3176:	0000                	unimp
    3178:	1404                	addi	s1,sp,544
    317a:	000a                	c.slli	zero,0x2
    317c:	0500                	addi	s0,sp,640
    317e:	0e2c                	addi	a1,sp,792
    3180:	0034                	addi	a3,sp,8
    3182:	0000                	unimp
    3184:	3204                	fld	fs1,32(a2)
    3186:	0008                	.insn	2, 0x0008
    3188:	0500                	addi	s0,sp,640
    318a:	0e72                	slli	t3,t3,0x1c
    318c:	0034                	addi	a3,sp,8
    318e:	0000                	unimp
    3190:	c304                	sw	s1,0(a4)
    3192:	0008                	.insn	2, 0x0008
    3194:	0500                	addi	s0,sp,640
    3196:	1791                	addi	a5,a5,-28 # 2d34 <__stack_align+0x2d24>
    3198:	0034                	addi	a3,sp,8
    319a:	0000                	unimp
    319c:	ee05                	bnez	a2,31d4 <__stack_align+0x31c4>
    319e:	0006                	c.slli	zero,0x1
    31a0:	0200                	addi	s0,sp,256
    31a2:	0165                	addi	sp,sp,25 # 68e45 <__heap_size+0x48e45>
    31a4:	00007817          	auipc	a6,0x7
    31a8:	0600                	addi	s0,sp,768
    31aa:	0504                	addi	s1,sp,640
    31ac:	03a6                	slli	t2,t2,0x9
    31ae:	00ea                	slli	ra,ra,0x1a
    31b0:	0000                	unimp
    31b2:	0006e107          	.insn	4, 0x0006e107
    31b6:	0500                	addi	s0,sp,640
    31b8:	0ca8                	addi	a0,sp,600
    31ba:	000000bb          	addw	ra,zero,zero
    31be:	00068507          	.insn	4, 0x00068507
    31c2:	0500                	addi	s0,sp,640
    31c4:	13a9                	addi	t2,t2,-22
    31c6:	00ea                	slli	ra,ra,0x1a
    31c8:	0000                	unimp
    31ca:	0800                	addi	s0,sp,16
    31cc:	00000063          	beqz	zero,31cc <__stack_align+0x31bc>
    31d0:	00fa                	slli	ra,ra,0x1e
    31d2:	0000                	unimp
    31d4:	4709                	li	a4,2
    31d6:	0000                	unimp
    31d8:	0300                	addi	s0,sp,384
    31da:	0a00                	addi	s0,sp,272
    31dc:	0508                	addi	a0,sp,640
    31de:	011e09a3          	sb	a7,19(t3)
    31e2:	0000                	unimp
    31e4:	00081c0b          	.insn	4, 0x00081c0b
    31e8:	0500                	addi	s0,sp,640
    31ea:	07a5                	addi	a5,a5,9
    31ec:	002d                	c.nop	11
    31ee:	0000                	unimp
    31f0:	0b00                	addi	s0,sp,400
    31f2:	0824                	addi	s1,sp,24
    31f4:	0000                	unimp
    31f6:	aa05                	j	3326 <__stack_align+0x3316>
    31f8:	c805                	beqz	s0,3228 <__stack_align+0x3218>
    31fa:	0000                	unimp
    31fc:	0400                	addi	s0,sp,512
    31fe:	0400                	addi	s0,sp,512
    3200:	079e                	slli	a5,a5,0x7
    3202:	0000                	unimp
    3204:	ab05                	j	3734 <__stack_align+0x3724>
    3206:	0000fa03          	.insn	4, 0xfa03
    320a:	0400                	addi	s0,sp,512
    320c:	0648                	addi	a0,sp,772
    320e:	0000                	unimp
    3210:	af05                	j	3940 <__stack_align+0x3930>
    3212:	00008b1b          	sext.w	s6,ra
    3216:	0c00                	addi	s0,sp,528
    3218:	0d08                	addi	a0,sp,656
    321a:	3e08                	fld	fa0,56(a2)
    321c:	0001                	nop
    321e:	0300                	addi	s0,sp,384
    3220:	0801                	addi	a6,a6,0 # a1a4 <__stack_size+0x21a4>
    3222:	01e5                	addi	gp,gp,25 # 80003351 <__global_pointer$+0x19>
    3224:	0000                	unimp
    3226:	3e0e                	fld	ft8,224(sp)
    3228:	0001                	nop
    322a:	0400                	addi	s0,sp,512
    322c:	0872                	slli	a6,a6,0x1c
    322e:	0000                	unimp
    3230:	1906                	slli	s2,s2,0x21
    3232:	7819                	lui	a6,0xfffe6
    3234:	0000                	unimp
    3236:	0f00                	addi	s0,sp,912
    3238:	0659                	addi	a2,a2,22
    323a:	0000                	unimp
    323c:	0620                	addi	s0,sp,776
    323e:	01b0082f          	.insn	4, 0x01b0082f
    3242:	0000                	unimp
    3244:	0007bf0b          	.insn	4, 0x0007bf0b
    3248:	0600                	addi	s0,sp,768
    324a:	1331                	addi	t1,t1,-20
    324c:	01b0                	addi	a2,sp,200
    324e:	0000                	unimp
    3250:	1000                	addi	s0,sp,32
    3252:	6b5f 0600 0732      	.insn	6, 0x073206006b5f
    3258:	002d                	c.nop	11
    325a:	0000                	unimp
    325c:	0b08                	addi	a0,sp,400
    325e:	00000807          	.insn	4, 0x0807
    3262:	3206                	fld	ft4,96(sp)
    3264:	00002d0b          	.insn	4, 0x2d0b
    3268:	0c00                	addi	s0,sp,528
    326a:	0006420b          	.insn	4, 0x0006420b
    326e:	0600                	addi	s0,sp,768
    3270:	1432                	slli	s0,s0,0x2c
    3272:	002d                	c.nop	11
    3274:	0000                	unimp
    3276:	0b10                	addi	a2,sp,400
    3278:	08ae                	slli	a7,a7,0xb
    327a:	0000                	unimp
    327c:	3206                	fld	ft4,96(sp)
    327e:	00002d1b          	.insn	4, 0x2d1b
    3282:	1400                	addi	s0,sp,544
    3284:	5f10                	lw	a2,56(a4)
    3286:	0078                	addi	a4,sp,12
    3288:	3306                	fld	ft6,96(sp)
    328a:	0001b60b          	.insn	4, 0x0001b60b
    328e:	1800                	addi	s0,sp,48
    3290:	0d00                	addi	s0,sp,656
    3292:	5608                	lw	a0,40(a2)
    3294:	0001                	nop
    3296:	0800                	addi	s0,sp,16
    3298:	014a                	slli	sp,sp,0x12
    329a:	0000                	unimp
    329c:	01c6                	slli	gp,gp,0x11
    329e:	0000                	unimp
    32a0:	4709                	li	a4,2
    32a2:	0000                	unimp
    32a4:	0000                	unimp
    32a6:	0f00                	addi	s0,sp,912
    32a8:	0680                	addi	s0,sp,832
    32aa:	0000                	unimp
    32ac:	0624                	addi	s1,sp,776
    32ae:	02490837          	lui	a6,0x2490
    32b2:	0000                	unimp
    32b4:	0005940b          	.insn	4, 0x0005940b
    32b8:	0600                	addi	s0,sp,768
    32ba:	0939                	addi	s2,s2,14
    32bc:	002d                	c.nop	11
    32be:	0000                	unimp
    32c0:	0b00                	addi	s0,sp,400
    32c2:	083a                	slli	a6,a6,0xe
    32c4:	0000                	unimp
    32c6:	3a06                	fld	fs4,96(sp)
    32c8:	2d09                	addiw	s10,s10,2
    32ca:	0000                	unimp
    32cc:	0400                	addi	s0,sp,512
    32ce:	0005a90b          	.insn	4, 0x0005a90b
    32d2:	0600                	addi	s0,sp,768
    32d4:	002d093b          	addw	s2,s10,sp
    32d8:	0000                	unimp
    32da:	0b08                	addi	a0,sp,400
    32dc:	0932                	slli	s2,s2,0xc
    32de:	0000                	unimp
    32e0:	3c06                	fld	fs8,96(sp)
    32e2:	2d09                	addiw	s10,s10,2
    32e4:	0000                	unimp
    32e6:	0c00                	addi	s0,sp,528
    32e8:	00072c0b          	.insn	4, 0x00072c0b
    32ec:	0600                	addi	s0,sp,768
    32ee:	093d                	addi	s2,s2,15
    32f0:	002d                	c.nop	11
    32f2:	0000                	unimp
    32f4:	0b10                	addi	a2,sp,400
    32f6:	0704                	addi	s1,sp,896
    32f8:	0000                	unimp
    32fa:	3e06                	fld	ft8,96(sp)
    32fc:	2d09                	addiw	s10,s10,2
    32fe:	0000                	unimp
    3300:	1400                	addi	s0,sp,544
    3302:	0008b30b          	.insn	4, 0x0008b30b
    3306:	0600                	addi	s0,sp,768
    3308:	002d093f 0b180000 	.insn	8, 0x0b180000002d093f
    3310:	0780                	addi	s0,sp,960
    3312:	0000                	unimp
    3314:	4006                	.insn	2, 0x4006
    3316:	2d09                	addiw	s10,s10,2
    3318:	0000                	unimp
    331a:	1c00                	addi	s0,sp,560
    331c:	0008f90b          	.insn	4, 0x0008f90b
    3320:	0600                	addi	s0,sp,768
    3322:	0941                	addi	s2,s2,16
    3324:	002d                	c.nop	11
    3326:	0000                	unimp
    3328:	0020                	addi	s0,sp,8
    332a:	b811                	j	2b3e <__stack_align+0x2b2e>
    332c:	0005                	c.nop	1
    332e:	0800                	addi	s0,sp,16
    3330:	0602                	c.slli64	a2
    3332:	084a                	slli	a6,a6,0x12
    3334:	0000028f          	.insn	4, 0x028f
    3338:	0006290b          	.insn	4, 0x0006290b
    333c:	0600                	addi	s0,sp,768
    333e:	028f0a4b          	fnmsub.d	fs4,ft10,fs0,ft0,rne
    3342:	0000                	unimp
    3344:	1200                	addi	s0,sp,288
    3346:	051e                	slli	a0,a0,0x7
    3348:	0000                	unimp
    334a:	4c06                	lw	s8,64(sp)
    334c:	8f09                	sub	a4,a4,a0
    334e:	0002                	c.slli64	zero
    3350:	0000                	unimp
    3352:	1201                	addi	tp,tp,-32 # ffffffffffff9fe0 <__heap_end+0xffffffff7ffd6fe0>
    3354:	0864                	addi	s1,sp,28
    3356:	0000                	unimp
    3358:	4e06                	lw	t3,64(sp)
    335a:	4a0a                	lw	s4,128(sp)
    335c:	0001                	nop
    335e:	0000                	unimp
    3360:	1202                	slli	tp,tp,0x20
    3362:	05dd                	addi	a1,a1,23
    3364:	0000                	unimp
    3366:	5106                	lw	sp,96(sp)
    3368:	4a0a                	lw	s4,128(sp)
    336a:	0001                	nop
    336c:	0400                	addi	s0,sp,512
    336e:	0002                	c.slli64	zero
    3370:	3608                	fld	fa0,40(a2)
    3372:	0001                	nop
    3374:	9f00                	.insn	2, 0x9f00
    3376:	0002                	c.slli64	zero
    3378:	0900                	addi	s0,sp,144
    337a:	00000047          	fmsub.s	ft0,ft0,ft0,ft0,rne
    337e:	001f 3511 0007      	.insn	6, 0x00073511001f
    3384:	1800                	addi	s0,sp,48
    3386:	085d0603          	lb	a2,133(s10)
    338a:	000002e3          	beqz	zero,3b8e <__stack_align+0x3b7e>
    338e:	0007bf0b          	.insn	4, 0x0007bf0b
    3392:	0600                	addi	s0,sp,768
    3394:	125e                	slli	tp,tp,0x37
    3396:	000002e3          	beqz	zero,3b9a <__stack_align+0x3b8a>
    339a:	0b00                	addi	s0,sp,400
    339c:	000007d7          	.insn	4, 0x07d7
    33a0:	5f06                	lw	t5,96(sp)
    33a2:	2d06                	fld	fs10,64(sp)
    33a4:	0000                	unimp
    33a6:	0800                	addi	s0,sp,16
    33a8:	00063d0b          	.insn	4, 0x00063d0b
    33ac:	0600                	addi	s0,sp,768
    33ae:	0961                	addi	s2,s2,24
    33b0:	02e9                	addi	t0,t0,26
    33b2:	0000                	unimp
    33b4:	1210                	addi	a2,sp,288
    33b6:	05b8                	addi	a4,sp,712
    33b8:	0000                	unimp
    33ba:	6206                	ld	tp,64(sp)
    33bc:	491e                	lw	s2,196(sp)
    33be:	0002                	c.slli64	zero
    33c0:	1000                	addi	s0,sp,32
    33c2:	0001                	nop
    33c4:	080d                	addi	a6,a6,3 # 2490003 <__heap_size+0x2470003>
    33c6:	029f 0000 f908      	.insn	6, 0xf9080000029f
    33cc:	0002                	c.slli64	zero
    33ce:	f900                	sd	s0,48(a0)
    33d0:	0002                	c.slli64	zero
    33d2:	0900                	addi	s0,sp,144
    33d4:	00000047          	fmsub.s	ft0,ft0,ft0,ft0,rne
    33d8:	001f 080d 02ff      	.insn	6, 0x02ff080d001f
    33de:	0000                	unimp
    33e0:	078a0f13          	addi	t5,s4,120
    33e4:	0000                	unimp
    33e6:	0610                	addi	a2,sp,768
    33e8:	0875                	addi	a6,a6,29
    33ea:	0328                	addi	a0,sp,392
    33ec:	0000                	unimp
    33ee:	0005a30b          	.insn	4, 0x0005a30b
    33f2:	0600                	addi	s0,sp,768
    33f4:	1176                	slli	sp,sp,0x3d
    33f6:	0328                	addi	a0,sp,392
    33f8:	0000                	unimp
    33fa:	0b00                	addi	s0,sp,400
    33fc:	000005f3          	.insn	4, 0x05f3
    3400:	7706                	ld	a4,96(sp)
    3402:	2d06                	fld	fs10,64(sp)
    3404:	0000                	unimp
    3406:	0800                	addi	s0,sp,16
    3408:	0d00                	addi	s0,sp,656
    340a:	6308                	ld	a0,0(a4)
    340c:	0000                	unimp
    340e:	0f00                	addi	s0,sp,912
    3410:	07a9                	addi	a5,a5,10
    3412:	0000                	unimp
    3414:	06b0                	addi	a2,sp,840
    3416:	08b5                	addi	a7,a7,13
    3418:	0471                	addi	s0,s0,28
    341a:	0000                	unimp
    341c:	5f10                	lw	a2,56(a4)
    341e:	0070                	addi	a2,sp,12
    3420:	b606                	fsd	ft1,296(sp)
    3422:	2812                	fld	fa6,256(sp)
    3424:	00000003          	lb	zero,0(zero) # 0 <__boot_hart>
    3428:	5f10                	lw	a2,56(a4)
    342a:	0072                	c.slli	zero,0x1c
    342c:	b706                	fsd	ft1,424(sp)
    342e:	00002d07          	flw	fs10,0(zero) # 0 <__boot_hart>
    3432:	0800                	addi	s0,sp,16
    3434:	5f10                	lw	a2,56(a4)
    3436:	b8060077          	.insn	4, 0xb8060077
    343a:	00002d07          	flw	fs10,0(zero) # 0 <__boot_hart>
    343e:	0c00                	addi	s0,sp,528
    3440:	0005d60b          	.insn	4, 0x0005d60b
    3444:	0600                	addi	s0,sp,768
    3446:	09b9                	addi	s3,s3,14
    3448:	006a                	c.slli	zero,0x1a
    344a:	0000                	unimp
    344c:	0b10                	addi	a2,sp,400
    344e:	069c                	addi	a5,sp,832
    3450:	0000                	unimp
    3452:	ba06                	fsd	ft1,304(sp)
    3454:	6a09                	lui	s4,0x2
    3456:	0000                	unimp
    3458:	1200                	addi	s0,sp,288
    345a:	5f10                	lw	a2,56(a4)
    345c:	6662                	ld	a2,24(sp)
    345e:	0600                	addi	s0,sp,768
    3460:	030011bb          	.insn	4, 0x030011bb
    3464:	0000                	unimp
    3466:	0b18                	addi	a4,sp,400
    3468:	00000563          	beqz	zero,3472 <__stack_align+0x3462>
    346c:	bc06                	fsd	ft1,56(sp)
    346e:	00002d07          	flw	fs10,0(zero) # 0 <__boot_hart>
    3472:	2800                	fld	fs0,16(s0)
    3474:	0005c60b          	.insn	4, 0x0005c60b
    3478:	0600                	addi	s0,sp,768
    347a:	01360ac3          	fmadd.s	fs5,fa2,fs3,ft0,rne
    347e:	0000                	unimp
    3480:	0b30                	addi	a2,sp,408
    3482:	0670                	addi	a2,sp,780
    3484:	0000                	unimp
    3486:	c506                	sw	ra,136(sp)
    3488:	e31d                	bnez	a4,34ae <__stack_align+0x349e>
    348a:	0005                	c.nop	1
    348c:	3800                	fld	fs0,48(s0)
    348e:	0006fd0b          	.insn	4, 0x0006fd0b
    3492:	0600                	addi	s0,sp,768
    3494:	06121dc7          	.insn	4, 0x06121dc7
    3498:	0000                	unimp
    349a:	0b40                	addi	s0,sp,404
    349c:	082c                	addi	a1,sp,24
    349e:	0000                	unimp
    34a0:	ca06                	sw	ra,20(sp)
    34a2:	360d                	addiw	a2,a2,-29
    34a4:	0006                	c.slli	zero,0x1
    34a6:	4800                	lw	s0,16(s0)
    34a8:	0009130b          	.insn	4, 0x0009130b
    34ac:	0600                	addi	s0,sp,768
    34ae:	065009cb          	.insn	4, 0x065009cb
    34b2:	0000                	unimp
    34b4:	1050                	addi	a2,sp,36
    34b6:	755f 0062 ce06      	.insn	6, 0xce060062755f
    34bc:	0011                	c.nop	4
    34be:	58000003          	lb	zero,1408(zero) # 580 <__stack_align+0x570>
    34c2:	5f10                	lw	a2,56(a4)
    34c4:	7075                	c.lui	zero,0xffffd
    34c6:	0600                	addi	s0,sp,768
    34c8:	032812cf          	fnmadd.d	ft5,fa6,fs2,ft0,rtz
    34cc:	0000                	unimp
    34ce:	1068                	addi	a0,sp,44
    34d0:	755f 0072 d006      	.insn	6, 0xd0060072755f
    34d6:	00002d07          	flw	fs10,0(zero) # 0 <__boot_hart>
    34da:	7000                	ld	s0,32(s0)
    34dc:	00059d0b          	.insn	4, 0x00059d0b
    34e0:	0600                	addi	s0,sp,768
    34e2:	065611d3          	.insn	4, 0x065611d3
    34e6:	0000                	unimp
    34e8:	0b74                	addi	a3,sp,412
    34ea:	000008eb          	.insn	4, 0x08eb
    34ee:	d406                	sw	ra,40(sp)
    34f0:	6611                	lui	a2,0x4
    34f2:	0006                	c.slli	zero,0x1
    34f4:	7700                	ld	s0,40(a4)
    34f6:	5f10                	lw	a2,56(a4)
    34f8:	626c                	ld	a1,192(a2)
    34fa:	0600                	addi	s0,sp,768
    34fc:	030011d7          	.insn	4, 0x030011d7
    3500:	0000                	unimp
    3502:	0b78                	addi	a4,sp,412
    3504:	05f9                	addi	a1,a1,30
    3506:	0000                	unimp
    3508:	da06                	sw	ra,52(sp)
    350a:	00002d07          	flw	fs10,0(zero) # 0 <__boot_hart>
    350e:	8800                	.insn	2, 0x8800
    3510:	00071d0b          	.insn	4, 0x00071d0b
    3514:	0600                	addi	s0,sp,768
    3516:	00970adb          	.insn	4, 0x00970adb
    351a:	0000                	unimp
    351c:	0b90                	addi	a2,sp,464
    351e:	053d                	addi	a0,a0,15 # 7ee65 <__heap_size+0x5ee65>
    3520:	0000                	unimp
    3522:	de06                	sw	ra,60(sp)
    3524:	8f12                	mv	t5,tp
    3526:	0004                	.insn	2, 0x0004
    3528:	9800                	.insn	2, 0x9800
    352a:	00097e0b          	.insn	4, 0x00097e0b
    352e:	0600                	addi	s0,sp,768
    3530:	0ce2                	slli	s9,s9,0x18
    3532:	012a                	slli	sp,sp,0xa
    3534:	0000                	unimp
    3536:	0ba0                	addi	s0,sp,472
    3538:	07b1                	addi	a5,a5,12
    353a:	0000                	unimp
    353c:	e406                	sd	ra,8(sp)
    353e:	1e0e                	slli	t3,t3,0x23
    3540:	0001                	nop
    3542:	a400                	fsd	fs0,8(s0)
    3544:	0006f50b          	.insn	4, 0x0006f50b
    3548:	0600                	addi	s0,sp,768
    354a:	09e5                	addi	s3,s3,25
    354c:	002d                	c.nop	11
    354e:	0000                	unimp
    3550:	00ac                	addi	a1,sp,72
    3552:	af14                	fsd	fa3,24(a4)
    3554:	0000                	unimp
    3556:	8f00                	.insn	2, 0x8f00
    3558:	0004                	.insn	2, 0x0004
    355a:	1500                	addi	s0,sp,672
    355c:	0000048f          	.insn	4, 0x048f
    3560:	3615                	addiw	a2,a2,-27 # 3fe5 <__stack_align+0x3fd5>
    3562:	0001                	nop
    3564:	1500                	addi	s0,sp,672
    3566:	0138                	addi	a4,sp,136
    3568:	0000                	unimp
    356a:	2d15                	addiw	s10,s10,5
    356c:	0000                	unimp
    356e:	0000                	unimp
    3570:	080d                	addi	a6,a6,3
    3572:	049a                	slli	s1,s1,0x6
    3574:	0000                	unimp
    3576:	8f0e                	mv	t5,gp
    3578:	0004                	.insn	2, 0x0004
    357a:	1600                	addi	s0,sp,800
    357c:	0000080f          	.insn	4, 0x080f
    3580:	0748                	addi	a0,sp,900
    3582:	3906                	fld	fs2,96(sp)
    3584:	0802                	c.slli64	a6
    3586:	000005e3          	beqz	zero,3d90 <__stack_align+0x3d80>
    358a:	0009e617          	auipc	a2,0x9e
    358e:	0600                	addi	s0,sp,768
    3590:	2d07023b          	.insn	4, 0x2d07023b
    3594:	0000                	unimp
    3596:	0000                	unimp
    3598:	0005e517          	auipc	a0,0x5e
    359c:	0600                	addi	s0,sp,768
    359e:	0240                	addi	s0,sp,260
    35a0:	0006c20b          	.insn	4, 0x0006c20b
    35a4:	0800                	addi	s0,sp,16
    35a6:	00068c17          	auipc	s8,0x68
    35aa:	0600                	addi	s0,sp,768
    35ac:	0240                	addi	s0,sp,260
    35ae:	c214                	sw	a3,0(a2)
    35b0:	0006                	c.slli	zero,0x1
    35b2:	1000                	addi	s0,sp,32
    35b4:	00065117          	auipc	sp,0x65
    35b8:	0600                	addi	s0,sp,768
    35ba:	0240                	addi	s0,sp,260
    35bc:	c21e                	sw	t2,4(sp)
    35be:	0006                	c.slli	zero,0x1
    35c0:	1800                	addi	s0,sp,48
    35c2:	0007d217          	auipc	tp,0x7d
    35c6:	0600                	addi	s0,sp,768
    35c8:	0242                	slli	tp,tp,0x10
    35ca:	2d08                	fld	fa0,24(a0)
    35cc:	0000                	unimp
    35ce:	2000                	fld	fs0,0(s0)
    35d0:	00053217          	auipc	tp,0x53
    35d4:	0600                	addi	s0,sp,768
    35d6:	cb080243          	fmadd.d	ft4,fa6,fa6,fs9,rne
    35da:	0008                	.insn	2, 0x0008
    35dc:	2400                	fld	fs0,8(s0)
    35de:	0007ee17          	auipc	t3,0x7e
    35e2:	0600                	addi	s0,sp,768
    35e4:	0246                	slli	tp,tp,0x11
    35e6:	00002d07          	flw	fs10,0(zero) # 0 <__boot_hart>
    35ea:	4000                	lw	s0,0(s0)
    35ec:	0007dc17          	auipc	s8,0x7d
    35f0:	0600                	addi	s0,sp,768
    35f2:	e0160247          	fmsub.s	ft4,fa2,ft1,ft8,rne
    35f6:	0008                	.insn	2, 0x0008
    35f8:	4800                	lw	s0,16(s0)
    35fa:	00073d17          	auipc	s10,0x73
    35fe:	0600                	addi	s0,sp,768
    3600:	0249                	addi	tp,tp,18 # 565e2 <__heap_size+0x365e2>
    3602:	00002d07          	flw	fs10,0(zero) # 0 <__boot_hart>
    3606:	5000                	lw	s0,32(s0)
    3608:	0007e417          	auipc	s0,0x7e
    360c:	0600                	addi	s0,sp,768
    360e:	f10a024b          	fnmsub.s	ft4,fs4,fa6,ft10,rne
    3612:	0008                	.insn	2, 0x0008
    3614:	5800                	lw	s0,48(s0)
    3616:	0006d917          	auipc	s2,0x6d
    361a:	0600                	addi	s0,sp,768
    361c:	024e                	slli	tp,tp,0x13
    361e:	0001b013          	sltiu	zero,gp,0
    3622:	6000                	ld	s0,0(s0)
    3624:	00067617          	auipc	a2,0x67
    3628:	0600                	addi	s0,sp,768
    362a:	2d07024f          	.insn	4, 0x2d07024f
    362e:	0000                	unimp
    3630:	6800                	ld	s0,16(s0)
    3632:	00092d17          	auipc	s10,0x92
    3636:	0600                	addi	s0,sp,768
    3638:	0250                	addi	a2,sp,260
    363a:	0001b013          	sltiu	zero,gp,0
    363e:	7000                	ld	s0,32(s0)
    3640:	00074817          	auipc	a6,0x74
    3644:	0600                	addi	s0,sp,768
    3646:	0251                	addi	tp,tp,20 # 14 <__stack_align+0x4>
    3648:	f714                	sd	a3,40(a4)
    364a:	0008                	.insn	2, 0x0008
    364c:	7800                	ld	s0,48(s0)
    364e:	00069417          	auipc	s0,0x69
    3652:	0600                	addi	s0,sp,768
    3654:	0254                	addi	a3,sp,260
    3656:	00002d07          	flw	fs10,0(zero) # 0 <__boot_hart>
    365a:	8000                	.insn	2, 0x8000
    365c:	00060217          	auipc	tp,0x60
    3660:	0600                	addi	s0,sp,768
    3662:	0255                	addi	tp,tp,21 # 63671 <__heap_size+0x43671>
    3664:	3809                	addiw	a6,a6,-30 # 77622 <__heap_size+0x57622>
    3666:	0001                	nop
    3668:	8800                	.insn	2, 0x8800
    366a:	00077217          	auipc	tp,0x77
    366e:	0600                	addi	s0,sp,768
    3670:	0278                	addi	a4,sp,268
    3672:	0008a507          	flw	fa0,0(a7)
    3676:	9000                	.insn	2, 0x9000
    3678:	3518                	fld	fa4,40(a0)
    367a:	06000007          	.insn	4, 0x06000007
    367e:	027c                	addi	a5,sp,268
    3680:	0002e313          	ori	t1,t0,0
    3684:	f800                	sd	s0,48(s0)
    3686:	1801                	addi	a6,a6,-32
    3688:	000006b7          	lui	a3,0x0
    368c:	7d06                	ld	s10,96(sp)
    368e:	1202                	slli	tp,tp,0x20
    3690:	029f 0000 0200      	.insn	6, 0x02000000029f
    3696:	e118                	sd	a4,0(a0)
    3698:	0008                	.insn	2, 0x0008
    369a:	0600                	addi	s0,sp,768
    369c:	0281                	addi	t0,t0,0
    369e:	080c                	addi	a1,sp,16
    36a0:	0009                	c.nop	2
    36a2:	1800                	addi	s0,sp,48
    36a4:	1805                	addi	a6,a6,-31
    36a6:	05ce                	slli	a1,a1,0x13
    36a8:	0000                	unimp
    36aa:	8606                	mv	a2,ra
    36ac:	1002                	c.slli	zero,0x20
    36ae:	00000683          	lb	a3,0(zero) # 0 <__boot_hart>
    36b2:	0520                	addi	s0,sp,648
    36b4:	b318                	fsd	fa4,32(a4)
    36b6:	0005                	c.nop	1
    36b8:	0600                	addi	s0,sp,768
    36ba:	0288                	addi	a0,sp,320
    36bc:	140a                	slli	s0,s0,0x22
    36be:	0009                	c.nop	2
    36c0:	3800                	fld	fs0,48(s0)
    36c2:	0005                	c.nop	1
    36c4:	080d                	addi	a6,a6,3
    36c6:	0471                	addi	s0,s0,28 # 6c66a <__heap_size+0x4c66a>
    36c8:	0000                	unimp
    36ca:	af14                	fsd	fa3,24(a4)
    36cc:	0000                	unimp
    36ce:	0700                	addi	s0,sp,896
    36d0:	0006                	c.slli	zero,0x1
    36d2:	1500                	addi	s0,sp,672
    36d4:	0000048f          	.insn	4, 0x048f
    36d8:	3615                	addiw	a2,a2,-27 # 6a609 <__heap_size+0x4a609>
    36da:	0001                	nop
    36dc:	1500                	addi	s0,sp,672
    36de:	00000607          	.insn	4, 0x0607
    36e2:	2d15                	addiw	s10,s10,5 # 95637 <__heap_size+0x75637>
    36e4:	0000                	unimp
    36e6:	0000                	unimp
    36e8:	080d                	addi	a6,a6,3
    36ea:	0145                	addi	sp,sp,17 # 685c5 <__heap_size+0x485c5>
    36ec:	0000                	unimp
    36ee:	070e                	slli	a4,a4,0x3
    36f0:	0006                	c.slli	zero,0x1
    36f2:	0d00                	addi	s0,sp,656
    36f4:	e908                	sd	a0,16(a0)
    36f6:	0005                	c.nop	1
    36f8:	1400                	addi	s0,sp,544
    36fa:	000000a3          	sb	zero,1(zero) # 1 <__boot_hart+0x1>
    36fe:	0636                	slli	a2,a2,0xd
    3700:	0000                	unimp
    3702:	8f15                	sub	a4,a4,a3
    3704:	0004                	.insn	2, 0x0004
    3706:	1500                	addi	s0,sp,672
    3708:	0136                	slli	sp,sp,0xd
    370a:	0000                	unimp
    370c:	a315                	j	3c30 <__stack_align+0x3c20>
    370e:	0000                	unimp
    3710:	1500                	addi	s0,sp,672
    3712:	002d                	c.nop	11
    3714:	0000                	unimp
    3716:	0d00                	addi	s0,sp,656
    3718:	1808                	addi	a0,sp,48
    371a:	0006                	c.slli	zero,0x1
    371c:	1400                	addi	s0,sp,544
    371e:	002d                	c.nop	11
    3720:	0000                	unimp
    3722:	0650                	addi	a2,sp,772
    3724:	0000                	unimp
    3726:	8f15                	sub	a4,a4,a3
    3728:	0004                	.insn	2, 0x0004
    372a:	1500                	addi	s0,sp,672
    372c:	0136                	slli	sp,sp,0xd
    372e:	0000                	unimp
    3730:	0d00                	addi	s0,sp,656
    3732:	3c08                	fld	fa0,56(s0)
    3734:	0006                	c.slli	zero,0x1
    3736:	0800                	addi	s0,sp,16
    3738:	00000063          	beqz	zero,3738 <__stack_align+0x3728>
    373c:	0666                	slli	a2,a2,0x19
    373e:	0000                	unimp
    3740:	4709                	li	a4,2
    3742:	0000                	unimp
    3744:	0200                	addi	s0,sp,256
    3746:	0800                	addi	s0,sp,16
    3748:	00000063          	beqz	zero,3748 <__stack_align+0x3738>
    374c:	0676                	slli	a2,a2,0x1d
    374e:	0000                	unimp
    3750:	4709                	li	a4,2
    3752:	0000                	unimp
    3754:	0000                	unimp
    3756:	0500                	addi	s0,sp,640
    3758:	00000797          	auipc	a5,0x0
    375c:	1f06                	slli	t5,t5,0x21
    375e:	1a01                	addi	s4,s4,-32 # 1fe0 <__stack_align+0x1fd0>
    3760:	032e                	slli	t1,t1,0xb
    3762:	0000                	unimp
    3764:	bd19                	j	357a <__stack_align+0x356a>
    3766:	0008                	.insn	2, 0x0008
    3768:	1800                	addi	s0,sp,48
    376a:	2306                	fld	ft6,64(sp)
    376c:	0801                	addi	a6,a6,0
    376e:	06bc                	addi	a5,sp,840
    3770:	0000                	unimp
    3772:	0007bf17          	auipc	t5,0x7b
    3776:	0600                	addi	s0,sp,768
    3778:	0125                	addi	sp,sp,9
    377a:	bc11                	j	318e <__stack_align+0x317e>
    377c:	0006                	c.slli	zero,0x1
    377e:	0000                	unimp
    3780:	0006b017          	auipc	zero,0x6b
    3784:	0600                	addi	s0,sp,768
    3786:	0126                	slli	sp,sp,0x9
    3788:	00002d07          	flw	fs10,0(zero) # 0 <__boot_hart>
    378c:	0800                	addi	s0,sp,16
    378e:	00079117          	auipc	sp,0x79
    3792:	0600                	addi	s0,sp,768
    3794:	c20b0127          	.insn	4, 0xc20b0127
    3798:	0006                	c.slli	zero,0x1
    379a:	1000                	addi	s0,sp,32
    379c:	0d00                	addi	s0,sp,656
    379e:	8308                	.insn	2, 0x8308
    37a0:	0006                	c.slli	zero,0x1
    37a2:	0d00                	addi	s0,sp,656
    37a4:	7608                	ld	a0,40(a2)
    37a6:	0006                	c.slli	zero,0x1
    37a8:	1900                	addi	s0,sp,176
    37aa:	052a                	slli	a0,a0,0xa
    37ac:	0000                	unimp
    37ae:	060e                	slli	a2,a2,0x3
    37b0:	0108013f 17000007 	.insn	8, 0x170000070108013f
    37b8:	0816                	slli	a6,a6,0x5
    37ba:	0000                	unimp
    37bc:	4006                	.insn	2, 0x4006
    37be:	1201                	addi	tp,tp,-32 # 7a64a <__heap_size+0x5a64a>
    37c0:	0701                	addi	a4,a4,0
    37c2:	0000                	unimp
    37c4:	1700                	addi	s0,sp,928
    37c6:	00000843          	fmadd.s	fa6,ft0,ft0,ft0,rne
    37ca:	4106                	lw	sp,64(sp)
    37cc:	1201                	addi	tp,tp,-32 # ffffffffffffffe0 <__heap_end+0xffffffff7ffdcfe0>
    37ce:	0701                	addi	a4,a4,0
    37d0:	0000                	unimp
    37d2:	1706                	slli	a4,a4,0x21
    37d4:	086d                	addi	a6,a6,27
    37d6:	0000                	unimp
    37d8:	4206                	lw	tp,64(sp)
    37da:	1201                	addi	tp,tp,-32 # ffffffffffffffe0 <__heap_end+0xffffffff7ffdcfe0>
    37dc:	0071                	c.nop	28
    37de:	0000                	unimp
    37e0:	000c                	.insn	2, 0x000c
    37e2:	7108                	ld	a0,32(a0)
    37e4:	0000                	unimp
    37e6:	1100                	addi	s0,sp,160
    37e8:	09000007          	.insn	4, 0x09000007
    37ec:	00000047          	fmsub.s	ft0,ft0,ft0,ft0,rne
    37f0:	0002                	c.slli64	zero
    37f2:	d81a                	sw	t1,48(sp)
    37f4:	5906                	lw	s2,96(sp)
    37f6:	0702                	c.slli64	a4
    37f8:	0826                	slli	a6,a6,0x9
    37fa:	0000                	unimp
    37fc:	0008a117          	auipc	sp,0x8a
    3800:	0600                	addi	s0,sp,768
    3802:	7818025b          	.insn	4, 0x7818025b
    3806:	0000                	unimp
    3808:	0000                	unimp
    380a:	00085717          	auipc	a4,0x85
    380e:	0600                	addi	s0,sp,768
    3810:	025c                	addi	a5,sp,260
    3812:	3812                	fld	fa6,288(sp)
    3814:	0001                	nop
    3816:	0800                	addi	s0,sp,16
    3818:	0006cc17          	auipc	s8,0x6c
    381c:	0600                	addi	s0,sp,768
    381e:	025d                	addi	tp,tp,23 # 17 <__stack_align+0x7>
    3820:	2610                	fld	fa2,8(a2)
    3822:	0008                	.insn	2, 0x0008
    3824:	1000                	addi	s0,sp,32
    3826:	00090417          	auipc	s0,0x90
    382a:	0600                	addi	s0,sp,768
    382c:	025e                	slli	tp,tp,0x17
    382e:	0001c617          	auipc	a2,0x1c
    3832:	2c00                	fld	fs0,24(s0)
    3834:	00066117          	auipc	sp,0x66
    3838:	0600                	addi	s0,sp,768
    383a:	025f 2d0f 0000      	.insn	6, 0x2d0f025f
    3840:	5000                	lw	s0,32(s0)
    3842:	0007ba17          	auipc	s4,0x7b
    3846:	0600                	addi	s0,sp,768
    3848:	0260                	addi	s0,sp,268
    384a:	362c                	fld	fa1,104(a2)
    384c:	0008                	.insn	2, 0x0008
    384e:	5800                	lw	s0,48(s0)
    3850:	00091a17          	auipc	s4,0x91
    3854:	0600                	addi	s0,sp,768
    3856:	0261                	addi	tp,tp,24 # 18 <__stack_align+0x8>
    3858:	c81a                	sw	t1,16(sp)
    385a:	0006                	c.slli	zero,0x1
    385c:	6000                	ld	s0,0(s0)
    385e:	0007c517          	auipc	a0,0x7c
    3862:	0600                	addi	s0,sp,768
    3864:	0262                	slli	tp,tp,0x18
    3866:	1e16                	slli	t3,t3,0x25
    3868:	0001                	nop
    386a:	7000                	ld	s0,32(s0)
    386c:	00091f17          	auipc	t5,0x91
    3870:	0600                	addi	s0,sp,768
    3872:	1e160263          	beq	a2,ra,3a56 <__stack_align+0x3a46>
    3876:	0001                	nop
    3878:	7800                	ld	s0,48(s0)
    387a:	00058617          	auipc	a2,0x58
    387e:	0600                	addi	s0,sp,768
    3880:	0264                	addi	s1,sp,268
    3882:	1e16                	slli	t3,t3,0x25
    3884:	0001                	nop
    3886:	8000                	.insn	2, 0x8000
    3888:	0008cc17          	auipc	s8,0x8c
    388c:	0600                	addi	s0,sp,768
    388e:	0265                	addi	tp,tp,25 # 19 <__stack_align+0x9>
    3890:	3d10                	fld	fa2,56(a0)
    3892:	0008                	.insn	2, 0x0008
    3894:	8800                	.insn	2, 0x8800
    3896:	0006c017          	auipc	zero,0x6c
    389a:	0600                	addi	s0,sp,768
    389c:	0266                	slli	tp,tp,0x19
    389e:	4d10                	lw	a2,24(a0)
    38a0:	0008                	.insn	2, 0x0008
    38a2:	9000                	.insn	2, 0x9000
    38a4:	00087a17          	auipc	s4,0x87
    38a8:	0600                	addi	s0,sp,768
    38aa:	2d0f0267          	jalr	tp,720(t5) # 94b3c <__heap_size+0x74b3c>
    38ae:	0000                	unimp
    38b0:	a800                	fsd	fs0,16(s0)
    38b2:	00061b17          	auipc	s6,0x61
    38b6:	0600                	addi	s0,sp,768
    38b8:	0268                	addi	a0,sp,268
    38ba:	1e16                	slli	t3,t3,0x25
    38bc:	0001                	nop
    38be:	ac00                	fsd	fs0,24(s0)
    38c0:	00057717          	auipc	a4,0x57
    38c4:	0600                	addi	s0,sp,768
    38c6:	0269                	addi	tp,tp,26 # 1a <__stack_align+0xa>
    38c8:	1e16                	slli	t3,t3,0x25
    38ca:	0001                	nop
    38cc:	b400                	fsd	fs0,40(s0)
    38ce:	00060a17          	auipc	s4,0x60
    38d2:	0600                	addi	s0,sp,768
    38d4:	026a                	slli	tp,tp,0x1a
    38d6:	1e16                	slli	t3,t3,0x25
    38d8:	0001                	nop
    38da:	bc00                	fsd	fs0,56(s0)
    38dc:	00054317          	auipc	t1,0x54
    38e0:	0600                	addi	s0,sp,768
    38e2:	1e16026b          	.insn	4, 0x1e16026b
    38e6:	0001                	nop
    38e8:	c400                	sw	s0,8(s0)
    38ea:	00055217          	auipc	tp,0x55
    38ee:	0600                	addi	s0,sp,768
    38f0:	026c                	addi	a1,sp,268
    38f2:	1e16                	slli	t3,t3,0x25
    38f4:	0001                	nop
    38f6:	cc00                	sw	s0,24(s0)
    38f8:	00077717          	auipc	a4,0x77
    38fc:	0600                	addi	s0,sp,768
    38fe:	026d                	addi	tp,tp,27 # 58905 <__heap_size+0x38905>
    3900:	2d08                	fld	fa0,24(a0)
    3902:	0000                	unimp
    3904:	d400                	sw	s0,40(s0)
    3906:	0800                	addi	s0,sp,16
    3908:	013e                	slli	sp,sp,0xf
    390a:	0000                	unimp
    390c:	0836                	slli	a6,a6,0xd
    390e:	0000                	unimp
    3910:	4709                	li	a4,2
    3912:	0000                	unimp
    3914:	1900                	addi	s0,sp,176
    3916:	0300                	addi	s0,sp,384
    3918:	0708                	addi	a0,sp,896
    391a:	0000003b          	addw	zero,zero,zero
    391e:	3e08                	fld	fa0,56(a2)
    3920:	0001                	nop
    3922:	4d00                	lw	s0,24(a0)
    3924:	0008                	.insn	2, 0x0008
    3926:	0900                	addi	s0,sp,144
    3928:	00000047          	fmsub.s	ft0,ft0,ft0,ft0,rne
    392c:	3e080007          	.insn	4, 0x3e080007
    3930:	0001                	nop
    3932:	5d00                	lw	s0,56(a0)
    3934:	0008                	.insn	2, 0x0008
    3936:	0900                	addi	s0,sp,144
    3938:	00000047          	fmsub.s	ft0,ft0,ft0,ft0,rne
    393c:	681b0017          	auipc	zero,0x681b0
    3940:	0601                	addi	a2,a2,0 # 5b87a <__heap_size+0x3b87a>
    3942:	0272                	slli	tp,tp,0x1c
    3944:	00088507          	.insn	4, 0x00088507
    3948:	1700                	addi	s0,sp,928
    394a:	0725                	addi	a4,a4,9 # 7a901 <__heap_size+0x5a901>
    394c:	0000                	unimp
    394e:	7506                	ld	a0,96(sp)
    3950:	1b02                	slli	s6,s6,0x20
    3952:	0885                	addi	a7,a7,1
    3954:	0000                	unimp
    3956:	1700                	addi	s0,sp,928
    3958:	070e                	slli	a4,a4,0x3
    395a:	0000                	unimp
    395c:	7606                	ld	a2,96(sp)
    395e:	1802                	slli	a6,a6,0x20
    3960:	0895                	addi	a7,a7,5
    3962:	0000                	unimp
    3964:	00f0                	addi	a2,sp,76
    3966:	2808                	fld	fa0,16(s0)
    3968:	95000003          	lb	zero,-1712(zero) # fffffffffffff950 <__heap_end+0xffffffff7ffdc950>
    396c:	0008                	.insn	2, 0x0008
    396e:	0900                	addi	s0,sp,144
    3970:	00000047          	fmsub.s	ft0,ft0,ft0,ft0,rne
    3974:	001d                	c.nop	7
    3976:	7808                	ld	a0,48(s0)
    3978:	0000                	unimp
    397a:	a500                	fsd	fs0,8(a0)
    397c:	0008                	.insn	2, 0x0008
    397e:	0900                	addi	s0,sp,144
    3980:	00000047          	fmsub.s	ft0,ft0,ft0,ft0,rne
    3984:	001d                	c.nop	7
    3986:	681c                	ld	a5,16(s0)
    3988:	0601                	addi	a2,a2,0
    398a:	cb030257          	.insn	4, 0xcb030257
    398e:	0008                	.insn	2, 0x0008
    3990:	1d00                	addi	s0,sp,688
    3992:	0000080f          	.insn	4, 0x080f
    3996:	6e06                	ld	t3,64(sp)
    3998:	0b02                	c.slli64	s6
    399a:	0711                	addi	a4,a4,4
    399c:	0000                	unimp
    399e:	f11d                	bnez	a0,38c4 <__stack_align+0x38b4>
    39a0:	0008                	.insn	2, 0x0008
    39a2:	0600                	addi	s0,sp,768
    39a4:	5d0b0277          	.insn	4, 0x5d0b0277
    39a8:	0008                	.insn	2, 0x0008
    39aa:	0000                	unimp
    39ac:	3e08                	fld	fa0,56(a2)
    39ae:	0001                	nop
    39b0:	db00                	sw	s0,48(a4)
    39b2:	0008                	.insn	2, 0x0008
    39b4:	0900                	addi	s0,sp,144
    39b6:	00000047          	fmsub.s	ft0,ft0,ft0,ft0,rne
    39ba:	0018                	.insn	2, 0x0018
    39bc:	6c1e                	ld	s8,448(sp)
    39be:	0005                	c.nop	1
    39c0:	0d00                	addi	s0,sp,656
    39c2:	db08                	sw	a0,48(a4)
    39c4:	0008                	.insn	2, 0x0008
    39c6:	1f00                	addi	s0,sp,944
    39c8:	08f1                	addi	a7,a7,28
    39ca:	0000                	unimp
    39cc:	8f15                	sub	a4,a4,a3
    39ce:	0004                	.insn	2, 0x0004
    39d0:	0000                	unimp
    39d2:	080d                	addi	a6,a6,3
    39d4:	08e6                	slli	a7,a7,0x19
    39d6:	0000                	unimp
    39d8:	080d                	addi	a6,a6,3
    39da:	01b0                	addi	a2,sp,200
    39dc:	0000                	unimp
    39de:	081f 0009 1500      	.insn	6, 0x15000009081f
    39e4:	002d                	c.nop	11
    39e6:	0000                	unimp
    39e8:	0d00                	addi	s0,sp,656
    39ea:	0e08                	addi	a0,sp,784
    39ec:	0009                	c.nop	2
    39ee:	0d00                	addi	s0,sp,656
    39f0:	fd08                	sd	a0,56(a0)
    39f2:	0008                	.insn	2, 0x0008
    39f4:	0800                	addi	s0,sp,16
    39f6:	0676                	slli	a2,a2,0x1d
    39f8:	0000                	unimp
    39fa:	0924                	addi	s1,sp,152
    39fc:	0000                	unimp
    39fe:	4709                	li	a4,2
    3a00:	0000                	unimp
    3a02:	0200                	addi	s0,sp,256
    3a04:	2000                	fld	fs0,0(s0)
    3a06:	088e                	slli	a7,a7,0x3
    3a08:	0000                	unimp
    3a0a:	0706                	slli	a4,a4,0x1
    3a0c:	048f1703          	lh	a4,72(t5)
    3a10:	0000                	unimp
    3a12:	8720                	.insn	2, 0x8720
    3a14:	0008                	.insn	2, 0x0008
    3a16:	0600                	addi	s0,sp,768
    3a18:	0308                	addi	a0,sp,384
    3a1a:	951d                	srai	a0,a0,0x27
    3a1c:	0004                	.insn	2, 0x0004
    3a1e:	0800                	addi	s0,sp,16
    3a20:	060d                	addi	a2,a2,3
    3a22:	0000                	unimp
    3a24:	0949                	addi	s2,s2,18 # 70628 <__heap_size+0x50628>
    3a26:	0000                	unimp
    3a28:	0021                	c.nop	8
    3a2a:	3e0e                	fld	ft8,224(sp)
    3a2c:	0009                	c.nop	2
    3a2e:	2200                	fld	fs0,0(a2)
    3a30:	09ed                	addi	s3,s3,27
    3a32:	0000                	unimp
    3a34:	49241407          	.insn	4, 0x49241407
    3a38:	0009                	c.nop	2
    3a3a:	2200                	fld	fs0,0(a2)
    3a3c:	0a09                	addi	s4,s4,2 # 638d0 <__heap_size+0x438d0>
    3a3e:	0000                	unimp
    3a40:	2d151507          	.insn	4, 0x2d151507
    3a44:	0000                	unimp
    3a46:	0400                	addi	s0,sp,512
    3a48:	0000050b          	.insn	4, 0x050b
    3a4c:	3c08                	fld	fa0,56(s0)
    3a4e:	7f14                	ld	a3,56(a4)
    3a50:	0000                	unimp
    3a52:	2300                	fld	fs0,0(a4)
    3a54:	0966                	slli	s2,s2,0x19
    3a56:	0000                	unimp
    3a58:	c404                	sw	s1,8(s0)
    3a5a:	0008                	.insn	2, 0x0008
    3a5c:	0900                	addi	s0,sp,144
    3a5e:	12c8                	addi	a0,sp,356
    3a60:	000000af          	.insn	4, 0x00af
    3a64:	6822                	ld	a6,8(sp)
    3a66:	0004                	.insn	2, 0x0004
    3a68:	0a00                	addi	s0,sp,272
    3a6a:	1a06                	slli	s4,s4,0x21
    3a6c:	0972                	slli	s2,s2,0x1c
    3a6e:	0000                	unimp
    3a70:	0022                	c.slli	zero,0x8
    3a72:	0005                	c.nop	1
    3a74:	0a00                	addi	s0,sp,272
    3a76:	09721a07          	.insn	4, 0x09721a07
    3a7a:	0000                	unimp
    3a7c:	7024                	ld	s1,96(s0)
    3a7e:	0006                	c.slli	zero,0x1
    3a80:	0100                	addi	s0,sp,128
    3a82:	0905                	addi	s2,s2,1
    3a84:	00000977          	.insn	4, 0x0977
    3a88:	226a                	fld	ft4,152(sp)
    3a8a:	8000                	.insn	2, 0x8000
    3a8c:	0000                	unimp
    3a8e:	0000                	unimp
    3a90:	0016                	c.slli	zero,0x5
    3a92:	0000                	unimp
    3a94:	0000                	unimp
    3a96:	0000                	unimp
    3a98:	9c01                	subw	s0,s0,s0
    3a9a:	000009fb          	.insn	4, 0x09fb
    3a9e:	9d25                	addw	a0,a0,s1
    3aa0:	0006                	c.slli	zero,0x1
    3aa2:	0100                	addi	s0,sp,128
    3aa4:	1305                	addi	t1,t1,-31 # 578bd <__heap_size+0x378bd>
    3aa6:	002d                	c.nop	11
    3aa8:	0000                	unimp
    3aaa:	037f 0000 7026 7274 	.insn	10, 0x0100727470260000037f
    3ab2:	0100 
    3ab4:	1f05                	addi	t5,t5,-31
    3ab6:	0136                	slli	sp,sp,0xd
    3ab8:	0000                	unimp
    3aba:	03b8                	addi	a4,sp,456
    3abc:	0000                	unimp
    3abe:	6c26                	ld	s8,72(sp)
    3ac0:	6e65                	lui	t3,0x19
    3ac2:	0100                	addi	s0,sp,128
    3ac4:	2b05                	addiw	s6,s6,1 # 648b3 <__heap_size+0x448b3>
    3ac6:	0000003b          	addw	zero,zero,zero
    3aca:	03f1                	addi	t2,t2,28
    3acc:	0000                	unimp
    3ace:	00227227          	.insn	4, 0x00227227
    3ad2:	0080                	addi	s0,sp,64
    3ad4:	0000                	unimp
    3ad6:	fb00                	sd	s0,48(a4)
    3ad8:	0009                	c.nop	2
    3ada:	0000                	unimp
    3adc:	e528                	sd	a0,72(a0)
    3ade:	0009                	c.nop	2
    3ae0:	e500                	sd	s0,8(a0)
    3ae2:	0009                	c.nop	2
    3ae4:	0700                	addi	s0,sp,896
    3ae6:	31000d0f          	.insn	4, 0x31000d0f
    3aea:	000a                	c.slli	zero,0x2
    3aec:	0400                	addi	s0,sp,512
    3aee:	f400                	sd	s0,40(s0)
    3af0:	000e                	c.slli	zero,0x3
    3af2:	0800                	addi	s0,sp,16
    3af4:	8b01                	andi	a4,a4,0
    3af6:	0004                	.insn	2, 0x0004
    3af8:	0c00                	addi	s0,sp,528
    3afa:	0a56                	slli	s4,s4,0x15
    3afc:	0000                	unimp
    3afe:	0000040f          	.insn	4, 0x040f
    3b02:	2280                	fld	fs0,0(a3)
    3b04:	8000                	.insn	2, 0x8000
    3b06:	0000                	unimp
    3b08:	0000                	unimp
    3b0a:	003a                	c.slli	zero,0xe
    3b0c:	0000                	unimp
    3b0e:	0000                	unimp
    3b10:	0000                	unimp
    3b12:	00001f4f          	fnmadd.s	ft10,ft0,ft0,ft0,rtz
    3b16:	6402                	ld	s0,0(sp)
    3b18:	000a                	c.slli	zero,0x2
    3b1a:	0200                	addi	s0,sp,256
    3b1c:	1a95                	addi	s5,s5,-27
    3b1e:	0039                	c.nop	14
    3b20:	0000                	unimp
    3b22:	82050803          	lb	a6,-2016(a0) # 7f07e <__heap_size+0x5f07e>
    3b26:	0000                	unimp
    3b28:	0300                	addi	s0,sp,384
    3b2a:	0708                	addi	a0,sp,896
    3b2c:	0040                	addi	s0,sp,4
    3b2e:	0000                	unimp
    3b30:	0404                	addi	s1,sp,512
    3b32:	6905                	lui	s2,0x1
    3b34:	746e                	ld	s0,248(sp)
    3b36:	0300                	addi	s0,sp,384
    3b38:	0508                	addi	a0,sp,640
    3b3a:	007d                	c.nop	31
    3b3c:	0000                	unimp
    3b3e:	9a041003          	lh	zero,-1632(s0) # 931c6 <__heap_size+0x731c6>
    3b42:	0001                	nop
    3b44:	0300                	addi	s0,sp,384
    3b46:	0601                	addi	a2,a2,0
    3b48:	01de                	slli	gp,gp,0x17
    3b4a:	0000                	unimp
    3b4c:	dc080103          	lb	sp,-576(a6)
    3b50:	0001                	nop
    3b52:	0300                	addi	s0,sp,384
    3b54:	0502                	c.slli64	a0
    3b56:	0286                	slli	t0,t0,0x1
    3b58:	0000                	unimp
    3b5a:	29070203          	lb	tp,656(a4)
    3b5e:	0001                	nop
    3b60:	0300                	addi	s0,sp,384
    3b62:	0704                	addi	s1,sp,896
    3b64:	0045                	c.nop	17
    3b66:	0000                	unimp
    3b68:	0902                	c.slli64	s2
    3b6a:	0005                	c.nop	1
    3b6c:	0300                	addi	s0,sp,384
    3b6e:	1969                	addi	s2,s2,-6 # ffa <__stack_align+0xfea>
    3b70:	0040                	addi	s0,sp,4
    3b72:	0000                	unimp
    3b74:	6002                	.insn	2, 0x6002
    3b76:	04000007          	.insn	4, 0x04000007
    3b7a:	0d0c                	addi	a1,sp,656
    3b7c:	00000047          	fmsub.s	ft0,ft0,ft0,ft0,rne
    3b80:	1402                	slli	s0,s0,0x20
    3b82:	000a                	c.slli	zero,0x2
    3b84:	0500                	addi	s0,sp,640
    3b86:	0e2c                	addi	a1,sp,792
    3b88:	0039                	c.nop	14
    3b8a:	0000                	unimp
    3b8c:	3202                	fld	ft4,32(sp)
    3b8e:	0008                	.insn	2, 0x0008
    3b90:	0500                	addi	s0,sp,640
    3b92:	0e72                	slli	t3,t3,0x1c
    3b94:	0039                	c.nop	14
    3b96:	0000                	unimp
    3b98:	c302                	sw	zero,132(sp)
    3b9a:	0008                	.insn	2, 0x0008
    3b9c:	0500                	addi	s0,sp,640
    3b9e:	1791                	addi	a5,a5,-28 # 373c <__stack_align+0x372c>
    3ba0:	0039                	c.nop	14
    3ba2:	0000                	unimp
    3ba4:	ee05                	bnez	a2,3bdc <__stack_align+0x3bcc>
    3ba6:	0006                	c.slli	zero,0x1
    3ba8:	0200                	addi	s0,sp,256
    3baa:	0165                	addi	sp,sp,25 # 6984d <__heap_size+0x4984d>
    3bac:	00007817          	auipc	a6,0x7
    3bb0:	0600                	addi	s0,sp,768
    3bb2:	0504                	addi	s1,sp,640
    3bb4:	03a6                	slli	t2,t2,0x9
    3bb6:	00ea                	slli	ra,ra,0x1a
    3bb8:	0000                	unimp
    3bba:	0006e107          	.insn	4, 0x0006e107
    3bbe:	0500                	addi	s0,sp,640
    3bc0:	0ca8                	addi	a0,sp,600
    3bc2:	000000bb          	addw	ra,zero,zero
    3bc6:	00068507          	.insn	4, 0x00068507
    3bca:	0500                	addi	s0,sp,640
    3bcc:	13a9                	addi	t2,t2,-22
    3bce:	00ea                	slli	ra,ra,0x1a
    3bd0:	0000                	unimp
    3bd2:	0800                	addi	s0,sp,16
    3bd4:	00000063          	beqz	zero,3bd4 <__stack_align+0x3bc4>
    3bd8:	00fa                	slli	ra,ra,0x1e
    3bda:	0000                	unimp
    3bdc:	4009                	c.li	zero,2
    3bde:	0000                	unimp
    3be0:	0300                	addi	s0,sp,384
    3be2:	0a00                	addi	s0,sp,272
    3be4:	0508                	addi	a0,sp,640
    3be6:	011e09a3          	sb	a7,19(t3) # 19013 <__stack_size+0x11013>
    3bea:	0000                	unimp
    3bec:	00081c0b          	.insn	4, 0x00081c0b
    3bf0:	0500                	addi	s0,sp,640
    3bf2:	07a5                	addi	a5,a5,9
    3bf4:	00000047          	fmsub.s	ft0,ft0,ft0,ft0,rne
    3bf8:	0b00                	addi	s0,sp,400
    3bfa:	0824                	addi	s1,sp,24
    3bfc:	0000                	unimp
    3bfe:	aa05                	j	3d2e <__stack_align+0x3d1e>
    3c00:	c805                	beqz	s0,3c30 <__stack_align+0x3c20>
    3c02:	0000                	unimp
    3c04:	0400                	addi	s0,sp,512
    3c06:	0200                	addi	s0,sp,256
    3c08:	079e                	slli	a5,a5,0x7
    3c0a:	0000                	unimp
    3c0c:	ab05                	j	413c <__stack_align+0x412c>
    3c0e:	0000fa03          	.insn	4, 0xfa03
    3c12:	0200                	addi	s0,sp,256
    3c14:	0648                	addi	a0,sp,772
    3c16:	0000                	unimp
    3c18:	af05                	j	4348 <__stack_align+0x4338>
    3c1a:	00008b1b          	sext.w	s6,ra
    3c1e:	0c00                	addi	s0,sp,528
    3c20:	0d08                	addi	a0,sp,656
    3c22:	3e08                	fld	fa0,56(a2)
    3c24:	0001                	nop
    3c26:	0300                	addi	s0,sp,384
    3c28:	0801                	addi	a6,a6,0 # abac <__stack_size+0x2bac>
    3c2a:	01e5                	addi	gp,gp,25 # 80003351 <__global_pointer$+0x19>
    3c2c:	0000                	unimp
    3c2e:	3e0e                	fld	ft8,224(sp)
    3c30:	0001                	nop
    3c32:	0200                	addi	s0,sp,256
    3c34:	0872                	slli	a6,a6,0x1c
    3c36:	0000                	unimp
    3c38:	1906                	slli	s2,s2,0x21
    3c3a:	7819                	lui	a6,0xfffe6
    3c3c:	0000                	unimp
    3c3e:	0f00                	addi	s0,sp,912
    3c40:	0659                	addi	a2,a2,22
    3c42:	0000                	unimp
    3c44:	0620                	addi	s0,sp,776
    3c46:	01b0082f          	.insn	4, 0x01b0082f
    3c4a:	0000                	unimp
    3c4c:	0007bf0b          	.insn	4, 0x0007bf0b
    3c50:	0600                	addi	s0,sp,768
    3c52:	1331                	addi	t1,t1,-20
    3c54:	01b0                	addi	a2,sp,200
    3c56:	0000                	unimp
    3c58:	1000                	addi	s0,sp,32
    3c5a:	6b5f 0600 0732      	.insn	6, 0x073206006b5f
    3c60:	00000047          	fmsub.s	ft0,ft0,ft0,ft0,rne
    3c64:	0b08                	addi	a0,sp,400
    3c66:	00000807          	.insn	4, 0x0807
    3c6a:	3206                	fld	ft4,96(sp)
    3c6c:	0000470b          	.insn	4, 0x470b
    3c70:	0c00                	addi	s0,sp,528
    3c72:	0006420b          	.insn	4, 0x0006420b
    3c76:	0600                	addi	s0,sp,768
    3c78:	1432                	slli	s0,s0,0x2c
    3c7a:	00000047          	fmsub.s	ft0,ft0,ft0,ft0,rne
    3c7e:	0b10                	addi	a2,sp,400
    3c80:	08ae                	slli	a7,a7,0xb
    3c82:	0000                	unimp
    3c84:	3206                	fld	ft4,96(sp)
    3c86:	0000471b          	.insn	4, 0x471b
    3c8a:	1400                	addi	s0,sp,544
    3c8c:	5f10                	lw	a2,56(a4)
    3c8e:	0078                	addi	a4,sp,12
    3c90:	3306                	fld	ft6,96(sp)
    3c92:	0001b60b          	.insn	4, 0x0001b60b
    3c96:	1800                	addi	s0,sp,48
    3c98:	0d00                	addi	s0,sp,656
    3c9a:	5608                	lw	a0,40(a2)
    3c9c:	0001                	nop
    3c9e:	0800                	addi	s0,sp,16
    3ca0:	014a                	slli	sp,sp,0x12
    3ca2:	0000                	unimp
    3ca4:	01c6                	slli	gp,gp,0x11
    3ca6:	0000                	unimp
    3ca8:	4009                	c.li	zero,2
    3caa:	0000                	unimp
    3cac:	0000                	unimp
    3cae:	0f00                	addi	s0,sp,912
    3cb0:	0680                	addi	s0,sp,832
    3cb2:	0000                	unimp
    3cb4:	0624                	addi	s1,sp,776
    3cb6:	02490837          	lui	a6,0x2490
    3cba:	0000                	unimp
    3cbc:	0005940b          	.insn	4, 0x0005940b
    3cc0:	0600                	addi	s0,sp,768
    3cc2:	0939                	addi	s2,s2,14
    3cc4:	00000047          	fmsub.s	ft0,ft0,ft0,ft0,rne
    3cc8:	0b00                	addi	s0,sp,400
    3cca:	083a                	slli	a6,a6,0xe
    3ccc:	0000                	unimp
    3cce:	3a06                	fld	fs4,96(sp)
    3cd0:	4709                	li	a4,2
    3cd2:	0000                	unimp
    3cd4:	0400                	addi	s0,sp,512
    3cd6:	0005a90b          	.insn	4, 0x0005a90b
    3cda:	0600                	addi	s0,sp,768
    3cdc:	0047093b          	addw	s2,a4,tp
    3ce0:	0000                	unimp
    3ce2:	0b08                	addi	a0,sp,400
    3ce4:	0932                	slli	s2,s2,0xc
    3ce6:	0000                	unimp
    3ce8:	3c06                	fld	fs8,96(sp)
    3cea:	4709                	li	a4,2
    3cec:	0000                	unimp
    3cee:	0c00                	addi	s0,sp,528
    3cf0:	00072c0b          	.insn	4, 0x00072c0b
    3cf4:	0600                	addi	s0,sp,768
    3cf6:	093d                	addi	s2,s2,15
    3cf8:	00000047          	fmsub.s	ft0,ft0,ft0,ft0,rne
    3cfc:	0b10                	addi	a2,sp,400
    3cfe:	0704                	addi	s1,sp,896
    3d00:	0000                	unimp
    3d02:	3e06                	fld	ft8,96(sp)
    3d04:	4709                	li	a4,2
    3d06:	0000                	unimp
    3d08:	1400                	addi	s0,sp,544
    3d0a:	0008b30b          	.insn	4, 0x0008b30b
    3d0e:	0600                	addi	s0,sp,768
    3d10:	0047093f 0b180000 	.insn	8, 0x0b1800000047093f
    3d18:	0780                	addi	s0,sp,960
    3d1a:	0000                	unimp
    3d1c:	4006                	.insn	2, 0x4006
    3d1e:	4709                	li	a4,2
    3d20:	0000                	unimp
    3d22:	1c00                	addi	s0,sp,560
    3d24:	0008f90b          	.insn	4, 0x0008f90b
    3d28:	0600                	addi	s0,sp,768
    3d2a:	0941                	addi	s2,s2,16
    3d2c:	00000047          	fmsub.s	ft0,ft0,ft0,ft0,rne
    3d30:	0020                	addi	s0,sp,8
    3d32:	b811                	j	3546 <__stack_align+0x3536>
    3d34:	0005                	c.nop	1
    3d36:	0800                	addi	s0,sp,16
    3d38:	0602                	c.slli64	a2
    3d3a:	084a                	slli	a6,a6,0x12
    3d3c:	0000028f          	.insn	4, 0x028f
    3d40:	0006290b          	.insn	4, 0x0006290b
    3d44:	0600                	addi	s0,sp,768
    3d46:	028f0a4b          	fnmsub.d	fs4,ft10,fs0,ft0,rne
    3d4a:	0000                	unimp
    3d4c:	1200                	addi	s0,sp,288
    3d4e:	051e                	slli	a0,a0,0x7
    3d50:	0000                	unimp
    3d52:	4c06                	lw	s8,64(sp)
    3d54:	8f09                	sub	a4,a4,a0
    3d56:	0002                	c.slli64	zero
    3d58:	0000                	unimp
    3d5a:	1201                	addi	tp,tp,-32 # ffffffffffffffe0 <__heap_end+0xffffffff7ffdcfe0>
    3d5c:	0864                	addi	s1,sp,28
    3d5e:	0000                	unimp
    3d60:	4e06                	lw	t3,64(sp)
    3d62:	4a0a                	lw	s4,128(sp)
    3d64:	0001                	nop
    3d66:	0000                	unimp
    3d68:	1202                	slli	tp,tp,0x20
    3d6a:	05dd                	addi	a1,a1,23
    3d6c:	0000                	unimp
    3d6e:	5106                	lw	sp,96(sp)
    3d70:	4a0a                	lw	s4,128(sp)
    3d72:	0001                	nop
    3d74:	0400                	addi	s0,sp,512
    3d76:	0002                	c.slli64	zero
    3d78:	3608                	fld	fa0,40(a2)
    3d7a:	0001                	nop
    3d7c:	9f00                	.insn	2, 0x9f00
    3d7e:	0002                	c.slli64	zero
    3d80:	0900                	addi	s0,sp,144
    3d82:	0040                	addi	s0,sp,4
    3d84:	0000                	unimp
    3d86:	001f 3511 0007      	.insn	6, 0x00073511001f
    3d8c:	1800                	addi	s0,sp,48
    3d8e:	085d0603          	lb	a2,133(s10)
    3d92:	000002e3          	beqz	zero,4596 <__stack_align+0x4586>
    3d96:	0007bf0b          	.insn	4, 0x0007bf0b
    3d9a:	0600                	addi	s0,sp,768
    3d9c:	125e                	slli	tp,tp,0x37
    3d9e:	000002e3          	beqz	zero,45a2 <__stack_align+0x4592>
    3da2:	0b00                	addi	s0,sp,400
    3da4:	000007d7          	.insn	4, 0x07d7
    3da8:	5f06                	lw	t5,96(sp)
    3daa:	4706                	lw	a4,64(sp)
    3dac:	0000                	unimp
    3dae:	0800                	addi	s0,sp,16
    3db0:	00063d0b          	.insn	4, 0x00063d0b
    3db4:	0600                	addi	s0,sp,768
    3db6:	0961                	addi	s2,s2,24
    3db8:	02e9                	addi	t0,t0,26
    3dba:	0000                	unimp
    3dbc:	1210                	addi	a2,sp,288
    3dbe:	05b8                	addi	a4,sp,712
    3dc0:	0000                	unimp
    3dc2:	6206                	ld	tp,64(sp)
    3dc4:	491e                	lw	s2,196(sp)
    3dc6:	0002                	c.slli64	zero
    3dc8:	1000                	addi	s0,sp,32
    3dca:	0001                	nop
    3dcc:	080d                	addi	a6,a6,3 # 2490003 <__heap_size+0x2470003>
    3dce:	029f 0000 f908      	.insn	6, 0xf9080000029f
    3dd4:	0002                	c.slli64	zero
    3dd6:	f900                	sd	s0,48(a0)
    3dd8:	0002                	c.slli64	zero
    3dda:	0900                	addi	s0,sp,144
    3ddc:	0040                	addi	s0,sp,4
    3dde:	0000                	unimp
    3de0:	001f 080d 02ff      	.insn	6, 0x02ff080d001f
    3de6:	0000                	unimp
    3de8:	078a0f13          	addi	t5,s4,120
    3dec:	0000                	unimp
    3dee:	0610                	addi	a2,sp,768
    3df0:	0875                	addi	a6,a6,29
    3df2:	0328                	addi	a0,sp,392
    3df4:	0000                	unimp
    3df6:	0005a30b          	.insn	4, 0x0005a30b
    3dfa:	0600                	addi	s0,sp,768
    3dfc:	1176                	slli	sp,sp,0x3d
    3dfe:	0328                	addi	a0,sp,392
    3e00:	0000                	unimp
    3e02:	0b00                	addi	s0,sp,400
    3e04:	000005f3          	.insn	4, 0x05f3
    3e08:	7706                	ld	a4,96(sp)
    3e0a:	4706                	lw	a4,64(sp)
    3e0c:	0000                	unimp
    3e0e:	0800                	addi	s0,sp,16
    3e10:	0d00                	addi	s0,sp,656
    3e12:	6308                	ld	a0,0(a4)
    3e14:	0000                	unimp
    3e16:	0f00                	addi	s0,sp,912
    3e18:	07a9                	addi	a5,a5,10
    3e1a:	0000                	unimp
    3e1c:	06b0                	addi	a2,sp,840
    3e1e:	08b5                	addi	a7,a7,13
    3e20:	0471                	addi	s0,s0,28
    3e22:	0000                	unimp
    3e24:	5f10                	lw	a2,56(a4)
    3e26:	0070                	addi	a2,sp,12
    3e28:	b606                	fsd	ft1,296(sp)
    3e2a:	2812                	fld	fa6,256(sp)
    3e2c:	00000003          	lb	zero,0(zero) # 0 <__boot_hart>
    3e30:	5f10                	lw	a2,56(a4)
    3e32:	0072                	c.slli	zero,0x1c
    3e34:	b706                	fsd	ft1,424(sp)
    3e36:	00004707          	.insn	4, 0x4707
    3e3a:	0800                	addi	s0,sp,16
    3e3c:	5f10                	lw	a2,56(a4)
    3e3e:	b8060077          	.insn	4, 0xb8060077
    3e42:	00004707          	.insn	4, 0x4707
    3e46:	0c00                	addi	s0,sp,528
    3e48:	0005d60b          	.insn	4, 0x0005d60b
    3e4c:	0600                	addi	s0,sp,768
    3e4e:	09b9                	addi	s3,s3,14
    3e50:	006a                	c.slli	zero,0x1a
    3e52:	0000                	unimp
    3e54:	0b10                	addi	a2,sp,400
    3e56:	069c                	addi	a5,sp,832
    3e58:	0000                	unimp
    3e5a:	ba06                	fsd	ft1,304(sp)
    3e5c:	6a09                	lui	s4,0x2
    3e5e:	0000                	unimp
    3e60:	1200                	addi	s0,sp,288
    3e62:	5f10                	lw	a2,56(a4)
    3e64:	6662                	ld	a2,24(sp)
    3e66:	0600                	addi	s0,sp,768
    3e68:	030011bb          	.insn	4, 0x030011bb
    3e6c:	0000                	unimp
    3e6e:	0b18                	addi	a4,sp,400
    3e70:	00000563          	beqz	zero,3e7a <__stack_align+0x3e6a>
    3e74:	bc06                	fsd	ft1,56(sp)
    3e76:	00004707          	.insn	4, 0x4707
    3e7a:	2800                	fld	fs0,16(s0)
    3e7c:	0005c60b          	.insn	4, 0x0005c60b
    3e80:	0600                	addi	s0,sp,768
    3e82:	01360ac3          	fmadd.s	fs5,fa2,fs3,ft0,rne
    3e86:	0000                	unimp
    3e88:	0b30                	addi	a2,sp,408
    3e8a:	0670                	addi	a2,sp,780
    3e8c:	0000                	unimp
    3e8e:	c506                	sw	ra,136(sp)
    3e90:	e31d                	bnez	a4,3eb6 <__stack_align+0x3ea6>
    3e92:	0005                	c.nop	1
    3e94:	3800                	fld	fs0,48(s0)
    3e96:	0006fd0b          	.insn	4, 0x0006fd0b
    3e9a:	0600                	addi	s0,sp,768
    3e9c:	06121dc7          	.insn	4, 0x06121dc7
    3ea0:	0000                	unimp
    3ea2:	0b40                	addi	s0,sp,404
    3ea4:	082c                	addi	a1,sp,24
    3ea6:	0000                	unimp
    3ea8:	ca06                	sw	ra,20(sp)
    3eaa:	360d                	addiw	a2,a2,-29
    3eac:	0006                	c.slli	zero,0x1
    3eae:	4800                	lw	s0,16(s0)
    3eb0:	0009130b          	.insn	4, 0x0009130b
    3eb4:	0600                	addi	s0,sp,768
    3eb6:	065009cb          	.insn	4, 0x065009cb
    3eba:	0000                	unimp
    3ebc:	1050                	addi	a2,sp,36
    3ebe:	755f 0062 ce06      	.insn	6, 0xce060062755f
    3ec4:	0011                	c.nop	4
    3ec6:	58000003          	lb	zero,1408(zero) # 580 <__stack_align+0x570>
    3eca:	5f10                	lw	a2,56(a4)
    3ecc:	7075                	c.lui	zero,0xffffd
    3ece:	0600                	addi	s0,sp,768
    3ed0:	032812cf          	fnmadd.d	ft5,fa6,fs2,ft0,rtz
    3ed4:	0000                	unimp
    3ed6:	1068                	addi	a0,sp,44
    3ed8:	755f 0072 d006      	.insn	6, 0xd0060072755f
    3ede:	00004707          	.insn	4, 0x4707
    3ee2:	7000                	ld	s0,32(s0)
    3ee4:	00059d0b          	.insn	4, 0x00059d0b
    3ee8:	0600                	addi	s0,sp,768
    3eea:	065611d3          	.insn	4, 0x065611d3
    3eee:	0000                	unimp
    3ef0:	0b74                	addi	a3,sp,412
    3ef2:	000008eb          	.insn	4, 0x08eb
    3ef6:	d406                	sw	ra,40(sp)
    3ef8:	6611                	lui	a2,0x4
    3efa:	0006                	c.slli	zero,0x1
    3efc:	7700                	ld	s0,40(a4)
    3efe:	5f10                	lw	a2,56(a4)
    3f00:	626c                	ld	a1,192(a2)
    3f02:	0600                	addi	s0,sp,768
    3f04:	030011d7          	.insn	4, 0x030011d7
    3f08:	0000                	unimp
    3f0a:	0b78                	addi	a4,sp,412
    3f0c:	05f9                	addi	a1,a1,30
    3f0e:	0000                	unimp
    3f10:	da06                	sw	ra,52(sp)
    3f12:	00004707          	.insn	4, 0x4707
    3f16:	8800                	.insn	2, 0x8800
    3f18:	00071d0b          	.insn	4, 0x00071d0b
    3f1c:	0600                	addi	s0,sp,768
    3f1e:	00970adb          	.insn	4, 0x00970adb
    3f22:	0000                	unimp
    3f24:	0b90                	addi	a2,sp,464
    3f26:	053d                	addi	a0,a0,15
    3f28:	0000                	unimp
    3f2a:	de06                	sw	ra,60(sp)
    3f2c:	8f12                	mv	t5,tp
    3f2e:	0004                	.insn	2, 0x0004
    3f30:	9800                	.insn	2, 0x9800
    3f32:	00097e0b          	.insn	4, 0x00097e0b
    3f36:	0600                	addi	s0,sp,768
    3f38:	0ce2                	slli	s9,s9,0x18
    3f3a:	012a                	slli	sp,sp,0xa
    3f3c:	0000                	unimp
    3f3e:	0ba0                	addi	s0,sp,472
    3f40:	07b1                	addi	a5,a5,12
    3f42:	0000                	unimp
    3f44:	e406                	sd	ra,8(sp)
    3f46:	1e0e                	slli	t3,t3,0x23
    3f48:	0001                	nop
    3f4a:	a400                	fsd	fs0,8(s0)
    3f4c:	0006f50b          	.insn	4, 0x0006f50b
    3f50:	0600                	addi	s0,sp,768
    3f52:	09e5                	addi	s3,s3,25
    3f54:	00000047          	fmsub.s	ft0,ft0,ft0,ft0,rne
    3f58:	00ac                	addi	a1,sp,72
    3f5a:	af14                	fsd	fa3,24(a4)
    3f5c:	0000                	unimp
    3f5e:	8f00                	.insn	2, 0x8f00
    3f60:	0004                	.insn	2, 0x0004
    3f62:	1500                	addi	s0,sp,672
    3f64:	0000048f          	.insn	4, 0x048f
    3f68:	3615                	addiw	a2,a2,-27 # 3fe5 <__stack_align+0x3fd5>
    3f6a:	0001                	nop
    3f6c:	1500                	addi	s0,sp,672
    3f6e:	0138                	addi	a4,sp,136
    3f70:	0000                	unimp
    3f72:	4715                	li	a4,5
    3f74:	0000                	unimp
    3f76:	0000                	unimp
    3f78:	080d                	addi	a6,a6,3
    3f7a:	049a                	slli	s1,s1,0x6
    3f7c:	0000                	unimp
    3f7e:	8f0e                	mv	t5,gp
    3f80:	0004                	.insn	2, 0x0004
    3f82:	1600                	addi	s0,sp,800
    3f84:	0000080f          	.insn	4, 0x080f
    3f88:	0748                	addi	a0,sp,900
    3f8a:	3906                	fld	fs2,96(sp)
    3f8c:	0802                	c.slli64	a6
    3f8e:	000005e3          	beqz	zero,4798 <__stack_align+0x4788>
    3f92:	0009e617          	auipc	a2,0x9e
    3f96:	0600                	addi	s0,sp,768
    3f98:	4707023b          	.insn	4, 0x4707023b
    3f9c:	0000                	unimp
    3f9e:	0000                	unimp
    3fa0:	0005e517          	auipc	a0,0x5e
    3fa4:	0600                	addi	s0,sp,768
    3fa6:	0240                	addi	s0,sp,260
    3fa8:	0006c20b          	.insn	4, 0x0006c20b
    3fac:	0800                	addi	s0,sp,16
    3fae:	00068c17          	auipc	s8,0x68
    3fb2:	0600                	addi	s0,sp,768
    3fb4:	0240                	addi	s0,sp,260
    3fb6:	c214                	sw	a3,0(a2)
    3fb8:	0006                	c.slli	zero,0x1
    3fba:	1000                	addi	s0,sp,32
    3fbc:	00065117          	auipc	sp,0x65
    3fc0:	0600                	addi	s0,sp,768
    3fc2:	0240                	addi	s0,sp,260
    3fc4:	c21e                	sw	t2,4(sp)
    3fc6:	0006                	c.slli	zero,0x1
    3fc8:	1800                	addi	s0,sp,48
    3fca:	0007d217          	auipc	tp,0x7d
    3fce:	0600                	addi	s0,sp,768
    3fd0:	0242                	slli	tp,tp,0x10
    3fd2:	4708                	lw	a0,8(a4)
    3fd4:	0000                	unimp
    3fd6:	2000                	fld	fs0,0(s0)
    3fd8:	00053217          	auipc	tp,0x53
    3fdc:	0600                	addi	s0,sp,768
    3fde:	cb080243          	fmadd.d	ft4,fa6,fa6,fs9,rne
    3fe2:	0008                	.insn	2, 0x0008
    3fe4:	2400                	fld	fs0,8(s0)
    3fe6:	0007ee17          	auipc	t3,0x7e
    3fea:	0600                	addi	s0,sp,768
    3fec:	0246                	slli	tp,tp,0x11
    3fee:	00004707          	.insn	4, 0x4707
    3ff2:	4000                	lw	s0,0(s0)
    3ff4:	0007dc17          	auipc	s8,0x7d
    3ff8:	0600                	addi	s0,sp,768
    3ffa:	e0160247          	fmsub.s	ft4,fa2,ft1,ft8,rne
    3ffe:	0008                	.insn	2, 0x0008
    4000:	4800                	lw	s0,16(s0)
    4002:	00073d17          	auipc	s10,0x73
    4006:	0600                	addi	s0,sp,768
    4008:	0249                	addi	tp,tp,18 # 56fea <__heap_size+0x36fea>
    400a:	00004707          	.insn	4, 0x4707
    400e:	5000                	lw	s0,32(s0)
    4010:	0007e417          	auipc	s0,0x7e
    4014:	0600                	addi	s0,sp,768
    4016:	f10a024b          	fnmsub.s	ft4,fs4,fa6,ft10,rne
    401a:	0008                	.insn	2, 0x0008
    401c:	5800                	lw	s0,48(s0)
    401e:	0006d917          	auipc	s2,0x6d
    4022:	0600                	addi	s0,sp,768
    4024:	024e                	slli	tp,tp,0x13
    4026:	0001b013          	sltiu	zero,gp,0
    402a:	6000                	ld	s0,0(s0)
    402c:	00067617          	auipc	a2,0x67
    4030:	0600                	addi	s0,sp,768
    4032:	4707024f          	.insn	4, 0x4707024f
    4036:	0000                	unimp
    4038:	6800                	ld	s0,16(s0)
    403a:	00092d17          	auipc	s10,0x92
    403e:	0600                	addi	s0,sp,768
    4040:	0250                	addi	a2,sp,260
    4042:	0001b013          	sltiu	zero,gp,0
    4046:	7000                	ld	s0,32(s0)
    4048:	00074817          	auipc	a6,0x74
    404c:	0600                	addi	s0,sp,768
    404e:	0251                	addi	tp,tp,20 # 14 <__stack_align+0x4>
    4050:	f714                	sd	a3,40(a4)
    4052:	0008                	.insn	2, 0x0008
    4054:	7800                	ld	s0,48(s0)
    4056:	00069417          	auipc	s0,0x69
    405a:	0600                	addi	s0,sp,768
    405c:	0254                	addi	a3,sp,260
    405e:	00004707          	.insn	4, 0x4707
    4062:	8000                	.insn	2, 0x8000
    4064:	00060217          	auipc	tp,0x60
    4068:	0600                	addi	s0,sp,768
    406a:	0255                	addi	tp,tp,21 # 64079 <__heap_size+0x44079>
    406c:	3809                	addiw	a6,a6,-30 # 7802a <__heap_size+0x5802a>
    406e:	0001                	nop
    4070:	8800                	.insn	2, 0x8800
    4072:	00077217          	auipc	tp,0x77
    4076:	0600                	addi	s0,sp,768
    4078:	0278                	addi	a4,sp,268
    407a:	0008a507          	flw	fa0,0(a7)
    407e:	9000                	.insn	2, 0x9000
    4080:	3518                	fld	fa4,40(a0)
    4082:	06000007          	.insn	4, 0x06000007
    4086:	027c                	addi	a5,sp,268
    4088:	0002e313          	ori	t1,t0,0
    408c:	f800                	sd	s0,48(s0)
    408e:	1801                	addi	a6,a6,-32
    4090:	000006b7          	lui	a3,0x0
    4094:	7d06                	ld	s10,96(sp)
    4096:	1202                	slli	tp,tp,0x20
    4098:	029f 0000 0200      	.insn	6, 0x02000000029f
    409e:	e118                	sd	a4,0(a0)
    40a0:	0008                	.insn	2, 0x0008
    40a2:	0600                	addi	s0,sp,768
    40a4:	0281                	addi	t0,t0,0
    40a6:	080c                	addi	a1,sp,16
    40a8:	0009                	c.nop	2
    40aa:	1800                	addi	s0,sp,48
    40ac:	1805                	addi	a6,a6,-31
    40ae:	05ce                	slli	a1,a1,0x13
    40b0:	0000                	unimp
    40b2:	8606                	mv	a2,ra
    40b4:	1002                	c.slli	zero,0x20
    40b6:	00000683          	lb	a3,0(zero) # 0 <__boot_hart>
    40ba:	0520                	addi	s0,sp,648
    40bc:	b318                	fsd	fa4,32(a4)
    40be:	0005                	c.nop	1
    40c0:	0600                	addi	s0,sp,768
    40c2:	0288                	addi	a0,sp,320
    40c4:	140a                	slli	s0,s0,0x22
    40c6:	0009                	c.nop	2
    40c8:	3800                	fld	fs0,48(s0)
    40ca:	0005                	c.nop	1
    40cc:	080d                	addi	a6,a6,3
    40ce:	0471                	addi	s0,s0,28 # 6d072 <__heap_size+0x4d072>
    40d0:	0000                	unimp
    40d2:	af14                	fsd	fa3,24(a4)
    40d4:	0000                	unimp
    40d6:	0700                	addi	s0,sp,896
    40d8:	0006                	c.slli	zero,0x1
    40da:	1500                	addi	s0,sp,672
    40dc:	0000048f          	.insn	4, 0x048f
    40e0:	3615                	addiw	a2,a2,-27 # 6b011 <__heap_size+0x4b011>
    40e2:	0001                	nop
    40e4:	1500                	addi	s0,sp,672
    40e6:	00000607          	.insn	4, 0x0607
    40ea:	4715                	li	a4,5
    40ec:	0000                	unimp
    40ee:	0000                	unimp
    40f0:	080d                	addi	a6,a6,3
    40f2:	0145                	addi	sp,sp,17 # 68fcd <__heap_size+0x48fcd>
    40f4:	0000                	unimp
    40f6:	070e                	slli	a4,a4,0x3
    40f8:	0006                	c.slli	zero,0x1
    40fa:	0d00                	addi	s0,sp,656
    40fc:	e908                	sd	a0,16(a0)
    40fe:	0005                	c.nop	1
    4100:	1400                	addi	s0,sp,544
    4102:	000000a3          	sb	zero,1(zero) # 1 <__boot_hart+0x1>
    4106:	0636                	slli	a2,a2,0xd
    4108:	0000                	unimp
    410a:	8f15                	sub	a4,a4,a3
    410c:	0004                	.insn	2, 0x0004
    410e:	1500                	addi	s0,sp,672
    4110:	0136                	slli	sp,sp,0xd
    4112:	0000                	unimp
    4114:	a315                	j	4638 <__stack_align+0x4628>
    4116:	0000                	unimp
    4118:	1500                	addi	s0,sp,672
    411a:	00000047          	fmsub.s	ft0,ft0,ft0,ft0,rne
    411e:	0d00                	addi	s0,sp,656
    4120:	1808                	addi	a0,sp,48
    4122:	0006                	c.slli	zero,0x1
    4124:	1400                	addi	s0,sp,544
    4126:	00000047          	fmsub.s	ft0,ft0,ft0,ft0,rne
    412a:	0650                	addi	a2,sp,772
    412c:	0000                	unimp
    412e:	8f15                	sub	a4,a4,a3
    4130:	0004                	.insn	2, 0x0004
    4132:	1500                	addi	s0,sp,672
    4134:	0136                	slli	sp,sp,0xd
    4136:	0000                	unimp
    4138:	0d00                	addi	s0,sp,656
    413a:	3c08                	fld	fa0,56(s0)
    413c:	0006                	c.slli	zero,0x1
    413e:	0800                	addi	s0,sp,16
    4140:	00000063          	beqz	zero,4140 <__stack_align+0x4130>
    4144:	0666                	slli	a2,a2,0x19
    4146:	0000                	unimp
    4148:	4009                	c.li	zero,2
    414a:	0000                	unimp
    414c:	0200                	addi	s0,sp,256
    414e:	0800                	addi	s0,sp,16
    4150:	00000063          	beqz	zero,4150 <__stack_align+0x4140>
    4154:	0676                	slli	a2,a2,0x1d
    4156:	0000                	unimp
    4158:	4009                	c.li	zero,2
    415a:	0000                	unimp
    415c:	0000                	unimp
    415e:	0500                	addi	s0,sp,640
    4160:	00000797          	auipc	a5,0x0
    4164:	1f06                	slli	t5,t5,0x21
    4166:	1a01                	addi	s4,s4,-32 # 1fe0 <__stack_align+0x1fd0>
    4168:	032e                	slli	t1,t1,0xb
    416a:	0000                	unimp
    416c:	bd19                	j	3f82 <__stack_align+0x3f72>
    416e:	0008                	.insn	2, 0x0008
    4170:	1800                	addi	s0,sp,48
    4172:	2306                	fld	ft6,64(sp)
    4174:	0801                	addi	a6,a6,0
    4176:	06bc                	addi	a5,sp,840
    4178:	0000                	unimp
    417a:	0007bf17          	auipc	t5,0x7b
    417e:	0600                	addi	s0,sp,768
    4180:	0125                	addi	sp,sp,9
    4182:	bc11                	j	3b96 <__stack_align+0x3b86>
    4184:	0006                	c.slli	zero,0x1
    4186:	0000                	unimp
    4188:	0006b017          	auipc	zero,0x6b
    418c:	0600                	addi	s0,sp,768
    418e:	0126                	slli	sp,sp,0x9
    4190:	00004707          	.insn	4, 0x4707
    4194:	0800                	addi	s0,sp,16
    4196:	00079117          	auipc	sp,0x79
    419a:	0600                	addi	s0,sp,768
    419c:	c20b0127          	.insn	4, 0xc20b0127
    41a0:	0006                	c.slli	zero,0x1
    41a2:	1000                	addi	s0,sp,32
    41a4:	0d00                	addi	s0,sp,656
    41a6:	8308                	.insn	2, 0x8308
    41a8:	0006                	c.slli	zero,0x1
    41aa:	0d00                	addi	s0,sp,656
    41ac:	7608                	ld	a0,40(a2)
    41ae:	0006                	c.slli	zero,0x1
    41b0:	1900                	addi	s0,sp,176
    41b2:	052a                	slli	a0,a0,0xa
    41b4:	0000                	unimp
    41b6:	060e                	slli	a2,a2,0x3
    41b8:	0108013f 17000007 	.insn	8, 0x170000070108013f
    41c0:	0816                	slli	a6,a6,0x5
    41c2:	0000                	unimp
    41c4:	4006                	.insn	2, 0x4006
    41c6:	1201                	addi	tp,tp,-32 # 7b052 <__heap_size+0x5b052>
    41c8:	0701                	addi	a4,a4,0
    41ca:	0000                	unimp
    41cc:	1700                	addi	s0,sp,928
    41ce:	00000843          	fmadd.s	fa6,ft0,ft0,ft0,rne
    41d2:	4106                	lw	sp,64(sp)
    41d4:	1201                	addi	tp,tp,-32 # ffffffffffffffe0 <__heap_end+0xffffffff7ffdcfe0>
    41d6:	0701                	addi	a4,a4,0
    41d8:	0000                	unimp
    41da:	1706                	slli	a4,a4,0x21
    41dc:	086d                	addi	a6,a6,27
    41de:	0000                	unimp
    41e0:	4206                	lw	tp,64(sp)
    41e2:	1201                	addi	tp,tp,-32 # ffffffffffffffe0 <__heap_end+0xffffffff7ffdcfe0>
    41e4:	0071                	c.nop	28
    41e6:	0000                	unimp
    41e8:	000c                	.insn	2, 0x000c
    41ea:	7108                	ld	a0,32(a0)
    41ec:	0000                	unimp
    41ee:	1100                	addi	s0,sp,160
    41f0:	09000007          	.insn	4, 0x09000007
    41f4:	0040                	addi	s0,sp,4
    41f6:	0000                	unimp
    41f8:	0002                	c.slli64	zero
    41fa:	d81a                	sw	t1,48(sp)
    41fc:	5906                	lw	s2,96(sp)
    41fe:	0702                	c.slli64	a4
    4200:	0826                	slli	a6,a6,0x9
    4202:	0000                	unimp
    4204:	0008a117          	auipc	sp,0x8a
    4208:	0600                	addi	s0,sp,768
    420a:	7818025b          	.insn	4, 0x7818025b
    420e:	0000                	unimp
    4210:	0000                	unimp
    4212:	00085717          	auipc	a4,0x85
    4216:	0600                	addi	s0,sp,768
    4218:	025c                	addi	a5,sp,260
    421a:	3812                	fld	fa6,288(sp)
    421c:	0001                	nop
    421e:	0800                	addi	s0,sp,16
    4220:	0006cc17          	auipc	s8,0x6c
    4224:	0600                	addi	s0,sp,768
    4226:	025d                	addi	tp,tp,23 # 17 <__stack_align+0x7>
    4228:	2610                	fld	fa2,8(a2)
    422a:	0008                	.insn	2, 0x0008
    422c:	1000                	addi	s0,sp,32
    422e:	00090417          	auipc	s0,0x90
    4232:	0600                	addi	s0,sp,768
    4234:	025e                	slli	tp,tp,0x17
    4236:	0001c617          	auipc	a2,0x1c
    423a:	2c00                	fld	fs0,24(s0)
    423c:	00066117          	auipc	sp,0x66
    4240:	0600                	addi	s0,sp,768
    4242:	025f 470f 0000      	.insn	6, 0x470f025f
    4248:	5000                	lw	s0,32(s0)
    424a:	0007ba17          	auipc	s4,0x7b
    424e:	0600                	addi	s0,sp,768
    4250:	0260                	addi	s0,sp,268
    4252:	362c                	fld	fa1,104(a2)
    4254:	0008                	.insn	2, 0x0008
    4256:	5800                	lw	s0,48(s0)
    4258:	00091a17          	auipc	s4,0x91
    425c:	0600                	addi	s0,sp,768
    425e:	0261                	addi	tp,tp,24 # 18 <__stack_align+0x8>
    4260:	c81a                	sw	t1,16(sp)
    4262:	0006                	c.slli	zero,0x1
    4264:	6000                	ld	s0,0(s0)
    4266:	0007c517          	auipc	a0,0x7c
    426a:	0600                	addi	s0,sp,768
    426c:	0262                	slli	tp,tp,0x18
    426e:	1e16                	slli	t3,t3,0x25
    4270:	0001                	nop
    4272:	7000                	ld	s0,32(s0)
    4274:	00091f17          	auipc	t5,0x91
    4278:	0600                	addi	s0,sp,768
    427a:	1e160263          	beq	a2,ra,445e <__stack_align+0x444e>
    427e:	0001                	nop
    4280:	7800                	ld	s0,48(s0)
    4282:	00058617          	auipc	a2,0x58
    4286:	0600                	addi	s0,sp,768
    4288:	0264                	addi	s1,sp,268
    428a:	1e16                	slli	t3,t3,0x25
    428c:	0001                	nop
    428e:	8000                	.insn	2, 0x8000
    4290:	0008cc17          	auipc	s8,0x8c
    4294:	0600                	addi	s0,sp,768
    4296:	0265                	addi	tp,tp,25 # 19 <__stack_align+0x9>
    4298:	3d10                	fld	fa2,56(a0)
    429a:	0008                	.insn	2, 0x0008
    429c:	8800                	.insn	2, 0x8800
    429e:	0006c017          	auipc	zero,0x6c
    42a2:	0600                	addi	s0,sp,768
    42a4:	0266                	slli	tp,tp,0x19
    42a6:	4d10                	lw	a2,24(a0)
    42a8:	0008                	.insn	2, 0x0008
    42aa:	9000                	.insn	2, 0x9000
    42ac:	00087a17          	auipc	s4,0x87
    42b0:	0600                	addi	s0,sp,768
    42b2:	470f0267          	jalr	tp,1136(t5) # 956e4 <__heap_size+0x756e4>
    42b6:	0000                	unimp
    42b8:	a800                	fsd	fs0,16(s0)
    42ba:	00061b17          	auipc	s6,0x61
    42be:	0600                	addi	s0,sp,768
    42c0:	0268                	addi	a0,sp,268
    42c2:	1e16                	slli	t3,t3,0x25
    42c4:	0001                	nop
    42c6:	ac00                	fsd	fs0,24(s0)
    42c8:	00057717          	auipc	a4,0x57
    42cc:	0600                	addi	s0,sp,768
    42ce:	0269                	addi	tp,tp,26 # 1a <__stack_align+0xa>
    42d0:	1e16                	slli	t3,t3,0x25
    42d2:	0001                	nop
    42d4:	b400                	fsd	fs0,40(s0)
    42d6:	00060a17          	auipc	s4,0x60
    42da:	0600                	addi	s0,sp,768
    42dc:	026a                	slli	tp,tp,0x1a
    42de:	1e16                	slli	t3,t3,0x25
    42e0:	0001                	nop
    42e2:	bc00                	fsd	fs0,56(s0)
    42e4:	00054317          	auipc	t1,0x54
    42e8:	0600                	addi	s0,sp,768
    42ea:	1e16026b          	.insn	4, 0x1e16026b
    42ee:	0001                	nop
    42f0:	c400                	sw	s0,8(s0)
    42f2:	00055217          	auipc	tp,0x55
    42f6:	0600                	addi	s0,sp,768
    42f8:	026c                	addi	a1,sp,268
    42fa:	1e16                	slli	t3,t3,0x25
    42fc:	0001                	nop
    42fe:	cc00                	sw	s0,24(s0)
    4300:	00077717          	auipc	a4,0x77
    4304:	0600                	addi	s0,sp,768
    4306:	026d                	addi	tp,tp,27 # 5930d <__heap_size+0x3930d>
    4308:	4708                	lw	a0,8(a4)
    430a:	0000                	unimp
    430c:	d400                	sw	s0,40(s0)
    430e:	0800                	addi	s0,sp,16
    4310:	013e                	slli	sp,sp,0xf
    4312:	0000                	unimp
    4314:	0836                	slli	a6,a6,0xd
    4316:	0000                	unimp
    4318:	4009                	c.li	zero,2
    431a:	0000                	unimp
    431c:	1900                	addi	s0,sp,176
    431e:	0300                	addi	s0,sp,384
    4320:	0708                	addi	a0,sp,896
    4322:	0000003b          	addw	zero,zero,zero
    4326:	3e08                	fld	fa0,56(a2)
    4328:	0001                	nop
    432a:	4d00                	lw	s0,24(a0)
    432c:	0008                	.insn	2, 0x0008
    432e:	0900                	addi	s0,sp,144
    4330:	0040                	addi	s0,sp,4
    4332:	0000                	unimp
    4334:	3e080007          	.insn	4, 0x3e080007
    4338:	0001                	nop
    433a:	5d00                	lw	s0,56(a0)
    433c:	0008                	.insn	2, 0x0008
    433e:	0900                	addi	s0,sp,144
    4340:	0040                	addi	s0,sp,4
    4342:	0000                	unimp
    4344:	681b0017          	auipc	zero,0x681b0
    4348:	0601                	addi	a2,a2,0 # 5c282 <__heap_size+0x3c282>
    434a:	0272                	slli	tp,tp,0x1c
    434c:	00088507          	.insn	4, 0x00088507
    4350:	1700                	addi	s0,sp,928
    4352:	0725                	addi	a4,a4,9 # 7b309 <__heap_size+0x5b309>
    4354:	0000                	unimp
    4356:	7506                	ld	a0,96(sp)
    4358:	1b02                	slli	s6,s6,0x20
    435a:	0885                	addi	a7,a7,1
    435c:	0000                	unimp
    435e:	1700                	addi	s0,sp,928
    4360:	070e                	slli	a4,a4,0x3
    4362:	0000                	unimp
    4364:	7606                	ld	a2,96(sp)
    4366:	1802                	slli	a6,a6,0x20
    4368:	0895                	addi	a7,a7,5
    436a:	0000                	unimp
    436c:	00f0                	addi	a2,sp,76
    436e:	2808                	fld	fa0,16(s0)
    4370:	95000003          	lb	zero,-1712(zero) # fffffffffffff950 <__heap_end+0xffffffff7ffdc950>
    4374:	0008                	.insn	2, 0x0008
    4376:	0900                	addi	s0,sp,144
    4378:	0040                	addi	s0,sp,4
    437a:	0000                	unimp
    437c:	001d                	c.nop	7
    437e:	7808                	ld	a0,48(s0)
    4380:	0000                	unimp
    4382:	a500                	fsd	fs0,8(a0)
    4384:	0008                	.insn	2, 0x0008
    4386:	0900                	addi	s0,sp,144
    4388:	0040                	addi	s0,sp,4
    438a:	0000                	unimp
    438c:	001d                	c.nop	7
    438e:	681c                	ld	a5,16(s0)
    4390:	0601                	addi	a2,a2,0
    4392:	cb030257          	.insn	4, 0xcb030257
    4396:	0008                	.insn	2, 0x0008
    4398:	1d00                	addi	s0,sp,688
    439a:	0000080f          	.insn	4, 0x080f
    439e:	6e06                	ld	t3,64(sp)
    43a0:	0b02                	c.slli64	s6
    43a2:	0711                	addi	a4,a4,4
    43a4:	0000                	unimp
    43a6:	f11d                	bnez	a0,42cc <__stack_align+0x42bc>
    43a8:	0008                	.insn	2, 0x0008
    43aa:	0600                	addi	s0,sp,768
    43ac:	5d0b0277          	.insn	4, 0x5d0b0277
    43b0:	0008                	.insn	2, 0x0008
    43b2:	0000                	unimp
    43b4:	3e08                	fld	fa0,56(a2)
    43b6:	0001                	nop
    43b8:	db00                	sw	s0,48(a4)
    43ba:	0008                	.insn	2, 0x0008
    43bc:	0900                	addi	s0,sp,144
    43be:	0040                	addi	s0,sp,4
    43c0:	0000                	unimp
    43c2:	0018                	.insn	2, 0x0018
    43c4:	6c1e                	ld	s8,448(sp)
    43c6:	0005                	c.nop	1
    43c8:	0d00                	addi	s0,sp,656
    43ca:	db08                	sw	a0,48(a4)
    43cc:	0008                	.insn	2, 0x0008
    43ce:	1f00                	addi	s0,sp,944
    43d0:	08f1                	addi	a7,a7,28
    43d2:	0000                	unimp
    43d4:	8f15                	sub	a4,a4,a3
    43d6:	0004                	.insn	2, 0x0004
    43d8:	0000                	unimp
    43da:	080d                	addi	a6,a6,3
    43dc:	08e6                	slli	a7,a7,0x19
    43de:	0000                	unimp
    43e0:	080d                	addi	a6,a6,3
    43e2:	01b0                	addi	a2,sp,200
    43e4:	0000                	unimp
    43e6:	081f 0009 1500      	.insn	6, 0x15000009081f
    43ec:	00000047          	fmsub.s	ft0,ft0,ft0,ft0,rne
    43f0:	0d00                	addi	s0,sp,656
    43f2:	0e08                	addi	a0,sp,784
    43f4:	0009                	c.nop	2
    43f6:	0d00                	addi	s0,sp,656
    43f8:	fd08                	sd	a0,56(a0)
    43fa:	0008                	.insn	2, 0x0008
    43fc:	0800                	addi	s0,sp,16
    43fe:	0676                	slli	a2,a2,0x1d
    4400:	0000                	unimp
    4402:	0924                	addi	s1,sp,152
    4404:	0000                	unimp
    4406:	4009                	c.li	zero,2
    4408:	0000                	unimp
    440a:	0200                	addi	s0,sp,256
    440c:	2000                	fld	fs0,0(s0)
    440e:	088e                	slli	a7,a7,0x3
    4410:	0000                	unimp
    4412:	0706                	slli	a4,a4,0x1
    4414:	048f1703          	lh	a4,72(t5)
    4418:	0000                	unimp
    441a:	8720                	.insn	2, 0x8720
    441c:	0008                	.insn	2, 0x0008
    441e:	0600                	addi	s0,sp,768
    4420:	0308                	addi	a0,sp,384
    4422:	951d                	srai	a0,a0,0x27
    4424:	0004                	.insn	2, 0x0004
    4426:	0800                	addi	s0,sp,16
    4428:	060d                	addi	a2,a2,3
    442a:	0000                	unimp
    442c:	0949                	addi	s2,s2,18 # 71030 <__heap_size+0x51030>
    442e:	0000                	unimp
    4430:	0021                	c.nop	8
    4432:	3e0e                	fld	ft8,224(sp)
    4434:	0009                	c.nop	2
    4436:	2200                	fld	fs0,0(a2)
    4438:	09ed                	addi	s3,s3,27
    443a:	0000                	unimp
    443c:	49241407          	.insn	4, 0x49241407
    4440:	0009                	c.nop	2
    4442:	2200                	fld	fs0,0(a2)
    4444:	0a09                	addi	s4,s4,2 # 642d8 <__heap_size+0x442d8>
    4446:	0000                	unimp
    4448:	47151507          	.insn	4, 0x47151507
    444c:	0000                	unimp
    444e:	0200                	addi	s0,sp,256
    4450:	0000050b          	.insn	4, 0x050b
    4454:	3c08                	fld	fa0,56(s0)
    4456:	7f14                	ld	a3,56(a4)
    4458:	0000                	unimp
    445a:	2300                	fld	fs0,0(a4)
    445c:	0966                	slli	s2,s2,0x19
    445e:	0000                	unimp
    4460:	6822                	ld	a6,8(sp)
    4462:	0004                	.insn	2, 0x0004
    4464:	0900                	addi	s0,sp,144
    4466:	1a06                	slli	s4,s4,0x21
    4468:	0972                	slli	s2,s2,0x1c
    446a:	0000                	unimp
    446c:	0022                	c.slli	zero,0x8
    446e:	0005                	c.nop	1
    4470:	0900                	addi	s0,sp,144
    4472:	09721a07          	.insn	4, 0x09721a07
    4476:	0000                	unimp
    4478:	3e08                	fld	fa0,56(a2)
    447a:	0001                	nop
    447c:	9a00                	.insn	2, 0x9a00
    447e:	0009                	c.nop	2
    4480:	2100                	fld	fs0,0(a0)
    4482:	2200                	fld	fs0,0(a2)
    4484:	0a4c                	addi	a1,sp,276
    4486:	0000                	unimp
    4488:	0601                	addi	a2,a2,0
    448a:	8f0d                	sub	a4,a4,a1
    448c:	0009                	c.nop	2
    448e:	2400                	fld	fs0,8(s0)
    4490:	00000a3f 380e0701 	.insn	8, 0x380e070100000a3f
    4498:	0001                	nop
    449a:	0900                	addi	s0,sp,144
    449c:	002b5003          	lhu	zero,2(s6) # 652bc <__heap_size+0x452bc>
    44a0:	0080                	addi	s0,sp,64
    44a2:	0000                	unimp
    44a4:	2500                	fld	fs0,8(a0)
    44a6:	0a7c                	addi	a5,sp,284
    44a8:	0000                	unimp
    44aa:	0901                	addi	s2,s2,0
    44ac:	00013607          	fld	fa2,0(sp) # 6a23c <__heap_size+0x4a23c>
    44b0:	8000                	.insn	2, 0x8000
    44b2:	0022                	c.slli	zero,0x8
    44b4:	0080                	addi	s0,sp,64
    44b6:	0000                	unimp
    44b8:	3a00                	fld	fs0,48(a2)
    44ba:	0000                	unimp
    44bc:	0000                	unimp
    44be:	0000                	unimp
    44c0:	0100                	addi	s0,sp,128
    44c2:	289c                	fld	fa5,16(s1)
    44c4:	000a                	c.slli	zero,0x2
    44c6:	2600                	fld	fs0,8(a2)
    44c8:	0a51                	addi	s4,s4,20
    44ca:	0000                	unimp
    44cc:	0901                	addi	s2,s2,0
    44ce:	00002d17          	auipc	s10,0x2
    44d2:	2a00                	fld	fs0,16(a2)
    44d4:	0004                	.insn	2, 0x0004
    44d6:	2200                	fld	fs0,0(a2)
    44d8:	0a46                	slli	s4,s4,0x11
    44da:	0000                	unimp
    44dc:	0b01                	addi	s6,s6,0
    44de:	8f11                	sub	a4,a4,a2
    44e0:	0009                	c.nop	2
    44e2:	2700                	fld	fs0,8(a4)
    44e4:	0a75                	addi	s4,s4,29
    44e6:	0000                	unimp
    44e8:	0c01                	addi	s8,s8,0 # 90290 <__heap_size+0x70290>
    44ea:	0001380b          	.insn	4, 0x0001380b
    44ee:	6300                	ld	s0,0(a4)
    44f0:	0004                	.insn	2, 0x0004
    44f2:	2700                	fld	fs0,8(a4)
    44f4:	0a6e                	slli	s4,s4,0x1b
    44f6:	0000                	unimp
    44f8:	0d01                	addi	s10,s10,0 # 64ce <__stack_size_min+0x4ce>
    44fa:	0001380b          	.insn	4, 0x0001380b
    44fe:	b400                	fsd	fs0,40(s0)
    4500:	0004                	.insn	2, 0x0004
    4502:	2800                	fld	fs0,16(s0)
    4504:	22ac                	fld	fa1,64(a3)
    4506:	8000                	.insn	2, 0x8000
    4508:	0000                	unimp
    450a:	0000                	unimp
    450c:	0a28                	addi	a0,sp,280
    450e:	0000                	unimp
    4510:	2900                	fld	fs0,16(a0)
    4512:	09e5                	addi	s3,s3,25
    4514:	0000                	unimp
    4516:	09e5                	addi	s3,s3,25
    4518:	0000                	unimp
    451a:	000d0f07          	.insn	4, 0x000d0f07
    451e:	0a85                	addi	s5,s5,1
    4520:	0000                	unimp
    4522:	0004                	.insn	2, 0x0004
    4524:	00001133          	sll	sp,zero,zero
    4528:	0108                	addi	a0,sp,128
    452a:	0000048b          	.insn	4, 0x048b
    452e:	820c                	.insn	2, 0x820c
    4530:	000a                	c.slli	zero,0x2
    4532:	0f00                	addi	s0,sp,912
    4534:	0004                	.insn	2, 0x0004
    4536:	ba00                	fsd	fs0,48(a2)
    4538:	0022                	c.slli	zero,0x8
    453a:	0080                	addi	s0,sp,64
    453c:	0000                	unimp
    453e:	0800                	addi	s0,sp,16
    4540:	0000                	unimp
    4542:	0000                	unimp
    4544:	0000                	unimp
    4546:	5100                	lw	s0,32(a0)
    4548:	0021                	c.nop	8
    454a:	0200                	addi	s0,sp,256
    454c:	0504                	addi	s1,sp,640
    454e:	6e69                	lui	t3,0x1a
    4550:	0074                	addi	a3,sp,12
    4552:	82050803          	lb	a6,-2016(a0) # 7fa86 <__heap_size+0x5fa86>
    4556:	0000                	unimp
    4558:	0400                	addi	s0,sp,512
    455a:	08c5                	addi	a7,a7,17
    455c:	0000                	unimp
    455e:	d802                	sw	zero,48(sp)
    4560:	00004717          	auipc	a4,0x4
    4564:	0300                	addi	s0,sp,384
    4566:	0708                	addi	a0,sp,896
    4568:	0040                	addi	s0,sp,4
    456a:	0000                	unimp
    456c:	7d050803          	lb	a6,2000(a0)
    4570:	0000                	unimp
    4572:	0300                	addi	s0,sp,384
    4574:	0410                	addi	a2,sp,512
    4576:	019a                	slli	gp,gp,0x6
    4578:	0000                	unimp
    457a:	de060103          	lb	sp,-544(a2)
    457e:	0001                	nop
    4580:	0300                	addi	s0,sp,384
    4582:	0801                	addi	a6,a6,0
    4584:	01dc                	addi	a5,sp,196
    4586:	0000                	unimp
    4588:	86050203          	lb	tp,-1952(a0)
    458c:	0002                	c.slli64	zero
    458e:	0300                	addi	s0,sp,384
    4590:	0702                	c.slli64	a4
    4592:	0129                	addi	sp,sp,10
    4594:	0000                	unimp
    4596:	45070403          	lb	s0,1104(a4) # 89b0 <__stack_size+0x9b0>
    459a:	0000                	unimp
    459c:	0400                	addi	s0,sp,512
    459e:	0509                	addi	a0,a0,2
    45a0:	0000                	unimp
    45a2:	47196903          	lwu	s2,1137(s2)
    45a6:	0000                	unimp
    45a8:	0400                	addi	s0,sp,512
    45aa:	0290                	addi	a2,sp,320
    45ac:	0000                	unimp
    45ae:	471ae803          	lwu	a6,1137(s5)
    45b2:	0000                	unimp
    45b4:	0400                	addi	s0,sp,512
    45b6:	0760                	addi	s0,sp,908
    45b8:	0000                	unimp
    45ba:	0c04                	addi	s1,sp,528
    45bc:	2d0d                	addiw	s10,s10,3
    45be:	0000                	unimp
    45c0:	0400                	addi	s0,sp,512
    45c2:	0a14                	addi	a3,sp,272
    45c4:	0000                	unimp
    45c6:	2c05                	addiw	s8,s8,1
    45c8:	340e                	fld	fs0,224(sp)
    45ca:	0000                	unimp
    45cc:	0400                	addi	s0,sp,512
    45ce:	0832                	slli	a6,a6,0xc
    45d0:	0000                	unimp
    45d2:	7205                	lui	tp,0xfffe1
    45d4:	340e                	fld	fs0,224(sp)
    45d6:	0000                	unimp
    45d8:	0400                	addi	s0,sp,512
    45da:	000008c3          	fmadd.s	fa7,ft0,ft0,ft0,rne
    45de:	9105                	srli	a0,a0,0x21
    45e0:	00003417          	auipc	s0,0x3
    45e4:	0500                	addi	s0,sp,640
    45e6:	06ee                	slli	a3,a3,0x1b
    45e8:	0000                	unimp
    45ea:	6502                	ld	a0,0(sp)
    45ec:	1701                	addi	a4,a4,-32
    45ee:	0078                	addi	a4,sp,12
    45f0:	0000                	unimp
    45f2:	0406                	slli	s0,s0,0x1
    45f4:	a605                	j	4914 <__stack_align+0x4904>
    45f6:	0000f603          	.insn	4, 0xf603
    45fa:	0700                	addi	s0,sp,896
    45fc:	06e1                	addi	a3,a3,24 # 18 <__stack_align+0x8>
    45fe:	0000                	unimp
    4600:	a805                	j	4630 <__stack_align+0x4620>
    4602:	c70c                	sw	a1,8(a4)
    4604:	0000                	unimp
    4606:	0700                	addi	s0,sp,896
    4608:	0685                	addi	a3,a3,1
    460a:	0000                	unimp
    460c:	a905                	j	4a3c <__stack_align+0x4a2c>
    460e:	0000f613          	andi	a2,ra,0
    4612:	0000                	unimp
    4614:	6308                	ld	a0,0(a4)
    4616:	0000                	unimp
    4618:	0600                	addi	s0,sp,768
    461a:	0001                	nop
    461c:	0900                	addi	s0,sp,144
    461e:	00000047          	fmsub.s	ft0,ft0,ft0,ft0,rne
    4622:	080a0003          	lb	zero,128(s4)
    4626:	a305                	j	4b46 <__stack_align+0x4b36>
    4628:	2a09                	addiw	s4,s4,2
    462a:	0001                	nop
    462c:	0b00                	addi	s0,sp,400
    462e:	081c                	addi	a5,sp,16
    4630:	0000                	unimp
    4632:	a505                	j	4c52 <__stack_align+0x4c42>
    4634:	00002d07          	flw	fs10,0(zero) # 0 <__boot_hart>
    4638:	0000                	unimp
    463a:	0008240b          	.insn	4, 0x0008240b
    463e:	0500                	addi	s0,sp,640
    4640:	05aa                	slli	a1,a1,0xa
    4642:	00d4                	addi	a3,sp,68
    4644:	0000                	unimp
    4646:	0004                	.insn	2, 0x0004
    4648:	9e04                	.insn	2, 0x9e04
    464a:	05000007          	.insn	4, 0x05000007
    464e:	010603ab          	.insn	4, 0x010603ab
    4652:	0000                	unimp
    4654:	4804                	lw	s1,16(s0)
    4656:	0006                	c.slli	zero,0x1
    4658:	0500                	addi	s0,sp,640
    465a:	00971baf          	.insn	4, 0x00971baf
    465e:	0000                	unimp
    4660:	080c                	addi	a1,sp,16
    4662:	080d                	addi	a6,a6,3
    4664:	014a                	slli	sp,sp,0x12
    4666:	0000                	unimp
    4668:	e5080103          	lb	sp,-432(a6)
    466c:	0001                	nop
    466e:	0e00                	addi	s0,sp,784
    4670:	014a                	slli	sp,sp,0x12
    4672:	0000                	unimp
    4674:	7204                	ld	s1,32(a2)
    4676:	0008                	.insn	2, 0x0008
    4678:	0600                	addi	s0,sp,768
    467a:	1919                	addi	s2,s2,-26
    467c:	0078                	addi	a4,sp,12
    467e:	0000                	unimp
    4680:	0006590f          	.insn	4, 0x0006590f
    4684:	2000                	fld	fs0,0(s0)
    4686:	2f06                	fld	ft10,64(sp)
    4688:	bc08                	fsd	fa0,56(s0)
    468a:	0001                	nop
    468c:	0b00                	addi	s0,sp,400
    468e:	000007bf bc133106 	.insn	8, 0xbc133106000007bf
    4696:	0001                	nop
    4698:	0000                	unimp
    469a:	5f10                	lw	a2,56(a4)
    469c:	3206006b          	.insn	4, 0x3206006b
    46a0:	00002d07          	flw	fs10,0(zero) # 0 <__boot_hart>
    46a4:	0800                	addi	s0,sp,16
    46a6:	0008070b          	.insn	4, 0x0008070b
    46aa:	0600                	addi	s0,sp,768
    46ac:	0b32                	slli	s6,s6,0xc
    46ae:	002d                	c.nop	11
    46b0:	0000                	unimp
    46b2:	0b0c                	addi	a1,sp,400
    46b4:	0642                	slli	a2,a2,0x10
    46b6:	0000                	unimp
    46b8:	3206                	fld	ft4,96(sp)
    46ba:	2d14                	fld	fa3,24(a0)
    46bc:	0000                	unimp
    46be:	1000                	addi	s0,sp,32
    46c0:	0008ae0b          	.insn	4, 0x0008ae0b
    46c4:	0600                	addi	s0,sp,768
    46c6:	1b32                	slli	s6,s6,0x2c
    46c8:	002d                	c.nop	11
    46ca:	0000                	unimp
    46cc:	1014                	addi	a3,sp,32
    46ce:	785f 0600 0b33      	.insn	6, 0x0b330600785f
    46d4:	01c2                	slli	gp,gp,0x10
    46d6:	0000                	unimp
    46d8:	0018                	.insn	2, 0x0018
    46da:	080d                	addi	a6,a6,3
    46dc:	0162                	slli	sp,sp,0x18
    46de:	0000                	unimp
    46e0:	5608                	lw	a0,40(a2)
    46e2:	0001                	nop
    46e4:	d200                	sw	s0,32(a2)
    46e6:	0001                	nop
    46e8:	0900                	addi	s0,sp,144
    46ea:	00000047          	fmsub.s	ft0,ft0,ft0,ft0,rne
    46ee:	0000                	unimp
    46f0:	0006800f          	.insn	4, 0x0006800f
    46f4:	2400                	fld	fs0,8(s0)
    46f6:	3706                	fld	fa4,96(sp)
    46f8:	5508                	lw	a0,40(a0)
    46fa:	0002                	c.slli64	zero
    46fc:	0b00                	addi	s0,sp,400
    46fe:	0594                	addi	a3,sp,704
    4700:	0000                	unimp
    4702:	3906                	fld	fs2,96(sp)
    4704:	2d09                	addiw	s10,s10,2
    4706:	0000                	unimp
    4708:	0000                	unimp
    470a:	00083a0b          	.insn	4, 0x00083a0b
    470e:	0600                	addi	s0,sp,768
    4710:	093a                	slli	s2,s2,0xe
    4712:	002d                	c.nop	11
    4714:	0000                	unimp
    4716:	0b04                	addi	s1,sp,400
    4718:	05a9                	addi	a1,a1,10
    471a:	0000                	unimp
    471c:	3b06                	fld	fs6,96(sp)
    471e:	2d09                	addiw	s10,s10,2
    4720:	0000                	unimp
    4722:	0800                	addi	s0,sp,16
    4724:	0009320b          	.insn	4, 0x0009320b
    4728:	0600                	addi	s0,sp,768
    472a:	093c                	addi	a5,sp,152
    472c:	002d                	c.nop	11
    472e:	0000                	unimp
    4730:	0b0c                	addi	a1,sp,400
    4732:	072c                	addi	a1,sp,904
    4734:	0000                	unimp
    4736:	3d06                	fld	fs10,96(sp)
    4738:	2d09                	addiw	s10,s10,2
    473a:	0000                	unimp
    473c:	1000                	addi	s0,sp,32
    473e:	0007040b          	.insn	4, 0x0007040b
    4742:	0600                	addi	s0,sp,768
    4744:	093e                	slli	s2,s2,0xf
    4746:	002d                	c.nop	11
    4748:	0000                	unimp
    474a:	0b14                	addi	a3,sp,400
    474c:	000008b3          	add	a7,zero,zero
    4750:	3f06                	fld	ft10,96(sp)
    4752:	2d09                	addiw	s10,s10,2
    4754:	0000                	unimp
    4756:	1800                	addi	s0,sp,48
    4758:	0007800b          	.insn	4, 0x0007800b
    475c:	0600                	addi	s0,sp,768
    475e:	0940                	addi	s0,sp,148
    4760:	002d                	c.nop	11
    4762:	0000                	unimp
    4764:	0b1c                	addi	a5,sp,400
    4766:	08f9                	addi	a7,a7,30
    4768:	0000                	unimp
    476a:	4106                	lw	sp,64(sp)
    476c:	2d09                	addiw	s10,s10,2
    476e:	0000                	unimp
    4770:	2000                	fld	fs0,0(s0)
    4772:	1100                	addi	s0,sp,160
    4774:	05b8                	addi	a4,sp,712
    4776:	0000                	unimp
    4778:	0208                	addi	a0,sp,256
    477a:	4a06                	lw	s4,64(sp)
    477c:	9b08                	.insn	2, 0x9b08
    477e:	0002                	c.slli64	zero
    4780:	0b00                	addi	s0,sp,400
    4782:	0629                	addi	a2,a2,10
    4784:	0000                	unimp
    4786:	4b06                	lw	s6,64(sp)
    4788:	9b0a                	add	s6,s6,sp
    478a:	0002                	c.slli64	zero
    478c:	0000                	unimp
    478e:	1e12                	slli	t3,t3,0x24
    4790:	0005                	c.nop	1
    4792:	0600                	addi	s0,sp,768
    4794:	094c                	addi	a1,sp,148
    4796:	0000029b          	sext.w	t0,zero
    479a:	0100                	addi	s0,sp,128
    479c:	6412                	ld	s0,256(sp)
    479e:	0008                	.insn	2, 0x0008
    47a0:	0600                	addi	s0,sp,768
    47a2:	0a4e                	slli	s4,s4,0x13
    47a4:	0156                	slli	sp,sp,0x15
    47a6:	0000                	unimp
    47a8:	0200                	addi	s0,sp,256
    47aa:	dd12                	sw	tp,184(sp)
    47ac:	0005                	c.nop	1
    47ae:	0600                	addi	s0,sp,768
    47b0:	0a51                	addi	s4,s4,20
    47b2:	0156                	slli	sp,sp,0x15
    47b4:	0000                	unimp
    47b6:	0204                	addi	s1,sp,256
    47b8:	0800                	addi	s0,sp,16
    47ba:	0142                	slli	sp,sp,0x10
    47bc:	0000                	unimp
    47be:	000002ab          	.insn	4, 0x02ab
    47c2:	4709                	li	a4,2
    47c4:	0000                	unimp
    47c6:	1f00                	addi	s0,sp,944
    47c8:	1100                	addi	s0,sp,160
    47ca:	0735                	addi	a4,a4,13
    47cc:	0000                	unimp
    47ce:	0318                	addi	a4,sp,384
    47d0:	5d06                	lw	s10,96(sp)
    47d2:	ef08                	sd	a0,24(a4)
    47d4:	0002                	c.slli64	zero
    47d6:	0b00                	addi	s0,sp,400
    47d8:	000007bf ef125e06 	.insn	8, 0xef125e06000007bf
    47e0:	0002                	c.slli64	zero
    47e2:	0000                	unimp
    47e4:	0007d70b          	.insn	4, 0x0007d70b
    47e8:	0600                	addi	s0,sp,768
    47ea:	065f 002d 0000      	.insn	6, 0x002d065f
    47f0:	0b08                	addi	a0,sp,400
    47f2:	063d                	addi	a2,a2,15
    47f4:	0000                	unimp
    47f6:	6106                	ld	sp,64(sp)
    47f8:	f509                	bnez	a0,4702 <__stack_align+0x46f2>
    47fa:	0002                	c.slli64	zero
    47fc:	1000                	addi	s0,sp,32
    47fe:	b812                	fsd	ft4,48(sp)
    4800:	0005                	c.nop	1
    4802:	0600                	addi	s0,sp,768
    4804:	1e62                	slli	t3,t3,0x38
    4806:	0255                	addi	tp,tp,21 # fffffffffffe1015 <__heap_end+0xffffffff7ffbe015>
    4808:	0000                	unimp
    480a:	0110                	addi	a2,sp,128
    480c:	0d00                	addi	s0,sp,656
    480e:	ab08                	fsd	fa0,16(a4)
    4810:	0002                	c.slli64	zero
    4812:	0800                	addi	s0,sp,16
    4814:	0305                	addi	t1,t1,1 # 582e5 <__heap_size+0x382e5>
    4816:	0000                	unimp
    4818:	0305                	addi	t1,t1,1
    481a:	0000                	unimp
    481c:	4709                	li	a4,2
    481e:	0000                	unimp
    4820:	1f00                	addi	s0,sp,944
    4822:	0d00                	addi	s0,sp,656
    4824:	0b08                	addi	a0,sp,400
    4826:	13000003          	lb	zero,304(zero) # 130 <__stack_align+0x120>
    482a:	00078a0f          	.insn	4, 0x00078a0f
    482e:	1000                	addi	s0,sp,32
    4830:	7506                	ld	a0,96(sp)
    4832:	3408                	fld	fa0,40(s0)
    4834:	0b000003          	lb	zero,176(zero) # b0 <__stack_align+0xa0>
    4838:	000005a3          	sb	zero,11(zero) # b <__boot_hart+0xb>
    483c:	7606                	ld	a2,96(sp)
    483e:	3411                	addiw	s0,s0,-28 # 75c4 <__stack_size_min+0x15c4>
    4840:	00000003          	lb	zero,0(zero) # 0 <__boot_hart>
    4844:	0005f30b          	.insn	4, 0x0005f30b
    4848:	0600                	addi	s0,sp,768
    484a:	002d0677          	.insn	4, 0x002d0677
    484e:	0000                	unimp
    4850:	0008                	.insn	2, 0x0008
    4852:	080d                	addi	a6,a6,3
    4854:	00000063          	beqz	zero,4854 <__stack_align+0x4844>
    4858:	0007a90f          	.insn	4, 0x0007a90f
    485c:	b000                	fsd	fs0,32(s0)
    485e:	b506                	fsd	ft1,168(sp)
    4860:	7d08                	ld	a0,56(a0)
    4862:	0004                	.insn	2, 0x0004
    4864:	1000                	addi	s0,sp,32
    4866:	705f 0600 12b6      	.insn	6, 0x12b60600705f
    486c:	0334                	addi	a3,sp,392
    486e:	0000                	unimp
    4870:	1000                	addi	s0,sp,32
    4872:	725f 0600 07b7      	.insn	6, 0x07b70600725f
    4878:	002d                	c.nop	11
    487a:	0000                	unimp
    487c:	1008                	addi	a0,sp,32
    487e:	775f 0600 07b8      	.insn	6, 0x07b80600775f
    4884:	002d                	c.nop	11
    4886:	0000                	unimp
    4888:	0b0c                	addi	a1,sp,400
    488a:	05d6                	slli	a1,a1,0x15
    488c:	0000                	unimp
    488e:	b906                	fsd	ft1,176(sp)
    4890:	6a09                	lui	s4,0x2
    4892:	0000                	unimp
    4894:	1000                	addi	s0,sp,32
    4896:	00069c0b          	.insn	4, 0x00069c0b
    489a:	0600                	addi	s0,sp,768
    489c:	09ba                	slli	s3,s3,0xe
    489e:	006a                	c.slli	zero,0x1a
    48a0:	0000                	unimp
    48a2:	1012                	c.slli	zero,0x24
    48a4:	625f 0066 bb06      	.insn	6, 0xbb060066625f
    48aa:	0c11                	addi	s8,s8,4
    48ac:	18000003          	lb	zero,384(zero) # 180 <__stack_align+0x170>
    48b0:	0005630b          	.insn	4, 0x0005630b
    48b4:	0600                	addi	s0,sp,768
    48b6:	07bc                	addi	a5,sp,968
    48b8:	002d                	c.nop	11
    48ba:	0000                	unimp
    48bc:	0b28                	addi	a0,sp,408
    48be:	05c6                	slli	a1,a1,0x11
    48c0:	0000                	unimp
    48c2:	c306                	sw	ra,132(sp)
    48c4:	420a                	lw	tp,128(sp)
    48c6:	0001                	nop
    48c8:	3000                	fld	fs0,32(s0)
    48ca:	0006700b          	.insn	4, 0x0006700b
    48ce:	0600                	addi	s0,sp,768
    48d0:	1dc5                	addi	s11,s11,-15
    48d2:	000005ef          	jal	a1,48d2 <__stack_align+0x48c2>
    48d6:	0b38                	addi	a4,sp,408
    48d8:	06fd                	addi	a3,a3,31
    48da:	0000                	unimp
    48dc:	c706                	sw	ra,140(sp)
    48de:	1e1d                	addi	t3,t3,-25 # 19fe7 <__stack_size+0x11fe7>
    48e0:	0006                	c.slli	zero,0x1
    48e2:	4000                	lw	s0,0(s0)
    48e4:	00082c0b          	.insn	4, 0x00082c0b
    48e8:	0600                	addi	s0,sp,768
    48ea:	0dca                	slli	s11,s11,0x12
    48ec:	0642                	slli	a2,a2,0x10
    48ee:	0000                	unimp
    48f0:	0b48                	addi	a0,sp,404
    48f2:	00000913          	li	s2,0
    48f6:	cb06                	sw	ra,148(sp)
    48f8:	5c09                	li	s8,-30
    48fa:	0006                	c.slli	zero,0x1
    48fc:	5000                	lw	s0,32(s0)
    48fe:	5f10                	lw	a2,56(a4)
    4900:	6275                	lui	tp,0x1d
    4902:	0600                	addi	s0,sp,768
    4904:	11ce                	slli	gp,gp,0x33
    4906:	030c                	addi	a1,sp,384
    4908:	0000                	unimp
    490a:	1058                	addi	a4,sp,36
    490c:	755f 0070 cf06      	.insn	6, 0xcf060070755f
    4912:	3412                	fld	fs0,288(sp)
    4914:	68000003          	lb	zero,1664(zero) # 680 <__stack_align+0x670>
    4918:	5f10                	lw	a2,56(a4)
    491a:	7275                	lui	tp,0xffffd
    491c:	0600                	addi	s0,sp,768
    491e:	07d0                	addi	a2,sp,964
    4920:	002d                	c.nop	11
    4922:	0000                	unimp
    4924:	0b70                	addi	a2,sp,412
    4926:	059d                	addi	a1,a1,7
    4928:	0000                	unimp
    492a:	d306                	sw	ra,164(sp)
    492c:	6211                	lui	tp,0x4
    492e:	0006                	c.slli	zero,0x1
    4930:	7400                	ld	s0,40(s0)
    4932:	0008eb0b          	.insn	4, 0x0008eb0b
    4936:	0600                	addi	s0,sp,768
    4938:	11d4                	addi	a3,sp,228
    493a:	0672                	slli	a2,a2,0x1c
    493c:	0000                	unimp
    493e:	6c5f1077          	.insn	4, 0x6c5f1077
    4942:	0062                	c.slli	zero,0x18
    4944:	d706                	sw	ra,172(sp)
    4946:	0c11                	addi	s8,s8,4
    4948:	78000003          	lb	zero,1920(zero) # 780 <__stack_align+0x770>
    494c:	0005f90b          	.insn	4, 0x0005f90b
    4950:	0600                	addi	s0,sp,768
    4952:	07da                	slli	a5,a5,0x16
    4954:	002d                	c.nop	11
    4956:	0000                	unimp
    4958:	0b88                	addi	a0,sp,464
    495a:	071d                	addi	a4,a4,7
    495c:	0000                	unimp
    495e:	db06                	sw	ra,180(sp)
    4960:	a30a                	fsd	ft2,384(sp)
    4962:	0000                	unimp
    4964:	9000                	.insn	2, 0x9000
    4966:	00053d0b          	.insn	4, 0x00053d0b
    496a:	0600                	addi	s0,sp,768
    496c:	12de                	slli	t0,t0,0x37
    496e:	0000049b          	sext.w	s1,zero
    4972:	0b98                	addi	a4,sp,464
    4974:	097e                	slli	s2,s2,0x1f
    4976:	0000                	unimp
    4978:	e206                	sd	ra,256(sp)
    497a:	360c                	fld	fa1,40(a2)
    497c:	0001                	nop
    497e:	a000                	fsd	fs0,0(s0)
    4980:	0007b10b          	.insn	4, 0x0007b10b
    4984:	0600                	addi	s0,sp,768
    4986:	0ee4                	addi	s1,sp,860
    4988:	012a                	slli	sp,sp,0xa
    498a:	0000                	unimp
    498c:	0ba4                	addi	s1,sp,472
    498e:	06f5                	addi	a3,a3,29
    4990:	0000                	unimp
    4992:	e506                	sd	ra,136(sp)
    4994:	2d09                	addiw	s10,s10,2
    4996:	0000                	unimp
    4998:	ac00                	fsd	fs0,24(s0)
    499a:	1400                	addi	s0,sp,544
    499c:	000000bb          	addw	ra,zero,zero
    49a0:	0000049b          	sext.w	s1,zero
    49a4:	9b15                	andi	a4,a4,-27
    49a6:	0004                	.insn	2, 0x0004
    49a8:	1500                	addi	s0,sp,672
    49aa:	0142                	slli	sp,sp,0x10
    49ac:	0000                	unimp
    49ae:	4415                	li	s0,5
    49b0:	0001                	nop
    49b2:	1500                	addi	s0,sp,672
    49b4:	002d                	c.nop	11
    49b6:	0000                	unimp
    49b8:	0d00                	addi	s0,sp,656
    49ba:	a608                	fsd	fa0,8(a2)
    49bc:	0004                	.insn	2, 0x0004
    49be:	0e00                	addi	s0,sp,784
    49c0:	0000049b          	sext.w	s1,zero
    49c4:	0f16                	slli	t5,t5,0x5
    49c6:	0008                	.insn	2, 0x0008
    49c8:	4800                	lw	s0,16(s0)
    49ca:	02390607          	.insn	4, 0x02390607
    49ce:	ef08                	sd	a0,24(a4)
    49d0:	0005                	c.nop	1
    49d2:	1700                	addi	s0,sp,928
    49d4:	09e6                	slli	s3,s3,0x19
    49d6:	0000                	unimp
    49d8:	3b06                	fld	fs6,96(sp)
    49da:	0702                	c.slli64	a4
    49dc:	002d                	c.nop	11
    49de:	0000                	unimp
    49e0:	1700                	addi	s0,sp,928
    49e2:	05e5                	addi	a1,a1,25
    49e4:	0000                	unimp
    49e6:	4006                	.insn	2, 0x4006
    49e8:	0b02                	c.slli64	s6
    49ea:	06ce                	slli	a3,a3,0x13
    49ec:	0000                	unimp
    49ee:	1708                	addi	a0,sp,928
    49f0:	068c                	addi	a1,sp,832
    49f2:	0000                	unimp
    49f4:	4006                	.insn	2, 0x4006
    49f6:	1402                	slli	s0,s0,0x20
    49f8:	06ce                	slli	a3,a3,0x13
    49fa:	0000                	unimp
    49fc:	1710                	addi	a2,sp,928
    49fe:	0651                	addi	a2,a2,20
    4a00:	0000                	unimp
    4a02:	4006                	.insn	2, 0x4006
    4a04:	1e02                	slli	t3,t3,0x20
    4a06:	06ce                	slli	a3,a3,0x13
    4a08:	0000                	unimp
    4a0a:	1718                	addi	a4,sp,928
    4a0c:	07d2                	slli	a5,a5,0x14
    4a0e:	0000                	unimp
    4a10:	4206                	lw	tp,64(sp)
    4a12:	0802                	c.slli64	a6
    4a14:	002d                	c.nop	11
    4a16:	0000                	unimp
    4a18:	1720                	addi	s0,sp,936
    4a1a:	0532                	slli	a0,a0,0xc
    4a1c:	0000                	unimp
    4a1e:	4306                	lw	t1,64(sp)
    4a20:	0802                	c.slli64	a6
    4a22:	000008d7          	.insn	4, 0x08d7
    4a26:	1724                	addi	s1,sp,936
    4a28:	07ee                	slli	a5,a5,0x1b
    4a2a:	0000                	unimp
    4a2c:	4606                	lw	a2,64(sp)
    4a2e:	0702                	c.slli64	a4
    4a30:	002d                	c.nop	11
    4a32:	0000                	unimp
    4a34:	1740                	addi	s0,sp,932
    4a36:	07dc                	addi	a5,sp,964
    4a38:	0000                	unimp
    4a3a:	4706                	lw	a4,64(sp)
    4a3c:	1602                	slli	a2,a2,0x20
    4a3e:	08ec                	addi	a1,sp,92
    4a40:	0000                	unimp
    4a42:	1748                	addi	a0,sp,932
    4a44:	073d                	addi	a4,a4,15
    4a46:	0000                	unimp
    4a48:	4906                	lw	s2,64(sp)
    4a4a:	0702                	c.slli64	a4
    4a4c:	002d                	c.nop	11
    4a4e:	0000                	unimp
    4a50:	1750                	addi	a2,sp,932
    4a52:	07e4                	addi	s1,sp,972
    4a54:	0000                	unimp
    4a56:	4b06                	lw	s6,64(sp)
    4a58:	0a02                	c.slli64	s4
    4a5a:	08fd                	addi	a7,a7,31
    4a5c:	0000                	unimp
    4a5e:	1758                	addi	a4,sp,932
    4a60:	06d9                	addi	a3,a3,22
    4a62:	0000                	unimp
    4a64:	4e06                	lw	t3,64(sp)
    4a66:	1302                	slli	t1,t1,0x20
    4a68:	01bc                	addi	a5,sp,200
    4a6a:	0000                	unimp
    4a6c:	1760                	addi	s0,sp,940
    4a6e:	0676                	slli	a2,a2,0x1d
    4a70:	0000                	unimp
    4a72:	4f06                	lw	t5,64(sp)
    4a74:	0702                	c.slli64	a4
    4a76:	002d                	c.nop	11
    4a78:	0000                	unimp
    4a7a:	1768                	addi	a0,sp,940
    4a7c:	092d                	addi	s2,s2,11
    4a7e:	0000                	unimp
    4a80:	5006                	.insn	2, 0x5006
    4a82:	1302                	slli	t1,t1,0x20
    4a84:	01bc                	addi	a5,sp,200
    4a86:	0000                	unimp
    4a88:	1770                	addi	a2,sp,940
    4a8a:	0748                	addi	a0,sp,900
    4a8c:	0000                	unimp
    4a8e:	5106                	lw	sp,96(sp)
    4a90:	1402                	slli	s0,s0,0x20
    4a92:	00000903          	lb	s2,0(zero) # 0 <__boot_hart>
    4a96:	1778                	addi	a4,sp,940
    4a98:	0694                	addi	a3,sp,832
    4a9a:	0000                	unimp
    4a9c:	5406                	lw	s0,96(sp)
    4a9e:	0702                	c.slli64	a4
    4aa0:	002d                	c.nop	11
    4aa2:	0000                	unimp
    4aa4:	1780                	addi	s0,sp,992
    4aa6:	0602                	c.slli64	a2
    4aa8:	0000                	unimp
    4aaa:	5506                	lw	a0,96(sp)
    4aac:	0902                	c.slli64	s2
    4aae:	0144                	addi	s1,sp,132
    4ab0:	0000                	unimp
    4ab2:	1788                	addi	a0,sp,992
    4ab4:	0772                	slli	a4,a4,0x1c
    4ab6:	0000                	unimp
    4ab8:	7806                	ld	a6,96(sp)
    4aba:	0702                	c.slli64	a4
    4abc:	08b1                	addi	a7,a7,12
    4abe:	0000                	unimp
    4ac0:	1890                	addi	a2,sp,112
    4ac2:	0735                	addi	a4,a4,13
    4ac4:	0000                	unimp
    4ac6:	7c06                	ld	s8,96(sp)
    4ac8:	1302                	slli	t1,t1,0x20
    4aca:	000002ef          	jal	t0,4aca <__stack_align+0x4aba>
    4ace:	01f8                	addi	a4,sp,204
    4ad0:	b718                	fsd	fa4,40(a4)
    4ad2:	0006                	c.slli	zero,0x1
    4ad4:	0600                	addi	s0,sp,768
    4ad6:	027d                	addi	tp,tp,31 # 401f <__stack_align+0x400f>
    4ad8:	ab12                	fsd	ft4,400(sp)
    4ada:	0002                	c.slli64	zero
    4adc:	0000                	unimp
    4ade:	1802                	slli	a6,a6,0x20
    4ae0:	08e1                	addi	a7,a7,24
    4ae2:	0000                	unimp
    4ae4:	8106                	mv	sp,ra
    4ae6:	0c02                	c.slli64	s8
    4ae8:	0914                	addi	a3,sp,144
    4aea:	0000                	unimp
    4aec:	0518                	addi	a4,sp,640
    4aee:	ce18                	sw	a4,24(a2)
    4af0:	0005                	c.nop	1
    4af2:	0600                	addi	s0,sp,768
    4af4:	0286                	slli	t0,t0,0x1
    4af6:	8f10                	.insn	2, 0x8f10
    4af8:	0006                	c.slli	zero,0x1
    4afa:	2000                	fld	fs0,0(s0)
    4afc:	1805                	addi	a6,a6,-31
    4afe:	000005b3          	add	a1,zero,zero
    4b02:	8806                	mv	a6,ra
    4b04:	0a02                	c.slli64	s4
    4b06:	0920                	addi	s0,sp,152
    4b08:	0000                	unimp
    4b0a:	0538                	addi	a4,sp,648
    4b0c:	0d00                	addi	s0,sp,656
    4b0e:	7d08                	ld	a0,56(a0)
    4b10:	0004                	.insn	2, 0x0004
    4b12:	1400                	addi	s0,sp,544
    4b14:	000000bb          	addw	ra,zero,zero
    4b18:	00000613          	li	a2,0
    4b1c:	9b15                	andi	a4,a4,-27
    4b1e:	0004                	.insn	2, 0x0004
    4b20:	1500                	addi	s0,sp,672
    4b22:	0142                	slli	sp,sp,0x10
    4b24:	0000                	unimp
    4b26:	1315                	addi	t1,t1,-27
    4b28:	0006                	c.slli	zero,0x1
    4b2a:	1500                	addi	s0,sp,672
    4b2c:	002d                	c.nop	11
    4b2e:	0000                	unimp
    4b30:	0d00                	addi	s0,sp,656
    4b32:	5108                	lw	a0,32(a0)
    4b34:	0001                	nop
    4b36:	0e00                	addi	s0,sp,784
    4b38:	00000613          	li	a2,0
    4b3c:	080d                	addi	a6,a6,3
    4b3e:	05f5                	addi	a1,a1,29
    4b40:	0000                	unimp
    4b42:	af14                	fsd	fa3,24(a4)
    4b44:	0000                	unimp
    4b46:	4200                	lw	s0,0(a2)
    4b48:	0006                	c.slli	zero,0x1
    4b4a:	1500                	addi	s0,sp,672
    4b4c:	0000049b          	sext.w	s1,zero
    4b50:	4215                	li	tp,5
    4b52:	0001                	nop
    4b54:	1500                	addi	s0,sp,672
    4b56:	000000af          	.insn	4, 0x00af
    4b5a:	2d15                	addiw	s10,s10,5
    4b5c:	0000                	unimp
    4b5e:	0000                	unimp
    4b60:	080d                	addi	a6,a6,3
    4b62:	0624                	addi	s1,sp,776
    4b64:	0000                	unimp
    4b66:	2d14                	fld	fa3,24(a0)
    4b68:	0000                	unimp
    4b6a:	5c00                	lw	s0,56(s0)
    4b6c:	0006                	c.slli	zero,0x1
    4b6e:	1500                	addi	s0,sp,672
    4b70:	0000049b          	sext.w	s1,zero
    4b74:	4215                	li	tp,5
    4b76:	0001                	nop
    4b78:	0000                	unimp
    4b7a:	080d                	addi	a6,a6,3
    4b7c:	0648                	addi	a0,sp,772
    4b7e:	0000                	unimp
    4b80:	6308                	ld	a0,0(a4)
    4b82:	0000                	unimp
    4b84:	7200                	ld	s0,32(a2)
    4b86:	0006                	c.slli	zero,0x1
    4b88:	0900                	addi	s0,sp,144
    4b8a:	00000047          	fmsub.s	ft0,ft0,ft0,ft0,rne
    4b8e:	0002                	c.slli64	zero
    4b90:	6308                	ld	a0,0(a4)
    4b92:	0000                	unimp
    4b94:	8200                	.insn	2, 0x8200
    4b96:	0006                	c.slli	zero,0x1
    4b98:	0900                	addi	s0,sp,144
    4b9a:	00000047          	fmsub.s	ft0,ft0,ft0,ft0,rne
    4b9e:	0000                	unimp
    4ba0:	9705                	srai	a4,a4,0x21
    4ba2:	06000007          	.insn	4, 0x06000007
    4ba6:	011f 3a1a 0003      	.insn	6, 0x00033a1a011f
    4bac:	1900                	addi	s0,sp,176
    4bae:	08bd                	addi	a7,a7,15
    4bb0:	0000                	unimp
    4bb2:	0618                	addi	a4,sp,768
    4bb4:	c8080123          	sb	zero,-894(a6)
    4bb8:	0006                	c.slli	zero,0x1
    4bba:	1700                	addi	s0,sp,928
    4bbc:	000007bf 11012506 	.insn	8, 0x11012506000007bf
    4bc4:	06c8                	addi	a0,sp,836
    4bc6:	0000                	unimp
    4bc8:	1700                	addi	s0,sp,928
    4bca:	06b0                	addi	a2,sp,840
    4bcc:	0000                	unimp
    4bce:	2606                	fld	fa2,64(sp)
    4bd0:	0701                	addi	a4,a4,0
    4bd2:	002d                	c.nop	11
    4bd4:	0000                	unimp
    4bd6:	1708                	addi	a0,sp,928
    4bd8:	0791                	addi	a5,a5,4 # 4164 <__stack_align+0x4154>
    4bda:	0000                	unimp
    4bdc:	2706                	fld	fa4,64(sp)
    4bde:	0b01                	addi	s6,s6,0
    4be0:	06ce                	slli	a3,a3,0x13
    4be2:	0000                	unimp
    4be4:	0010                	.insn	2, 0x0010
    4be6:	080d                	addi	a6,a6,3
    4be8:	0000068f          	.insn	4, 0x068f
    4bec:	080d                	addi	a6,a6,3
    4bee:	0682                	c.slli64	a3
    4bf0:	0000                	unimp
    4bf2:	2a19                	addiw	s4,s4,6 # 2006 <__stack_align+0x1ff6>
    4bf4:	0005                	c.nop	1
    4bf6:	0e00                	addi	s0,sp,784
    4bf8:	3f06                	fld	ft10,96(sp)
    4bfa:	0801                	addi	a6,a6,0
    4bfc:	070d                	addi	a4,a4,3
    4bfe:	0000                	unimp
    4c00:	00081617          	auipc	a2,0x81
    4c04:	0600                	addi	s0,sp,768
    4c06:	0140                	addi	s0,sp,132
    4c08:	0d12                	slli	s10,s10,0x4
    4c0a:	00000007          	.insn	4, 0x0007
    4c0e:	00084317          	auipc	t1,0x84
    4c12:	0600                	addi	s0,sp,768
    4c14:	0141                	addi	sp,sp,16
    4c16:	0d12                	slli	s10,s10,0x4
    4c18:	06000007          	.insn	4, 0x06000007
    4c1c:	00086d17          	auipc	s10,0x86
    4c20:	0600                	addi	s0,sp,768
    4c22:	0142                	slli	sp,sp,0x10
    4c24:	7112                	ld	sp,288(sp)
    4c26:	0000                	unimp
    4c28:	0c00                	addi	s0,sp,528
    4c2a:	0800                	addi	s0,sp,16
    4c2c:	0071                	c.nop	28
    4c2e:	0000                	unimp
    4c30:	071d                	addi	a4,a4,7
    4c32:	0000                	unimp
    4c34:	4709                	li	a4,2
    4c36:	0000                	unimp
    4c38:	0200                	addi	s0,sp,256
    4c3a:	1a00                	addi	s0,sp,304
    4c3c:	06d8                	addi	a4,sp,836
    4c3e:	0259                	addi	tp,tp,22 # 16 <__stack_align+0x6>
    4c40:	00083207          	fld	ft4,0(a6)
    4c44:	1700                	addi	s0,sp,928
    4c46:	08a1                	addi	a7,a7,8
    4c48:	0000                	unimp
    4c4a:	5b06                	lw	s6,96(sp)
    4c4c:	1802                	slli	a6,a6,0x20
    4c4e:	0078                	addi	a4,sp,12
    4c50:	0000                	unimp
    4c52:	1700                	addi	s0,sp,928
    4c54:	00000857          	.insn	4, 0x0857
    4c58:	5c06                	lw	s8,96(sp)
    4c5a:	1202                	slli	tp,tp,0x20
    4c5c:	0144                	addi	s1,sp,132
    4c5e:	0000                	unimp
    4c60:	1708                	addi	a0,sp,928
    4c62:	06cc                	addi	a1,sp,836
    4c64:	0000                	unimp
    4c66:	5d06                	lw	s10,96(sp)
    4c68:	1002                	c.slli	zero,0x20
    4c6a:	0832                	slli	a6,a6,0xc
    4c6c:	0000                	unimp
    4c6e:	1710                	addi	a2,sp,928
    4c70:	0904                	addi	s1,sp,144
    4c72:	0000                	unimp
    4c74:	5e06                	lw	t3,96(sp)
    4c76:	1702                	slli	a4,a4,0x20
    4c78:	01d2                	slli	gp,gp,0x14
    4c7a:	0000                	unimp
    4c7c:	172c                	addi	a1,sp,936
    4c7e:	0661                	addi	a2,a2,24 # 85c18 <__heap_size+0x65c18>
    4c80:	0000                	unimp
    4c82:	5f06                	lw	t5,96(sp)
    4c84:	0f02                	c.slli64	t5
    4c86:	002d                	c.nop	11
    4c88:	0000                	unimp
    4c8a:	1750                	addi	a2,sp,932
    4c8c:	07ba                	slli	a5,a5,0xe
    4c8e:	0000                	unimp
    4c90:	6006                	.insn	2, 0x6006
    4c92:	2c02                	fld	fs8,0(sp)
    4c94:	0842                	slli	a6,a6,0x10
    4c96:	0000                	unimp
    4c98:	1758                	addi	a4,sp,932
    4c9a:	091a                	slli	s2,s2,0x6
    4c9c:	0000                	unimp
    4c9e:	6106                	ld	sp,64(sp)
    4ca0:	1a02                	slli	s4,s4,0x20
    4ca2:	06d4                	addi	a3,sp,836
    4ca4:	0000                	unimp
    4ca6:	1760                	addi	s0,sp,940
    4ca8:	07c5                	addi	a5,a5,17
    4caa:	0000                	unimp
    4cac:	6206                	ld	tp,64(sp)
    4cae:	1602                	slli	a2,a2,0x20
    4cb0:	012a                	slli	sp,sp,0xa
    4cb2:	0000                	unimp
    4cb4:	1770                	addi	a2,sp,940
    4cb6:	091f 0000 6306      	.insn	6, 0x63060000091f
    4cbc:	1602                	slli	a2,a2,0x20
    4cbe:	012a                	slli	sp,sp,0xa
    4cc0:	0000                	unimp
    4cc2:	1778                	addi	a4,sp,940
    4cc4:	0586                	slli	a1,a1,0x1
    4cc6:	0000                	unimp
    4cc8:	6406                	ld	s0,64(sp)
    4cca:	1602                	slli	a2,a2,0x20
    4ccc:	012a                	slli	sp,sp,0xa
    4cce:	0000                	unimp
    4cd0:	1780                	addi	s0,sp,992
    4cd2:	08cc                	addi	a1,sp,84
    4cd4:	0000                	unimp
    4cd6:	6506                	ld	a0,64(sp)
    4cd8:	1002                	c.slli	zero,0x20
    4cda:	0849                	addi	a6,a6,18
    4cdc:	0000                	unimp
    4cde:	1788                	addi	a0,sp,992
    4ce0:	06c0                	addi	s0,sp,836
    4ce2:	0000                	unimp
    4ce4:	6606                	ld	a2,64(sp)
    4ce6:	1002                	c.slli	zero,0x20
    4ce8:	0859                	addi	a6,a6,22
    4cea:	0000                	unimp
    4cec:	1790                	addi	a2,sp,992
    4cee:	087a                	slli	a6,a6,0x1e
    4cf0:	0000                	unimp
    4cf2:	6706                	ld	a4,64(sp)
    4cf4:	0f02                	c.slli64	t5
    4cf6:	002d                	c.nop	11
    4cf8:	0000                	unimp
    4cfa:	17a8                	addi	a0,sp,1000
    4cfc:	0000061b          	sext.w	a2,zero
    4d00:	6806                	ld	a6,64(sp)
    4d02:	1602                	slli	a2,a2,0x20
    4d04:	012a                	slli	sp,sp,0xa
    4d06:	0000                	unimp
    4d08:	17ac                	addi	a1,sp,1000
    4d0a:	00000577          	.insn	4, 0x0577
    4d0e:	6906                	ld	s2,64(sp)
    4d10:	1602                	slli	a2,a2,0x20
    4d12:	012a                	slli	sp,sp,0xa
    4d14:	0000                	unimp
    4d16:	17b4                	addi	a3,sp,1000
    4d18:	060a                	slli	a2,a2,0x2
    4d1a:	0000                	unimp
    4d1c:	6a06                	ld	s4,64(sp)
    4d1e:	1602                	slli	a2,a2,0x20
    4d20:	012a                	slli	sp,sp,0xa
    4d22:	0000                	unimp
    4d24:	17bc                	addi	a5,sp,1000
    4d26:	00000543          	fmadd.s	fa0,ft0,ft0,ft0,rne
    4d2a:	6b06                	ld	s6,64(sp)
    4d2c:	1602                	slli	a2,a2,0x20
    4d2e:	012a                	slli	sp,sp,0xa
    4d30:	0000                	unimp
    4d32:	17c4                	addi	s1,sp,996
    4d34:	0552                	slli	a0,a0,0x14
    4d36:	0000                	unimp
    4d38:	6c06                	ld	s8,64(sp)
    4d3a:	1602                	slli	a2,a2,0x20
    4d3c:	012a                	slli	sp,sp,0xa
    4d3e:	0000                	unimp
    4d40:	17cc                	addi	a1,sp,996
    4d42:	00000777          	.insn	4, 0x0777
    4d46:	6d06                	ld	s10,64(sp)
    4d48:	0802                	c.slli64	a6
    4d4a:	002d                	c.nop	11
    4d4c:	0000                	unimp
    4d4e:	00d4                	addi	a3,sp,68
    4d50:	4a08                	lw	a0,16(a2)
    4d52:	0001                	nop
    4d54:	4200                	lw	s0,0(a2)
    4d56:	0008                	.insn	2, 0x0008
    4d58:	0900                	addi	s0,sp,144
    4d5a:	00000047          	fmsub.s	ft0,ft0,ft0,ft0,rne
    4d5e:	0019                	c.nop	6
    4d60:	3b070803          	lb	a6,944(a4)
    4d64:	0000                	unimp
    4d66:	0800                	addi	s0,sp,16
    4d68:	014a                	slli	sp,sp,0x12
    4d6a:	0000                	unimp
    4d6c:	0859                	addi	a6,a6,22
    4d6e:	0000                	unimp
    4d70:	4709                	li	a4,2
    4d72:	0000                	unimp
    4d74:	0700                	addi	s0,sp,896
    4d76:	0800                	addi	s0,sp,16
    4d78:	014a                	slli	sp,sp,0x12
    4d7a:	0000                	unimp
    4d7c:	0869                	addi	a6,a6,26
    4d7e:	0000                	unimp
    4d80:	4709                	li	a4,2
    4d82:	0000                	unimp
    4d84:	1700                	addi	s0,sp,928
    4d86:	1b00                	addi	s0,sp,432
    4d88:	0168                	addi	a0,sp,140
    4d8a:	7206                	ld	tp,96(sp)
    4d8c:	0702                	c.slli64	a4
    4d8e:	0891                	addi	a7,a7,4
    4d90:	0000                	unimp
    4d92:	00072517          	auipc	a0,0x72
    4d96:	0600                	addi	s0,sp,768
    4d98:	0275                	addi	tp,tp,29 # 1d <__stack_align+0xd>
    4d9a:	0008911b          	slliw	sp,a7,0x0
    4d9e:	0000                	unimp
    4da0:	00070e17          	auipc	t3,0x70
    4da4:	0600                	addi	s0,sp,768
    4da6:	0276                	slli	tp,tp,0x1d
    4da8:	a118                	fsd	fa4,0(a0)
    4daa:	0008                	.insn	2, 0x0008
    4dac:	f000                	sd	s0,32(s0)
    4dae:	0800                	addi	s0,sp,16
    4db0:	0334                	addi	a3,sp,392
    4db2:	0000                	unimp
    4db4:	08a1                	addi	a7,a7,8
    4db6:	0000                	unimp
    4db8:	4709                	li	a4,2
    4dba:	0000                	unimp
    4dbc:	1d00                	addi	s0,sp,688
    4dbe:	0800                	addi	s0,sp,16
    4dc0:	0078                	addi	a4,sp,12
    4dc2:	0000                	unimp
    4dc4:	08b1                	addi	a7,a7,12
    4dc6:	0000                	unimp
    4dc8:	4709                	li	a4,2
    4dca:	0000                	unimp
    4dcc:	1d00                	addi	s0,sp,688
    4dce:	1c00                	addi	s0,sp,560
    4dd0:	0168                	addi	a0,sp,140
    4dd2:	5706                	lw	a4,96(sp)
    4dd4:	0302                	c.slli64	t1
    4dd6:	000008d7          	.insn	4, 0x08d7
    4dda:	0f1d                	addi	t5,t5,7
    4ddc:	0008                	.insn	2, 0x0008
    4dde:	0600                	addi	s0,sp,768
    4de0:	026e                	slli	tp,tp,0x1b
    4de2:	00071d0b          	.insn	4, 0x00071d0b
    4de6:	1d00                	addi	s0,sp,688
    4de8:	08f1                	addi	a7,a7,28
    4dea:	0000                	unimp
    4dec:	7706                	ld	a4,96(sp)
    4dee:	0b02                	c.slli64	s6
    4df0:	0869                	addi	a6,a6,26
    4df2:	0000                	unimp
    4df4:	0800                	addi	s0,sp,16
    4df6:	014a                	slli	sp,sp,0x12
    4df8:	0000                	unimp
    4dfa:	000008e7          	jalr	a7,zero # 0 <__boot_hart>
    4dfe:	4709                	li	a4,2
    4e00:	0000                	unimp
    4e02:	1800                	addi	s0,sp,48
    4e04:	1e00                	addi	s0,sp,816
    4e06:	056c                	addi	a1,sp,652
    4e08:	0000                	unimp
    4e0a:	080d                	addi	a6,a6,3
    4e0c:	000008e7          	jalr	a7,zero # 0 <__boot_hart>
    4e10:	fd1f 0008 1500      	.insn	6, 0x15000008fd1f
    4e16:	0000049b          	sext.w	s1,zero
    4e1a:	0d00                	addi	s0,sp,656
    4e1c:	f208                	sd	a0,32(a2)
    4e1e:	0008                	.insn	2, 0x0008
    4e20:	0d00                	addi	s0,sp,656
    4e22:	bc08                	fsd	fa0,56(s0)
    4e24:	0001                	nop
    4e26:	1f00                	addi	s0,sp,944
    4e28:	0914                	addi	a3,sp,144
    4e2a:	0000                	unimp
    4e2c:	2d15                	addiw	s10,s10,5 # 8ac21 <__heap_size+0x6ac21>
    4e2e:	0000                	unimp
    4e30:	0000                	unimp
    4e32:	080d                	addi	a6,a6,3
    4e34:	091a                	slli	s2,s2,0x6
    4e36:	0000                	unimp
    4e38:	080d                	addi	a6,a6,3
    4e3a:	0909                	addi	s2,s2,2
    4e3c:	0000                	unimp
    4e3e:	8208                	.insn	2, 0x8208
    4e40:	0006                	c.slli	zero,0x1
    4e42:	3000                	fld	fs0,32(s0)
    4e44:	0009                	c.nop	2
    4e46:	0900                	addi	s0,sp,144
    4e48:	00000047          	fmsub.s	ft0,ft0,ft0,ft0,rne
    4e4c:	0002                	c.slli64	zero
    4e4e:	8e20                	.insn	2, 0x8e20
    4e50:	0008                	.insn	2, 0x0008
    4e52:	0600                	addi	s0,sp,768
    4e54:	9b170307          	.insn	4, 0x9b170307
    4e58:	0004                	.insn	2, 0x0004
    4e5a:	2000                	fld	fs0,0(s0)
    4e5c:	00000887          	.insn	4, 0x0887
    4e60:	0806                	slli	a6,a6,0x1
    4e62:	04a11d03          	lh	s10,74(sp)
    4e66:	0000                	unimp
    4e68:	1908                	addi	a0,sp,176
    4e6a:	0006                	c.slli	zero,0x1
    4e6c:	5500                	lw	s0,40(a0)
    4e6e:	0009                	c.nop	2
    4e70:	2100                	fld	fs0,0(a0)
    4e72:	0e00                	addi	s0,sp,784
    4e74:	094a                	slli	s2,s2,0x12
    4e76:	0000                	unimp
    4e78:	ed22                	sd	s0,152(sp)
    4e7a:	0009                	c.nop	2
    4e7c:	0700                	addi	s0,sp,896
    4e7e:	2414                	fld	fa3,8(s0)
    4e80:	0955                	addi	s2,s2,21
    4e82:	0000                	unimp
    4e84:	0922                	slli	s2,s2,0x8
    4e86:	000a                	c.slli	zero,0x2
    4e88:	0700                	addi	s0,sp,896
    4e8a:	1515                	addi	a0,a0,-27 # 76d77 <__heap_size+0x56d77>
    4e8c:	002d                	c.nop	11
    4e8e:	0000                	unimp
    4e90:	0b04                	addi	s1,sp,400
    4e92:	0005                	c.nop	1
    4e94:	0800                	addi	s0,sp,16
    4e96:	143c                	addi	a5,sp,552
    4e98:	007f 0000 7223 0009 	.insn	10, 0x0400000972230000007f
    4ea0:	0400 
    4ea2:	0292                	slli	t0,t0,0x4
    4ea4:	0000                	unimp
    4ea6:	5208                	lw	a0,32(a2)
    4ea8:	8b15                	andi	a4,a4,5
    4eaa:	0000                	unimp
    4eac:	0400                	addi	s0,sp,512
    4eae:	08c4                	addi	s1,sp,84
    4eb0:	0000                	unimp
    4eb2:	c809                	beqz	s0,4ec4 <__stack_align+0x4eb4>
    4eb4:	bb12                	fsd	ft4,432(sp)
    4eb6:	0000                	unimp
    4eb8:	2200                	fld	fs0,0(a2)
    4eba:	0a91                	addi	s5,s5,4
    4ebc:	0000                	unimp
    4ebe:	100a                	c.slli	zero,0x22
    4ec0:	0009a70f          	.insn	4, 0x0009a70f
    4ec4:	0d00                	addi	s0,sp,656
    4ec6:	4408                	lw	a0,8(s0)
    4ec8:	0001                	nop
    4eca:	2200                	fld	fs0,0(a2)
    4ecc:	0aa2                	slli	s5,s5,0x8
    4ece:	0000                	unimp
    4ed0:	fc0a                	sd	sp,56(sp)
    4ed2:	440e                	lw	s0,192(sp)
    4ed4:	0001                	nop
    4ed6:	2200                	fld	fs0,0(a2)
    4ed8:	0aa9                	addi	s5,s5,10
    4eda:	0000                	unimp
    4edc:	fd0a                	sd	sp,184(sp)
    4ede:	2d0c                	fld	fa1,24(a0)
    4ee0:	0000                	unimp
    4ee2:	2200                	fld	fs0,0(a2)
    4ee4:	0ab0                	addi	a2,sp,344
    4ee6:	0000                	unimp
    4ee8:	fd0a                	sd	sp,184(sp)
    4eea:	2d14                	fld	fa3,24(a0)
    4eec:	0000                	unimp
    4eee:	2200                	fld	fs0,0(a2)
    4ef0:	00000ab7          	lui	s5,0x0
    4ef4:	fd0a                	sd	sp,184(sp)
    4ef6:	2d1c                	fld	fa5,24(a0)
    4ef8:	0000                	unimp
    4efa:	2200                	fld	fs0,0(a2)
    4efc:	0a99                	addi	s5,s5,6 # 6 <__boot_hart+0x6>
    4efe:	0000                	unimp
    4f00:	ff0a                	sd	sp,440(sp)
    4f02:	2d0c                	fld	fa1,24(a0)
    4f04:	0000                	unimp
    4f06:	2200                	fld	fs0,0(a2)
    4f08:	0468                	addi	a0,sp,524
    4f0a:	0000                	unimp
    4f0c:	7e1a060b          	.insn	4, 0x7e1a060b
    4f10:	0009                	c.nop	2
    4f12:	2200                	fld	fs0,0(a2)
    4f14:	0500                	addi	s0,sp,640
    4f16:	0000                	unimp
    4f18:	7e1a070b          	.insn	4, 0x7e1a070b
    4f1c:	0009                	c.nop	2
    4f1e:	2400                	fld	fs0,8(s0)
    4f20:	06fd                	addi	a3,a3,31
    4f22:	0000                	unimp
    4f24:	0601                	addi	a2,a2,0
    4f26:	8f09                	sub	a4,a4,a0
    4f28:	0009                	c.nop	2
    4f2a:	ba00                	fsd	fs0,48(a2)
    4f2c:	0022                	c.slli	zero,0x8
    4f2e:	0080                	addi	s0,sp,64
    4f30:	0000                	unimp
    4f32:	0800                	addi	s0,sp,16
    4f34:	0000                	unimp
    4f36:	0000                	unimp
    4f38:	0000                	unimp
    4f3a:	0100                	addi	s0,sp,128
    4f3c:	759c                	ld	a5,40(a1)
    4f3e:	000a                	c.slli	zero,0x2
    4f40:	2500                	fld	fs0,8(a0)
    4f42:	6466                	ld	s0,88(sp)
    4f44:	0100                	addi	s0,sp,128
    4f46:	1406                	slli	s0,s0,0x21
    4f48:	002d                	c.nop	11
    4f4a:	0000                	unimp
    4f4c:	000004d7          	.insn	4, 0x04d7
    4f50:	7025                	c.lui	zero,0xfffe9
    4f52:	7274                	ld	a3,224(a2)
    4f54:	0100                	addi	s0,sp,128
    4f56:	2406                	fld	fs0,64(sp)
    4f58:	0a75                	addi	s4,s4,29
    4f5a:	0000                	unimp
    4f5c:	0510                	addi	a2,sp,640
    4f5e:	0000                	unimp
    4f60:	6c25                	lui	s8,0x9
    4f62:	6e65                	lui	t3,0x19
    4f64:	0100                	addi	s0,sp,128
    4f66:	3006                	fld	ft0,96(sp)
    4f68:	0000003b          	addw	zero,zero,zero
    4f6c:	0549                	addi	a0,a0,18
    4f6e:	0000                	unimp
    4f70:	c226                	sw	s1,4(sp)
    4f72:	0022                	c.slli	zero,0x8
    4f74:	0080                	addi	s0,sp,64
    4f76:	0000                	unimp
    4f78:	7c00                	ld	s0,56(s0)
    4f7a:	000a                	c.slli	zero,0x2
    4f7c:	2700                	fld	fs0,8(a4)
    4f7e:	5b01                	li	s6,-32
    4f80:	5b01f303          	.insn	4, 0x5b01f303
    4f84:	035c0127          	.insn	4, 0x035c0127
    4f88:	275c01f3          	.insn	4, 0x275c01f3
    4f8c:	5d01                	li	s10,-32
    4f8e:	0802                	c.slli64	a6
    4f90:	0040                	addi	s0,sp,4
    4f92:	0d00                	addi	s0,sp,656
    4f94:	7b08                	ld	a0,48(a4)
    4f96:	000a                	c.slli	zero,0x2
    4f98:	2800                	fld	fs0,16(s0)
    4f9a:	8429                	srai	s0,s0,0xa
    4f9c:	0009                	c.nop	2
    4f9e:	8400                	.insn	2, 0x8400
    4fa0:	0009                	c.nop	2
    4fa2:	0b00                	addi	s0,sp,400
    4fa4:	0d1a                	slli	s10,s10,0x6
	...

Disassembly of section .debug_abbrev:

0000000000000000 <.debug_abbrev>:
       0:	3401                	addiw	s0,s0,-32
       2:	0300                	addi	s0,sp,384
       4:	3a0e                	fld	fs4,224(sp)
       6:	390b3b0b          	.insn	4, 0x390b3b0b
       a:	0213490b          	.insn	4, 0x0213490b
       e:	0018                	.insn	2, 0x0018
      10:	0200                	addi	s0,sp,256
      12:	0005                	c.nop	1
      14:	0b3a0e03          	lb	t3,179(s4)
      18:	0b390b3b          	.insn	4, 0x0b390b3b
      1c:	1349                	addi	t1,t1,-14 # 88c00 <__heap_size+0x68c00>
      1e:	1802                	slli	a6,a6,0x20
      20:	0000                	unimp
      22:	03003403          	ld	s0,48(zero) # 30 <__stack_align+0x20>
      26:	3a08                	fld	fa0,48(a2)
      28:	390b3b0b          	.insn	4, 0x390b3b0b
      2c:	0213490b          	.insn	4, 0x0213490b
      30:	0018                	.insn	2, 0x0018
      32:	0400                	addi	s0,sp,512
      34:	0111010b          	.insn	4, 0x0111010b
      38:	0712                	slli	a4,a4,0x4
      3a:	1301                	addi	t1,t1,-32
      3c:	0000                	unimp
      3e:	2405                	addiw	s0,s0,1
      40:	0b00                	addi	s0,sp,400
      42:	030b3e0b          	.insn	4, 0x030b3e0b
      46:	000e                	c.slli	zero,0x3
      48:	0600                	addi	s0,sp,768
      4a:	0111010b          	.insn	4, 0x0111010b
      4e:	0712                	slli	a4,a4,0x4
      50:	0000                	unimp
      52:	49010107          	.insn	4, 0x49010107
      56:	00130113          	addi	sp,t1,1
      5a:	0800                	addi	s0,sp,16
      5c:	0021                	c.nop	8
      5e:	1349                	addi	t1,t1,-14
      60:	00000b2f          	.insn	4, 0x0b2f
      64:	0f09                	addi	t5,t5,2
      66:	0b00                	addi	s0,sp,400
      68:	0821                	addi	a6,a6,8
      6a:	1349                	addi	t1,t1,-14
      6c:	0000                	unimp
      6e:	2e0a                	fld	ft8,128(sp)
      70:	0301                	addi	t1,t1,0
      72:	3a0e                	fld	fs4,224(sp)
      74:	390b3b0b          	.insn	4, 0x390b3b0b
      78:	0d21                	addi	s10,s10,8
      7a:	01111927          	.insn	4, 0x01111927
      7e:	0712                	slli	a4,a4,0x4
      80:	1840                	addi	s0,sp,52
      82:	197c                	addi	a5,sp,188
      84:	1301                	addi	t1,t1,-32
      86:	0000                	unimp
      88:	0300160b          	.insn	4, 0x0300160b
      8c:	3a0e                	fld	fs4,224(sp)
      8e:	390b3b0b          	.insn	4, 0x390b3b0b
      92:	0013490b          	.insn	4, 0x0013490b
      96:	0c00                	addi	s0,sp,528
      98:	012e                	slli	sp,sp,0xb
      9a:	0b3a0e03          	lb	t3,179(s4)
      9e:	21390b3b          	.insn	4, 0x21390b3b
      a2:	110d                	addi	sp,sp,-29
      a4:	1201                	addi	tp,tp,-32 # ffffffffffffffe0 <__heap_end+0xffffffff7ffdcfe0>
      a6:	7c184007          	.insn	4, 0x7c184007
      aa:	0119                	addi	sp,sp,6
      ac:	0d000013          	li	zero,208
      b0:	0005                	c.nop	1
      b2:	0b3a0803          	lb	a6,179(s4)
      b6:	0b390b3b          	.insn	4, 0x0b390b3b
      ba:	1349                	addi	t1,t1,-14
      bc:	1802                	slli	a6,a6,0x20
      be:	0000                	unimp
      c0:	260e                	fld	fa2,192(sp)
      c2:	4900                	lw	s0,16(a0)
      c4:	0f000013          	li	zero,240
      c8:	012e                	slli	sp,sp,0xb
      ca:	0e03193f 0b3b0b3a 	.insn	8, 0x0b3b0b3a0e03193f
      d2:	0b39                	addi	s6,s6,14
      d4:	13491927          	.insn	4, 0x13491927
      d8:	0111                	addi	sp,sp,4
      da:	0712                	slli	a4,a4,0x4
      dc:	1840                	addi	s0,sp,52
      de:	197c                	addi	a5,sp,188
      e0:	1301                	addi	t1,t1,-32
      e2:	0000                	unimp
      e4:	2e10                	fld	fa2,24(a2)
      e6:	0301                	addi	t1,t1,0
      e8:	3a0e                	fld	fs4,224(sp)
      ea:	390b3b0b          	.insn	4, 0x390b3b0b
      ee:	1521                	addi	a0,a0,-24
      f0:	13491927          	.insn	4, 0x13491927
      f4:	0111                	addi	sp,sp,4
      f6:	0712                	slli	a4,a4,0x4
      f8:	1840                	addi	s0,sp,52
      fa:	197c                	addi	a5,sp,188
      fc:	1301                	addi	t1,t1,-32
      fe:	0000                	unimp
     100:	2e11                	addiw	t3,t3,4 # 19004 <__stack_size+0x11004>
     102:	0300                	addi	s0,sp,384
     104:	3a0e                	fld	fs4,224(sp)
     106:	390b3b0b          	.insn	4, 0x390b3b0b
     10a:	0d21                	addi	s10,s10,8
     10c:	0111                	addi	sp,sp,4
     10e:	0712                	slli	a4,a4,0x4
     110:	1840                	addi	s0,sp,52
     112:	197c                	addi	a5,sp,188
     114:	0000                	unimp
     116:	2e12                	fld	ft8,256(sp)
     118:	3f01                	addiw	t5,t5,-32
     11a:	0319                	addi	t1,t1,6
     11c:	3a0e                	fld	fs4,224(sp)
     11e:	0321                	addi	t1,t1,8
     120:	21390b3b          	.insn	4, 0x21390b3b
     124:	1106                	slli	sp,sp,0x21
     126:	1201                	addi	tp,tp,-32 # ffffffffffffffe0 <__heap_end+0xffffffff7ffdcfe0>
     128:	7c184007          	.insn	4, 0x7c184007
     12c:	0119                	addi	sp,sp,6
     12e:	13000013          	li	zero,304
     132:	012e                	slli	sp,sp,0xb
     134:	0e03193f 3b03213a 	.insn	8, 0x3b03213a0e03193f
     13c:	0621390b          	.insn	4, 0x0621390b
     140:	01111927          	.insn	4, 0x01111927
     144:	0712                	slli	a4,a4,0x4
     146:	1840                	addi	s0,sp,52
     148:	197c                	addi	a5,sp,188
     14a:	1301                	addi	t1,t1,-32
     14c:	0000                	unimp
     14e:	1114                	addi	a3,sp,160
     150:	2501                	sext.w	a0,a0
     152:	130e                	slli	t1,t1,0x23
     154:	1b1f030b          	.insn	4, 0x1b1f030b
     158:	111f 1201 1007      	.insn	6, 0x10071201111f
     15e:	15000017          	auipc	zero,0x15000
     162:	0024                	addi	s1,sp,8
     164:	0b3e0b0b          	.insn	4, 0x0b3e0b0b
     168:	00000803          	lb	a6,0(zero) # 0 <__boot_hart>
     16c:	3516                	fld	fa0,352(sp)
     16e:	4900                	lw	s0,16(a0)
     170:	17000013          	li	zero,368
     174:	012e                	slli	sp,sp,0xb
     176:	0e03193f 0b3b0b3a 	.insn	8, 0x0b3b0b3a0e03193f
     17e:	0b39                	addi	s6,s6,14
     180:	193c1927          	.insn	4, 0x193c1927
     184:	1301                	addi	t1,t1,-32
     186:	0000                	unimp
     188:	0518                	addi	a4,sp,640
     18a:	4900                	lw	s0,16(a0)
     18c:	19000013          	li	zero,400
     190:	0018                	.insn	2, 0x0018
     192:	0000                	unimp
     194:	2e1a                	fld	ft8,384(sp)
     196:	0301                	addi	t1,t1,0
     198:	3a0e                	fld	fs4,224(sp)
     19a:	390b3b0b          	.insn	4, 0x390b3b0b
     19e:	4919270b          	.insn	4, 0x4919270b
     1a2:	12011113          	.insn	4, 0x12011113
     1a6:	7a184007          	.insn	4, 0x7a184007
     1aa:	0119                	addi	sp,sp,6
     1ac:	1b000013          	li	zero,432
     1b0:	012e                	slli	sp,sp,0xb
     1b2:	0b3a0e03          	lb	t3,179(s4)
     1b6:	0b390b3b          	.insn	4, 0x0b390b3b
     1ba:	01111927          	.insn	4, 0x01111927
     1be:	0712                	slli	a4,a4,0x4
     1c0:	1840                	addi	s0,sp,52
     1c2:	197a                	slli	s2,s2,0x3e
     1c4:	0000                	unimp
     1c6:	0100                	addi	s0,sp,128
     1c8:	0034                	addi	a3,sp,8
     1ca:	0b3a0803          	lb	a6,179(s4)
     1ce:	0b390b3b          	.insn	4, 0x0b390b3b
     1d2:	1349                	addi	t1,t1,-14
     1d4:	1802                	slli	a6,a6,0x20
     1d6:	0000                	unimp
     1d8:	2402                	fld	fs0,0(sp)
     1da:	0b00                	addi	s0,sp,400
     1dc:	030b3e0b          	.insn	4, 0x030b3e0b
     1e0:	000e                	c.slli	zero,0x3
     1e2:	0300                	addi	s0,sp,384
     1e4:	0016                	c.slli	zero,0x5
     1e6:	0b3a0e03          	lb	t3,179(s4)
     1ea:	0b390b3b          	.insn	4, 0x0b390b3b
     1ee:	1349                	addi	t1,t1,-14
     1f0:	0000                	unimp
     1f2:	3404                	fld	fs1,40(s0)
     1f4:	0300                	addi	s0,sp,384
     1f6:	3a0e                	fld	fs4,224(sp)
     1f8:	390b3b0b          	.insn	4, 0x390b3b0b
     1fc:	0213490b          	.insn	4, 0x0213490b
     200:	0018                	.insn	2, 0x0018
     202:	0500                	addi	s0,sp,640
     204:	0005                	c.nop	1
     206:	0b3a0803          	lb	a6,179(s4)
     20a:	0b390b3b          	.insn	4, 0x0b390b3b
     20e:	1349                	addi	t1,t1,-14
     210:	1802                	slli	a6,a6,0x20
     212:	0000                	unimp
     214:	0b06                	slli	s6,s6,0x1
     216:	1101                	addi	sp,sp,-32
     218:	1201                	addi	tp,tp,-32 # ffffffffffffffe0 <__heap_end+0xffffffff7ffdcfe0>
     21a:	07000007          	.insn	4, 0x07000007
     21e:	210b000f          	.insn	4, 0x210b000f
     222:	4908                	lw	a0,16(a0)
     224:	08000013          	li	zero,128
     228:	0026                	c.slli	zero,0x9
     22a:	1349                	addi	t1,t1,-14
     22c:	0000                	unimp
     22e:	2e09                	addiw	t3,t3,2
     230:	3f01                	addiw	t5,t5,-32
     232:	0319                	addi	t1,t1,6
     234:	3a0e                	fld	fs4,224(sp)
     236:	0221                	addi	tp,tp,8 # 8 <__boot_hart+0x8>
     238:	21390b3b          	.insn	4, 0x21390b3b
     23c:	2706                	fld	fa4,64(sp)
     23e:	1119                	addi	sp,sp,-26
     240:	1201                	addi	tp,tp,-32 # ffffffffffffffe0 <__heap_end+0xffffffff7ffdcfe0>
     242:	7c184007          	.insn	4, 0x7c184007
     246:	0119                	addi	sp,sp,6
     248:	0a000013          	li	zero,160
     24c:	0111010b          	.insn	4, 0x0111010b
     250:	0712                	slli	a4,a4,0x4
     252:	1301                	addi	t1,t1,-32
     254:	0000                	unimp
     256:	2501110b          	.insn	4, 0x2501110b
     25a:	130e                	slli	t1,t1,0x23
     25c:	1b1f030b          	.insn	4, 0x1b1f030b
     260:	111f 1201 1007      	.insn	6, 0x10071201111f
     266:	0c000017          	auipc	zero,0xc000
     26a:	0b0b000f          	.insn	4, 0x0b0b000f
     26e:	00000e03          	lb	t3,0(zero) # 0 <__boot_hart>
     272:	240d                	addiw	s0,s0,3
     274:	0b00                	addi	s0,sp,400
     276:	030b3e0b          	.insn	4, 0x030b3e0b
     27a:	0008                	.insn	2, 0x0008
     27c:	0e00                	addi	s0,sp,784
     27e:	0035                	c.nop	13
     280:	1349                	addi	t1,t1,-14
     282:	0000                	unimp
     284:	0000180f          	.insn	4, 0x180f
     288:	1000                	addi	s0,sp,32
     28a:	0101                	addi	sp,sp,0
     28c:	1349                	addi	t1,t1,-14
     28e:	1301                	addi	t1,t1,-32
     290:	0000                	unimp
     292:	2111                	addiw	sp,sp,4
     294:	4900                	lw	s0,16(a0)
     296:	000b2f13          	slti	t5,s6,0
     29a:	1200                	addi	s0,sp,288
     29c:	012e                	slli	sp,sp,0xb
     29e:	0b3a0e03          	lb	t3,179(s4)
     2a2:	0b390b3b          	.insn	4, 0x0b390b3b
     2a6:	01111927          	.insn	4, 0x01111927
     2aa:	0712                	slli	a4,a4,0x4
     2ac:	1840                	addi	s0,sp,52
     2ae:	197c                	addi	a5,sp,188
     2b0:	1301                	addi	t1,t1,-32
     2b2:	0000                	unimp
     2b4:	03012e13          	slti	t3,sp,48
     2b8:	3a0e                	fld	fs4,224(sp)
     2ba:	390b3b0b          	.insn	4, 0x390b3b0b
     2be:	1119270b          	.insn	4, 0x1119270b
     2c2:	1201                	addi	tp,tp,-32 # ffffffffffffffe0 <__heap_end+0xffffffff7ffdcfe0>
     2c4:	7a184007          	.insn	4, 0x7a184007
     2c8:	0019                	c.nop	6
     2ca:	0000                	unimp
     2cc:	1101                	addi	sp,sp,-32
     2ce:	1000                	addi	s0,sp,32
     2d0:	1106                	slli	sp,sp,0x21
     2d2:	1201                	addi	tp,tp,-32 # ffffffffffffffe0 <__heap_end+0xffffffff7ffdcfe0>
     2d4:	0301                	addi	t1,t1,0
     2d6:	1b0e                	slli	s6,s6,0x23
     2d8:	250e                	fld	fa0,192(sp)
     2da:	130e                	slli	t1,t1,0x23
     2dc:	0005                	c.nop	1
     2de:	0000                	unimp
     2e0:	1101                	addi	sp,sp,-32
     2e2:	1000                	addi	s0,sp,32
     2e4:	1106                	slli	sp,sp,0x21
     2e6:	1201                	addi	tp,tp,-32 # ffffffffffffffe0 <__heap_end+0xffffffff7ffdcfe0>
     2e8:	0301                	addi	t1,t1,0
     2ea:	1b0e                	slli	s6,s6,0x23
     2ec:	250e                	fld	fa0,192(sp)
     2ee:	130e                	slli	t1,t1,0x23
     2f0:	0005                	c.nop	1
     2f2:	0000                	unimp
     2f4:	1101                	addi	sp,sp,-32
     2f6:	2501                	sext.w	a0,a0
     2f8:	130e                	slli	t1,t1,0x23
     2fa:	1b0e030b          	.insn	4, 0x1b0e030b
     2fe:	110e                	slli	sp,sp,0x23
     300:	1201                	addi	tp,tp,-32 # ffffffffffffffe0 <__heap_end+0xffffffff7ffdcfe0>
     302:	00171007          	.insn	4, 0x00171007
     306:	0200                	addi	s0,sp,256
     308:	0024                	addi	s1,sp,8
     30a:	0b3e0b0b          	.insn	4, 0x0b3e0b0b
     30e:	00000e03          	lb	t3,0(zero) # 0 <__boot_hart>
     312:	0b002403          	lw	s0,176(zero) # b0 <__stack_align+0xa0>
     316:	030b3e0b          	.insn	4, 0x030b3e0b
     31a:	0008                	.insn	2, 0x0008
     31c:	0400                	addi	s0,sp,512
     31e:	0016                	c.slli	zero,0x5
     320:	0b3a0e03          	lb	t3,179(s4)
     324:	0b390b3b          	.insn	4, 0x0b390b3b
     328:	1349                	addi	t1,t1,-14
     32a:	0000                	unimp
     32c:	3505                	addiw	a0,a0,-31
     32e:	4900                	lw	s0,16(a0)
     330:	06000013          	li	zero,96
     334:	0034                	addi	a3,sp,8
     336:	0b3a0e03          	lb	t3,179(s4)
     33a:	0b390b3b          	.insn	4, 0x0b390b3b
     33e:	1349                	addi	t1,t1,-14
     340:	193c193f 2e070000 	.insn	8, 0x2e070000193c193f
     348:	3f01                	addiw	t5,t5,-32
     34a:	0319                	addi	t1,t1,6
     34c:	3a0e                	fld	fs4,224(sp)
     34e:	390b3b0b          	.insn	4, 0x390b3b0b
     352:	1119270b          	.insn	4, 0x1119270b
     356:	1201                	addi	tp,tp,-32 # ffffffffffffffe0 <__heap_end+0xffffffff7ffdcfe0>
     358:	97184007          	.insn	4, 0x97184007
     35c:	1942                	slli	s2,s2,0x30
     35e:	1301                	addi	t1,t1,-32
     360:	0000                	unimp
     362:	0508                	addi	a0,sp,640
     364:	0300                	addi	s0,sp,384
     366:	3a08                	fld	fa0,48(a2)
     368:	390b3b0b          	.insn	4, 0x390b3b0b
     36c:	0213490b          	.insn	4, 0x0213490b
     370:	09000017          	auipc	zero,0x9000
     374:	0005                	c.nop	1
     376:	0b3a0e03          	lb	t3,179(s4)
     37a:	0b390b3b          	.insn	4, 0x0b390b3b
     37e:	1349                	addi	t1,t1,-14
     380:	1702                	slli	a4,a4,0x20
     382:	0000                	unimp
     384:	340a                	fld	fs0,160(sp)
     386:	0300                	addi	s0,sp,384
     388:	3a0e                	fld	fs4,224(sp)
     38a:	390b3b0b          	.insn	4, 0x390b3b0b
     38e:	0213490b          	.insn	4, 0x0213490b
     392:	0b000017          	auipc	zero,0xb000
     396:	8289                	srli	a3,a3,0x2
     398:	0001                	nop
     39a:	0111                	addi	sp,sp,4
     39c:	1331                	addi	t1,t1,-20
     39e:	0000                	unimp
     3a0:	0f0c                	addi	a1,sp,912
     3a2:	0b00                	addi	s0,sp,400
     3a4:	0013490b          	.insn	4, 0x0013490b
     3a8:	0d00                	addi	s0,sp,656
     3aa:	002e                	c.slli	zero,0xb
     3ac:	193c193f 0e030e6e 	.insn	8, 0x0e030e6e193c193f
     3b4:	0b3a                	slli	s6,s6,0xe
     3b6:	0b390b3b          	.insn	4, 0x0b390b3b
     3ba:	0000                	unimp
     3bc:	0100                	addi	s0,sp,128
     3be:	0111                	addi	sp,sp,4
     3c0:	0e25                	addi	t3,t3,9
     3c2:	0e030b13          	addi	s6,t1,224
     3c6:	01110e1b          	addiw	t3,sp,17
     3ca:	0712                	slli	a4,a4,0x4
     3cc:	1710                	addi	a2,sp,928
     3ce:	0000                	unimp
     3d0:	2402                	fld	fs0,0(sp)
     3d2:	0b00                	addi	s0,sp,400
     3d4:	030b3e0b          	.insn	4, 0x030b3e0b
     3d8:	000e                	c.slli	zero,0x3
     3da:	0300                	addi	s0,sp,384
     3dc:	0016                	c.slli	zero,0x5
     3de:	0b3a0e03          	lb	t3,179(s4)
     3e2:	0b390b3b          	.insn	4, 0x0b390b3b
     3e6:	1349                	addi	t1,t1,-14
     3e8:	0000                	unimp
     3ea:	2404                	fld	fs1,8(s0)
     3ec:	0b00                	addi	s0,sp,400
     3ee:	030b3e0b          	.insn	4, 0x030b3e0b
     3f2:	0008                	.insn	2, 0x0008
     3f4:	0500                	addi	s0,sp,640
     3f6:	0016                	c.slli	zero,0x5
     3f8:	0b3a0e03          	lb	t3,179(s4)
     3fc:	0b39053b          	.insn	4, 0x0b39053b
     400:	1349                	addi	t1,t1,-14
     402:	0000                	unimp
     404:	1706                	slli	a4,a4,0x21
     406:	0b01                	addi	s6,s6,0
     408:	3b0b3a0b          	.insn	4, 0x3b0b3a0b
     40c:	010b390b          	.insn	4, 0x010b390b
     410:	07000013          	li	zero,112
     414:	000d                	c.nop	3
     416:	0b3a0e03          	lb	t3,179(s4)
     41a:	0b390b3b          	.insn	4, 0x0b390b3b
     41e:	1349                	addi	t1,t1,-14
     420:	0000                	unimp
     422:	0108                	addi	a0,sp,128
     424:	4901                	li	s2,0
     426:	00130113          	addi	sp,t1,1
     42a:	0900                	addi	s0,sp,144
     42c:	0021                	c.nop	8
     42e:	1349                	addi	t1,t1,-14
     430:	00000b2f          	.insn	4, 0x0b2f
     434:	130a                	slli	t1,t1,0x22
     436:	0b01                	addi	s6,s6,0
     438:	3b0b3a0b          	.insn	4, 0x3b0b3a0b
     43c:	010b390b          	.insn	4, 0x010b390b
     440:	0b000013          	li	zero,176
     444:	000d                	c.nop	3
     446:	0b3a0e03          	lb	t3,179(s4)
     44a:	0b390b3b          	.insn	4, 0x0b390b3b
     44e:	1349                	addi	t1,t1,-14
     450:	0b38                	addi	a4,sp,408
     452:	0000                	unimp
     454:	0f0c                	addi	a1,sp,912
     456:	0b00                	addi	s0,sp,400
     458:	0d00000b          	.insn	4, 0x0d00000b
     45c:	0b0b000f          	.insn	4, 0x0b0b000f
     460:	1349                	addi	t1,t1,-14
     462:	0000                	unimp
     464:	260e                	fld	fa2,192(sp)
     466:	4900                	lw	s0,16(a0)
     468:	0f000013          	li	zero,240
     46c:	0e030113          	addi	sp,t1,224
     470:	0b3a0b0b          	.insn	4, 0x0b3a0b0b
     474:	0b390b3b          	.insn	4, 0x0b390b3b
     478:	1301                	addi	t1,t1,-32
     47a:	0000                	unimp
     47c:	0d10                	addi	a2,sp,656
     47e:	0300                	addi	s0,sp,384
     480:	3a08                	fld	fa0,48(a2)
     482:	390b3b0b          	.insn	4, 0x390b3b0b
     486:	3813490b          	.insn	4, 0x3813490b
     48a:	1100000b          	.insn	4, 0x1100000b
     48e:	0e030113          	addi	sp,t1,224
     492:	0b3a050b          	.insn	4, 0x0b3a050b
     496:	0b390b3b          	.insn	4, 0x0b390b3b
     49a:	1301                	addi	t1,t1,-32
     49c:	0000                	unimp
     49e:	0d12                	slli	s10,s10,0x4
     4a0:	0300                	addi	s0,sp,384
     4a2:	3a0e                	fld	fs4,224(sp)
     4a4:	390b3b0b          	.insn	4, 0x390b3b0b
     4a8:	3813490b          	.insn	4, 0x3813490b
     4ac:	0005                	c.nop	1
     4ae:	1300                	addi	s0,sp,416
     4b0:	0015                	c.nop	5
     4b2:	00001927          	.insn	4, 0x1927
     4b6:	1514                	addi	a3,sp,672
     4b8:	2701                	sext.w	a4,a4
     4ba:	4919                	li	s2,6
     4bc:	00130113          	addi	sp,t1,1
     4c0:	1500                	addi	s0,sp,672
     4c2:	0005                	c.nop	1
     4c4:	1349                	addi	t1,t1,-14
     4c6:	0000                	unimp
     4c8:	1316                	slli	t1,t1,0x25
     4ca:	0301                	addi	t1,t1,0
     4cc:	0b0e                	slli	s6,s6,0x3
     4ce:	3a05                	addiw	s4,s4,-31
     4d0:	39053b0b          	.insn	4, 0x39053b0b
     4d4:	0013010b          	.insn	4, 0x0013010b
     4d8:	1700                	addi	s0,sp,928
     4da:	000d                	c.nop	3
     4dc:	0b3a0e03          	lb	t3,179(s4)
     4e0:	0b39053b          	.insn	4, 0x0b39053b
     4e4:	1349                	addi	t1,t1,-14
     4e6:	0b38                	addi	a4,sp,408
     4e8:	0000                	unimp
     4ea:	0d18                	addi	a4,sp,656
     4ec:	0300                	addi	s0,sp,384
     4ee:	3a0e                	fld	fs4,224(sp)
     4f0:	39053b0b          	.insn	4, 0x39053b0b
     4f4:	3813490b          	.insn	4, 0x3813490b
     4f8:	0005                	c.nop	1
     4fa:	1900                	addi	s0,sp,176
     4fc:	0e030113          	addi	sp,t1,224
     500:	0b3a0b0b          	.insn	4, 0x0b3a0b0b
     504:	0b39053b          	.insn	4, 0x0b39053b
     508:	1301                	addi	t1,t1,-32
     50a:	0000                	unimp
     50c:	131a                	slli	t1,t1,0x26
     50e:	0b01                	addi	s6,s6,0
     510:	3b0b3a0b          	.insn	4, 0x3b0b3a0b
     514:	3905                	addiw	s2,s2,-31
     516:	0013010b          	.insn	4, 0x0013010b
     51a:	1b00                	addi	s0,sp,432
     51c:	050b0113          	addi	sp,s6,80
     520:	0b3a                	slli	s6,s6,0xe
     522:	0b39053b          	.insn	4, 0x0b39053b
     526:	1301                	addi	t1,t1,-32
     528:	0000                	unimp
     52a:	171c                	addi	a5,sp,928
     52c:	0b01                	addi	s6,s6,0
     52e:	3a05                	addiw	s4,s4,-31
     530:	39053b0b          	.insn	4, 0x39053b0b
     534:	0013010b          	.insn	4, 0x0013010b
     538:	1d00                	addi	s0,sp,688
     53a:	000d                	c.nop	3
     53c:	0b3a0e03          	lb	t3,179(s4)
     540:	0b39053b          	.insn	4, 0x0b39053b
     544:	1349                	addi	t1,t1,-14
     546:	0000                	unimp
     548:	131e                	slli	t1,t1,0x27
     54a:	0300                	addi	s0,sp,384
     54c:	3c0e                	fld	fs8,224(sp)
     54e:	0019                	c.nop	6
     550:	1f00                	addi	s0,sp,944
     552:	0115                	addi	sp,sp,5
     554:	13011927          	.insn	4, 0x13011927
     558:	0000                	unimp
     55a:	3420                	fld	fs0,104(s0)
     55c:	0300                	addi	s0,sp,384
     55e:	3a0e                	fld	fs4,224(sp)
     560:	39053b0b          	.insn	4, 0x39053b0b
     564:	3f13490b          	.insn	4, 0x3f13490b
     568:	3c19                	addiw	s8,s8,-26 # 8fe6 <__stack_size+0xfe6>
     56a:	0019                	c.nop	6
     56c:	2100                	fld	fs0,0(a0)
     56e:	012e                	slli	sp,sp,0xb
     570:	0e03193f 0b3b0b3a 	.insn	8, 0x0b3b0b3a0e03193f
     578:	0b39                	addi	s6,s6,14
     57a:	01111927          	.insn	4, 0x01111927
     57e:	0712                	slli	a4,a4,0x4
     580:	1840                	addi	s0,sp,52
     582:	01194297          	auipc	t0,0x1194
     586:	22000013          	li	zero,544
     58a:	0034                	addi	a3,sp,8
     58c:	0b3a0e03          	lb	t3,179(s4)
     590:	0b390b3b          	.insn	4, 0x0b390b3b
     594:	1349                	addi	t1,t1,-14
     596:	1802                	slli	a6,a6,0x20
     598:	0000                	unimp
     59a:	03003423          	sd	a6,40(zero) # 28 <__stack_align+0x18>
     59e:	3a0e                	fld	fs4,224(sp)
     5a0:	390b3b0b          	.insn	4, 0x390b3b0b
     5a4:	3f13490b          	.insn	4, 0x3f13490b
     5a8:	3c19                	addiw	s8,s8,-26
     5aa:	0019                	c.nop	6
     5ac:	2400                	fld	fs0,8(s0)
     5ae:	8289                	srli	a3,a3,0x2
     5b0:	0101                	addi	sp,sp,0
     5b2:	0111                	addi	sp,sp,4
     5b4:	1331                	addi	t1,t1,-20
     5b6:	1301                	addi	t1,t1,-32
     5b8:	0000                	unimp
     5ba:	8a25                	andi	a2,a2,9
     5bc:	0182                	c.slli64	gp
     5be:	0200                	addi	s0,sp,256
     5c0:	9118                	.insn	2, 0x9118
     5c2:	1842                	slli	a6,a6,0x30
     5c4:	0000                	unimp
     5c6:	8926                	mv	s2,s1
     5c8:	0182                	c.slli64	gp
     5ca:	1101                	addi	sp,sp,-32
     5cc:	9501                	srai	a0,a0,0x20
     5ce:	1942                	slli	s2,s2,0x30
     5d0:	1331                	addi	t1,t1,-20
     5d2:	0000                	unimp
     5d4:	00002127          	fsw	ft0,2(zero) # 2 <__boot_hart+0x2>
     5d8:	2800                	fld	fs0,16(s0)
     5da:	002e                	c.slli	zero,0xb
     5dc:	193c193f 0e030e6e 	.insn	8, 0x0e030e6e193c193f
     5e4:	0b3a                	slli	s6,s6,0xe
     5e6:	0b390b3b          	.insn	4, 0x0b390b3b
     5ea:	0000                	unimp
     5ec:	0100                	addi	s0,sp,128
     5ee:	0111                	addi	sp,sp,4
     5f0:	0e25                	addi	t3,t3,9
     5f2:	0e030b13          	addi	s6,t1,224
     5f6:	01110e1b          	addiw	t3,sp,17
     5fa:	0712                	slli	a4,a4,0x4
     5fc:	1710                	addi	a2,sp,928
     5fe:	0000                	unimp
     600:	2e02                	fld	ft8,0(sp)
     602:	3f00                	fld	fs0,56(a4)
     604:	0319                	addi	t1,t1,6
     606:	3a0e                	fld	fs4,224(sp)
     608:	390b3b0b          	.insn	4, 0x390b3b0b
     60c:	8719270b          	.insn	4, 0x8719270b
     610:	1901                	addi	s2,s2,-32
     612:	0111                	addi	sp,sp,4
     614:	0712                	slli	a4,a4,0x4
     616:	1840                	addi	s0,sp,52
     618:	00194297          	auipc	t0,0x194
     61c:	0000                	unimp
     61e:	1101                	addi	sp,sp,-32
     620:	2501                	sext.w	a0,a0
     622:	130e                	slli	t1,t1,0x23
     624:	1b0e030b          	.insn	4, 0x1b0e030b
     628:	110e                	slli	sp,sp,0x23
     62a:	1201                	addi	tp,tp,-32 # ffffffffffffffe0 <__heap_end+0xffffffff7ffdcfe0>
     62c:	00171007          	.insn	4, 0x00171007
     630:	0200                	addi	s0,sp,256
     632:	0024                	addi	s1,sp,8
     634:	0b3e0b0b          	.insn	4, 0x0b3e0b0b
     638:	00000e03          	lb	t3,0(zero) # 0 <__boot_hart>
     63c:	0b002403          	lw	s0,176(zero) # b0 <__stack_align+0xa0>
     640:	030b3e0b          	.insn	4, 0x030b3e0b
     644:	0008                	.insn	2, 0x0008
     646:	0400                	addi	s0,sp,512
     648:	0016                	c.slli	zero,0x5
     64a:	0b3a0e03          	lb	t3,179(s4)
     64e:	0b390b3b          	.insn	4, 0x0b390b3b
     652:	1349                	addi	t1,t1,-14
     654:	0000                	unimp
     656:	3505                	addiw	a0,a0,-31
     658:	4900                	lw	s0,16(a0)
     65a:	06000013          	li	zero,96
     65e:	0034                	addi	a3,sp,8
     660:	0b3a0e03          	lb	t3,179(s4)
     664:	0b390b3b          	.insn	4, 0x0b390b3b
     668:	1349                	addi	t1,t1,-14
     66a:	193c193f 2e070000 	.insn	8, 0x2e070000193c193f
     672:	3f01                	addiw	t5,t5,-32
     674:	0319                	addi	t1,t1,6
     676:	3a0e                	fld	fs4,224(sp)
     678:	390b3b0b          	.insn	4, 0x390b3b0b
     67c:	8719270b          	.insn	4, 0x8719270b
     680:	1901                	addi	s2,s2,-32
     682:	0111                	addi	sp,sp,4
     684:	0712                	slli	a4,a4,0x4
     686:	1840                	addi	s0,sp,52
     688:	00194297          	auipc	t0,0x194
     68c:	0800                	addi	s0,sp,16
     68e:	0005                	c.nop	1
     690:	0b3a0e03          	lb	t3,179(s4)
     694:	0b390b3b          	.insn	4, 0x0b390b3b
     698:	1349                	addi	t1,t1,-14
     69a:	1802                	slli	a6,a6,0x20
     69c:	0000                	unimp
     69e:	3409                	addiw	s0,s0,-30
     6a0:	0300                	addi	s0,sp,384
     6a2:	3a08                	fld	fa0,48(a2)
     6a4:	390b3b0b          	.insn	4, 0x390b3b0b
     6a8:	0213490b          	.insn	4, 0x0213490b
     6ac:	0018                	.insn	2, 0x0018
     6ae:	0000                	unimp
     6b0:	1101                	addi	sp,sp,-32
     6b2:	2501                	sext.w	a0,a0
     6b4:	130e                	slli	t1,t1,0x23
     6b6:	1b0e030b          	.insn	4, 0x1b0e030b
     6ba:	110e                	slli	sp,sp,0x23
     6bc:	1201                	addi	tp,tp,-32 # ffffffffffffffe0 <__heap_end+0xffffffff7ffdcfe0>
     6be:	00171007          	.insn	4, 0x00171007
     6c2:	0200                	addi	s0,sp,256
     6c4:	0024                	addi	s1,sp,8
     6c6:	0b3e0b0b          	.insn	4, 0x0b3e0b0b
     6ca:	00000e03          	lb	t3,0(zero) # 0 <__boot_hart>
     6ce:	03001603          	lh	a2,48(zero) # 30 <__stack_align+0x20>
     6d2:	3a0e                	fld	fs4,224(sp)
     6d4:	390b3b0b          	.insn	4, 0x390b3b0b
     6d8:	0013490b          	.insn	4, 0x0013490b
     6dc:	0400                	addi	s0,sp,512
     6de:	0024                	addi	s1,sp,8
     6e0:	0b3e0b0b          	.insn	4, 0x0b3e0b0b
     6e4:	00000803          	lb	a6,0(zero) # 0 <__boot_hart>
     6e8:	3505                	addiw	a0,a0,-31
     6ea:	4900                	lw	s0,16(a0)
     6ec:	06000013          	li	zero,96
     6f0:	0026                	c.slli	zero,0x9
     6f2:	1349                	addi	t1,t1,-14
     6f4:	0000                	unimp
     6f6:	0b011307          	.insn	4, 0x0b011307
     6fa:	3b0b3a0b          	.insn	4, 0x3b0b3a0b
     6fe:	010b390b          	.insn	4, 0x010b390b
     702:	08000013          	li	zero,128
     706:	000d                	c.nop	3
     708:	0b3a0e03          	lb	t3,179(s4)
     70c:	0b390b3b          	.insn	4, 0x0b390b3b
     710:	1349                	addi	t1,t1,-14
     712:	0b38                	addi	a4,sp,408
     714:	0000                	unimp
     716:	3409                	addiw	s0,s0,-30
     718:	0300                	addi	s0,sp,384
     71a:	3a0e                	fld	fs4,224(sp)
     71c:	390b3b0b          	.insn	4, 0x390b3b0b
     720:	3f13490b          	.insn	4, 0x3f13490b
     724:	3c19                	addiw	s8,s8,-26
     726:	0019                	c.nop	6
     728:	0a00                	addi	s0,sp,272
     72a:	0034                	addi	a3,sp,8
     72c:	0b3a1347          	fmsub.d	ft6,fs4,fs3,ft1,rtz
     730:	0b390b3b          	.insn	4, 0x0b390b3b
     734:	1802                	slli	a6,a6,0x20
     736:	0000                	unimp
     738:	0300340b          	.insn	4, 0x0300340b
     73c:	3a0e                	fld	fs4,224(sp)
     73e:	390b3b0b          	.insn	4, 0x390b3b0b
     742:	0213490b          	.insn	4, 0x0213490b
     746:	0018                	.insn	2, 0x0018
     748:	0c00                	addi	s0,sp,528
     74a:	012e                	slli	sp,sp,0xb
     74c:	0e03193f 0b3b0b3a 	.insn	8, 0x0b3b0b3a0e03193f
     754:	0b39                	addi	s6,s6,14
     756:	13491927          	.insn	4, 0x13491927
     75a:	0111                	addi	sp,sp,4
     75c:	0712                	slli	a4,a4,0x4
     75e:	1840                	addi	s0,sp,52
     760:	01194297          	auipc	t0,0x1194
     764:	0d000013          	li	zero,208
     768:	0005                	c.nop	1
     76a:	0b3a0803          	lb	a6,179(s4)
     76e:	0b390b3b          	.insn	4, 0x0b390b3b
     772:	1349                	addi	t1,t1,-14
     774:	1702                	slli	a4,a4,0x20
     776:	0000                	unimp
     778:	050e                	slli	a0,a0,0x3
     77a:	0300                	addi	s0,sp,384
     77c:	3a08                	fld	fa0,48(a2)
     77e:	390b3b0b          	.insn	4, 0x390b3b0b
     782:	0213490b          	.insn	4, 0x0213490b
     786:	0018                	.insn	2, 0x0018
     788:	0f00                	addi	s0,sp,912
     78a:	0034                	addi	a3,sp,8
     78c:	0b3a0803          	lb	a6,179(s4)
     790:	0b390b3b          	.insn	4, 0x0b390b3b
     794:	1349                	addi	t1,t1,-14
     796:	1802                	slli	a6,a6,0x20
     798:	0000                	unimp
     79a:	1d10                	addi	a2,sp,688
     79c:	3101                	addiw	sp,sp,-32
     79e:	12011113          	.insn	4, 0x12011113
     7a2:	590b5807          	.insn	4, 0x590b5807
     7a6:	010b570b          	.insn	4, 0x010b570b
     7aa:	11000013          	li	zero,272
     7ae:	0005                	c.nop	1
     7b0:	1331                	addi	t1,t1,-20
     7b2:	1702                	slli	a4,a4,0x20
     7b4:	0000                	unimp
     7b6:	1d12                	slli	s10,s10,0x24
     7b8:	3101                	addiw	sp,sp,-32
     7ba:	55015213          	.insn	4, 0x55015213
     7be:	590b5817          	auipc	a6,0x590b5
     7c2:	010b570b          	.insn	4, 0x010b570b
     7c6:	13000013          	li	zero,304
     7ca:	1755010b          	.insn	4, 0x1755010b
     7ce:	0000                	unimp
     7d0:	3414                	fld	fa3,40(s0)
     7d2:	3100                	fld	fs0,32(a0)
     7d4:	15000013          	li	zero,336
     7d8:	011d                	addi	sp,sp,7
     7da:	1331                	addi	t1,t1,-20
     7dc:	0111                	addi	sp,sp,4
     7de:	0712                	slli	a4,a4,0x4
     7e0:	0b58                	addi	a4,sp,404
     7e2:	0b59                	addi	s6,s6,22
     7e4:	00000b57          	.insn	4, 0x0b57
     7e8:	1d16                	slli	s10,s10,0x25
     7ea:	3100                	fld	fs0,32(a0)
     7ec:	12011113          	.insn	4, 0x12011113
     7f0:	590b5807          	.insn	4, 0x590b5807
     7f4:	000b570b          	.insn	4, 0x000b570b
     7f8:	1700                	addi	s0,sp,928
     7fa:	0101                	addi	sp,sp,0
     7fc:	1349                	addi	t1,t1,-14
     7fe:	1301                	addi	t1,t1,-32
     800:	0000                	unimp
     802:	2118                	fld	fa4,0(a0)
     804:	4900                	lw	s0,16(a0)
     806:	000b2f13          	slti	t5,s6,0
     80a:	1900                	addi	s0,sp,176
     80c:	012e                	slli	sp,sp,0xb
     80e:	0b3a0e03          	lb	t3,179(s4)
     812:	0b390b3b          	.insn	4, 0x0b390b3b
     816:	0b201927          	.insn	4, 0x0b201927
     81a:	1301                	addi	t1,t1,-32
     81c:	0000                	unimp
     81e:	051a                	slli	a0,a0,0x6
     820:	0300                	addi	s0,sp,384
     822:	3a0e                	fld	fs4,224(sp)
     824:	390b3b0b          	.insn	4, 0x390b3b0b
     828:	0013490b          	.insn	4, 0x0013490b
     82c:	1b00                	addi	s0,sp,432
     82e:	0b0b000f          	.insn	4, 0x0b0b000f
     832:	1349                	addi	t1,t1,-14
     834:	0000                	unimp
     836:	051c                	addi	a5,sp,640
     838:	0300                	addi	s0,sp,384
     83a:	3a08                	fld	fa0,48(a2)
     83c:	390b3b0b          	.insn	4, 0x390b3b0b
     840:	0013490b          	.insn	4, 0x0013490b
     844:	1d00                	addi	s0,sp,688
     846:	012e                	slli	sp,sp,0xb
     848:	0b3a0e03          	lb	t3,179(s4)
     84c:	0b390b3b          	.insn	4, 0x0b390b3b
     850:	13491927          	.insn	4, 0x13491927
     854:	0b20                	addi	s0,sp,408
     856:	1301                	addi	t1,t1,-32
     858:	0000                	unimp
     85a:	341e                	fld	fs0,480(sp)
     85c:	0300                	addi	s0,sp,384
     85e:	3a08                	fld	fa0,48(a2)
     860:	390b3b0b          	.insn	4, 0x390b3b0b
     864:	0013490b          	.insn	4, 0x0013490b
     868:	1f00                	addi	s0,sp,944
     86a:	002e                	c.slli	zero,0xb
     86c:	0b3a0803          	lb	a6,179(s4)
     870:	0b390b3b          	.insn	4, 0x0b390b3b
     874:	0b201927          	.insn	4, 0x0b201927
     878:	0000                	unimp
     87a:	0100                	addi	s0,sp,128
     87c:	0111                	addi	sp,sp,4
     87e:	0e25                	addi	t3,t3,9
     880:	0e030b13          	addi	s6,t1,224
     884:	01110e1b          	addiw	t3,sp,17
     888:	0712                	slli	a4,a4,0x4
     88a:	1710                	addi	a2,sp,928
     88c:	0000                	unimp
     88e:	2402                	fld	fs0,0(sp)
     890:	0b00                	addi	s0,sp,400
     892:	030b3e0b          	.insn	4, 0x030b3e0b
     896:	0008                	.insn	2, 0x0008
     898:	0300                	addi	s0,sp,384
     89a:	0024                	addi	s1,sp,8
     89c:	0b3e0b0b          	.insn	4, 0x0b3e0b0b
     8a0:	00000e03          	lb	t3,0(zero) # 0 <__boot_hart>
     8a4:	1604                	addi	s1,sp,800
     8a6:	0300                	addi	s0,sp,384
     8a8:	3a0e                	fld	fs4,224(sp)
     8aa:	390b3b0b          	.insn	4, 0x390b3b0b
     8ae:	0013490b          	.insn	4, 0x0013490b
     8b2:	0500                	addi	s0,sp,640
     8b4:	0016                	c.slli	zero,0x5
     8b6:	0b3a0e03          	lb	t3,179(s4)
     8ba:	0b39053b          	.insn	4, 0x0b39053b
     8be:	1349                	addi	t1,t1,-14
     8c0:	0000                	unimp
     8c2:	1706                	slli	a4,a4,0x21
     8c4:	0b01                	addi	s6,s6,0
     8c6:	3b0b3a0b          	.insn	4, 0x3b0b3a0b
     8ca:	010b390b          	.insn	4, 0x010b390b
     8ce:	07000013          	li	zero,112
     8d2:	000d                	c.nop	3
     8d4:	0b3a0e03          	lb	t3,179(s4)
     8d8:	0b390b3b          	.insn	4, 0x0b390b3b
     8dc:	1349                	addi	t1,t1,-14
     8de:	0000                	unimp
     8e0:	0108                	addi	a0,sp,128
     8e2:	4901                	li	s2,0
     8e4:	00130113          	addi	sp,t1,1
     8e8:	0900                	addi	s0,sp,144
     8ea:	0021                	c.nop	8
     8ec:	1349                	addi	t1,t1,-14
     8ee:	00000b2f          	.insn	4, 0x0b2f
     8f2:	130a                	slli	t1,t1,0x22
     8f4:	0b01                	addi	s6,s6,0
     8f6:	3b0b3a0b          	.insn	4, 0x3b0b3a0b
     8fa:	010b390b          	.insn	4, 0x010b390b
     8fe:	0b000013          	li	zero,176
     902:	000d                	c.nop	3
     904:	0b3a0e03          	lb	t3,179(s4)
     908:	0b390b3b          	.insn	4, 0x0b390b3b
     90c:	1349                	addi	t1,t1,-14
     90e:	0b38                	addi	a4,sp,408
     910:	0000                	unimp
     912:	0f0c                	addi	a1,sp,912
     914:	0b00                	addi	s0,sp,400
     916:	0d00000b          	.insn	4, 0x0d00000b
     91a:	0b0b000f          	.insn	4, 0x0b0b000f
     91e:	1349                	addi	t1,t1,-14
     920:	0000                	unimp
     922:	260e                	fld	fa2,192(sp)
     924:	4900                	lw	s0,16(a0)
     926:	0f000013          	li	zero,240
     92a:	0e030113          	addi	sp,t1,224
     92e:	0b3a0b0b          	.insn	4, 0x0b3a0b0b
     932:	0b390b3b          	.insn	4, 0x0b390b3b
     936:	1301                	addi	t1,t1,-32
     938:	0000                	unimp
     93a:	0d10                	addi	a2,sp,656
     93c:	0300                	addi	s0,sp,384
     93e:	3a08                	fld	fa0,48(a2)
     940:	390b3b0b          	.insn	4, 0x390b3b0b
     944:	3813490b          	.insn	4, 0x3813490b
     948:	1100000b          	.insn	4, 0x1100000b
     94c:	0e030113          	addi	sp,t1,224
     950:	0b3a050b          	.insn	4, 0x0b3a050b
     954:	0b390b3b          	.insn	4, 0x0b390b3b
     958:	1301                	addi	t1,t1,-32
     95a:	0000                	unimp
     95c:	0d12                	slli	s10,s10,0x4
     95e:	0300                	addi	s0,sp,384
     960:	3a0e                	fld	fs4,224(sp)
     962:	390b3b0b          	.insn	4, 0x390b3b0b
     966:	3813490b          	.insn	4, 0x3813490b
     96a:	0005                	c.nop	1
     96c:	1300                	addi	s0,sp,416
     96e:	0015                	c.nop	5
     970:	00001927          	.insn	4, 0x1927
     974:	1514                	addi	a3,sp,672
     976:	2701                	sext.w	a4,a4
     978:	4919                	li	s2,6
     97a:	00130113          	addi	sp,t1,1
     97e:	1500                	addi	s0,sp,672
     980:	0005                	c.nop	1
     982:	1349                	addi	t1,t1,-14
     984:	0000                	unimp
     986:	1316                	slli	t1,t1,0x25
     988:	0301                	addi	t1,t1,0
     98a:	0b0e                	slli	s6,s6,0x3
     98c:	3a05                	addiw	s4,s4,-31
     98e:	39053b0b          	.insn	4, 0x39053b0b
     992:	0013010b          	.insn	4, 0x0013010b
     996:	1700                	addi	s0,sp,928
     998:	000d                	c.nop	3
     99a:	0b3a0e03          	lb	t3,179(s4)
     99e:	0b39053b          	.insn	4, 0x0b39053b
     9a2:	1349                	addi	t1,t1,-14
     9a4:	0b38                	addi	a4,sp,408
     9a6:	0000                	unimp
     9a8:	0d18                	addi	a4,sp,656
     9aa:	0300                	addi	s0,sp,384
     9ac:	3a0e                	fld	fs4,224(sp)
     9ae:	39053b0b          	.insn	4, 0x39053b0b
     9b2:	3813490b          	.insn	4, 0x3813490b
     9b6:	0005                	c.nop	1
     9b8:	1900                	addi	s0,sp,176
     9ba:	0e030113          	addi	sp,t1,224
     9be:	0b3a0b0b          	.insn	4, 0x0b3a0b0b
     9c2:	0b39053b          	.insn	4, 0x0b39053b
     9c6:	1301                	addi	t1,t1,-32
     9c8:	0000                	unimp
     9ca:	131a                	slli	t1,t1,0x26
     9cc:	0b01                	addi	s6,s6,0
     9ce:	3b0b3a0b          	.insn	4, 0x3b0b3a0b
     9d2:	3905                	addiw	s2,s2,-31
     9d4:	0013010b          	.insn	4, 0x0013010b
     9d8:	1b00                	addi	s0,sp,432
     9da:	050b0113          	addi	sp,s6,80
     9de:	0b3a                	slli	s6,s6,0xe
     9e0:	0b39053b          	.insn	4, 0x0b39053b
     9e4:	1301                	addi	t1,t1,-32
     9e6:	0000                	unimp
     9e8:	171c                	addi	a5,sp,928
     9ea:	0b01                	addi	s6,s6,0
     9ec:	3a05                	addiw	s4,s4,-31
     9ee:	39053b0b          	.insn	4, 0x39053b0b
     9f2:	0013010b          	.insn	4, 0x0013010b
     9f6:	1d00                	addi	s0,sp,688
     9f8:	000d                	c.nop	3
     9fa:	0b3a0e03          	lb	t3,179(s4)
     9fe:	0b39053b          	.insn	4, 0x0b39053b
     a02:	1349                	addi	t1,t1,-14
     a04:	0000                	unimp
     a06:	131e                	slli	t1,t1,0x27
     a08:	0300                	addi	s0,sp,384
     a0a:	3c0e                	fld	fs8,224(sp)
     a0c:	0019                	c.nop	6
     a0e:	1f00                	addi	s0,sp,944
     a10:	0115                	addi	sp,sp,5
     a12:	13011927          	.insn	4, 0x13011927
     a16:	0000                	unimp
     a18:	3420                	fld	fs0,104(s0)
     a1a:	0300                	addi	s0,sp,384
     a1c:	3a0e                	fld	fs4,224(sp)
     a1e:	39053b0b          	.insn	4, 0x39053b0b
     a22:	3f13490b          	.insn	4, 0x3f13490b
     a26:	3c19                	addiw	s8,s8,-26
     a28:	0019                	c.nop	6
     a2a:	2100                	fld	fs0,0(a0)
     a2c:	0021                	c.nop	8
     a2e:	0000                	unimp
     a30:	3422                	fld	fs0,40(sp)
     a32:	0300                	addi	s0,sp,384
     a34:	3a0e                	fld	fs4,224(sp)
     a36:	390b3b0b          	.insn	4, 0x390b3b0b
     a3a:	3f13490b          	.insn	4, 0x3f13490b
     a3e:	3c19                	addiw	s8,s8,-26
     a40:	0019                	c.nop	6
     a42:	2300                	fld	fs0,0(a4)
     a44:	0035                	c.nop	13
     a46:	1349                	addi	t1,t1,-14
     a48:	0000                	unimp
     a4a:	2e24                	fld	fs1,88(a2)
     a4c:	3f01                	addiw	t5,t5,-32
     a4e:	0319                	addi	t1,t1,6
     a50:	3a0e                	fld	fs4,224(sp)
     a52:	390b3b0b          	.insn	4, 0x390b3b0b
     a56:	4919270b          	.insn	4, 0x4919270b
     a5a:	12011113          	.insn	4, 0x12011113
     a5e:	97184007          	.insn	4, 0x97184007
     a62:	1942                	slli	s2,s2,0x30
     a64:	1301                	addi	t1,t1,-32
     a66:	0000                	unimp
     a68:	0525                	addi	a0,a0,9
     a6a:	0300                	addi	s0,sp,384
     a6c:	3a0e                	fld	fs4,224(sp)
     a6e:	390b3b0b          	.insn	4, 0x390b3b0b
     a72:	0213490b          	.insn	4, 0x0213490b
     a76:	26000017          	auipc	zero,0x26000
     a7a:	8289                	srli	a3,a3,0x2
     a7c:	0001                	nop
     a7e:	0111                	addi	sp,sp,4
     a80:	1331                	addi	t1,t1,-20
     a82:	0000                	unimp
     a84:	3f002e27          	fsw	fa6,1020(zero) # 3fc <__stack_align+0x3ec>
     a88:	3c19                	addiw	s8,s8,-26
     a8a:	6e19                	lui	t3,0x6
     a8c:	030e                	slli	t1,t1,0x3
     a8e:	3a0e                	fld	fs4,224(sp)
     a90:	390b3b0b          	.insn	4, 0x390b3b0b
     a94:	0000000b          	.insn	4, 0x000b
     a98:	1101                	addi	sp,sp,-32
     a9a:	2501                	sext.w	a0,a0
     a9c:	130e                	slli	t1,t1,0x23
     a9e:	1b0e030b          	.insn	4, 0x1b0e030b
     aa2:	110e                	slli	sp,sp,0x23
     aa4:	1201                	addi	tp,tp,-32 # ffffffffffffffe0 <__heap_end+0xffffffff7ffdcfe0>
     aa6:	00171007          	.insn	4, 0x00171007
     aaa:	0200                	addi	s0,sp,256
     aac:	0024                	addi	s1,sp,8
     aae:	0b3e0b0b          	.insn	4, 0x0b3e0b0b
     ab2:	00000803          	lb	a6,0(zero) # 0 <__boot_hart>
     ab6:	0b002403          	lw	s0,176(zero) # b0 <__stack_align+0xa0>
     aba:	030b3e0b          	.insn	4, 0x030b3e0b
     abe:	000e                	c.slli	zero,0x3
     ac0:	0400                	addi	s0,sp,512
     ac2:	0016                	c.slli	zero,0x5
     ac4:	0b3a0e03          	lb	t3,179(s4)
     ac8:	0b390b3b          	.insn	4, 0x0b390b3b
     acc:	1349                	addi	t1,t1,-14
     ace:	0000                	unimp
     ad0:	1605                	addi	a2,a2,-31
     ad2:	0300                	addi	s0,sp,384
     ad4:	3a0e                	fld	fs4,224(sp)
     ad6:	39053b0b          	.insn	4, 0x39053b0b
     ada:	0013490b          	.insn	4, 0x0013490b
     ade:	0600                	addi	s0,sp,768
     ae0:	0b0b0117          	auipc	sp,0xb0b0
     ae4:	0b3a                	slli	s6,s6,0xe
     ae6:	0b390b3b          	.insn	4, 0x0b390b3b
     aea:	1301                	addi	t1,t1,-32
     aec:	0000                	unimp
     aee:	03000d07          	.insn	4, 0x03000d07
     af2:	3a0e                	fld	fs4,224(sp)
     af4:	390b3b0b          	.insn	4, 0x390b3b0b
     af8:	0013490b          	.insn	4, 0x0013490b
     afc:	0800                	addi	s0,sp,16
     afe:	0101                	addi	sp,sp,0 # b0b0ae0 <__heap_size+0xb090ae0>
     b00:	1349                	addi	t1,t1,-14
     b02:	1301                	addi	t1,t1,-32
     b04:	0000                	unimp
     b06:	2109                	addiw	sp,sp,2
     b08:	4900                	lw	s0,16(a0)
     b0a:	000b2f13          	slti	t5,s6,0
     b0e:	0a00                	addi	s0,sp,272
     b10:	0b0b0113          	addi	sp,s6,176
     b14:	0b3a                	slli	s6,s6,0xe
     b16:	0b390b3b          	.insn	4, 0x0b390b3b
     b1a:	1301                	addi	t1,t1,-32
     b1c:	0000                	unimp
     b1e:	03000d0b          	.insn	4, 0x03000d0b
     b22:	3a0e                	fld	fs4,224(sp)
     b24:	390b3b0b          	.insn	4, 0x390b3b0b
     b28:	3813490b          	.insn	4, 0x3813490b
     b2c:	0c00000b          	.insn	4, 0x0c00000b
     b30:	0b0b000f          	.insn	4, 0x0b0b000f
     b34:	0000                	unimp
     b36:	0f0d                	addi	t5,t5,3
     b38:	0b00                	addi	s0,sp,400
     b3a:	0013490b          	.insn	4, 0x0013490b
     b3e:	0e00                	addi	s0,sp,784
     b40:	0026                	c.slli	zero,0x9
     b42:	1349                	addi	t1,t1,-14
     b44:	0000                	unimp
     b46:	0301130f          	.insn	4, 0x0301130f
     b4a:	0b0e                	slli	s6,s6,0x3
     b4c:	3b0b3a0b          	.insn	4, 0x3b0b3a0b
     b50:	010b390b          	.insn	4, 0x010b390b
     b54:	10000013          	li	zero,256
     b58:	000d                	c.nop	3
     b5a:	0b3a0803          	lb	a6,179(s4)
     b5e:	0b390b3b          	.insn	4, 0x0b390b3b
     b62:	1349                	addi	t1,t1,-14
     b64:	0b38                	addi	a4,sp,408
     b66:	0000                	unimp
     b68:	1311                	addi	t1,t1,-28
     b6a:	0301                	addi	t1,t1,0
     b6c:	0b0e                	slli	s6,s6,0x3
     b6e:	3a05                	addiw	s4,s4,-31
     b70:	390b3b0b          	.insn	4, 0x390b3b0b
     b74:	0013010b          	.insn	4, 0x0013010b
     b78:	1200                	addi	s0,sp,288
     b7a:	000d                	c.nop	3
     b7c:	0b3a0e03          	lb	t3,179(s4)
     b80:	0b390b3b          	.insn	4, 0x0b390b3b
     b84:	1349                	addi	t1,t1,-14
     b86:	0538                	addi	a4,sp,648
     b88:	0000                	unimp
     b8a:	27001513          	.insn	4, 0x27001513
     b8e:	0019                	c.nop	6
     b90:	1400                	addi	s0,sp,544
     b92:	0115                	addi	sp,sp,5
     b94:	13491927          	.insn	4, 0x13491927
     b98:	1301                	addi	t1,t1,-32
     b9a:	0000                	unimp
     b9c:	0515                	addi	a0,a0,5
     b9e:	4900                	lw	s0,16(a0)
     ba0:	16000013          	li	zero,352
     ba4:	0e030113          	addi	sp,t1,224
     ba8:	0b3a050b          	.insn	4, 0x0b3a050b
     bac:	0b39053b          	.insn	4, 0x0b39053b
     bb0:	1301                	addi	t1,t1,-32
     bb2:	0000                	unimp
     bb4:	03000d17          	auipc	s10,0x3000
     bb8:	3a0e                	fld	fs4,224(sp)
     bba:	39053b0b          	.insn	4, 0x39053b0b
     bbe:	3813490b          	.insn	4, 0x3813490b
     bc2:	1800000b          	.insn	4, 0x1800000b
     bc6:	000d                	c.nop	3
     bc8:	0b3a0e03          	lb	t3,179(s4)
     bcc:	0b39053b          	.insn	4, 0x0b39053b
     bd0:	1349                	addi	t1,t1,-14
     bd2:	0538                	addi	a4,sp,648
     bd4:	0000                	unimp
     bd6:	1319                	addi	t1,t1,-26
     bd8:	0301                	addi	t1,t1,0
     bda:	0b0e                	slli	s6,s6,0x3
     bdc:	3b0b3a0b          	.insn	4, 0x3b0b3a0b
     be0:	3905                	addiw	s2,s2,-31
     be2:	0013010b          	.insn	4, 0x0013010b
     be6:	1a00                	addi	s0,sp,304
     be8:	0b0b0113          	addi	sp,s6,176
     bec:	0b3a                	slli	s6,s6,0xe
     bee:	0b39053b          	.insn	4, 0x0b39053b
     bf2:	1301                	addi	t1,t1,-32
     bf4:	0000                	unimp
     bf6:	0b01131b          	.insn	4, 0x0b01131b
     bfa:	3a05                	addiw	s4,s4,-31
     bfc:	39053b0b          	.insn	4, 0x39053b0b
     c00:	0013010b          	.insn	4, 0x0013010b
     c04:	1c00                	addi	s0,sp,560
     c06:	050b0117          	auipc	sp,0x50b0
     c0a:	0b3a                	slli	s6,s6,0xe
     c0c:	0b39053b          	.insn	4, 0x0b39053b
     c10:	1301                	addi	t1,t1,-32
     c12:	0000                	unimp
     c14:	0d1d                	addi	s10,s10,7 # 3000bbb <__heap_size+0x2fe0bbb>
     c16:	0300                	addi	s0,sp,384
     c18:	3a0e                	fld	fs4,224(sp)
     c1a:	39053b0b          	.insn	4, 0x39053b0b
     c1e:	0013490b          	.insn	4, 0x0013490b
     c22:	1e00                	addi	s0,sp,816
     c24:	0e030013          	addi	zero,t1,224
     c28:	193c                	addi	a5,sp,184
     c2a:	0000                	unimp
     c2c:	151f 2701 0119      	.insn	6, 0x01192701151f
     c32:	20000013          	li	zero,512
     c36:	0034                	addi	a3,sp,8
     c38:	0b3a0e03          	lb	t3,179(s4)
     c3c:	0b39053b          	.insn	4, 0x0b39053b
     c40:	1349                	addi	t1,t1,-14
     c42:	193c193f 21210000 	.insn	8, 0x21210000193c193f
     c4a:	0000                	unimp
     c4c:	2200                	fld	fs0,0(a2)
     c4e:	0034                	addi	a3,sp,8
     c50:	0b3a0e03          	lb	t3,179(s4)
     c54:	0b390b3b          	.insn	4, 0x0b390b3b
     c58:	1349                	addi	t1,t1,-14
     c5a:	193c193f 35230000 	.insn	8, 0x35230000193c193f
     c62:	4900                	lw	s0,16(a0)
     c64:	24000013          	li	zero,576
     c68:	012e                	slli	sp,sp,0xb
     c6a:	0e03193f 0b3b0b3a 	.insn	8, 0x0b3b0b3a0e03193f
     c72:	0b39                	addi	s6,s6,14
     c74:	13491927          	.insn	4, 0x13491927
     c78:	0111                	addi	sp,sp,4 # 50b0c0a <__heap_size+0x5090c0a>
     c7a:	0712                	slli	a4,a4,0x4
     c7c:	1840                	addi	s0,sp,52
     c7e:	01194297          	auipc	t0,0x1194
     c82:	25000013          	li	zero,592
     c86:	0005                	c.nop	1
     c88:	0b3a0e03          	lb	t3,179(s4)
     c8c:	0b390b3b          	.insn	4, 0x0b390b3b
     c90:	1349                	addi	t1,t1,-14
     c92:	1702                	slli	a4,a4,0x20
     c94:	0000                	unimp
     c96:	0526                	slli	a0,a0,0x9
     c98:	0300                	addi	s0,sp,384
     c9a:	3a08                	fld	fa0,48(a2)
     c9c:	390b3b0b          	.insn	4, 0x390b3b0b
     ca0:	0213490b          	.insn	4, 0x0213490b
     ca4:	27000017          	auipc	zero,0x27000
     ca8:	8289                	srli	a3,a3,0x2
     caa:	0001                	nop
     cac:	0111                	addi	sp,sp,4
     cae:	1331                	addi	t1,t1,-20
     cb0:	0000                	unimp
     cb2:	2e28                	fld	fa0,88(a2)
     cb4:	3f00                	fld	fs0,56(a4)
     cb6:	3c19                	addiw	s8,s8,-26
     cb8:	6e19                	lui	t3,0x6
     cba:	030e                	slli	t1,t1,0x3
     cbc:	3a0e                	fld	fs4,224(sp)
     cbe:	390b3b0b          	.insn	4, 0x390b3b0b
     cc2:	0000000b          	.insn	4, 0x000b
     cc6:	1101                	addi	sp,sp,-32
     cc8:	2501                	sext.w	a0,a0
     cca:	130e                	slli	t1,t1,0x23
     ccc:	1b0e030b          	.insn	4, 0x1b0e030b
     cd0:	110e                	slli	sp,sp,0x23
     cd2:	1201                	addi	tp,tp,-32 # ffffffffffffffe0 <__heap_end+0xffffffff7ffdcfe0>
     cd4:	00171007          	.insn	4, 0x00171007
     cd8:	0200                	addi	s0,sp,256
     cda:	0024                	addi	s1,sp,8
     cdc:	0b3e0b0b          	.insn	4, 0x0b3e0b0b
     ce0:	00000803          	lb	a6,0(zero) # 0 <__boot_hart>
     ce4:	0b002403          	lw	s0,176(zero) # b0 <__stack_align+0xa0>
     ce8:	030b3e0b          	.insn	4, 0x030b3e0b
     cec:	000e                	c.slli	zero,0x3
     cee:	0400                	addi	s0,sp,512
     cf0:	0016                	c.slli	zero,0x5
     cf2:	0b3a0e03          	lb	t3,179(s4)
     cf6:	0b390b3b          	.insn	4, 0x0b390b3b
     cfa:	1349                	addi	t1,t1,-14
     cfc:	0000                	unimp
     cfe:	1605                	addi	a2,a2,-31
     d00:	0300                	addi	s0,sp,384
     d02:	3a0e                	fld	fs4,224(sp)
     d04:	39053b0b          	.insn	4, 0x39053b0b
     d08:	0013490b          	.insn	4, 0x0013490b
     d0c:	0600                	addi	s0,sp,768
     d0e:	0b0b0117          	auipc	sp,0xb0b0
     d12:	0b3a                	slli	s6,s6,0xe
     d14:	0b390b3b          	.insn	4, 0x0b390b3b
     d18:	1301                	addi	t1,t1,-32
     d1a:	0000                	unimp
     d1c:	03000d07          	.insn	4, 0x03000d07
     d20:	3a0e                	fld	fs4,224(sp)
     d22:	390b3b0b          	.insn	4, 0x390b3b0b
     d26:	0013490b          	.insn	4, 0x0013490b
     d2a:	0800                	addi	s0,sp,16
     d2c:	0101                	addi	sp,sp,0 # b0b0d0e <__heap_size+0xb090d0e>
     d2e:	1349                	addi	t1,t1,-14
     d30:	1301                	addi	t1,t1,-32
     d32:	0000                	unimp
     d34:	2109                	addiw	sp,sp,2
     d36:	4900                	lw	s0,16(a0)
     d38:	000b2f13          	slti	t5,s6,0
     d3c:	0a00                	addi	s0,sp,272
     d3e:	0b0b0113          	addi	sp,s6,176
     d42:	0b3a                	slli	s6,s6,0xe
     d44:	0b390b3b          	.insn	4, 0x0b390b3b
     d48:	1301                	addi	t1,t1,-32
     d4a:	0000                	unimp
     d4c:	03000d0b          	.insn	4, 0x03000d0b
     d50:	3a0e                	fld	fs4,224(sp)
     d52:	390b3b0b          	.insn	4, 0x390b3b0b
     d56:	3813490b          	.insn	4, 0x3813490b
     d5a:	0c00000b          	.insn	4, 0x0c00000b
     d5e:	0b0b000f          	.insn	4, 0x0b0b000f
     d62:	0000                	unimp
     d64:	0f0d                	addi	t5,t5,3
     d66:	0b00                	addi	s0,sp,400
     d68:	0013490b          	.insn	4, 0x0013490b
     d6c:	0e00                	addi	s0,sp,784
     d6e:	0026                	c.slli	zero,0x9
     d70:	1349                	addi	t1,t1,-14
     d72:	0000                	unimp
     d74:	0301130f          	.insn	4, 0x0301130f
     d78:	0b0e                	slli	s6,s6,0x3
     d7a:	3b0b3a0b          	.insn	4, 0x3b0b3a0b
     d7e:	010b390b          	.insn	4, 0x010b390b
     d82:	10000013          	li	zero,256
     d86:	000d                	c.nop	3
     d88:	0b3a0803          	lb	a6,179(s4)
     d8c:	0b390b3b          	.insn	4, 0x0b390b3b
     d90:	1349                	addi	t1,t1,-14
     d92:	0b38                	addi	a4,sp,408
     d94:	0000                	unimp
     d96:	1311                	addi	t1,t1,-28
     d98:	0301                	addi	t1,t1,0
     d9a:	0b0e                	slli	s6,s6,0x3
     d9c:	3a05                	addiw	s4,s4,-31
     d9e:	390b3b0b          	.insn	4, 0x390b3b0b
     da2:	0013010b          	.insn	4, 0x0013010b
     da6:	1200                	addi	s0,sp,288
     da8:	000d                	c.nop	3
     daa:	0b3a0e03          	lb	t3,179(s4)
     dae:	0b390b3b          	.insn	4, 0x0b390b3b
     db2:	1349                	addi	t1,t1,-14
     db4:	0538                	addi	a4,sp,648
     db6:	0000                	unimp
     db8:	27001513          	.insn	4, 0x27001513
     dbc:	0019                	c.nop	6
     dbe:	1400                	addi	s0,sp,544
     dc0:	0115                	addi	sp,sp,5
     dc2:	13491927          	.insn	4, 0x13491927
     dc6:	1301                	addi	t1,t1,-32
     dc8:	0000                	unimp
     dca:	0515                	addi	a0,a0,5
     dcc:	4900                	lw	s0,16(a0)
     dce:	16000013          	li	zero,352
     dd2:	0e030113          	addi	sp,t1,224
     dd6:	0b3a050b          	.insn	4, 0x0b3a050b
     dda:	0b39053b          	.insn	4, 0x0b39053b
     dde:	1301                	addi	t1,t1,-32
     de0:	0000                	unimp
     de2:	03000d17          	auipc	s10,0x3000
     de6:	3a0e                	fld	fs4,224(sp)
     de8:	39053b0b          	.insn	4, 0x39053b0b
     dec:	3813490b          	.insn	4, 0x3813490b
     df0:	1800000b          	.insn	4, 0x1800000b
     df4:	000d                	c.nop	3
     df6:	0b3a0e03          	lb	t3,179(s4)
     dfa:	0b39053b          	.insn	4, 0x0b39053b
     dfe:	1349                	addi	t1,t1,-14
     e00:	0538                	addi	a4,sp,648
     e02:	0000                	unimp
     e04:	1319                	addi	t1,t1,-26
     e06:	0301                	addi	t1,t1,0
     e08:	0b0e                	slli	s6,s6,0x3
     e0a:	3b0b3a0b          	.insn	4, 0x3b0b3a0b
     e0e:	3905                	addiw	s2,s2,-31
     e10:	0013010b          	.insn	4, 0x0013010b
     e14:	1a00                	addi	s0,sp,304
     e16:	0b0b0113          	addi	sp,s6,176
     e1a:	0b3a                	slli	s6,s6,0xe
     e1c:	0b39053b          	.insn	4, 0x0b39053b
     e20:	1301                	addi	t1,t1,-32
     e22:	0000                	unimp
     e24:	0b01131b          	.insn	4, 0x0b01131b
     e28:	3a05                	addiw	s4,s4,-31
     e2a:	39053b0b          	.insn	4, 0x39053b0b
     e2e:	0013010b          	.insn	4, 0x0013010b
     e32:	1c00                	addi	s0,sp,560
     e34:	050b0117          	auipc	sp,0x50b0
     e38:	0b3a                	slli	s6,s6,0xe
     e3a:	0b39053b          	.insn	4, 0x0b39053b
     e3e:	1301                	addi	t1,t1,-32
     e40:	0000                	unimp
     e42:	0d1d                	addi	s10,s10,7 # 3000de9 <__heap_size+0x2fe0de9>
     e44:	0300                	addi	s0,sp,384
     e46:	3a0e                	fld	fs4,224(sp)
     e48:	39053b0b          	.insn	4, 0x39053b0b
     e4c:	0013490b          	.insn	4, 0x0013490b
     e50:	1e00                	addi	s0,sp,816
     e52:	0e030013          	addi	zero,t1,224
     e56:	193c                	addi	a5,sp,184
     e58:	0000                	unimp
     e5a:	151f 2701 0119      	.insn	6, 0x01192701151f
     e60:	20000013          	li	zero,512
     e64:	0034                	addi	a3,sp,8
     e66:	0b3a0e03          	lb	t3,179(s4)
     e6a:	0b39053b          	.insn	4, 0x0b39053b
     e6e:	1349                	addi	t1,t1,-14
     e70:	193c193f 21210000 	.insn	8, 0x21210000193c193f
     e78:	0000                	unimp
     e7a:	2200                	fld	fs0,0(a2)
     e7c:	0034                	addi	a3,sp,8
     e7e:	0b3a0e03          	lb	t3,179(s4)
     e82:	0b390b3b          	.insn	4, 0x0b390b3b
     e86:	1349                	addi	t1,t1,-14
     e88:	193c193f 35230000 	.insn	8, 0x35230000193c193f
     e90:	4900                	lw	s0,16(a0)
     e92:	24000013          	li	zero,576
     e96:	012e                	slli	sp,sp,0xb
     e98:	0e03193f 0b3b0b3a 	.insn	8, 0x0b3b0b3a0e03193f
     ea0:	0b39                	addi	s6,s6,14
     ea2:	13491927          	.insn	4, 0x13491927
     ea6:	0111                	addi	sp,sp,4 # 50b0e38 <__heap_size+0x5090e38>
     ea8:	0712                	slli	a4,a4,0x4
     eaa:	1840                	addi	s0,sp,52
     eac:	01194297          	auipc	t0,0x1194
     eb0:	25000013          	li	zero,592
     eb4:	0005                	c.nop	1
     eb6:	0b3a0e03          	lb	t3,179(s4)
     eba:	0b390b3b          	.insn	4, 0x0b390b3b
     ebe:	1349                	addi	t1,t1,-14
     ec0:	1702                	slli	a4,a4,0x20
     ec2:	0000                	unimp
     ec4:	0526                	slli	a0,a0,0x9
     ec6:	0300                	addi	s0,sp,384
     ec8:	3a08                	fld	fa0,48(a2)
     eca:	390b3b0b          	.insn	4, 0x390b3b0b
     ece:	0213490b          	.insn	4, 0x0213490b
     ed2:	27000017          	auipc	zero,0x27000
     ed6:	8289                	srli	a3,a3,0x2
     ed8:	0001                	nop
     eda:	0111                	addi	sp,sp,4
     edc:	1331                	addi	t1,t1,-20
     ede:	0000                	unimp
     ee0:	2e28                	fld	fa0,88(a2)
     ee2:	3f00                	fld	fs0,56(a4)
     ee4:	3c19                	addiw	s8,s8,-26
     ee6:	6e19                	lui	t3,0x6
     ee8:	030e                	slli	t1,t1,0x3
     eea:	3a0e                	fld	fs4,224(sp)
     eec:	390b3b0b          	.insn	4, 0x390b3b0b
     ef0:	0000000b          	.insn	4, 0x000b
     ef4:	1101                	addi	sp,sp,-32
     ef6:	2501                	sext.w	a0,a0
     ef8:	130e                	slli	t1,t1,0x23
     efa:	1b0e030b          	.insn	4, 0x1b0e030b
     efe:	110e                	slli	sp,sp,0x23
     f00:	1201                	addi	tp,tp,-32 # ffffffffffffffe0 <__heap_end+0xffffffff7ffdcfe0>
     f02:	00171007          	.insn	4, 0x00171007
     f06:	0200                	addi	s0,sp,256
     f08:	0016                	c.slli	zero,0x5
     f0a:	0b3a0e03          	lb	t3,179(s4)
     f0e:	0b390b3b          	.insn	4, 0x0b390b3b
     f12:	1349                	addi	t1,t1,-14
     f14:	0000                	unimp
     f16:	0b002403          	lw	s0,176(zero) # b0 <__stack_align+0xa0>
     f1a:	030b3e0b          	.insn	4, 0x030b3e0b
     f1e:	000e                	c.slli	zero,0x3
     f20:	0400                	addi	s0,sp,512
     f22:	0024                	addi	s1,sp,8
     f24:	0b3e0b0b          	.insn	4, 0x0b3e0b0b
     f28:	00000803          	lb	a6,0(zero) # 0 <__boot_hart>
     f2c:	1605                	addi	a2,a2,-31
     f2e:	0300                	addi	s0,sp,384
     f30:	3a0e                	fld	fs4,224(sp)
     f32:	39053b0b          	.insn	4, 0x39053b0b
     f36:	0013490b          	.insn	4, 0x0013490b
     f3a:	0600                	addi	s0,sp,768
     f3c:	0b0b0117          	auipc	sp,0xb0b0
     f40:	0b3a                	slli	s6,s6,0xe
     f42:	0b390b3b          	.insn	4, 0x0b390b3b
     f46:	1301                	addi	t1,t1,-32
     f48:	0000                	unimp
     f4a:	03000d07          	.insn	4, 0x03000d07
     f4e:	3a0e                	fld	fs4,224(sp)
     f50:	390b3b0b          	.insn	4, 0x390b3b0b
     f54:	0013490b          	.insn	4, 0x0013490b
     f58:	0800                	addi	s0,sp,16
     f5a:	0101                	addi	sp,sp,0 # b0b0f3c <__heap_size+0xb090f3c>
     f5c:	1349                	addi	t1,t1,-14
     f5e:	1301                	addi	t1,t1,-32
     f60:	0000                	unimp
     f62:	2109                	addiw	sp,sp,2
     f64:	4900                	lw	s0,16(a0)
     f66:	000b2f13          	slti	t5,s6,0
     f6a:	0a00                	addi	s0,sp,272
     f6c:	0b0b0113          	addi	sp,s6,176
     f70:	0b3a                	slli	s6,s6,0xe
     f72:	0b390b3b          	.insn	4, 0x0b390b3b
     f76:	1301                	addi	t1,t1,-32
     f78:	0000                	unimp
     f7a:	03000d0b          	.insn	4, 0x03000d0b
     f7e:	3a0e                	fld	fs4,224(sp)
     f80:	390b3b0b          	.insn	4, 0x390b3b0b
     f84:	3813490b          	.insn	4, 0x3813490b
     f88:	0c00000b          	.insn	4, 0x0c00000b
     f8c:	0b0b000f          	.insn	4, 0x0b0b000f
     f90:	0000                	unimp
     f92:	0f0d                	addi	t5,t5,3
     f94:	0b00                	addi	s0,sp,400
     f96:	0013490b          	.insn	4, 0x0013490b
     f9a:	0e00                	addi	s0,sp,784
     f9c:	0026                	c.slli	zero,0x9
     f9e:	1349                	addi	t1,t1,-14
     fa0:	0000                	unimp
     fa2:	0301130f          	.insn	4, 0x0301130f
     fa6:	0b0e                	slli	s6,s6,0x3
     fa8:	3b0b3a0b          	.insn	4, 0x3b0b3a0b
     fac:	010b390b          	.insn	4, 0x010b390b
     fb0:	10000013          	li	zero,256
     fb4:	000d                	c.nop	3
     fb6:	0b3a0803          	lb	a6,179(s4)
     fba:	0b390b3b          	.insn	4, 0x0b390b3b
     fbe:	1349                	addi	t1,t1,-14
     fc0:	0b38                	addi	a4,sp,408
     fc2:	0000                	unimp
     fc4:	1311                	addi	t1,t1,-28
     fc6:	0301                	addi	t1,t1,0
     fc8:	0b0e                	slli	s6,s6,0x3
     fca:	3a05                	addiw	s4,s4,-31
     fcc:	390b3b0b          	.insn	4, 0x390b3b0b
     fd0:	0013010b          	.insn	4, 0x0013010b
     fd4:	1200                	addi	s0,sp,288
     fd6:	000d                	c.nop	3
     fd8:	0b3a0e03          	lb	t3,179(s4)
     fdc:	0b390b3b          	.insn	4, 0x0b390b3b
     fe0:	1349                	addi	t1,t1,-14
     fe2:	0538                	addi	a4,sp,648
     fe4:	0000                	unimp
     fe6:	27001513          	.insn	4, 0x27001513
     fea:	0019                	c.nop	6
     fec:	1400                	addi	s0,sp,544
     fee:	0115                	addi	sp,sp,5
     ff0:	13491927          	.insn	4, 0x13491927
     ff4:	1301                	addi	t1,t1,-32
     ff6:	0000                	unimp
     ff8:	0515                	addi	a0,a0,5
     ffa:	4900                	lw	s0,16(a0)
     ffc:	16000013          	li	zero,352
    1000:	0e030113          	addi	sp,t1,224
    1004:	0b3a050b          	.insn	4, 0x0b3a050b
    1008:	0b39053b          	.insn	4, 0x0b39053b
    100c:	1301                	addi	t1,t1,-32
    100e:	0000                	unimp
    1010:	03000d17          	auipc	s10,0x3000
    1014:	3a0e                	fld	fs4,224(sp)
    1016:	39053b0b          	.insn	4, 0x39053b0b
    101a:	3813490b          	.insn	4, 0x3813490b
    101e:	1800000b          	.insn	4, 0x1800000b
    1022:	000d                	c.nop	3
    1024:	0b3a0e03          	lb	t3,179(s4)
    1028:	0b39053b          	.insn	4, 0x0b39053b
    102c:	1349                	addi	t1,t1,-14
    102e:	0538                	addi	a4,sp,648
    1030:	0000                	unimp
    1032:	1319                	addi	t1,t1,-26
    1034:	0301                	addi	t1,t1,0
    1036:	0b0e                	slli	s6,s6,0x3
    1038:	3b0b3a0b          	.insn	4, 0x3b0b3a0b
    103c:	3905                	addiw	s2,s2,-31
    103e:	0013010b          	.insn	4, 0x0013010b
    1042:	1a00                	addi	s0,sp,304
    1044:	0b0b0113          	addi	sp,s6,176
    1048:	0b3a                	slli	s6,s6,0xe
    104a:	0b39053b          	.insn	4, 0x0b39053b
    104e:	1301                	addi	t1,t1,-32
    1050:	0000                	unimp
    1052:	0b01131b          	.insn	4, 0x0b01131b
    1056:	3a05                	addiw	s4,s4,-31
    1058:	39053b0b          	.insn	4, 0x39053b0b
    105c:	0013010b          	.insn	4, 0x0013010b
    1060:	1c00                	addi	s0,sp,560
    1062:	050b0117          	auipc	sp,0x50b0
    1066:	0b3a                	slli	s6,s6,0xe
    1068:	0b39053b          	.insn	4, 0x0b39053b
    106c:	1301                	addi	t1,t1,-32
    106e:	0000                	unimp
    1070:	0d1d                	addi	s10,s10,7 # 3001017 <__heap_size+0x2fe1017>
    1072:	0300                	addi	s0,sp,384
    1074:	3a0e                	fld	fs4,224(sp)
    1076:	39053b0b          	.insn	4, 0x39053b0b
    107a:	0013490b          	.insn	4, 0x0013490b
    107e:	1e00                	addi	s0,sp,816
    1080:	0e030013          	addi	zero,t1,224
    1084:	193c                	addi	a5,sp,184
    1086:	0000                	unimp
    1088:	151f 2701 0119      	.insn	6, 0x01192701151f
    108e:	20000013          	li	zero,512
    1092:	0034                	addi	a3,sp,8
    1094:	0b3a0e03          	lb	t3,179(s4)
    1098:	0b39053b          	.insn	4, 0x0b39053b
    109c:	1349                	addi	t1,t1,-14
    109e:	193c193f 21210000 	.insn	8, 0x21210000193c193f
    10a6:	0000                	unimp
    10a8:	2200                	fld	fs0,0(a2)
    10aa:	0034                	addi	a3,sp,8
    10ac:	0b3a0e03          	lb	t3,179(s4)
    10b0:	0b390b3b          	.insn	4, 0x0b390b3b
    10b4:	1349                	addi	t1,t1,-14
    10b6:	193c193f 35230000 	.insn	8, 0x35230000193c193f
    10be:	4900                	lw	s0,16(a0)
    10c0:	24000013          	li	zero,576
    10c4:	0034                	addi	a3,sp,8
    10c6:	0b3a0e03          	lb	t3,179(s4)
    10ca:	0b390b3b          	.insn	4, 0x0b390b3b
    10ce:	1349                	addi	t1,t1,-14
    10d0:	1802                	slli	a6,a6,0x20
    10d2:	0000                	unimp
    10d4:	2e25                	addiw	t3,t3,9 # 6009 <__stack_size_min+0x9>
    10d6:	3f01                	addiw	t5,t5,-32
    10d8:	0319                	addi	t1,t1,6
    10da:	3a0e                	fld	fs4,224(sp)
    10dc:	390b3b0b          	.insn	4, 0x390b3b0b
    10e0:	4919270b          	.insn	4, 0x4919270b
    10e4:	12011113          	.insn	4, 0x12011113
    10e8:	97184007          	.insn	4, 0x97184007
    10ec:	1942                	slli	s2,s2,0x30
    10ee:	1301                	addi	t1,t1,-32
    10f0:	0000                	unimp
    10f2:	0526                	slli	a0,a0,0x9
    10f4:	0300                	addi	s0,sp,384
    10f6:	3a0e                	fld	fs4,224(sp)
    10f8:	390b3b0b          	.insn	4, 0x390b3b0b
    10fc:	0213490b          	.insn	4, 0x0213490b
    1100:	27000017          	auipc	zero,0x27000
    1104:	0034                	addi	a3,sp,8
    1106:	0b3a0e03          	lb	t3,179(s4)
    110a:	0b390b3b          	.insn	4, 0x0b390b3b
    110e:	1349                	addi	t1,t1,-14
    1110:	1702                	slli	a4,a4,0x20
    1112:	0000                	unimp
    1114:	8928                	.insn	2, 0x8928
    1116:	0182                	c.slli64	gp
    1118:	1100                	addi	s0,sp,160
    111a:	3101                	addiw	sp,sp,-32 # 50b1042 <__heap_size+0x5091042>
    111c:	29000013          	li	zero,656
    1120:	002e                	c.slli	zero,0xb
    1122:	193c193f 0e030e6e 	.insn	8, 0x0e030e6e193c193f
    112a:	0b3a                	slli	s6,s6,0xe
    112c:	0b390b3b          	.insn	4, 0x0b390b3b
    1130:	0000                	unimp
    1132:	0100                	addi	s0,sp,128
    1134:	0111                	addi	sp,sp,4
    1136:	0e25                	addi	t3,t3,9
    1138:	0e030b13          	addi	s6,t1,224
    113c:	01110e1b          	addiw	t3,sp,17
    1140:	0712                	slli	a4,a4,0x4
    1142:	1710                	addi	a2,sp,928
    1144:	0000                	unimp
    1146:	2402                	fld	fs0,0(sp)
    1148:	0b00                	addi	s0,sp,400
    114a:	030b3e0b          	.insn	4, 0x030b3e0b
    114e:	0008                	.insn	2, 0x0008
    1150:	0300                	addi	s0,sp,384
    1152:	0024                	addi	s1,sp,8
    1154:	0b3e0b0b          	.insn	4, 0x0b3e0b0b
    1158:	00000e03          	lb	t3,0(zero) # 0 <__boot_hart>
    115c:	1604                	addi	s1,sp,800
    115e:	0300                	addi	s0,sp,384
    1160:	3a0e                	fld	fs4,224(sp)
    1162:	390b3b0b          	.insn	4, 0x390b3b0b
    1166:	0013490b          	.insn	4, 0x0013490b
    116a:	0500                	addi	s0,sp,640
    116c:	0016                	c.slli	zero,0x5
    116e:	0b3a0e03          	lb	t3,179(s4)
    1172:	0b39053b          	.insn	4, 0x0b39053b
    1176:	1349                	addi	t1,t1,-14
    1178:	0000                	unimp
    117a:	1706                	slli	a4,a4,0x21
    117c:	0b01                	addi	s6,s6,0
    117e:	3b0b3a0b          	.insn	4, 0x3b0b3a0b
    1182:	010b390b          	.insn	4, 0x010b390b
    1186:	07000013          	li	zero,112
    118a:	000d                	c.nop	3
    118c:	0b3a0e03          	lb	t3,179(s4)
    1190:	0b390b3b          	.insn	4, 0x0b390b3b
    1194:	1349                	addi	t1,t1,-14
    1196:	0000                	unimp
    1198:	0108                	addi	a0,sp,128
    119a:	4901                	li	s2,0
    119c:	00130113          	addi	sp,t1,1
    11a0:	0900                	addi	s0,sp,144
    11a2:	0021                	c.nop	8
    11a4:	1349                	addi	t1,t1,-14
    11a6:	00000b2f          	.insn	4, 0x0b2f
    11aa:	130a                	slli	t1,t1,0x22
    11ac:	0b01                	addi	s6,s6,0
    11ae:	3b0b3a0b          	.insn	4, 0x3b0b3a0b
    11b2:	010b390b          	.insn	4, 0x010b390b
    11b6:	0b000013          	li	zero,176
    11ba:	000d                	c.nop	3
    11bc:	0b3a0e03          	lb	t3,179(s4)
    11c0:	0b390b3b          	.insn	4, 0x0b390b3b
    11c4:	1349                	addi	t1,t1,-14
    11c6:	0b38                	addi	a4,sp,408
    11c8:	0000                	unimp
    11ca:	0f0c                	addi	a1,sp,912
    11cc:	0b00                	addi	s0,sp,400
    11ce:	0d00000b          	.insn	4, 0x0d00000b
    11d2:	0b0b000f          	.insn	4, 0x0b0b000f
    11d6:	1349                	addi	t1,t1,-14
    11d8:	0000                	unimp
    11da:	260e                	fld	fa2,192(sp)
    11dc:	4900                	lw	s0,16(a0)
    11de:	0f000013          	li	zero,240
    11e2:	0e030113          	addi	sp,t1,224
    11e6:	0b3a0b0b          	.insn	4, 0x0b3a0b0b
    11ea:	0b390b3b          	.insn	4, 0x0b390b3b
    11ee:	1301                	addi	t1,t1,-32
    11f0:	0000                	unimp
    11f2:	0d10                	addi	a2,sp,656
    11f4:	0300                	addi	s0,sp,384
    11f6:	3a08                	fld	fa0,48(a2)
    11f8:	390b3b0b          	.insn	4, 0x390b3b0b
    11fc:	3813490b          	.insn	4, 0x3813490b
    1200:	1100000b          	.insn	4, 0x1100000b
    1204:	0e030113          	addi	sp,t1,224
    1208:	0b3a050b          	.insn	4, 0x0b3a050b
    120c:	0b390b3b          	.insn	4, 0x0b390b3b
    1210:	1301                	addi	t1,t1,-32
    1212:	0000                	unimp
    1214:	0d12                	slli	s10,s10,0x4
    1216:	0300                	addi	s0,sp,384
    1218:	3a0e                	fld	fs4,224(sp)
    121a:	390b3b0b          	.insn	4, 0x390b3b0b
    121e:	3813490b          	.insn	4, 0x3813490b
    1222:	0005                	c.nop	1
    1224:	1300                	addi	s0,sp,416
    1226:	0015                	c.nop	5
    1228:	00001927          	.insn	4, 0x1927
    122c:	1514                	addi	a3,sp,672
    122e:	2701                	sext.w	a4,a4
    1230:	4919                	li	s2,6
    1232:	00130113          	addi	sp,t1,1
    1236:	1500                	addi	s0,sp,672
    1238:	0005                	c.nop	1
    123a:	1349                	addi	t1,t1,-14
    123c:	0000                	unimp
    123e:	1316                	slli	t1,t1,0x25
    1240:	0301                	addi	t1,t1,0
    1242:	0b0e                	slli	s6,s6,0x3
    1244:	3a05                	addiw	s4,s4,-31
    1246:	39053b0b          	.insn	4, 0x39053b0b
    124a:	0013010b          	.insn	4, 0x0013010b
    124e:	1700                	addi	s0,sp,928
    1250:	000d                	c.nop	3
    1252:	0b3a0e03          	lb	t3,179(s4)
    1256:	0b39053b          	.insn	4, 0x0b39053b
    125a:	1349                	addi	t1,t1,-14
    125c:	0b38                	addi	a4,sp,408
    125e:	0000                	unimp
    1260:	0d18                	addi	a4,sp,656
    1262:	0300                	addi	s0,sp,384
    1264:	3a0e                	fld	fs4,224(sp)
    1266:	39053b0b          	.insn	4, 0x39053b0b
    126a:	3813490b          	.insn	4, 0x3813490b
    126e:	0005                	c.nop	1
    1270:	1900                	addi	s0,sp,176
    1272:	0e030113          	addi	sp,t1,224
    1276:	0b3a0b0b          	.insn	4, 0x0b3a0b0b
    127a:	0b39053b          	.insn	4, 0x0b39053b
    127e:	1301                	addi	t1,t1,-32
    1280:	0000                	unimp
    1282:	131a                	slli	t1,t1,0x26
    1284:	0b01                	addi	s6,s6,0
    1286:	3b0b3a0b          	.insn	4, 0x3b0b3a0b
    128a:	3905                	addiw	s2,s2,-31
    128c:	0013010b          	.insn	4, 0x0013010b
    1290:	1b00                	addi	s0,sp,432
    1292:	050b0113          	addi	sp,s6,80
    1296:	0b3a                	slli	s6,s6,0xe
    1298:	0b39053b          	.insn	4, 0x0b39053b
    129c:	1301                	addi	t1,t1,-32
    129e:	0000                	unimp
    12a0:	171c                	addi	a5,sp,928
    12a2:	0b01                	addi	s6,s6,0
    12a4:	3a05                	addiw	s4,s4,-31
    12a6:	39053b0b          	.insn	4, 0x39053b0b
    12aa:	0013010b          	.insn	4, 0x0013010b
    12ae:	1d00                	addi	s0,sp,688
    12b0:	000d                	c.nop	3
    12b2:	0b3a0e03          	lb	t3,179(s4)
    12b6:	0b39053b          	.insn	4, 0x0b39053b
    12ba:	1349                	addi	t1,t1,-14
    12bc:	0000                	unimp
    12be:	131e                	slli	t1,t1,0x27
    12c0:	0300                	addi	s0,sp,384
    12c2:	3c0e                	fld	fs8,224(sp)
    12c4:	0019                	c.nop	6
    12c6:	1f00                	addi	s0,sp,944
    12c8:	0115                	addi	sp,sp,5
    12ca:	13011927          	.insn	4, 0x13011927
    12ce:	0000                	unimp
    12d0:	3420                	fld	fs0,104(s0)
    12d2:	0300                	addi	s0,sp,384
    12d4:	3a0e                	fld	fs4,224(sp)
    12d6:	39053b0b          	.insn	4, 0x39053b0b
    12da:	3f13490b          	.insn	4, 0x3f13490b
    12de:	3c19                	addiw	s8,s8,-26
    12e0:	0019                	c.nop	6
    12e2:	2100                	fld	fs0,0(a0)
    12e4:	0021                	c.nop	8
    12e6:	0000                	unimp
    12e8:	3422                	fld	fs0,40(sp)
    12ea:	0300                	addi	s0,sp,384
    12ec:	3a0e                	fld	fs4,224(sp)
    12ee:	390b3b0b          	.insn	4, 0x390b3b0b
    12f2:	3f13490b          	.insn	4, 0x3f13490b
    12f6:	3c19                	addiw	s8,s8,-26
    12f8:	0019                	c.nop	6
    12fa:	2300                	fld	fs0,0(a4)
    12fc:	0035                	c.nop	13
    12fe:	1349                	addi	t1,t1,-14
    1300:	0000                	unimp
    1302:	2e24                	fld	fs1,88(a2)
    1304:	3f01                	addiw	t5,t5,-32
    1306:	0319                	addi	t1,t1,6
    1308:	3a0e                	fld	fs4,224(sp)
    130a:	390b3b0b          	.insn	4, 0x390b3b0b
    130e:	4919270b          	.insn	4, 0x4919270b
    1312:	12011113          	.insn	4, 0x12011113
    1316:	97184007          	.insn	4, 0x97184007
    131a:	1942                	slli	s2,s2,0x30
    131c:	1301                	addi	t1,t1,-32
    131e:	0000                	unimp
    1320:	0525                	addi	a0,a0,9
    1322:	0300                	addi	s0,sp,384
    1324:	3a08                	fld	fa0,48(a2)
    1326:	390b3b0b          	.insn	4, 0x390b3b0b
    132a:	0213490b          	.insn	4, 0x0213490b
    132e:	26000017          	auipc	zero,0x26000
    1332:	8289                	srli	a3,a3,0x2
    1334:	0101                	addi	sp,sp,0
    1336:	0111                	addi	sp,sp,4
    1338:	4295                	li	t0,5
    133a:	3119                	addiw	sp,sp,-26
    133c:	27000013          	li	zero,624
    1340:	828a                	mv	t0,sp
    1342:	0001                	nop
    1344:	1802                	slli	a6,a6,0x20
    1346:	4291                	li	t0,4
    1348:	0018                	.insn	2, 0x0018
    134a:	2800                	fld	fs0,16(s0)
    134c:	0026                	c.slli	zero,0x9
    134e:	0000                	unimp
    1350:	2e29                	addiw	t3,t3,10
    1352:	3f00                	fld	fs0,56(a4)
    1354:	3c19                	addiw	s8,s8,-26
    1356:	6e19                	lui	t3,0x6
    1358:	030e                	slli	t1,t1,0x3
    135a:	3a0e                	fld	fs4,224(sp)
    135c:	390b3b0b          	.insn	4, 0x390b3b0b
    1360:	0000000b          	.insn	4, 0x000b

Disassembly of section .debug_aranges:

0000000000000000 <.debug_aranges>:
   0:	002c                	addi	a1,sp,8
   2:	0000                	unimp
   4:	0002                	c.slli64	zero
   6:	0000                	unimp
   8:	0000                	unimp
   a:	0008                	.insn	2, 0x0008
   c:	0000                	unimp
   e:	0000                	unimp
  10:	023e                	slli	tp,tp,0xf
  12:	8000                	.insn	2, 0x8000
  14:	0000                	unimp
  16:	0000                	unimp
  18:	109a                	slli	ra,ra,0x26
	...
  2e:	0000                	unimp
  30:	002c                	addi	a1,sp,8
  32:	0000                	unimp
  34:	0002                	c.slli64	zero
  36:	09a4                	addi	s1,sp,216
  38:	0000                	unimp
  3a:	0008                	.insn	2, 0x0008
  3c:	0000                	unimp
  3e:	0000                	unimp
  40:	12d8                	addi	a4,sp,356
  42:	8000                	.insn	2, 0x8000
  44:	0000                	unimp
  46:	0000                	unimp
  48:	03d8                	addi	a4,sp,452
	...
  5e:	0000                	unimp
  60:	002c                	addi	a1,sp,8
  62:	0000                	unimp
  64:	0002                	c.slli64	zero
  66:	00000cbf 00000008 	.insn	8, 0x000800000cbf
  6e:	0000                	unimp
  70:	0000                	unimp
  72:	8000                	.insn	2, 0x8000
  74:	0000                	unimp
  76:	0000                	unimp
  78:	01f4                	addi	a3,sp,204
	...
  8e:	0000                	unimp
  90:	002c                	addi	a1,sp,8
  92:	0000                	unimp
  94:	0002                	c.slli64	zero
  96:	0ced                	addi	s9,s9,27 # 401b <__stack_align+0x400b>
  98:	0000                	unimp
  9a:	0008                	.insn	2, 0x0008
  9c:	0000                	unimp
  9e:	0000                	unimp
  a0:	01f4                	addi	a3,sp,204
  a2:	8000                	.insn	2, 0x8000
  a4:	0000                	unimp
  a6:	0000                	unimp
  a8:	004a                	c.slli	zero,0x12
	...
  be:	0000                	unimp
  c0:	002c                	addi	a1,sp,8
  c2:	0000                	unimp
  c4:	0002                	c.slli64	zero
  c6:	00000d1b          	sext.w	s10,zero
  ca:	0008                	.insn	2, 0x0008
  cc:	0000                	unimp
  ce:	0000                	unimp
  d0:	16b0                	addi	a2,sp,872
  d2:	8000                	.insn	2, 0x8000
  d4:	0000                	unimp
  d6:	0000                	unimp
  d8:	0016                	c.slli	zero,0x5
	...
  ee:	0000                	unimp
  f0:	002c                	addi	a1,sp,8
  f2:	0000                	unimp
  f4:	0002                	c.slli64	zero
  f6:	0e89                	addi	t4,t4,2
  f8:	0000                	unimp
  fa:	0008                	.insn	2, 0x0008
  fc:	0000                	unimp
  fe:	0000                	unimp
 100:	16c6                	slli	a3,a3,0x31
 102:	8000                	.insn	2, 0x8000
 104:	0000                	unimp
 106:	0000                	unimp
 108:	002e                	c.slli	zero,0xb
	...
 11e:	0000                	unimp
 120:	002c                	addi	a1,sp,8
 122:	0000                	unimp
 124:	0002                	c.slli64	zero
 126:	1862                	slli	a6,a6,0x38
 128:	0000                	unimp
 12a:	0008                	.insn	2, 0x0008
 12c:	0000                	unimp
 12e:	0000                	unimp
 130:	16f4                	addi	a3,sp,876
 132:	8000                	.insn	2, 0x8000
 134:	0000                	unimp
 136:	0000                	unimp
 138:	0006                	c.slli	zero,0x1
	...
 14e:	0000                	unimp
 150:	002c                	addi	a1,sp,8
 152:	0000                	unimp
 154:	0002                	c.slli64	zero
 156:	18aa                	slli	a7,a7,0x2a
 158:	0000                	unimp
 15a:	0008                	.insn	2, 0x0008
 15c:	0000                	unimp
 15e:	0000                	unimp
 160:	16fa                	slli	a3,a3,0x3e
 162:	8000                	.insn	2, 0x8000
 164:	0000                	unimp
 166:	0000                	unimp
 168:	0020                	addi	s0,sp,8
	...
 17e:	0000                	unimp
 180:	002c                	addi	a1,sp,8
 182:	0000                	unimp
 184:	0002                	c.slli64	zero
 186:	1991                	addi	s3,s3,-28
 188:	0000                	unimp
 18a:	0008                	.insn	2, 0x0008
 18c:	0000                	unimp
 18e:	0000                	unimp
 190:	171a                	slli	a4,a4,0x26
 192:	8000                	.insn	2, 0x8000
 194:	0000                	unimp
 196:	0000                	unimp
 198:	0052                	c.slli	zero,0x14
	...
 1ae:	0000                	unimp
 1b0:	002c                	addi	a1,sp,8
 1b2:	0000                	unimp
 1b4:	0002                	c.slli64	zero
 1b6:	1d09                	addi	s10,s10,-30
 1b8:	0000                	unimp
 1ba:	0008                	.insn	2, 0x0008
 1bc:	0000                	unimp
 1be:	0000                	unimp
 1c0:	2242                	fld	ft4,16(sp)
 1c2:	8000                	.insn	2, 0x8000
 1c4:	0000                	unimp
 1c6:	0000                	unimp
 1c8:	0014                	.insn	2, 0x0014
	...
 1de:	0000                	unimp
 1e0:	002c                	addi	a1,sp,8
 1e2:	0000                	unimp
 1e4:	0002                	c.slli64	zero
 1e6:	26d9                	addiw	a3,a3,22
 1e8:	0000                	unimp
 1ea:	0008                	.insn	2, 0x0008
 1ec:	0000                	unimp
 1ee:	0000                	unimp
 1f0:	2256                	fld	ft4,336(sp)
 1f2:	8000                	.insn	2, 0x8000
 1f4:	0000                	unimp
 1f6:	0000                	unimp
 1f8:	0014                	.insn	2, 0x0014
	...
 20e:	0000                	unimp
 210:	002c                	addi	a1,sp,8
 212:	0000                	unimp
 214:	0002                	c.slli64	zero
 216:	30e1                	addiw	ra,ra,-8 # 3050 <__stack_align+0x3040>
 218:	0000                	unimp
 21a:	0008                	.insn	2, 0x0008
 21c:	0000                	unimp
 21e:	0000                	unimp
 220:	226a                	fld	ft4,152(sp)
 222:	8000                	.insn	2, 0x8000
 224:	0000                	unimp
 226:	0000                	unimp
 228:	0016                	c.slli	zero,0x5
	...
 23e:	0000                	unimp
 240:	002c                	addi	a1,sp,8
 242:	0000                	unimp
 244:	0002                	c.slli64	zero
 246:	3ae9                	addiw	s5,s5,-6
 248:	0000                	unimp
 24a:	0008                	.insn	2, 0x0008
 24c:	0000                	unimp
 24e:	0000                	unimp
 250:	2280                	fld	fs0,0(a3)
 252:	8000                	.insn	2, 0x8000
 254:	0000                	unimp
 256:	0000                	unimp
 258:	003a                	c.slli	zero,0xe
	...
 26e:	0000                	unimp
 270:	002c                	addi	a1,sp,8
 272:	0000                	unimp
 274:	0002                	c.slli64	zero
 276:	451e                	lw	a0,196(sp)
 278:	0000                	unimp
 27a:	0008                	.insn	2, 0x0008
 27c:	0000                	unimp
 27e:	0000                	unimp
 280:	22ba                	fld	ft5,392(sp)
 282:	8000                	.insn	2, 0x8000
 284:	0000                	unimp
 286:	0000                	unimp
 288:	0008                	.insn	2, 0x0008
	...

Disassembly of section .debug_line:

0000000000000000 <.debug_line>:
       0:	0bb4                	addi	a3,sp,472
       2:	0000                	unimp
       4:	0005                	c.nop	1
       6:	0008                	.insn	2, 0x0008
       8:	005d                	c.nop	23
       a:	0000                	unimp
       c:	0101                	addi	sp,sp,0
       e:	fb01                	bnez	a4,ffffffffffffff1e <__heap_end+0xffffffff7ffdcf1e>
      10:	0d0e                	slli	s10,s10,0x3
      12:	0100                	addi	s0,sp,128
      14:	0101                	addi	sp,sp,0
      16:	0001                	nop
      18:	0000                	unimp
      1a:	0001                	nop
      1c:	0100                	addi	s0,sp,128
      1e:	0101                	addi	sp,sp,0
      20:	051f 0009 0000      	.insn	6, 0x0009051f
      26:	0036                	c.slli	zero,0xd
      28:	0000                	unimp
      2a:	006c                	addi	a1,sp,12
      2c:	0000                	unimp
      2e:	00a9                	addi	ra,ra,10
      30:	0000                	unimp
      32:	000000f7          	.insn	4, 0x00f7
      36:	0102                	c.slli64	sp
      38:	021f 090f 0000      	.insn	6, 0x090f021f
      3e:	0000                	unimp
      40:	4100                	lw	s0,0(a0)
      42:	0001                	nop
      44:	0100                	addi	s0,sp,128
      46:	0148                	addi	a0,sp,132
      48:	0000                	unimp
      4a:	5702                	lw	a4,32(sp)
      4c:	0001                	nop
      4e:	0200                	addi	s0,sp,256
      50:	0165                	addi	sp,sp,25
      52:	0000                	unimp
      54:	0002                	c.slli64	zero
      56:	0000                	unimp
      58:	0000                	unimp
      5a:	0172                	slli	sp,sp,0x1c
      5c:	0000                	unimp
      5e:	00018303          	lb	t1,0(gp) # 80003338 <__global_pointer$>
      62:	0400                	addi	s0,sp,512
      64:	018d                	addi	gp,gp,3 # 8000333b <__global_pointer$+0x3>
      66:	0000                	unimp
      68:	0500                	addi	s0,sp,640
      6a:	0001                	nop
      6c:	0209                	addi	tp,tp,2 # 2 <__boot_hart+0x2>
      6e:	023e                	slli	tp,tp,0xf
      70:	8000                	.insn	2, 0x8000
      72:	0000                	unimp
      74:	0000                	unimp
      76:	05011e03          	lh	t3,80(sp)
      7a:	0315                	addi	t1,t1,5
      7c:	0901                	addi	s2,s2,0
      7e:	0010                	.insn	2, 0x0010
      80:	0501                	addi	a0,a0,0
      82:	09010307          	.insn	4, 0x09010307
      86:	0008                	.insn	2, 0x0008
      88:	0501                	addi	a0,a0,0
      8a:	0301                	addi	t1,t1,0
      8c:	0901                	addi	s2,s2,0
      8e:	000a                	c.slli	zero,0x2
      90:	0301                	addi	t1,t1,0
      92:	00080903          	lb	s2,0(a6) # 590b57be <__heap_size+0x590957be>
      96:	0501                	addi	a0,a0,0
      98:	0315                	addi	t1,t1,5
      9a:	0901                	addi	s2,s2,0
      9c:	000a                	c.slli	zero,0x2
      9e:	0501                	addi	a0,a0,0
      a0:	0309                	addi	t1,t1,2
      a2:	0901                	addi	s2,s2,0
      a4:	0008                	.insn	2, 0x0008
      a6:	0501                	addi	a0,a0,0
      a8:	0301                	addi	t1,t1,0
      aa:	0901                	addi	s2,s2,0
      ac:	0008                	.insn	2, 0x0008
      ae:	0401                	addi	s0,s0,0
      b0:	0502                	c.slli64	a0
      b2:	0321                	addi	t1,t1,8
      b4:	0974                	addi	a3,sp,156
      b6:	0008                	.insn	2, 0x0008
      b8:	0501                	addi	a0,a0,0
      ba:	09010303          	lb	t1,144(sp)
      be:	0008                	.insn	2, 0x0008
      c0:	0301                	addi	t1,t1,0
      c2:	0901                	addi	s2,s2,0
      c4:	000a                	c.slli	zero,0x2
      c6:	0501                	addi	a0,a0,0
      c8:	0301                	addi	t1,t1,0
      ca:	0901                	addi	s2,s2,0
      cc:	000a                	c.slli	zero,0x2
      ce:	0501                	addi	a0,a0,0
      d0:	034e                	slli	t1,t1,0x13
      d2:	0902                	c.slli64	s2
      d4:	000a                	c.slli	zero,0x2
      d6:	0501                	addi	a0,a0,0
      d8:	0305                	addi	t1,t1,1
      da:	0901                	addi	s2,s2,0
      dc:	0016                	c.slli	zero,0x5
      de:	0301                	addi	t1,t1,0
      e0:	0901                	addi	s2,s2,0
      e2:	0012                	c.slli	zero,0x4
      e4:	0301                	addi	t1,t1,0
      e6:	0901                	addi	s2,s2,0
      e8:	0012                	c.slli	zero,0x4
      ea:	0301                	addi	t1,t1,0
      ec:	0901                	addi	s2,s2,0
      ee:	000a                	c.slli	zero,0x2
      f0:	0501                	addi	a0,a0,0
      f2:	0301                	addi	t1,t1,0
      f4:	0901                	addi	s2,s2,0
      f6:	000a                	c.slli	zero,0x2
      f8:	0501                	addi	a0,a0,0
      fa:	0344                	addi	s1,sp,388
      fc:	0902                	c.slli64	s2
      fe:	000a                	c.slli	zero,0x2
     100:	0501                	addi	a0,a0,0
     102:	0305                	addi	t1,t1,1
     104:	0901                	addi	s2,s2,0
     106:	000e                	c.slli	zero,0x3
     108:	0301                	addi	t1,t1,0
     10a:	0901                	addi	s2,s2,0
     10c:	0012                	c.slli	zero,0x4
     10e:	0301                	addi	t1,t1,0
     110:	0902                	c.slli64	s2
     112:	000e                	c.slli	zero,0x3
     114:	0501                	addi	a0,a0,0
     116:	0319                	addi	t1,t1,6
     118:	0901                	addi	s2,s2,0
     11a:	000a                	c.slli	zero,0x2
     11c:	0501                	addi	a0,a0,0
     11e:	0305                	addi	t1,t1,1
     120:	0901                	addi	s2,s2,0
     122:	0012                	c.slli	zero,0x4
     124:	0501                	addi	a0,a0,0
     126:	030c                	addi	a1,sp,384
     128:	0901                	addi	s2,s2,0
     12a:	000a                	c.slli	zero,0x2
     12c:	0501                	addi	a0,a0,0
     12e:	0301                	addi	t1,t1,0
     130:	0901                	addi	s2,s2,0
     132:	0004                	.insn	2, 0x0004
     134:	0301                	addi	t1,t1,0
     136:	0909                	addi	s2,s2,2
     138:	000a                	c.slli	zero,0x2
     13a:	0501                	addi	a0,a0,0
     13c:	030e                	slli	t1,t1,0x3
     13e:	0901                	addi	s2,s2,0
     140:	0026                	c.slli	zero,0x9
     142:	0501                	addi	a0,a0,0
     144:	0305                	addi	t1,t1,1
     146:	0900                	addi	s0,sp,144
     148:	0004                	.insn	2, 0x0004
     14a:	0501                	addi	a0,a0,0
     14c:	0336                	slli	t1,t1,0xd
     14e:	0901                	addi	s2,s2,0
     150:	0002                	c.slli64	zero
     152:	0501                	addi	a0,a0,0
     154:	0309                	addi	t1,t1,2
     156:	0900                	addi	s0,sp,144
     158:	0008                	.insn	2, 0x0008
     15a:	0501                	addi	a0,a0,0
     15c:	033e                	slli	t1,t1,0xf
     15e:	0900                	addi	s0,sp,144
     160:	0004                	.insn	2, 0x0004
     162:	0501                	addi	a0,a0,0
     164:	0309                	addi	t1,t1,2
     166:	0900                	addi	s0,sp,144
     168:	000c                	.insn	2, 0x000c
     16a:	0501                	addi	a0,a0,0
     16c:	001c                	.insn	2, 0x001c
     16e:	0402                	c.slli64	s0
     170:	097f0303          	lb	t1,151(t5)
     174:	000a                	c.slli	zero,0x2
     176:	0501                	addi	a0,a0,0
     178:	04020017          	auipc	zero,0x4020
     17c:	0301                	addi	t1,t1,0
     17e:	0900                	addi	s0,sp,144
     180:	000a                	c.slli	zero,0x2
     182:	0501                	addi	a0,a0,0
     184:	030e                	slli	t1,t1,0x3
     186:	000e0903          	lb	s2,0(t3) # 6000 <__stack_size_min>
     18a:	0501                	addi	a0,a0,0
     18c:	0305                	addi	t1,t1,1
     18e:	0900                	addi	s0,sp,144
     190:	0004                	.insn	2, 0x0004
     192:	0501                	addi	a0,a0,0
     194:	033a                	slli	t1,t1,0xe
     196:	0901                	addi	s2,s2,0
     198:	0002                	c.slli64	zero
     19a:	0501                	addi	a0,a0,0
     19c:	0309                	addi	t1,t1,2
     19e:	0900                	addi	s0,sp,144
     1a0:	000a                	c.slli	zero,0x2
     1a2:	0501                	addi	a0,a0,0
     1a4:	0346                	slli	t1,t1,0x11
     1a6:	0900                	addi	s0,sp,144
     1a8:	0004                	.insn	2, 0x0004
     1aa:	0501                	addi	a0,a0,0
     1ac:	0309                	addi	t1,t1,2
     1ae:	0900                	addi	s0,sp,144
     1b0:	000c                	.insn	2, 0x000c
     1b2:	0501                	addi	a0,a0,0
     1b4:	001d                	c.nop	7
     1b6:	0402                	c.slli64	s0
     1b8:	097f0303          	lb	t1,151(t5)
     1bc:	000a                	c.slli	zero,0x2
     1be:	0501                	addi	a0,a0,0
     1c0:	04020017          	auipc	zero,0x4020
     1c4:	0301                	addi	t1,t1,0
     1c6:	0900                	addi	s0,sp,144
     1c8:	000a                	c.slli	zero,0x2
     1ca:	0501                	addi	a0,a0,0
     1cc:	0305                	addi	t1,t1,1
     1ce:	000e0903          	lb	s2,0(t3)
     1d2:	0501                	addi	a0,a0,0
     1d4:	0330                	addi	a2,sp,392
     1d6:	0901                	addi	s2,s2,0
     1d8:	0010                	.insn	2, 0x0010
     1da:	0501                	addi	a0,a0,0
     1dc:	0305                	addi	t1,t1,1
     1de:	0900                	addi	s0,sp,144
     1e0:	0006                	c.slli	zero,0x1
     1e2:	0301                	addi	t1,t1,0
     1e4:	0902                	c.slli64	s2
     1e6:	000c                	.insn	2, 0x000c
     1e8:	0301                	addi	t1,t1,0
     1ea:	0901                	addi	s2,s2,0
     1ec:	000c                	.insn	2, 0x000c
     1ee:	0301                	addi	t1,t1,0
     1f0:	0901                	addi	s2,s2,0
     1f2:	000c                	.insn	2, 0x000c
     1f4:	0501                	addi	a0,a0,0
     1f6:	030a                	slli	t1,t1,0x2
     1f8:	0902                	c.slli64	s2
     1fa:	0008                	.insn	2, 0x0008
     1fc:	0501                	addi	a0,a0,0
     1fe:	0402000b          	.insn	4, 0x0402000b
     202:	0301                	addi	t1,t1,0
     204:	0900                	addi	s0,sp,144
     206:	0002                	c.slli64	zero
     208:	0501                	addi	a0,a0,0
     20a:	0038                	addi	a4,sp,8
     20c:	0402                	c.slli64	s0
     20e:	0301                	addi	t1,t1,0
     210:	0900                	addi	s0,sp,144
     212:	000a                	c.slli	zero,0x2
     214:	0501                	addi	a0,a0,0
     216:	030e                	slli	t1,t1,0x3
     218:	0902                	c.slli64	s2
     21a:	0002                	c.slli64	zero
     21c:	0501                	addi	a0,a0,0
     21e:	0305                	addi	t1,t1,1
     220:	0900                	addi	s0,sp,144
     222:	0004                	.insn	2, 0x0004
     224:	0501                	addi	a0,a0,0
     226:	034a                	slli	t1,t1,0x12
     228:	0901                	addi	s2,s2,0
     22a:	0002                	c.slli64	zero
     22c:	0501                	addi	a0,a0,0
     22e:	09000317          	auipc	t1,0x9000
     232:	000a                	c.slli	zero,0x2
     234:	0501                	addi	a0,a0,0
     236:	0311                	addi	t1,t1,4 # 9000232 <__heap_size+0x8fe0232>
     238:	0900                	addi	s0,sp,144
     23a:	0004                	.insn	2, 0x0004
     23c:	0501                	addi	a0,a0,0
     23e:	09000317          	auipc	t1,0x9000
     242:	000e                	c.slli	zero,0x3
     244:	0501                	addi	a0,a0,0
     246:	0015                	c.nop	5
     248:	0402                	c.slli64	s0
     24a:	0301                	addi	t1,t1,0 # 900023e <__heap_size+0x8fe023e>
     24c:	0900                	addi	s0,sp,144
     24e:	000a                	c.slli	zero,0x2
     250:	0501                	addi	a0,a0,0
     252:	001d                	c.nop	7
     254:	0402                	c.slli64	s0
     256:	097f0303          	lb	t1,151(t5)
     25a:	0002                	c.slli64	zero
     25c:	0501                	addi	a0,a0,0
     25e:	04020017          	auipc	zero,0x4020
     262:	0301                	addi	t1,t1,0
     264:	0900                	addi	s0,sp,144
     266:	000a                	c.slli	zero,0x2
     268:	0501                	addi	a0,a0,0
     26a:	0301                	addi	t1,t1,0
     26c:	0902                	c.slli64	s2
     26e:	000e                	c.slli	zero,0x3
     270:	0501                	addi	a0,a0,0
     272:	033e                	slli	t1,t1,0xf
     274:	0902                	c.slli64	s2
     276:	000e                	c.slli	zero,0x3
     278:	0501                	addi	a0,a0,0
     27a:	0305                	addi	t1,t1,1
     27c:	0901                	addi	s2,s2,0
     27e:	000e                	c.slli	zero,0x3
     280:	0501                	addi	a0,a0,0
     282:	030a                	slli	t1,t1,0x2
     284:	0902                	c.slli64	s2
     286:	0008                	.insn	2, 0x0008
     288:	0501                	addi	a0,a0,0
     28a:	0402000b          	.insn	4, 0x0402000b
     28e:	0301                	addi	t1,t1,0
     290:	0900                	addi	s0,sp,144
     292:	0002                	c.slli64	zero
     294:	0501                	addi	a0,a0,0
     296:	0038                	addi	a4,sp,8
     298:	0402                	c.slli64	s0
     29a:	0301                	addi	t1,t1,0
     29c:	0900                	addi	s0,sp,144
     29e:	000a                	c.slli	zero,0x2
     2a0:	0501                	addi	a0,a0,0
     2a2:	030e                	slli	t1,t1,0x3
     2a4:	0902                	c.slli64	s2
     2a6:	0002                	c.slli64	zero
     2a8:	0501                	addi	a0,a0,0
     2aa:	0305                	addi	t1,t1,1
     2ac:	0900                	addi	s0,sp,144
     2ae:	0004                	.insn	2, 0x0004
     2b0:	0501                	addi	a0,a0,0
     2b2:	034a                	slli	t1,t1,0x12
     2b4:	0901                	addi	s2,s2,0
     2b6:	0002                	c.slli64	zero
     2b8:	0501                	addi	a0,a0,0
     2ba:	09000317          	auipc	t1,0x9000
     2be:	000a                	c.slli	zero,0x2
     2c0:	0501                	addi	a0,a0,0
     2c2:	0311                	addi	t1,t1,4 # 90002be <__heap_size+0x8fe02be>
     2c4:	0900                	addi	s0,sp,144
     2c6:	0004                	.insn	2, 0x0004
     2c8:	0501                	addi	a0,a0,0
     2ca:	09000317          	auipc	t1,0x9000
     2ce:	000e                	c.slli	zero,0x3
     2d0:	0501                	addi	a0,a0,0
     2d2:	0015                	c.nop	5
     2d4:	0402                	c.slli64	s0
     2d6:	0301                	addi	t1,t1,0 # 90002ca <__heap_size+0x8fe02ca>
     2d8:	0900                	addi	s0,sp,144
     2da:	000a                	c.slli	zero,0x2
     2dc:	0501                	addi	a0,a0,0
     2de:	001d                	c.nop	7
     2e0:	0402                	c.slli64	s0
     2e2:	097f0303          	lb	t1,151(t5)
     2e6:	0002                	c.slli64	zero
     2e8:	0501                	addi	a0,a0,0
     2ea:	04020017          	auipc	zero,0x4020
     2ee:	0301                	addi	t1,t1,0
     2f0:	0900                	addi	s0,sp,144
     2f2:	000a                	c.slli	zero,0x2
     2f4:	0501                	addi	a0,a0,0
     2f6:	0301                	addi	t1,t1,0
     2f8:	0902                	c.slli64	s2
     2fa:	000e                	c.slli	zero,0x3
     2fc:	0501                	addi	a0,a0,0
     2fe:	0321                	addi	t1,t1,8
     300:	0902                	c.slli64	s2
     302:	000e                	c.slli	zero,0x3
     304:	0501                	addi	a0,a0,0
     306:	0310                	addi	a2,sp,384
     308:	0901                	addi	s2,s2,0
     30a:	0008                	.insn	2, 0x0008
     30c:	0501                	addi	a0,a0,0
     30e:	0901030f          	.insn	4, 0x0901030f
     312:	0020                	addi	s0,sp,8
     314:	0301                	addi	t1,t1,0
     316:	0901                	addi	s2,s2,0
     318:	0008                	.insn	2, 0x0008
     31a:	0301                	addi	t1,t1,0
     31c:	0906                	slli	s2,s2,0x1
     31e:	0040                	addi	s0,sp,4
     320:	0301                	addi	t1,t1,0
     322:	0906                	slli	s2,s2,0x1
     324:	0040                	addi	s0,sp,4
     326:	0501                	addi	a0,a0,0
     328:	09080303          	lb	t1,144(a6)
     32c:	003c                	addi	a5,sp,8
     32e:	0301                	addi	t1,t1,0
     330:	0902                	c.slli64	s2
     332:	0018                	.insn	2, 0x0018
     334:	0301                	addi	t1,t1,0
     336:	0909                	addi	s2,s2,2
     338:	000c                	.insn	2, 0x000c
     33a:	0501                	addi	a0,a0,0
     33c:	0901030b          	.insn	4, 0x0901030b
     340:	000c                	.insn	2, 0x000c
     342:	0501                	addi	a0,a0,0
     344:	09000303          	lb	t1,144(zero) # 90 <__stack_align+0x80>
     348:	0004                	.insn	2, 0x0004
     34a:	0501                	addi	a0,a0,0
     34c:	09010307          	.insn	4, 0x09010307
     350:	0002                	c.slli64	zero
     352:	0501                	addi	a0,a0,0
     354:	0402001b          	addiw	zero,tp,64 # 40 <__stack_align+0x30>
     358:	097f0303          	lb	t1,151(t5)
     35c:	001c                	.insn	2, 0x001c
     35e:	0501                	addi	a0,a0,0
     360:	0014                	.insn	2, 0x0014
     362:	0402                	c.slli64	s0
     364:	0301                	addi	t1,t1,0
     366:	0900                	addi	s0,sp,144
     368:	000a                	c.slli	zero,0x2
     36a:	0501                	addi	a0,a0,0
     36c:	0302                	c.slli64	t1
     36e:	000e0903          	lb	s2,0(t3)
     372:	0501                	addi	a0,a0,0
     374:	030a                	slli	t1,t1,0x2
     376:	0901                	addi	s2,s2,0
     378:	000c                	.insn	2, 0x000c
     37a:	0501                	addi	a0,a0,0
     37c:	0302                	c.slli64	t1
     37e:	0900                	addi	s0,sp,144
     380:	0004                	.insn	2, 0x0004
     382:	0501                	addi	a0,a0,0
     384:	0306                	slli	t1,t1,0x1
     386:	0901                	addi	s2,s2,0
     388:	0002                	c.slli64	zero
     38a:	0501                	addi	a0,a0,0
     38c:	001a                	c.slli	zero,0x6
     38e:	0402                	c.slli64	s0
     390:	097f0303          	lb	t1,151(t5)
     394:	001c                	.insn	2, 0x001c
     396:	0501                	addi	a0,a0,0
     398:	04020013          	addi	zero,tp,64 # 40 <__stack_align+0x30>
     39c:	0301                	addi	t1,t1,0
     39e:	0900                	addi	s0,sp,144
     3a0:	000a                	c.slli	zero,0x2
     3a2:	0501                	addi	a0,a0,0
     3a4:	09030303          	lb	t1,144(t1)
     3a8:	000e                	c.slli	zero,0x3
     3aa:	0501                	addi	a0,a0,0
     3ac:	0311                	addi	t1,t1,4
     3ae:	000c0903          	lb	s2,0(s8)
     3b2:	0301                	addi	t1,t1,0
     3b4:	0901                	addi	s2,s2,0
     3b6:	0004                	.insn	2, 0x0004
     3b8:	0301                	addi	t1,t1,0
     3ba:	0901                	addi	s2,s2,0
     3bc:	0004                	.insn	2, 0x0004
     3be:	0301                	addi	t1,t1,0
     3c0:	0901                	addi	s2,s2,0
     3c2:	0004                	.insn	2, 0x0004
     3c4:	0301                	addi	t1,t1,0
     3c6:	0901                	addi	s2,s2,0
     3c8:	0004                	.insn	2, 0x0004
     3ca:	0301                	addi	t1,t1,0
     3cc:	0901                	addi	s2,s2,0
     3ce:	0004                	.insn	2, 0x0004
     3d0:	0301                	addi	t1,t1,0
     3d2:	0901                	addi	s2,s2,0
     3d4:	0004                	.insn	2, 0x0004
     3d6:	0301                	addi	t1,t1,0
     3d8:	0901                	addi	s2,s2,0
     3da:	0004                	.insn	2, 0x0004
     3dc:	0501                	addi	a0,a0,0
     3de:	0310                	addi	a2,sp,384
     3e0:	0902                	c.slli64	s2
     3e2:	0004                	.insn	2, 0x0004
     3e4:	0301                	addi	t1,t1,0
     3e6:	0901                	addi	s2,s2,0
     3e8:	0004                	.insn	2, 0x0004
     3ea:	0501                	addi	a0,a0,0
     3ec:	0316                	slli	t1,t1,0x5
     3ee:	0902                	c.slli64	s2
     3f0:	0004                	.insn	2, 0x0004
     3f2:	0301                	addi	t1,t1,0
     3f4:	0901                	addi	s2,s2,0
     3f6:	000c                	.insn	2, 0x000c
     3f8:	0301                	addi	t1,t1,0
     3fa:	0901                	addi	s2,s2,0
     3fc:	000c                	.insn	2, 0x000c
     3fe:	0301                	addi	t1,t1,0
     400:	0901                	addi	s2,s2,0
     402:	000c                	.insn	2, 0x000c
     404:	0301                	addi	t1,t1,0
     406:	0901                	addi	s2,s2,0
     408:	000c                	.insn	2, 0x000c
     40a:	0301                	addi	t1,t1,0
     40c:	0901                	addi	s2,s2,0
     40e:	000c                	.insn	2, 0x000c
     410:	0301                	addi	t1,t1,0
     412:	0901                	addi	s2,s2,0
     414:	000c                	.insn	2, 0x000c
     416:	0301                	addi	t1,t1,0
     418:	0901                	addi	s2,s2,0
     41a:	000c                	.insn	2, 0x000c
     41c:	0301                	addi	t1,t1,0
     41e:	0901                	addi	s2,s2,0
     420:	000c                	.insn	2, 0x000c
     422:	0301                	addi	t1,t1,0
     424:	0901                	addi	s2,s2,0
     426:	000c                	.insn	2, 0x000c
     428:	0501                	addi	a0,a0,0
     42a:	09010317          	auipc	t1,0x9010
     42e:	000c                	.insn	2, 0x000c
     430:	0301                	addi	t1,t1,0 # 901042a <__heap_size+0x8ff042a>
     432:	0901                	addi	s2,s2,0
     434:	000c                	.insn	2, 0x000c
     436:	0301                	addi	t1,t1,0
     438:	0901                	addi	s2,s2,0
     43a:	000c                	.insn	2, 0x000c
     43c:	0301                	addi	t1,t1,0
     43e:	0901                	addi	s2,s2,0
     440:	000c                	.insn	2, 0x000c
     442:	0301                	addi	t1,t1,0
     444:	0901                	addi	s2,s2,0
     446:	000c                	.insn	2, 0x000c
     448:	0301                	addi	t1,t1,0
     44a:	0901                	addi	s2,s2,0
     44c:	000c                	.insn	2, 0x000c
     44e:	0501                	addi	a0,a0,0
     450:	09020303          	lb	t1,144(tp) # 90 <__stack_align+0x80>
     454:	000c                	.insn	2, 0x000c
     456:	0301                	addi	t1,t1,0
     458:	0902                	c.slli64	s2
     45a:	0018                	.insn	2, 0x0018
     45c:	0301                	addi	t1,t1,0
     45e:	0909                	addi	s2,s2,2
     460:	000c                	.insn	2, 0x000c
     462:	0501                	addi	a0,a0,0
     464:	0901030b          	.insn	4, 0x0901030b
     468:	000c                	.insn	2, 0x000c
     46a:	0501                	addi	a0,a0,0
     46c:	09000303          	lb	t1,144(zero) # 90 <__stack_align+0x80>
     470:	0004                	.insn	2, 0x0004
     472:	0501                	addi	a0,a0,0
     474:	09010307          	.insn	4, 0x09010307
     478:	0002                	c.slli64	zero
     47a:	0501                	addi	a0,a0,0
     47c:	0402001b          	addiw	zero,tp,64 # 40 <__stack_align+0x30>
     480:	097f0303          	lb	t1,151(t5)
     484:	001c                	.insn	2, 0x001c
     486:	0501                	addi	a0,a0,0
     488:	0014                	.insn	2, 0x0014
     48a:	0402                	c.slli64	s0
     48c:	0301                	addi	t1,t1,0
     48e:	0900                	addi	s0,sp,144
     490:	000a                	c.slli	zero,0x2
     492:	0501                	addi	a0,a0,0
     494:	0302                	c.slli64	t1
     496:	000e0903          	lb	s2,0(t3)
     49a:	0501                	addi	a0,a0,0
     49c:	030a                	slli	t1,t1,0x2
     49e:	0901                	addi	s2,s2,0
     4a0:	000c                	.insn	2, 0x000c
     4a2:	0501                	addi	a0,a0,0
     4a4:	0302                	c.slli64	t1
     4a6:	0900                	addi	s0,sp,144
     4a8:	0004                	.insn	2, 0x0004
     4aa:	0501                	addi	a0,a0,0
     4ac:	0306                	slli	t1,t1,0x1
     4ae:	0901                	addi	s2,s2,0
     4b0:	0002                	c.slli64	zero
     4b2:	0501                	addi	a0,a0,0
     4b4:	001a                	c.slli	zero,0x6
     4b6:	0402                	c.slli64	s0
     4b8:	097f0303          	lb	t1,151(t5)
     4bc:	001c                	.insn	2, 0x001c
     4be:	0501                	addi	a0,a0,0
     4c0:	04020013          	addi	zero,tp,64 # 40 <__stack_align+0x30>
     4c4:	0301                	addi	t1,t1,0
     4c6:	0900                	addi	s0,sp,144
     4c8:	000a                	c.slli	zero,0x2
     4ca:	0501                	addi	a0,a0,0
     4cc:	09030303          	lb	t1,144(t1)
     4d0:	000e                	c.slli	zero,0x3
     4d2:	0301                	addi	t1,t1,0
     4d4:	0902                	c.slli64	s2
     4d6:	000c                	.insn	2, 0x000c
     4d8:	0301                	addi	t1,t1,0
     4da:	0902                	c.slli64	s2
     4dc:	000a                	c.slli	zero,0x2
     4de:	0501                	addi	a0,a0,0
     4e0:	0302                	c.slli64	t1
     4e2:	0901                	addi	s2,s2,0
     4e4:	000c                	.insn	2, 0x000c
     4e6:	0301                	addi	t1,t1,0
     4e8:	0901                	addi	s2,s2,0
     4ea:	000c                	.insn	2, 0x000c
     4ec:	0301                	addi	t1,t1,0
     4ee:	0901                	addi	s2,s2,0
     4f0:	000c                	.insn	2, 0x000c
     4f2:	0501                	addi	a0,a0,0
     4f4:	09050303          	lb	t1,144(a0)
     4f8:	000c                	.insn	2, 0x000c
     4fa:	0501                	addi	a0,a0,0
     4fc:	0301                	addi	t1,t1,0
     4fe:	0901                	addi	s2,s2,0
     500:	000c                	.insn	2, 0x000c
     502:	0501                	addi	a0,a0,0
     504:	09020323          	sb	a6,134(tp) # 86 <__stack_align+0x76>
     508:	000a                	c.slli	zero,0x2
     50a:	0501                	addi	a0,a0,0
     50c:	0310                	addi	a2,sp,384
     50e:	0901                	addi	s2,s2,0
     510:	0008                	.insn	2, 0x0008
     512:	0501                	addi	a0,a0,0
     514:	0901030f          	.insn	4, 0x0901030f
     518:	0020                	addi	s0,sp,8
     51a:	0301                	addi	t1,t1,0
     51c:	0901                	addi	s2,s2,0
     51e:	0008                	.insn	2, 0x0008
     520:	0501                	addi	a0,a0,0
     522:	030c                	addi	a1,sp,384
     524:	0906                	slli	s2,s2,0x1
     526:	0040                	addi	s0,sp,4
     528:	0501                	addi	a0,a0,0
     52a:	09000303          	lb	t1,144(zero) # 90 <__stack_align+0x80>
     52e:	0004                	.insn	2, 0x0004
     530:	0501                	addi	a0,a0,0
     532:	0334                	addi	a3,sp,392
     534:	0901                	addi	s2,s2,0
     536:	0002                	c.slli64	zero
     538:	0501                	addi	a0,a0,0
     53a:	09000307          	.insn	4, 0x09000307
     53e:	0008                	.insn	2, 0x0008
     540:	0501                	addi	a0,a0,0
     542:	001a                	c.slli	zero,0x6
     544:	0402                	c.slli64	s0
     546:	097f0303          	lb	t1,151(t5)
     54a:	001a                	c.slli	zero,0x6
     54c:	0501                	addi	a0,a0,0
     54e:	0015                	c.nop	5
     550:	0402                	c.slli64	s0
     552:	0301                	addi	t1,t1,0
     554:	0900                	addi	s0,sp,144
     556:	000a                	c.slli	zero,0x2
     558:	0501                	addi	a0,a0,0
     55a:	030c                	addi	a1,sp,384
     55c:	000e0903          	lb	s2,0(t3)
     560:	0501                	addi	a0,a0,0
     562:	09000303          	lb	t1,144(zero) # 90 <__stack_align+0x80>
     566:	0004                	.insn	2, 0x0004
     568:	0501                	addi	a0,a0,0
     56a:	0338                	addi	a4,sp,392
     56c:	0901                	addi	s2,s2,0
     56e:	0002                	c.slli64	zero
     570:	0501                	addi	a0,a0,0
     572:	09000307          	.insn	4, 0x09000307
     576:	000a                	c.slli	zero,0x2
     578:	0501                	addi	a0,a0,0
     57a:	0402001b          	addiw	zero,tp,64 # 40 <__stack_align+0x30>
     57e:	097f0303          	lb	t1,151(t5)
     582:	001a                	c.slli	zero,0x6
     584:	0501                	addi	a0,a0,0
     586:	0015                	c.nop	5
     588:	0402                	c.slli64	s0
     58a:	0301                	addi	t1,t1,0
     58c:	0900                	addi	s0,sp,144
     58e:	000a                	c.slli	zero,0x2
     590:	0501                	addi	a0,a0,0
     592:	09030303          	lb	t1,144(t1)
     596:	000e                	c.slli	zero,0x3
     598:	0301                	addi	t1,t1,0
     59a:	0901                	addi	s2,s2,0
     59c:	000e                	c.slli	zero,0x3
     59e:	0301                	addi	t1,t1,0
     5a0:	0902                	c.slli64	s2
     5a2:	000e                	c.slli	zero,0x3
     5a4:	0301                	addi	t1,t1,0
     5a6:	0901                	addi	s2,s2,0
     5a8:	0008                	.insn	2, 0x0008
     5aa:	0301                	addi	t1,t1,0
     5ac:	0904                	addi	s1,sp,144
     5ae:	0008                	.insn	2, 0x0008
     5b0:	0501                	addi	a0,a0,0
     5b2:	0321                	addi	t1,t1,8
     5b4:	0901                	addi	s2,s2,0
     5b6:	0008                	.insn	2, 0x0008
     5b8:	0501                	addi	a0,a0,0
     5ba:	0311                	addi	t1,t1,4
     5bc:	0900                	addi	s0,sp,144
     5be:	000c                	.insn	2, 0x000c
     5c0:	0501                	addi	a0,a0,0
     5c2:	0308                	addi	a0,sp,384
     5c4:	0902                	c.slli64	s2
     5c6:	0008                	.insn	2, 0x0008
     5c8:	0501                	addi	a0,a0,0
     5ca:	0009                	c.nop	2
     5cc:	0402                	c.slli64	s0
     5ce:	0301                	addi	t1,t1,0
     5d0:	0900                	addi	s0,sp,144
     5d2:	0002                	c.slli64	zero
     5d4:	0501                	addi	a0,a0,0
     5d6:	0036                	c.slli	zero,0xd
     5d8:	0402                	c.slli64	s0
     5da:	0301                	addi	t1,t1,0
     5dc:	0900                	addi	s0,sp,144
     5de:	000a                	c.slli	zero,0x2
     5e0:	0501                	addi	a0,a0,0
     5e2:	09010313          	addi	t1,sp,144
     5e6:	0002                	c.slli64	zero
     5e8:	0501                	addi	a0,a0,0
     5ea:	0310                	addi	a2,sp,384
     5ec:	0900                	addi	s0,sp,144
     5ee:	000c                	.insn	2, 0x000c
     5f0:	0501                	addi	a0,a0,0
     5f2:	09030303          	lb	t1,144(t1)
     5f6:	000a                	c.slli	zero,0x2
     5f8:	0301                	addi	t1,t1,0
     5fa:	0901                	addi	s2,s2,0
     5fc:	000c                	.insn	2, 0x000c
     5fe:	0501                	addi	a0,a0,0
     600:	0301                	addi	t1,t1,0
     602:	0902                	c.slli64	s2
     604:	0010                	.insn	2, 0x0010
     606:	0401                	addi	s0,s0,0
     608:	7eb20303          	lb	t1,2027(tp) # 7eb <__stack_align+0x7db>
     60c:	0a09                	addi	s4,s4,2
     60e:	0100                	addi	s0,sp,128
     610:	0305                	addi	t1,t1,1
     612:	16090103          	lb	sp,352(s2)
     616:	0100                	addi	s0,sp,128
     618:	12090103          	lb	sp,288(s2)
     61c:	0100                	addi	s0,sp,128
     61e:	12090103          	lb	sp,288(s2)
     622:	0100                	addi	s0,sp,128
     624:	0c090103          	lb	sp,192(s2)
     628:	0100                	addi	s0,sp,128
     62a:	0105                	addi	sp,sp,1
     62c:	0a090103          	lb	sp,160(s2)
     630:	0100                	addi	s0,sp,128
     632:	0a090303          	lb	t1,160(s2)
     636:	0100                	addi	s0,sp,128
     638:	0305                	addi	t1,t1,1
     63a:	0e090103          	lb	sp,224(s2)
     63e:	0100                	addi	s0,sp,128
     640:	12090103          	lb	sp,288(s2)
     644:	0100                	addi	s0,sp,128
     646:	0e090103          	lb	sp,224(s2)
     64a:	0100                	addi	s0,sp,128
     64c:	1305                	addi	t1,t1,-31
     64e:	0a090103          	lb	sp,160(s2)
     652:	0100                	addi	s0,sp,128
     654:	0305                	addi	t1,t1,1
     656:	12090103          	lb	sp,288(s2)
     65a:	0100                	addi	s0,sp,128
     65c:	0a05                	addi	s4,s4,1
     65e:	0a090103          	lb	sp,160(s2)
     662:	0100                	addi	s0,sp,128
     664:	0105                	addi	sp,sp,1
     666:	04090103          	lb	sp,64(s2)
     66a:	0100                	addi	s0,sp,128
     66c:	0a090303          	lb	t1,160(s2)
     670:	0100                	addi	s0,sp,128
     672:	0305                	addi	t1,t1,1
     674:	08090203          	lb	tp,128(s2)
     678:	0100                	addi	s0,sp,128
     67a:	0a090103          	lb	sp,160(s2)
     67e:	0100                	addi	s0,sp,128
     680:	0a090203          	lb	tp,160(s2)
     684:	0100                	addi	s0,sp,128
     686:	10090103          	lb	sp,256(s2)
     68a:	0100                	addi	s0,sp,128
     68c:	10090103          	lb	sp,256(s2)
     690:	0100                	addi	s0,sp,128
     692:	0e090103          	lb	sp,224(s2)
     696:	0100                	addi	s0,sp,128
     698:	0e090203          	lb	tp,224(s2)
     69c:	0100                	addi	s0,sp,128
     69e:	08090103          	lb	sp,128(s2)
     6a2:	0100                	addi	s0,sp,128
     6a4:	0805                	addi	a6,a6,1
     6a6:	08090203          	lb	tp,128(s2)
     6aa:	0100                	addi	s0,sp,128
     6ac:	0b05                	addi	s6,s6,1
     6ae:	0200                	addi	s0,sp,256
     6b0:	0104                	addi	s1,sp,128
     6b2:	02090003          	lb	zero,32(s2)
     6b6:	0100                	addi	s0,sp,128
     6b8:	0905                	addi	s2,s2,1
     6ba:	0200                	addi	s0,sp,256
     6bc:	0104                	addi	s1,sp,128
     6be:	0a090003          	lb	zero,160(s2)
     6c2:	0100                	addi	s0,sp,128
     6c4:	0d05                	addi	s10,s10,1
     6c6:	08090303          	lb	t1,128(s2)
     6ca:	0100                	addi	s0,sp,128
     6cc:	0e090103          	lb	sp,224(s2)
     6d0:	0100                	addi	s0,sp,128
     6d2:	0305                	addi	t1,t1,1
     6d4:	0e090203          	lb	tp,224(s2)
     6d8:	0100                	addi	s0,sp,128
     6da:	0c090103          	lb	sp,192(s2)
     6de:	0100                	addi	s0,sp,128
     6e0:	0c090103          	lb	sp,192(s2)
     6e4:	0100                	addi	s0,sp,128
     6e6:	0c090103          	lb	sp,192(s2)
     6ea:	0100                	addi	s0,sp,128
     6ec:	18090303          	lb	t1,384(s2)
     6f0:	0100                	addi	s0,sp,128
     6f2:	0e090103          	lb	sp,224(s2)
     6f6:	0100                	addi	s0,sp,128
     6f8:	0e090103          	lb	sp,224(s2)
     6fc:	0100                	addi	s0,sp,128
     6fe:	0e090103          	lb	sp,224(s2)
     702:	0100                	addi	s0,sp,128
     704:	0e090203          	lb	tp,224(s2)
     708:	0100                	addi	s0,sp,128
     70a:	08090103          	lb	sp,128(s2)
     70e:	0100                	addi	s0,sp,128
     710:	0805                	addi	a6,a6,1
     712:	08090203          	lb	tp,128(s2)
     716:	0100                	addi	s0,sp,128
     718:	0b05                	addi	s6,s6,1
     71a:	0200                	addi	s0,sp,256
     71c:	0104                	addi	s1,sp,128
     71e:	02090003          	lb	zero,32(s2)
     722:	0100                	addi	s0,sp,128
     724:	0905                	addi	s2,s2,1
     726:	0200                	addi	s0,sp,256
     728:	0104                	addi	s1,sp,128
     72a:	0a090003          	lb	zero,160(s2)
     72e:	0100                	addi	s0,sp,128
     730:	0305                	addi	t1,t1,1
     732:	08090103          	lb	sp,128(s2)
     736:	0100                	addi	s0,sp,128
     738:	0805                	addi	a6,a6,1
     73a:	08090103          	lb	sp,128(s2)
     73e:	0100                	addi	s0,sp,128
     740:	0b05                	addi	s6,s6,1
     742:	0200                	addi	s0,sp,256
     744:	0104                	addi	s1,sp,128
     746:	02090003          	lb	zero,32(s2)
     74a:	0100                	addi	s0,sp,128
     74c:	0905                	addi	s2,s2,1
     74e:	0200                	addi	s0,sp,256
     750:	0104                	addi	s1,sp,128
     752:	0a090003          	lb	zero,160(s2)
     756:	0100                	addi	s0,sp,128
     758:	0d05                	addi	s10,s10,1
     75a:	08090203          	lb	tp,128(s2)
     75e:	0100                	addi	s0,sp,128
     760:	0e090103          	lb	sp,224(s2)
     764:	0100                	addi	s0,sp,128
     766:	0305                	addi	t1,t1,1
     768:	0e090203          	lb	tp,224(s2)
     76c:	0100                	addi	s0,sp,128
     76e:	0105                	addi	sp,sp,1
     770:	18090103          	lb	sp,384(s2)
     774:	0100                	addi	s0,sp,128
     776:	2605                	addiw	a2,a2,1
     778:	0a090203          	lb	tp,160(s2)
     77c:	0100                	addi	s0,sp,128
     77e:	0505                	addi	a0,a0,1
     780:	08090203          	lb	tp,128(s2)
     784:	0100                	addi	s0,sp,128
     786:	0a090103          	lb	sp,160(s2)
     78a:	0100                	addi	s0,sp,128
     78c:	0a090303          	lb	t1,160(s2)
     790:	0100                	addi	s0,sp,128
     792:	10090103          	lb	sp,256(s2)
     796:	0100                	addi	s0,sp,128
     798:	10090303          	lb	t1,256(s2)
     79c:	0100                	addi	s0,sp,128
     79e:	0e090103          	lb	sp,224(s2)
     7a2:	0100                	addi	s0,sp,128
     7a4:	0e090303          	lb	t1,224(s2)
     7a8:	0100                	addi	s0,sp,128
     7aa:	08090303          	lb	t1,128(s2)
     7ae:	0100                	addi	s0,sp,128
     7b0:	2905                	addiw	s2,s2,1
     7b2:	08090103          	lb	sp,128(s2)
     7b6:	0100                	addi	s0,sp,128
     7b8:	1305                	addi	t1,t1,-31
     7ba:	0c090003          	lb	zero,192(s2)
     7be:	0100                	addi	s0,sp,128
     7c0:	0b05                	addi	s6,s6,1
     7c2:	08090303          	lb	t1,128(s2)
     7c6:	0100                	addi	s0,sp,128
     7c8:	0e05                	addi	t3,t3,1
     7ca:	0200                	addi	s0,sp,256
     7cc:	0104                	addi	s1,sp,128
     7ce:	02090003          	lb	zero,32(s2)
     7d2:	0100                	addi	s0,sp,128
     7d4:	0c05                	addi	s8,s8,1
     7d6:	0200                	addi	s0,sp,256
     7d8:	0104                	addi	s1,sp,128
     7da:	0a090003          	lb	zero,160(s2)
     7de:	0100                	addi	s0,sp,128
     7e0:	1b05                	addi	s6,s6,-31
     7e2:	08090303          	lb	t1,128(s2)
     7e6:	0100                	addi	s0,sp,128
     7e8:	1805                	addi	a6,a6,-31
     7ea:	0c090003          	lb	zero,192(s2)
     7ee:	0100                	addi	s0,sp,128
     7f0:	0505                	addi	a0,a0,1
     7f2:	0a090903          	lb	s2,160(s2)
     7f6:	0100                	addi	s0,sp,128
     7f8:	0105                	addi	sp,sp,1
     7fa:	10090203          	lb	tp,256(s2)
     7fe:	0100                	addi	s0,sp,128
     800:	2605                	addiw	a2,a2,1
     802:	0a090203          	lb	tp,160(s2)
     806:	0100                	addi	s0,sp,128
     808:	0505                	addi	a0,a0,1
     80a:	08090203          	lb	tp,128(s2)
     80e:	0100                	addi	s0,sp,128
     810:	0a090103          	lb	sp,160(s2)
     814:	0100                	addi	s0,sp,128
     816:	0e05                	addi	t3,t3,1
     818:	0a090303          	lb	t1,160(s2)
     81c:	0100                	addi	s0,sp,128
     81e:	0c090103          	lb	sp,192(s2)
     822:	0100                	addi	s0,sp,128
     824:	0505                	addi	a0,a0,1
     826:	0c090203          	lb	tp,192(s2)
     82a:	0100                	addi	s0,sp,128
     82c:	0e090103          	lb	sp,224(s2)
     830:	0100                	addi	s0,sp,128
     832:	0e090303          	lb	t1,224(s2)
     836:	0100                	addi	s0,sp,128
     838:	0e090103          	lb	sp,224(s2)
     83c:	0100                	addi	s0,sp,128
     83e:	0e090303          	lb	t1,224(s2)
     842:	0100                	addi	s0,sp,128
     844:	08090303          	lb	t1,128(s2)
     848:	0100                	addi	s0,sp,128
     84a:	2905                	addiw	s2,s2,1
     84c:	08090103          	lb	sp,128(s2)
     850:	0100                	addi	s0,sp,128
     852:	1305                	addi	t1,t1,-31
     854:	0c090003          	lb	zero,192(s2)
     858:	0100                	addi	s0,sp,128
     85a:	0b05                	addi	s6,s6,1
     85c:	08090303          	lb	t1,128(s2)
     860:	0100                	addi	s0,sp,128
     862:	0e05                	addi	t3,t3,1
     864:	0200                	addi	s0,sp,256
     866:	0104                	addi	s1,sp,128
     868:	02090003          	lb	zero,32(s2)
     86c:	0100                	addi	s0,sp,128
     86e:	0c05                	addi	s8,s8,1
     870:	0200                	addi	s0,sp,256
     872:	0104                	addi	s1,sp,128
     874:	0a090003          	lb	zero,160(s2)
     878:	0100                	addi	s0,sp,128
     87a:	0505                	addi	a0,a0,1
     87c:	08090303          	lb	t1,128(s2)
     880:	0100                	addi	s0,sp,128
     882:	0b05                	addi	s6,s6,1
     884:	08090303          	lb	t1,128(s2)
     888:	0100                	addi	s0,sp,128
     88a:	0e05                	addi	t3,t3,1
     88c:	0200                	addi	s0,sp,256
     88e:	0104                	addi	s1,sp,128
     890:	02090003          	lb	zero,32(s2)
     894:	0100                	addi	s0,sp,128
     896:	0c05                	addi	s8,s8,1
     898:	0200                	addi	s0,sp,256
     89a:	0104                	addi	s1,sp,128
     89c:	0a090003          	lb	zero,160(s2)
     8a0:	0100                	addi	s0,sp,128
     8a2:	1b05                	addi	s6,s6,-31
     8a4:	08090303          	lb	t1,128(s2)
     8a8:	0100                	addi	s0,sp,128
     8aa:	1805                	addi	a6,a6,-31
     8ac:	0c090003          	lb	zero,192(s2)
     8b0:	0100                	addi	s0,sp,128
     8b2:	0505                	addi	a0,a0,1
     8b4:	0a090903          	lb	s2,160(s2)
     8b8:	0100                	addi	s0,sp,128
     8ba:	0105                	addi	sp,sp,1
     8bc:	10090203          	lb	tp,256(s2)
     8c0:	0100                	addi	s0,sp,128
     8c2:	0404                	addi	s1,sp,512
     8c4:	1f05                	addi	t5,t5,-31
     8c6:	097ef203          	.insn	4, 0x097ef203
     8ca:	000a                	c.slli	zero,0x2
     8cc:	0501                	addi	a0,a0,0
     8ce:	09010303          	lb	t1,144(sp)
     8d2:	0008                	.insn	2, 0x0008
     8d4:	0301                	addi	t1,t1,0
     8d6:	0901                	addi	s2,s2,0
     8d8:	000a                	c.slli	zero,0x2
     8da:	0501                	addi	a0,a0,0
     8dc:	0301                	addi	t1,t1,0
     8de:	0901                	addi	s2,s2,0
     8e0:	000a                	c.slli	zero,0x2
     8e2:	0501                	addi	a0,a0,0
     8e4:	034c                	addi	a1,sp,388
     8e6:	0902                	c.slli64	s2
     8e8:	000a                	c.slli	zero,0x2
     8ea:	0501                	addi	a0,a0,0
     8ec:	0305                	addi	t1,t1,1
     8ee:	0901                	addi	s2,s2,0
     8f0:	0016                	c.slli	zero,0x5
     8f2:	0301                	addi	t1,t1,0
     8f4:	0901                	addi	s2,s2,0
     8f6:	0012                	c.slli	zero,0x4
     8f8:	0301                	addi	t1,t1,0
     8fa:	0901                	addi	s2,s2,0
     8fc:	0012                	c.slli	zero,0x4
     8fe:	0301                	addi	t1,t1,0
     900:	0901                	addi	s2,s2,0
     902:	000a                	c.slli	zero,0x2
     904:	0501                	addi	a0,a0,0
     906:	0301                	addi	t1,t1,0
     908:	0901                	addi	s2,s2,0
     90a:	000a                	c.slli	zero,0x2
     90c:	0501                	addi	a0,a0,0
     90e:	0342                	slli	t1,t1,0x10
     910:	0902                	c.slli64	s2
     912:	000a                	c.slli	zero,0x2
     914:	0501                	addi	a0,a0,0
     916:	0305                	addi	t1,t1,1
     918:	0901                	addi	s2,s2,0
     91a:	000e                	c.slli	zero,0x3
     91c:	0301                	addi	t1,t1,0
     91e:	0901                	addi	s2,s2,0
     920:	0012                	c.slli	zero,0x4
     922:	0301                	addi	t1,t1,0
     924:	0902                	c.slli64	s2
     926:	000e                	c.slli	zero,0x3
     928:	0501                	addi	a0,a0,0
     92a:	0319                	addi	t1,t1,6
     92c:	0901                	addi	s2,s2,0
     92e:	000a                	c.slli	zero,0x2
     930:	0501                	addi	a0,a0,0
     932:	0305                	addi	t1,t1,1
     934:	0901                	addi	s2,s2,0
     936:	0012                	c.slli	zero,0x4
     938:	0501                	addi	a0,a0,0
     93a:	030c                	addi	a1,sp,384
     93c:	0901                	addi	s2,s2,0
     93e:	000a                	c.slli	zero,0x2
     940:	0501                	addi	a0,a0,0
     942:	0301                	addi	t1,t1,0
     944:	0901                	addi	s2,s2,0
     946:	0004                	.insn	2, 0x0004
     948:	0501                	addi	a0,a0,0
     94a:	037f 0903 000a 0501 	.insn	10, 0x03020501000a0903037f
     952:	0302 
     954:	0901                	addi	s2,s2,0
     956:	0020                	addi	s0,sp,8
     958:	0501                	addi	a0,a0,0
     95a:	0310                	addi	a2,sp,384
     95c:	0902                	c.slli64	s2
     95e:	0008                	.insn	2, 0x0008
     960:	0501                	addi	a0,a0,0
     962:	0308                	addi	a0,sp,384
     964:	0901                	addi	s2,s2,0
     966:	0004                	.insn	2, 0x0004
     968:	0501                	addi	a0,a0,0
     96a:	0302                	c.slli64	t1
     96c:	0900                	addi	s0,sp,144
     96e:	0004                	.insn	2, 0x0004
     970:	0501                	addi	a0,a0,0
     972:	032e                	slli	t1,t1,0xb
     974:	0901                	addi	s2,s2,0
     976:	0002                	c.slli64	zero
     978:	0501                	addi	a0,a0,0
     97a:	09000303          	lb	t1,144(zero) # 90 <__stack_align+0x80>
     97e:	000c                	.insn	2, 0x000c
     980:	0501                	addi	a0,a0,0
     982:	0026                	c.slli	zero,0x9
     984:	0402                	c.slli64	s0
     986:	097f0303          	lb	t1,151(t5)
     98a:	000a                	c.slli	zero,0x2
     98c:	0501                	addi	a0,a0,0
     98e:	0402000f          	.insn	4, 0x0402000f
     992:	0301                	addi	t1,t1,0
     994:	0900                	addi	s0,sp,144
     996:	000a                	c.slli	zero,0x2
     998:	0501                	addi	a0,a0,0
     99a:	001f 0402 0301      	.insn	6, 0x03010402001f
     9a0:	0900                	addi	s0,sp,144
     9a2:	0008                	.insn	2, 0x0008
     9a4:	0501                	addi	a0,a0,0
     9a6:	0402000f          	.insn	4, 0x0402000f
     9aa:	0301                	addi	t1,t1,0
     9ac:	0900                	addi	s0,sp,144
     9ae:	0008                	.insn	2, 0x0008
     9b0:	0501                	addi	a0,a0,0
     9b2:	0302                	c.slli64	t1
     9b4:	00040903          	lb	s2,0(s0)
     9b8:	0501                	addi	a0,a0,0
     9ba:	0340                	addi	s0,sp,388
     9bc:	0901                	addi	s2,s2,0
     9be:	000c                	.insn	2, 0x000c
     9c0:	0501                	addi	a0,a0,0
     9c2:	0332                	slli	t1,t1,0xc
     9c4:	0900                	addi	s0,sp,144
     9c6:	000c                	.insn	2, 0x000c
     9c8:	0501                	addi	a0,a0,0
     9ca:	0302                	c.slli64	t1
     9cc:	0900                	addi	s0,sp,144
     9ce:	0008                	.insn	2, 0x0008
     9d0:	0501                	addi	a0,a0,0
     9d2:	09020307          	.insn	4, 0x09020307
     9d6:	000a                	c.slli	zero,0x2
     9d8:	0501                	addi	a0,a0,0
     9da:	0008                	.insn	2, 0x0008
     9dc:	0402                	c.slli64	s0
     9de:	0301                	addi	t1,t1,0
     9e0:	0900                	addi	s0,sp,144
     9e2:	0002                	c.slli64	zero
     9e4:	0501                	addi	a0,a0,0
     9e6:	0031                	c.nop	12
     9e8:	0402                	c.slli64	s0
     9ea:	0301                	addi	t1,t1,0
     9ec:	0900                	addi	s0,sp,144
     9ee:	000a                	c.slli	zero,0x2
     9f0:	0501                	addi	a0,a0,0
     9f2:	0308                	addi	a0,sp,384
     9f4:	00020903          	lb	s2,0(tp) # 0 <__boot_hart>
     9f8:	0501                	addi	a0,a0,0
     9fa:	0302                	c.slli64	t1
     9fc:	0900                	addi	s0,sp,144
     9fe:	0004                	.insn	2, 0x0004
     a00:	0501                	addi	a0,a0,0
     a02:	033c                	addi	a5,sp,392
     a04:	0901                	addi	s2,s2,0
     a06:	0002                	c.slli64	zero
     a08:	0501                	addi	a0,a0,0
     a0a:	0900030f          	.insn	4, 0x0900030f
     a0e:	000a                	c.slli	zero,0x2
     a10:	0501                	addi	a0,a0,0
     a12:	0309                	addi	t1,t1,2
     a14:	0900                	addi	s0,sp,144
     a16:	0004                	.insn	2, 0x0004
     a18:	0501                	addi	a0,a0,0
     a1a:	0900030f          	.insn	4, 0x0900030f
     a1e:	000e                	c.slli	zero,0x3
     a20:	0501                	addi	a0,a0,0
     a22:	000d                	c.nop	3
     a24:	0402                	c.slli64	s0
     a26:	0301                	addi	t1,t1,0
     a28:	0900                	addi	s0,sp,144
     a2a:	000a                	c.slli	zero,0x2
     a2c:	0501                	addi	a0,a0,0
     a2e:	0016                	c.slli	zero,0x5
     a30:	0402                	c.slli64	s0
     a32:	097f0303          	lb	t1,151(t5)
     a36:	0002                	c.slli64	zero
     a38:	0501                	addi	a0,a0,0
     a3a:	0402000f          	.insn	4, 0x0402000f
     a3e:	0301                	addi	t1,t1,0
     a40:	0900                	addi	s0,sp,144
     a42:	000a                	c.slli	zero,0x2
     a44:	0501                	addi	a0,a0,0
     a46:	0301                	addi	t1,t1,0
     a48:	000e0903          	lb	s2,0(t3)
     a4c:	0501                	addi	a0,a0,0
     a4e:	031f 0903 000e      	.insn	6, 0x000e0903031f
     a54:	0501                	addi	a0,a0,0
     a56:	0902030f          	.insn	4, 0x0902030f
     a5a:	0008                	.insn	2, 0x0008
     a5c:	0301                	addi	t1,t1,0
     a5e:	0905                	addi	s2,s2,1
     a60:	002c                	addi	a1,sp,8
     a62:	0301                	addi	t1,t1,0
     a64:	090d                	addi	s2,s2,3
     a66:	002c                	addi	a1,sp,8
     a68:	0501                	addi	a0,a0,0
     a6a:	0302                	c.slli64	t1
     a6c:	090c                	addi	a1,sp,144
     a6e:	0040                	addi	s0,sp,4
     a70:	0301                	addi	t1,t1,0
     a72:	0902                	c.slli64	s2
     a74:	0014                	.insn	2, 0x0014
     a76:	0301                	addi	t1,t1,0
     a78:	0901                	addi	s2,s2,0
     a7a:	000c                	.insn	2, 0x000c
     a7c:	0301                	addi	t1,t1,0
     a7e:	0901                	addi	s2,s2,0
     a80:	000c                	.insn	2, 0x000c
     a82:	0301                	addi	t1,t1,0
     a84:	0901                	addi	s2,s2,0
     a86:	000c                	.insn	2, 0x000c
     a88:	0501                	addi	a0,a0,0
     a8a:	030a                	slli	t1,t1,0x2
     a8c:	0901                	addi	s2,s2,0
     a8e:	000c                	.insn	2, 0x000c
     a90:	0501                	addi	a0,a0,0
     a92:	0302                	c.slli64	t1
     a94:	0900                	addi	s0,sp,144
     a96:	0004                	.insn	2, 0x0004
     a98:	0501                	addi	a0,a0,0
     a9a:	09010303          	lb	t1,144(sp)
     a9e:	0002                	c.slli64	zero
     aa0:	0501                	addi	a0,a0,0
     aa2:	001a                	c.slli	zero,0x6
     aa4:	0402                	c.slli64	s0
     aa6:	097f0303          	lb	t1,151(t5)
     aaa:	001c                	.insn	2, 0x001c
     aac:	0501                	addi	a0,a0,0
     aae:	04020013          	addi	zero,tp,64 # 40 <__stack_align+0x30>
     ab2:	0301                	addi	t1,t1,0
     ab4:	0900                	addi	s0,sp,144
     ab6:	000a                	c.slli	zero,0x2
     ab8:	0501                	addi	a0,a0,0
     aba:	09020303          	lb	t1,144(tp) # 90 <__stack_align+0x80>
     abe:	000e                	c.slli	zero,0x3
     ac0:	0501                	addi	a0,a0,0
     ac2:	0302                	c.slli64	t1
     ac4:	0909                	addi	s2,s2,2
     ac6:	000c                	.insn	2, 0x000c
     ac8:	0301                	addi	t1,t1,0
     aca:	0902                	c.slli64	s2
     acc:	0014                	.insn	2, 0x0014
     ace:	0301                	addi	t1,t1,0
     ad0:	0901                	addi	s2,s2,0
     ad2:	000c                	.insn	2, 0x000c
     ad4:	0301                	addi	t1,t1,0
     ad6:	0901                	addi	s2,s2,0
     ad8:	000c                	.insn	2, 0x000c
     ada:	0301                	addi	t1,t1,0
     adc:	0901                	addi	s2,s2,0
     ade:	000c                	.insn	2, 0x000c
     ae0:	0501                	addi	a0,a0,0
     ae2:	030a                	slli	t1,t1,0x2
     ae4:	0901                	addi	s2,s2,0
     ae6:	000c                	.insn	2, 0x000c
     ae8:	0501                	addi	a0,a0,0
     aea:	0302                	c.slli64	t1
     aec:	0900                	addi	s0,sp,144
     aee:	0004                	.insn	2, 0x0004
     af0:	0501                	addi	a0,a0,0
     af2:	09010303          	lb	t1,144(sp)
     af6:	0002                	c.slli64	zero
     af8:	0501                	addi	a0,a0,0
     afa:	001a                	c.slli	zero,0x6
     afc:	0402                	c.slli64	s0
     afe:	097f0303          	lb	t1,151(t5)
     b02:	001c                	.insn	2, 0x001c
     b04:	0501                	addi	a0,a0,0
     b06:	04020013          	addi	zero,tp,64 # 40 <__stack_align+0x30>
     b0a:	0301                	addi	t1,t1,0
     b0c:	0900                	addi	s0,sp,144
     b0e:	000a                	c.slli	zero,0x2
     b10:	0501                	addi	a0,a0,0
     b12:	0302                	c.slli64	t1
     b14:	0904                	addi	s1,sp,144
     b16:	000e                	c.slli	zero,0x3
     b18:	0501                	addi	a0,a0,0
     b1a:	0301                	addi	t1,t1,0
     b1c:	0901                	addi	s2,s2,0
     b1e:	000c                	.insn	2, 0x000c
     b20:	0501                	addi	a0,a0,0
     b22:	0321                	addi	t1,t1,8
     b24:	0902                	c.slli64	s2
     b26:	000a                	c.slli	zero,0x2
     b28:	0501                	addi	a0,a0,0
     b2a:	0310                	addi	a2,sp,384
     b2c:	0901                	addi	s2,s2,0
     b2e:	0008                	.insn	2, 0x0008
     b30:	0301                	addi	t1,t1,0
     b32:	0904                	addi	s1,sp,144
     b34:	001a                	c.slli	zero,0x6
     b36:	0501                	addi	a0,a0,0
     b38:	0321                	addi	t1,t1,8
     b3a:	0906                	slli	s2,s2,0x1
     b3c:	0040                	addi	s0,sp,4
     b3e:	0501                	addi	a0,a0,0
     b40:	0311                	addi	t1,t1,4
     b42:	0900                	addi	s0,sp,144
     b44:	000c                	.insn	2, 0x000c
     b46:	0501                	addi	a0,a0,0
     b48:	09010303          	lb	t1,144(sp)
     b4c:	0008                	.insn	2, 0x0008
     b4e:	0501                	addi	a0,a0,0
     b50:	09010313          	addi	t1,sp,144
     b54:	0014                	.insn	2, 0x0014
     b56:	0501                	addi	a0,a0,0
     b58:	0310                	addi	a2,sp,384
     b5a:	0900                	addi	s0,sp,144
     b5c:	000c                	.insn	2, 0x000c
     b5e:	0501                	addi	a0,a0,0
     b60:	09020303          	lb	t1,144(tp) # 90 <__stack_align+0x80>
     b64:	000a                	c.slli	zero,0x2
     b66:	0301                	addi	t1,t1,0
     b68:	0901                	addi	s2,s2,0
     b6a:	000c                	.insn	2, 0x000c
     b6c:	0501                	addi	a0,a0,0
     b6e:	0301                	addi	t1,t1,0
     b70:	0901                	addi	s2,s2,0
     b72:	0010                	.insn	2, 0x0010
     b74:	0401                	addi	s0,s0,0
     b76:	0505                	addi	a0,a0,1
     b78:	0322                	slli	t1,t1,0x8
     b7a:	7f89                	lui	t6,0xfffe2
     b7c:	0a09                	addi	s4,s4,2
     b7e:	0100                	addi	s0,sp,128
     b80:	0505                	addi	a0,a0,1
     b82:	12090203          	lb	tp,288(s2)
     b86:	0100                	addi	s0,sp,128
     b88:	08090103          	lb	sp,128(s2)
     b8c:	0100                	addi	s0,sp,128
     b8e:	0305                	addi	t1,t1,1
     b90:	0c090f03          	lb	t5,192(s2)
     b94:	0100                	addi	s0,sp,128
     b96:	04090103          	lb	sp,64(s2)
     b9a:	0100                	addi	s0,sp,128
     b9c:	04090103          	lb	sp,64(s2)
     ba0:	0100                	addi	s0,sp,128
     ba2:	0a05                	addi	s4,s4,1
     ba4:	04090303          	lb	t1,64(s2)
     ba8:	0100                	addi	s0,sp,128
     baa:	0105                	addi	sp,sp,1
     bac:	02090103          	lb	sp,32(s2)
     bb0:	0100                	addi	s0,sp,128
     bb2:	0a09                	addi	s4,s4,2
     bb4:	0000                	unimp
     bb6:	0101                	addi	sp,sp,0
     bb8:	03ea                	slli	t2,t2,0x1a
     bba:	0000                	unimp
     bbc:	0005                	c.nop	1
     bbe:	0008                	.insn	2, 0x0008
     bc0:	004a                	c.slli	zero,0x12
     bc2:	0000                	unimp
     bc4:	0101                	addi	sp,sp,0
     bc6:	fb01                	bnez	a4,ad6 <__stack_align+0xac6>
     bc8:	0d0e                	slli	s10,s10,0x3
     bca:	0100                	addi	s0,sp,128
     bcc:	0101                	addi	sp,sp,0
     bce:	0001                	nop
     bd0:	0000                	unimp
     bd2:	0001                	nop
     bd4:	0100                	addi	s0,sp,128
     bd6:	0101                	addi	sp,sp,0
     bd8:	041f 0009 0000      	.insn	6, 0x0009041f
     bde:	01a1                	addi	gp,gp,8 # 80003340 <__global_pointer$+0x8>
     be0:	0000                	unimp
     be2:	00a9                	addi	ra,ra,10
     be4:	0000                	unimp
     be6:	000000f7          	.insn	4, 0x00f7
     bea:	0102                	c.slli64	sp
     bec:	021f 060f 0197      	.insn	6, 0x0197060f021f
     bf2:	0000                	unimp
     bf4:	8d00                	.insn	2, 0x8d00
     bf6:	0001                	nop
     bf8:	0000                	unimp
     bfa:	00000197          	auipc	gp,0x0
     bfe:	f600                	sd	s0,40(a2)
     c00:	0001                	nop
     c02:	0100                	addi	s0,sp,128
     c04:	0172                	slli	sp,sp,0x1c
     c06:	0000                	unimp
     c08:	8302                	jr	t1
     c0a:	0001                	nop
     c0c:	0300                	addi	s0,sp,384
     c0e:	0105                	addi	sp,sp,1
     c10:	0900                	addi	s0,sp,144
     c12:	d802                	sw	zero,48(sp)
     c14:	0012                	c.slli	zero,0x4
     c16:	0080                	addi	s0,sp,64
     c18:	0000                	unimp
     c1a:	0300                	addi	s0,sp,384
     c1c:	0115                	addi	sp,sp,5
     c1e:	1505                	addi	a0,a0,-31
     c20:	0c090103          	lb	sp,192(s2)
     c24:	0100                	addi	s0,sp,128
     c26:	0305                	addi	t1,t1,1
     c28:	08090403          	lb	s0,128(s2)
     c2c:	0100                	addi	s0,sp,128
     c2e:	0d05                	addi	s10,s10,1
     c30:	0200                	addi	s0,sp,256
     c32:	0104                	addi	s1,sp,128
     c34:	16090403          	lb	s0,352(s2)
     c38:	0100                	addi	s0,sp,128
     c3a:	0105                	addi	sp,sp,1
     c3c:	0a090503          	lb	a0,160(s2)
     c40:	0100                	addi	s0,sp,128
     c42:	0204                	addi	s1,sp,256
     c44:	0a096503          	lwu	a0,160(s2)
     c48:	0100                	addi	s0,sp,128
     c4a:	0205                	addi	tp,tp,1 # 1 <__boot_hart+0x1>
     c4c:	0c090203          	lb	tp,192(s2)
     c50:	0100                	addi	s0,sp,128
     c52:	0305                	addi	t1,t1,1
     c54:	02090103          	lb	sp,32(s2)
     c58:	0100                	addi	s0,sp,128
     c5a:	1c05                	addi	s8,s8,-31
     c5c:	0200                	addi	s0,sp,256
     c5e:	0204                	addi	s1,sp,256
     c60:	0a097f03          	.insn	4, 0x0a097f03
     c64:	0100                	addi	s0,sp,128
     c66:	0c05                	addi	s8,s8,1
     c68:	0200                	addi	s0,sp,256
     c6a:	0104                	addi	s1,sp,128
     c6c:	0a090003          	lb	zero,160(s2)
     c70:	0100                	addi	s0,sp,128
     c72:	1205                	addi	tp,tp,-31 # ffffffffffffffe1 <__heap_end+0xffffffff7ffdcfe1>
     c74:	0200                	addi	s0,sp,256
     c76:	0104                	addi	s1,sp,128
     c78:	0c090003          	lb	zero,192(s2)
     c7c:	0100                	addi	s0,sp,128
     c7e:	0105                	addi	sp,sp,1
     c80:	0a090203          	lb	tp,160(s2)
     c84:	0100                	addi	s0,sp,128
     c86:	0c090303          	lb	t1,192(s2)
     c8a:	0100                	addi	s0,sp,128
     c8c:	0205                	addi	tp,tp,1 # 1 <__boot_hart+0x1>
     c8e:	0c090103          	lb	sp,192(s2)
     c92:	0100                	addi	s0,sp,128
     c94:	08090103          	lb	sp,128(s2)
     c98:	0100                	addi	s0,sp,128
     c9a:	06090103          	lb	sp,96(s2)
     c9e:	0100                	addi	s0,sp,128
     ca0:	0105                	addi	sp,sp,1
     ca2:	06090103          	lb	sp,96(s2)
     ca6:	0100                	addi	s0,sp,128
     ca8:	0a090303          	lb	t1,160(s2)
     cac:	0100                	addi	s0,sp,128
     cae:	0505                	addi	a0,a0,1
     cb0:	1e090503          	lb	a0,480(s2)
     cb4:	0100                	addi	s0,sp,128
     cb6:	0f05                	addi	t5,t5,1
     cb8:	14090103          	lb	sp,320(s2)
     cbc:	0100                	addi	s0,sp,128
     cbe:	0d05                	addi	s10,s10,1
     cc0:	04090103          	lb	sp,64(s2)
     cc4:	0100                	addi	s0,sp,128
     cc6:	04090103          	lb	sp,64(s2)
     cca:	0100                	addi	s0,sp,128
     ccc:	0b05                	addi	s6,s6,1
     cce:	04090203          	lb	tp,64(s2)
     cd2:	0100                	addi	s0,sp,128
     cd4:	0c05                	addi	s8,s8,1
     cd6:	02090103          	lb	sp,32(s2)
     cda:	0100                	addi	s0,sp,128
     cdc:	0d05                	addi	s10,s10,1
     cde:	0c090103          	lb	sp,192(s2)
     ce2:	0100                	addi	s0,sp,128
     ce4:	1905                	addi	s2,s2,-31
     ce6:	3a090303          	lb	t1,928(s2)
     cea:	0100                	addi	s0,sp,128
     cec:	1105                	addi	sp,sp,-31
     cee:	06090103          	lb	sp,96(s2)
     cf2:	0100                	addi	s0,sp,128
     cf4:	1905                	addi	s2,s2,-31
     cf6:	02090303          	lb	t1,32(s2)
     cfa:	0100                	addi	s0,sp,128
     cfc:	1105                	addi	sp,sp,-31
     cfe:	06090103          	lb	sp,96(s2)
     d02:	0100                	addi	s0,sp,128
     d04:	1405                	addi	s0,s0,-31
     d06:	02090503          	lb	a0,32(s2)
     d0a:	0100                	addi	s0,sp,128
     d0c:	1705                	addi	a4,a4,-31
     d0e:	0a090103          	lb	sp,160(s2)
     d12:	0100                	addi	s0,sp,128
     d14:	12090103          	lb	sp,288(s2)
     d18:	0100                	addi	s0,sp,128
     d1a:	1905                	addi	s2,s2,-31
     d1c:	0a090203          	lb	tp,160(s2)
     d20:	0100                	addi	s0,sp,128
     d22:	1705                	addi	a4,a4,-31
     d24:	0200                	addi	s0,sp,256
     d26:	0104                	addi	s1,sp,128
     d28:	0e090003          	lb	zero,224(s2)
     d2c:	0100                	addi	s0,sp,128
     d2e:	2505                	addiw	a0,a0,1
     d30:	08090103          	lb	sp,128(s2)
     d34:	0100                	addi	s0,sp,128
     d36:	0200                	addi	s0,sp,256
     d38:	0104                	addi	s1,sp,128
     d3a:	0306                	slli	t1,t1,0x1
     d3c:	0900                	addi	s0,sp,144
     d3e:	000a                	c.slli	zero,0x2
     d40:	0001                	nop
     d42:	0402                	c.slli64	s0
     d44:	0302                	c.slli64	t1
     d46:	0900                	addi	s0,sp,144
     d48:	0004                	.insn	2, 0x0004
     d4a:	0501                	addi	a0,a0,0
     d4c:	04020017          	auipc	zero,0x4020
     d50:	0604                	addi	s1,sp,768
     d52:	02090003          	lb	zero,32(s2)
     d56:	0100                	addi	s0,sp,128
     d58:	1105                	addi	sp,sp,-31
     d5a:	04090203          	lb	tp,64(s2)
     d5e:	0100                	addi	s0,sp,128
     d60:	2105                	addiw	sp,sp,1
     d62:	02090103          	lb	sp,32(s2)
     d66:	0100                	addi	s0,sp,128
     d68:	1a05                	addi	s4,s4,-31
     d6a:	10090003          	lb	zero,256(s2)
     d6e:	0100                	addi	s0,sp,128
     d70:	1505                	addi	a0,a0,-31
     d72:	06090103          	lb	sp,96(s2)
     d76:	0100                	addi	s0,sp,128
     d78:	2805                	addiw	a6,a6,1
     d7a:	0200                	addi	s0,sp,256
     d7c:	0104                	addi	s1,sp,128
     d7e:	0a090003          	lb	zero,160(s2)
     d82:	0100                	addi	s0,sp,128
     d84:	1505                	addi	a0,a0,-31
     d86:	0200                	addi	s0,sp,256
     d88:	0104                	addi	s1,sp,128
     d8a:	08090003          	lb	zero,128(s2)
     d8e:	0100                	addi	s0,sp,128
     d90:	3605                	addiw	a2,a2,-31
     d92:	0200                	addi	s0,sp,256
     d94:	0204                	addi	s1,sp,256
     d96:	0a090003          	lb	zero,160(s2)
     d9a:	0100                	addi	s0,sp,128
     d9c:	1505                	addi	a0,a0,-31
     d9e:	0200                	addi	s0,sp,256
     da0:	0204                	addi	s1,sp,256
     da2:	08090003          	lb	zero,128(s2)
     da6:	0100                	addi	s0,sp,128
     da8:	0200                	addi	s0,sp,256
     daa:	0404                	addi	s1,sp,512
     dac:	0306                	slli	t1,t1,0x1
     dae:	0900                	addi	s0,sp,144
     db0:	0008                	.insn	2, 0x0008
     db2:	0501                	addi	a0,a0,0
     db4:	0622                	slli	a2,a2,0x8
     db6:	06097e03          	.insn	4, 0x06097e03
     dba:	0100                	addi	s0,sp,128
     dbc:	1a05                	addi	s4,s4,-31
     dbe:	0200                	addi	s0,sp,256
     dc0:	0104                	addi	s1,sp,128
     dc2:	0a090003          	lb	zero,160(s2)
     dc6:	0100                	addi	s0,sp,128
     dc8:	1105                	addi	sp,sp,-31
     dca:	08090403          	lb	s0,128(s2)
     dce:	0100                	addi	s0,sp,128
     dd0:	1405                	addi	s0,s0,-31
     dd2:	02090a03          	lb	s4,32(s2)
     dd6:	0100                	addi	s0,sp,128
     dd8:	1905                	addi	s2,s2,-31
     dda:	0a090103          	lb	sp,160(s2)
     dde:	0100                	addi	s0,sp,128
     de0:	1b05                	addi	s6,s6,-31
     de2:	14090403          	lb	s0,320(s2)
     de6:	0100                	addi	s0,sp,128
     de8:	1905                	addi	s2,s2,-31
     dea:	0200                	addi	s0,sp,256
     dec:	0104                	addi	s1,sp,128
     dee:	0e090003          	lb	zero,224(s2)
     df2:	0100                	addi	s0,sp,128
     df4:	1805                	addi	a6,a6,-31
     df6:	04090103          	lb	sp,64(s2)
     dfa:	0100                	addi	s0,sp,128
     dfc:	1f05                	addi	t5,t5,-31
     dfe:	0a090203          	lb	tp,160(s2)
     e02:	0100                	addi	s0,sp,128
     e04:	1d05                	addi	s10,s10,-31
     e06:	0c090003          	lb	zero,192(s2)
     e0a:	0100                	addi	s0,sp,128
     e0c:	1405                	addi	s0,s0,-31
     e0e:	04090503          	lb	a0,64(s2)
     e12:	0100                	addi	s0,sp,128
     e14:	1505                	addi	a0,a0,-31
     e16:	08090103          	lb	sp,128(s2)
     e1a:	0100                	addi	s0,sp,128
     e1c:	1905                	addi	s2,s2,-31
     e1e:	08090103          	lb	sp,128(s2)
     e22:	0100                	addi	s0,sp,128
     e24:	1505                	addi	a0,a0,-31
     e26:	0c090503          	lb	a0,192(s2)
     e2a:	0100                	addi	s0,sp,128
     e2c:	3005                	.insn	2, 0x3005
     e2e:	04090203          	lb	tp,64(s2)
     e32:	0100                	addi	s0,sp,128
     e34:	2905                	addiw	s2,s2,1
     e36:	0a090003          	lb	zero,160(s2)
     e3a:	0100                	addi	s0,sp,128
     e3c:	1f05                	addi	t5,t5,-31
     e3e:	04090003          	lb	zero,64(s2)
     e42:	0100                	addi	s0,sp,128
     e44:	2905                	addiw	s2,s2,1
     e46:	0c090003          	lb	zero,192(s2)
     e4a:	0100                	addi	s0,sp,128
     e4c:	2305                	addiw	t1,t1,1
     e4e:	08090003          	lb	zero,128(s2)
     e52:	0100                	addi	s0,sp,128
     e54:	1905                	addi	s2,s2,-31
     e56:	08090103          	lb	sp,128(s2)
     e5a:	0100                	addi	s0,sp,128
     e5c:	2205                	addiw	tp,tp,1 # 1 <__boot_hart+0x1>
     e5e:	0200                	addi	s0,sp,256
     e60:	0204                	addi	s1,sp,256
     e62:	0e090103          	lb	sp,224(s2)
     e66:	0100                	addi	s0,sp,128
     e68:	0200                	addi	s0,sp,256
     e6a:	0104                	addi	s1,sp,128
     e6c:	0306                	slli	t1,t1,0x1
     e6e:	0900                	addi	s0,sp,144
     e70:	0008                	.insn	2, 0x0008
     e72:	0501                	addi	a0,a0,0
     e74:	03030617          	auipc	a2,0x3030
     e78:	0e09                	addi	t3,t3,2
     e7a:	0100                	addi	s0,sp,128
     e7c:	1505                	addi	a0,a0,-31
     e7e:	02090103          	lb	sp,32(s2)
     e82:	0100                	addi	s0,sp,128
     e84:	1c05                	addi	s8,s8,-31
     e86:	1c097f03          	.insn	4, 0x1c097f03
     e8a:	0100                	addi	s0,sp,128
     e8c:	1105                	addi	sp,sp,-31
     e8e:	0a090303          	lb	t1,160(s2)
     e92:	0100                	addi	s0,sp,128
     e94:	02090303          	lb	t1,32(s2)
     e98:	0100                	addi	s0,sp,128
     e9a:	0200                	addi	s0,sp,256
     e9c:	0104                	addi	s1,sp,128
     e9e:	0306                	slli	t1,t1,0x1
     ea0:	0900                	addi	s0,sp,144
     ea2:	000e                	c.slli	zero,0x3
     ea4:	0601                	addi	a2,a2,0 # 3030e74 <__heap_size+0x3010e74>
     ea6:	06090103          	lb	sp,96(s2)
     eaa:	0100                	addi	s0,sp,128
     eac:	1705                	addi	a4,a4,-31
     eae:	02090203          	lb	tp,32(s2)
     eb2:	0100                	addi	s0,sp,128
     eb4:	1105                	addi	sp,sp,-31
     eb6:	0200                	addi	s0,sp,256
     eb8:	0104                	addi	s1,sp,128
     eba:	0e090003          	lb	zero,224(s2)
     ebe:	0100                	addi	s0,sp,128
     ec0:	0a090103          	lb	sp,160(s2)
     ec4:	0100                	addi	s0,sp,128
     ec6:	1e05                	addi	t3,t3,-31
     ec8:	02090203          	lb	tp,32(s2)
     ecc:	0100                	addi	s0,sp,128
     ece:	1a05                	addi	s4,s4,-31
     ed0:	12090203          	lb	tp,288(s2)
     ed4:	0100                	addi	s0,sp,128
     ed6:	1105                	addi	sp,sp,-31
     ed8:	06090003          	lb	zero,96(s2)
     edc:	0100                	addi	s0,sp,128
     ede:	2905                	addiw	s2,s2,1
     ee0:	02090103          	lb	sp,32(s2)
     ee4:	0100                	addi	s0,sp,128
     ee6:	2205                	addiw	tp,tp,1 # 1 <__boot_hart+0x1>
     ee8:	0e090003          	lb	zero,224(s2)
     eec:	0100                	addi	s0,sp,128
     eee:	1505                	addi	a0,a0,-31
     ef0:	06090103          	lb	sp,96(s2)
     ef4:	0100                	addi	s0,sp,128
     ef6:	2805                	addiw	a6,a6,1
     ef8:	0200                	addi	s0,sp,256
     efa:	0104                	addi	s1,sp,128
     efc:	0e090003          	lb	zero,224(s2)
     f00:	0100                	addi	s0,sp,128
     f02:	1505                	addi	a0,a0,-31
     f04:	0200                	addi	s0,sp,256
     f06:	0104                	addi	s1,sp,128
     f08:	08090003          	lb	zero,128(s2)
     f0c:	0100                	addi	s0,sp,128
     f0e:	3605                	addiw	a2,a2,-31
     f10:	0200                	addi	s0,sp,256
     f12:	0204                	addi	s1,sp,256
     f14:	0a090003          	lb	zero,160(s2)
     f18:	0100                	addi	s0,sp,128
     f1a:	1505                	addi	a0,a0,-31
     f1c:	0200                	addi	s0,sp,256
     f1e:	0204                	addi	s1,sp,256
     f20:	08090003          	lb	zero,128(s2)
     f24:	0100                	addi	s0,sp,128
     f26:	0200                	addi	s0,sp,256
     f28:	0404                	addi	s1,sp,512
     f2a:	0306                	slli	t1,t1,0x1
     f2c:	0900                	addi	s0,sp,144
     f2e:	0008                	.insn	2, 0x0008
     f30:	0501                	addi	a0,a0,0
     f32:	002c                	addi	a1,sp,8
     f34:	0402                	c.slli64	s0
     f36:	0602                	c.slli64	a2
     f38:	06097e03          	.insn	4, 0x06097e03
     f3c:	0100                	addi	s0,sp,128
     f3e:	2405                	addiw	s0,s0,1
     f40:	0200                	addi	s0,sp,256
     f42:	0104                	addi	s1,sp,128
     f44:	0a090003          	lb	zero,160(s2)
     f48:	0100                	addi	s0,sp,128
     f4a:	1105                	addi	sp,sp,-31
     f4c:	0a090403          	lb	s0,160(s2)
     f50:	0100                	addi	s0,sp,128
     f52:	1705                	addi	a4,a4,-31
     f54:	02090403          	lb	s0,32(s2)
     f58:	0100                	addi	s0,sp,128
     f5a:	04090103          	lb	sp,64(s2)
     f5e:	0100                	addi	s0,sp,128
     f60:	04090103          	lb	sp,64(s2)
     f64:	0100                	addi	s0,sp,128
     f66:	1305                	addi	t1,t1,-31
     f68:	06090103          	lb	sp,96(s2)
     f6c:	0100                	addi	s0,sp,128
     f6e:	1705                	addi	a4,a4,-31
     f70:	10090203          	lb	tp,256(s2)
     f74:	0100                	addi	s0,sp,128
     f76:	0d05                	addi	s10,s10,1
     f78:	08090303          	lb	t1,128(s2)
     f7c:	0100                	addi	s0,sp,128
     f7e:	1505                	addi	a0,a0,-31
     f80:	097fa303          	lw	t1,151(t6) # fffffffffffe2097 <__heap_end+0xffffffff7ffbf097>
     f84:	000a                	c.slli	zero,0x2
     f86:	0501                	addi	a0,a0,0
     f88:	0900030f          	.insn	4, 0x0900030f
     f8c:	000c                	.insn	2, 0x000c
     f8e:	0501                	addi	a0,a0,0
     f90:	0319                	addi	t1,t1,6
     f92:	0900                	addi	s0,sp,144
     f94:	0008                	.insn	2, 0x0008
     f96:	0501                	addi	a0,a0,0
     f98:	0301                	addi	t1,t1,0
     f9a:	00e2                	slli	ra,ra,0x18
     f9c:	0c09                	addi	s8,s8,2
     f9e:	0100                	addi	s0,sp,128
     fa0:	0c09                	addi	s8,s8,2
     fa2:	0000                	unimp
     fa4:	0101                	addi	sp,sp,0
     fa6:	00000423          	sb	zero,8(zero) # 8 <__boot_hart+0x8>
     faa:	0002                	c.slli64	zero
     fac:	0025                	c.nop	9
     fae:	0000                	unimp
     fb0:	0101                	addi	sp,sp,0
     fb2:	000d0efb          	.insn	4, 0x000d0efb
     fb6:	0101                	addi	sp,sp,0
     fb8:	0101                	addi	sp,sp,0
     fba:	0000                	unimp
     fbc:	0100                	addi	s0,sp,128
     fbe:	0000                	unimp
     fc0:	2e01                	sext.w	t3,t3
     fc2:	2f2e                	fld	ft10,200(sp)
     fc4:	696d                	lui	s2,0x1b
     fc6:	00006373          	csrrsi	t1,ustatus,0
     fca:	30747263          	bgeu	s0,t2,12ce <__stack_align+0x12be>
     fce:	532e                	lw	t1,232(sp)
     fd0:	0100                	addi	s0,sp,128
     fd2:	0000                	unimp
     fd4:	0000                	unimp
     fd6:	0209                	addi	tp,tp,2 # 2 <__boot_hart+0x2>
     fd8:	0000                	unimp
     fda:	8000                	.insn	2, 0x8000
     fdc:	0000                	unimp
     fde:	0000                	unimp
     fe0:	03010903          	lb	s2,48(sp)
     fe4:	0901                	addi	s2,s2,0 # 1b000 <__stack_size+0x13000>
     fe6:	0002                	c.slli64	zero
     fe8:	0301                	addi	t1,t1,0
     fea:	0901                	addi	s2,s2,0
     fec:	0002                	c.slli64	zero
     fee:	0301                	addi	t1,t1,0
     ff0:	0901                	addi	s2,s2,0
     ff2:	0002                	c.slli64	zero
     ff4:	0301                	addi	t1,t1,0
     ff6:	0901                	addi	s2,s2,0
     ff8:	0002                	c.slli64	zero
     ffa:	0301                	addi	t1,t1,0
     ffc:	0901                	addi	s2,s2,0
     ffe:	0002                	c.slli64	zero
    1000:	0301                	addi	t1,t1,0
    1002:	0901                	addi	s2,s2,0
    1004:	0002                	c.slli64	zero
    1006:	0301                	addi	t1,t1,0
    1008:	0901                	addi	s2,s2,0
    100a:	0002                	c.slli64	zero
    100c:	0301                	addi	t1,t1,0
    100e:	0901                	addi	s2,s2,0
    1010:	0002                	c.slli64	zero
    1012:	0301                	addi	t1,t1,0
    1014:	0901                	addi	s2,s2,0
    1016:	0002                	c.slli64	zero
    1018:	0301                	addi	t1,t1,0
    101a:	0901                	addi	s2,s2,0
    101c:	0002                	c.slli64	zero
    101e:	0301                	addi	t1,t1,0
    1020:	0901                	addi	s2,s2,0
    1022:	0002                	c.slli64	zero
    1024:	0301                	addi	t1,t1,0
    1026:	0901                	addi	s2,s2,0
    1028:	0002                	c.slli64	zero
    102a:	0301                	addi	t1,t1,0
    102c:	0901                	addi	s2,s2,0
    102e:	0002                	c.slli64	zero
    1030:	0301                	addi	t1,t1,0
    1032:	0901                	addi	s2,s2,0
    1034:	0002                	c.slli64	zero
    1036:	0301                	addi	t1,t1,0
    1038:	0901                	addi	s2,s2,0
    103a:	0002                	c.slli64	zero
    103c:	0301                	addi	t1,t1,0
    103e:	0901                	addi	s2,s2,0
    1040:	0002                	c.slli64	zero
    1042:	0301                	addi	t1,t1,0
    1044:	0901                	addi	s2,s2,0
    1046:	0002                	c.slli64	zero
    1048:	0301                	addi	t1,t1,0
    104a:	0901                	addi	s2,s2,0
    104c:	0002                	c.slli64	zero
    104e:	0301                	addi	t1,t1,0
    1050:	0901                	addi	s2,s2,0
    1052:	0002                	c.slli64	zero
    1054:	0301                	addi	t1,t1,0
    1056:	0901                	addi	s2,s2,0
    1058:	0002                	c.slli64	zero
    105a:	0301                	addi	t1,t1,0
    105c:	0901                	addi	s2,s2,0
    105e:	0002                	c.slli64	zero
    1060:	0301                	addi	t1,t1,0
    1062:	0901                	addi	s2,s2,0
    1064:	0002                	c.slli64	zero
    1066:	0301                	addi	t1,t1,0
    1068:	0901                	addi	s2,s2,0
    106a:	0002                	c.slli64	zero
    106c:	0301                	addi	t1,t1,0
    106e:	0901                	addi	s2,s2,0
    1070:	0002                	c.slli64	zero
    1072:	0301                	addi	t1,t1,0
    1074:	0901                	addi	s2,s2,0
    1076:	0002                	c.slli64	zero
    1078:	0301                	addi	t1,t1,0
    107a:	0901                	addi	s2,s2,0
    107c:	0002                	c.slli64	zero
    107e:	0301                	addi	t1,t1,0
    1080:	0901                	addi	s2,s2,0
    1082:	0002                	c.slli64	zero
    1084:	0301                	addi	t1,t1,0
    1086:	0901                	addi	s2,s2,0
    1088:	0002                	c.slli64	zero
    108a:	0301                	addi	t1,t1,0
    108c:	0901                	addi	s2,s2,0
    108e:	0002                	c.slli64	zero
    1090:	0301                	addi	t1,t1,0
    1092:	0901                	addi	s2,s2,0
    1094:	0002                	c.slli64	zero
    1096:	0301                	addi	t1,t1,0
    1098:	0902                	c.slli64	s2
    109a:	0002                	c.slli64	zero
    109c:	0301                	addi	t1,t1,0
    109e:	0901                	addi	s2,s2,0
    10a0:	0008                	.insn	2, 0x0008
    10a2:	0301                	addi	t1,t1,0
    10a4:	0904                	addi	s1,sp,144
    10a6:	0004                	.insn	2, 0x0004
    10a8:	0301                	addi	t1,t1,0
    10aa:	0901                	addi	s2,s2,0
    10ac:	0008                	.insn	2, 0x0008
    10ae:	0301                	addi	t1,t1,0
    10b0:	0902                	c.slli64	s2
    10b2:	0004                	.insn	2, 0x0004
    10b4:	0301                	addi	t1,t1,0
    10b6:	0901                	addi	s2,s2,0
    10b8:	0004                	.insn	2, 0x0004
    10ba:	0301                	addi	t1,t1,0
    10bc:	0901                	addi	s2,s2,0
    10be:	0004                	.insn	2, 0x0004
    10c0:	0301                	addi	t1,t1,0
    10c2:	0901                	addi	s2,s2,0
    10c4:	0004                	.insn	2, 0x0004
    10c6:	0301                	addi	t1,t1,0
    10c8:	0901                	addi	s2,s2,0
    10ca:	0004                	.insn	2, 0x0004
    10cc:	0301                	addi	t1,t1,0
    10ce:	0901                	addi	s2,s2,0
    10d0:	0004                	.insn	2, 0x0004
    10d2:	0301                	addi	t1,t1,0
    10d4:	0901                	addi	s2,s2,0
    10d6:	0004                	.insn	2, 0x0004
    10d8:	0301                	addi	t1,t1,0
    10da:	0901                	addi	s2,s2,0
    10dc:	0004                	.insn	2, 0x0004
    10de:	0301                	addi	t1,t1,0
    10e0:	0901                	addi	s2,s2,0
    10e2:	0004                	.insn	2, 0x0004
    10e4:	0301                	addi	t1,t1,0
    10e6:	0901                	addi	s2,s2,0
    10e8:	0004                	.insn	2, 0x0004
    10ea:	0301                	addi	t1,t1,0
    10ec:	0901                	addi	s2,s2,0
    10ee:	0004                	.insn	2, 0x0004
    10f0:	0301                	addi	t1,t1,0
    10f2:	0901                	addi	s2,s2,0
    10f4:	0004                	.insn	2, 0x0004
    10f6:	0301                	addi	t1,t1,0
    10f8:	0901                	addi	s2,s2,0
    10fa:	0004                	.insn	2, 0x0004
    10fc:	0301                	addi	t1,t1,0
    10fe:	0901                	addi	s2,s2,0
    1100:	0004                	.insn	2, 0x0004
    1102:	0301                	addi	t1,t1,0
    1104:	0901                	addi	s2,s2,0
    1106:	0004                	.insn	2, 0x0004
    1108:	0301                	addi	t1,t1,0
    110a:	0901                	addi	s2,s2,0
    110c:	0004                	.insn	2, 0x0004
    110e:	0301                	addi	t1,t1,0
    1110:	0901                	addi	s2,s2,0
    1112:	0004                	.insn	2, 0x0004
    1114:	0301                	addi	t1,t1,0
    1116:	0901                	addi	s2,s2,0
    1118:	0004                	.insn	2, 0x0004
    111a:	0301                	addi	t1,t1,0
    111c:	0901                	addi	s2,s2,0
    111e:	0004                	.insn	2, 0x0004
    1120:	0301                	addi	t1,t1,0
    1122:	0901                	addi	s2,s2,0
    1124:	0004                	.insn	2, 0x0004
    1126:	0301                	addi	t1,t1,0
    1128:	0901                	addi	s2,s2,0
    112a:	0004                	.insn	2, 0x0004
    112c:	0301                	addi	t1,t1,0
    112e:	0901                	addi	s2,s2,0
    1130:	0004                	.insn	2, 0x0004
    1132:	0301                	addi	t1,t1,0
    1134:	0901                	addi	s2,s2,0
    1136:	0004                	.insn	2, 0x0004
    1138:	0301                	addi	t1,t1,0
    113a:	0901                	addi	s2,s2,0
    113c:	0004                	.insn	2, 0x0004
    113e:	0301                	addi	t1,t1,0
    1140:	0901                	addi	s2,s2,0
    1142:	0004                	.insn	2, 0x0004
    1144:	0301                	addi	t1,t1,0
    1146:	0901                	addi	s2,s2,0
    1148:	0004                	.insn	2, 0x0004
    114a:	0301                	addi	t1,t1,0
    114c:	0901                	addi	s2,s2,0
    114e:	0004                	.insn	2, 0x0004
    1150:	0301                	addi	t1,t1,0
    1152:	0901                	addi	s2,s2,0
    1154:	0004                	.insn	2, 0x0004
    1156:	0301                	addi	t1,t1,0
    1158:	0901                	addi	s2,s2,0
    115a:	0004                	.insn	2, 0x0004
    115c:	0301                	addi	t1,t1,0
    115e:	0901                	addi	s2,s2,0
    1160:	0004                	.insn	2, 0x0004
    1162:	0301                	addi	t1,t1,0
    1164:	0901                	addi	s2,s2,0
    1166:	0004                	.insn	2, 0x0004
    1168:	0301                	addi	t1,t1,0
    116a:	0901                	addi	s2,s2,0
    116c:	0004                	.insn	2, 0x0004
    116e:	0301                	addi	t1,t1,0
    1170:	0901                	addi	s2,s2,0
    1172:	0004                	.insn	2, 0x0004
    1174:	0301                	addi	t1,t1,0
    1176:	0908                	addi	a0,sp,144
    1178:	0004                	.insn	2, 0x0004
    117a:	0301                	addi	t1,t1,0
    117c:	0904                	addi	s1,sp,144
    117e:	0008                	.insn	2, 0x0008
    1180:	0301                	addi	t1,t1,0
    1182:	0901                	addi	s2,s2,0
    1184:	0004                	.insn	2, 0x0004
    1186:	0301                	addi	t1,t1,0
    1188:	0901                	addi	s2,s2,0
    118a:	0000                	unimp
    118c:	0301                	addi	t1,t1,0
    118e:	0901                	addi	s2,s2,0
    1190:	0004                	.insn	2, 0x0004
    1192:	0301                	addi	t1,t1,0
    1194:	0901                	addi	s2,s2,0
    1196:	0008                	.insn	2, 0x0008
    1198:	0301                	addi	t1,t1,0
    119a:	0901                	addi	s2,s2,0
    119c:	0004                	.insn	2, 0x0004
    119e:	0301                	addi	t1,t1,0
    11a0:	00020903          	lb	s2,0(tp) # 0 <__boot_hart>
    11a4:	0301                	addi	t1,t1,0
    11a6:	0901                	addi	s2,s2,0
    11a8:	0002                	c.slli64	zero
    11aa:	0301                	addi	t1,t1,0
    11ac:	0901                	addi	s2,s2,0
    11ae:	0004                	.insn	2, 0x0004
    11b0:	0301                	addi	t1,t1,0
    11b2:	00040903          	lb	s2,0(s0)
    11b6:	0301                	addi	t1,t1,0
    11b8:	0901                	addi	s2,s2,0
    11ba:	0008                	.insn	2, 0x0008
    11bc:	0301                	addi	t1,t1,0
    11be:	00040903          	lb	s2,0(s0)
    11c2:	0301                	addi	t1,t1,0
    11c4:	00040903          	lb	s2,0(s0)
    11c8:	0301                	addi	t1,t1,0
    11ca:	0901                	addi	s2,s2,0
    11cc:	0004                	.insn	2, 0x0004
    11ce:	0301                	addi	t1,t1,0
    11d0:	00080903          	lb	s2,0(a6)
    11d4:	0301                	addi	t1,t1,0
    11d6:	0901                	addi	s2,s2,0
    11d8:	0004                	.insn	2, 0x0004
    11da:	0301                	addi	t1,t1,0
    11dc:	0901                	addi	s2,s2,0
    11de:	0004                	.insn	2, 0x0004
    11e0:	0301                	addi	t1,t1,0
    11e2:	0902                	c.slli64	s2
    11e4:	0004                	.insn	2, 0x0004
    11e6:	0301                	addi	t1,t1,0
    11e8:	0901                	addi	s2,s2,0
    11ea:	0004                	.insn	2, 0x0004
    11ec:	0301                	addi	t1,t1,0
    11ee:	0901                	addi	s2,s2,0
    11f0:	0002                	c.slli64	zero
    11f2:	0301                	addi	t1,t1,0
    11f4:	0904                	addi	s1,sp,144
    11f6:	0004                	.insn	2, 0x0004
    11f8:	0301                	addi	t1,t1,0
    11fa:	0901                	addi	s2,s2,0
    11fc:	0008                	.insn	2, 0x0008
    11fe:	0301                	addi	t1,t1,0
    1200:	0901                	addi	s2,s2,0
    1202:	0004                	.insn	2, 0x0004
    1204:	0301                	addi	t1,t1,0
    1206:	00040903          	lb	s2,0(s0)
    120a:	0301                	addi	t1,t1,0
    120c:	00040907          	.insn	4, 0x00040907
    1210:	0301                	addi	t1,t1,0
    1212:	0901                	addi	s2,s2,0
    1214:	0004                	.insn	2, 0x0004
    1216:	0301                	addi	t1,t1,0
    1218:	00020903          	lb	s2,0(tp) # 0 <__boot_hart>
    121c:	0301                	addi	t1,t1,0
    121e:	0901                	addi	s2,s2,0
    1220:	0002                	c.slli64	zero
    1222:	0301                	addi	t1,t1,0
    1224:	0901                	addi	s2,s2,0
    1226:	0004                	.insn	2, 0x0004
    1228:	0301                	addi	t1,t1,0
    122a:	0901                	addi	s2,s2,0
    122c:	0002                	c.slli64	zero
    122e:	0301                	addi	t1,t1,0
    1230:	0901                	addi	s2,s2,0
    1232:	0002                	c.slli64	zero
    1234:	0301                	addi	t1,t1,0
    1236:	0901                	addi	s2,s2,0
    1238:	0002                	c.slli64	zero
    123a:	0301                	addi	t1,t1,0
    123c:	0901                	addi	s2,s2,0
    123e:	0002                	c.slli64	zero
    1240:	0301                	addi	t1,t1,0
    1242:	0901                	addi	s2,s2,0
    1244:	0002                	c.slli64	zero
    1246:	0301                	addi	t1,t1,0
    1248:	0901                	addi	s2,s2,0
    124a:	0002                	c.slli64	zero
    124c:	0301                	addi	t1,t1,0
    124e:	0901                	addi	s2,s2,0
    1250:	0002                	c.slli64	zero
    1252:	0301                	addi	t1,t1,0
    1254:	0901                	addi	s2,s2,0
    1256:	0002                	c.slli64	zero
    1258:	0301                	addi	t1,t1,0
    125a:	0901                	addi	s2,s2,0
    125c:	0002                	c.slli64	zero
    125e:	0301                	addi	t1,t1,0
    1260:	0901                	addi	s2,s2,0
    1262:	0002                	c.slli64	zero
    1264:	0301                	addi	t1,t1,0
    1266:	0901                	addi	s2,s2,0
    1268:	0002                	c.slli64	zero
    126a:	0301                	addi	t1,t1,0
    126c:	0901                	addi	s2,s2,0
    126e:	0002                	c.slli64	zero
    1270:	0301                	addi	t1,t1,0
    1272:	0901                	addi	s2,s2,0
    1274:	0002                	c.slli64	zero
    1276:	0301                	addi	t1,t1,0
    1278:	0901                	addi	s2,s2,0
    127a:	0002                	c.slli64	zero
    127c:	0301                	addi	t1,t1,0
    127e:	0901                	addi	s2,s2,0
    1280:	0002                	c.slli64	zero
    1282:	0301                	addi	t1,t1,0
    1284:	0901                	addi	s2,s2,0
    1286:	0002                	c.slli64	zero
    1288:	0301                	addi	t1,t1,0
    128a:	0901                	addi	s2,s2,0
    128c:	0002                	c.slli64	zero
    128e:	0301                	addi	t1,t1,0
    1290:	0901                	addi	s2,s2,0
    1292:	0002                	c.slli64	zero
    1294:	0301                	addi	t1,t1,0
    1296:	0901                	addi	s2,s2,0
    1298:	0002                	c.slli64	zero
    129a:	0301                	addi	t1,t1,0
    129c:	0901                	addi	s2,s2,0
    129e:	0002                	c.slli64	zero
    12a0:	0301                	addi	t1,t1,0
    12a2:	0901                	addi	s2,s2,0
    12a4:	0002                	c.slli64	zero
    12a6:	0301                	addi	t1,t1,0
    12a8:	0901                	addi	s2,s2,0
    12aa:	0002                	c.slli64	zero
    12ac:	0301                	addi	t1,t1,0
    12ae:	0901                	addi	s2,s2,0
    12b0:	0002                	c.slli64	zero
    12b2:	0301                	addi	t1,t1,0
    12b4:	0901                	addi	s2,s2,0
    12b6:	0002                	c.slli64	zero
    12b8:	0301                	addi	t1,t1,0
    12ba:	0901                	addi	s2,s2,0
    12bc:	0002                	c.slli64	zero
    12be:	0301                	addi	t1,t1,0
    12c0:	0901                	addi	s2,s2,0
    12c2:	0002                	c.slli64	zero
    12c4:	0301                	addi	t1,t1,0
    12c6:	0901                	addi	s2,s2,0
    12c8:	0002                	c.slli64	zero
    12ca:	0301                	addi	t1,t1,0
    12cc:	0901                	addi	s2,s2,0
    12ce:	0002                	c.slli64	zero
    12d0:	0301                	addi	t1,t1,0
    12d2:	0901                	addi	s2,s2,0
    12d4:	0002                	c.slli64	zero
    12d6:	0301                	addi	t1,t1,0
    12d8:	00020903          	lb	s2,0(tp) # 0 <__boot_hart>
    12dc:	0301                	addi	t1,t1,0
    12de:	0901                	addi	s2,s2,0
    12e0:	0004                	.insn	2, 0x0004
    12e2:	0301                	addi	t1,t1,0
    12e4:	0901                	addi	s2,s2,0
    12e6:	0004                	.insn	2, 0x0004
    12e8:	0301                	addi	t1,t1,0
    12ea:	0901                	addi	s2,s2,0
    12ec:	0004                	.insn	2, 0x0004
    12ee:	0301                	addi	t1,t1,0
    12f0:	0901                	addi	s2,s2,0
    12f2:	0002                	c.slli64	zero
    12f4:	0301                	addi	t1,t1,0
    12f6:	0901                	addi	s2,s2,0
    12f8:	0004                	.insn	2, 0x0004
    12fa:	0301                	addi	t1,t1,0
    12fc:	00040903          	lb	s2,0(s0)
    1300:	0301                	addi	t1,t1,0
    1302:	0901                	addi	s2,s2,0
    1304:	0008                	.insn	2, 0x0008
    1306:	0301                	addi	t1,t1,0
    1308:	0902                	c.slli64	s2
    130a:	0004                	.insn	2, 0x0004
    130c:	0301                	addi	t1,t1,0
    130e:	0901                	addi	s2,s2,0
    1310:	0002                	c.slli64	zero
    1312:	0301                	addi	t1,t1,0
    1314:	0901                	addi	s2,s2,0
    1316:	0002                	c.slli64	zero
    1318:	0301                	addi	t1,t1,0
    131a:	0901                	addi	s2,s2,0
    131c:	0002                	c.slli64	zero
    131e:	0301                	addi	t1,t1,0
    1320:	0901                	addi	s2,s2,0
    1322:	0002                	c.slli64	zero
    1324:	0301                	addi	t1,t1,0
    1326:	0901                	addi	s2,s2,0
    1328:	0002                	c.slli64	zero
    132a:	0301                	addi	t1,t1,0
    132c:	0901                	addi	s2,s2,0
    132e:	0002                	c.slli64	zero
    1330:	0301                	addi	t1,t1,0
    1332:	0901                	addi	s2,s2,0
    1334:	0002                	c.slli64	zero
    1336:	0301                	addi	t1,t1,0
    1338:	0901                	addi	s2,s2,0
    133a:	0002                	c.slli64	zero
    133c:	0301                	addi	t1,t1,0
    133e:	0901                	addi	s2,s2,0
    1340:	0002                	c.slli64	zero
    1342:	0301                	addi	t1,t1,0
    1344:	0901                	addi	s2,s2,0
    1346:	0002                	c.slli64	zero
    1348:	0301                	addi	t1,t1,0
    134a:	0901                	addi	s2,s2,0
    134c:	0002                	c.slli64	zero
    134e:	0301                	addi	t1,t1,0
    1350:	0901                	addi	s2,s2,0
    1352:	0002                	c.slli64	zero
    1354:	0301                	addi	t1,t1,0
    1356:	0901                	addi	s2,s2,0
    1358:	0002                	c.slli64	zero
    135a:	0301                	addi	t1,t1,0
    135c:	0901                	addi	s2,s2,0
    135e:	0002                	c.slli64	zero
    1360:	0301                	addi	t1,t1,0
    1362:	0901                	addi	s2,s2,0
    1364:	0002                	c.slli64	zero
    1366:	0301                	addi	t1,t1,0
    1368:	0901                	addi	s2,s2,0
    136a:	0002                	c.slli64	zero
    136c:	0301                	addi	t1,t1,0
    136e:	0901                	addi	s2,s2,0
    1370:	0002                	c.slli64	zero
    1372:	0301                	addi	t1,t1,0
    1374:	0901                	addi	s2,s2,0
    1376:	0002                	c.slli64	zero
    1378:	0301                	addi	t1,t1,0
    137a:	0901                	addi	s2,s2,0
    137c:	0002                	c.slli64	zero
    137e:	0301                	addi	t1,t1,0
    1380:	0901                	addi	s2,s2,0
    1382:	0002                	c.slli64	zero
    1384:	0301                	addi	t1,t1,0
    1386:	0901                	addi	s2,s2,0
    1388:	0002                	c.slli64	zero
    138a:	0301                	addi	t1,t1,0
    138c:	0901                	addi	s2,s2,0
    138e:	0002                	c.slli64	zero
    1390:	0301                	addi	t1,t1,0
    1392:	0901                	addi	s2,s2,0
    1394:	0002                	c.slli64	zero
    1396:	0301                	addi	t1,t1,0
    1398:	0901                	addi	s2,s2,0
    139a:	0002                	c.slli64	zero
    139c:	0301                	addi	t1,t1,0
    139e:	0901                	addi	s2,s2,0
    13a0:	0002                	c.slli64	zero
    13a2:	0301                	addi	t1,t1,0
    13a4:	0901                	addi	s2,s2,0
    13a6:	0002                	c.slli64	zero
    13a8:	0301                	addi	t1,t1,0
    13aa:	0901                	addi	s2,s2,0
    13ac:	0002                	c.slli64	zero
    13ae:	0301                	addi	t1,t1,0
    13b0:	0901                	addi	s2,s2,0
    13b2:	0002                	c.slli64	zero
    13b4:	0301                	addi	t1,t1,0
    13b6:	0901                	addi	s2,s2,0
    13b8:	0002                	c.slli64	zero
    13ba:	0301                	addi	t1,t1,0
    13bc:	0902                	c.slli64	s2
    13be:	0002                	c.slli64	zero
    13c0:	0301                	addi	t1,t1,0
    13c2:	0902                	c.slli64	s2
    13c4:	0002                	c.slli64	zero
    13c6:	0901                	addi	s2,s2,0
    13c8:	0004                	.insn	2, 0x0004
    13ca:	0100                	addi	s0,sp,128
    13cc:	5401                	li	s0,-32
    13ce:	0000                	unimp
    13d0:	0200                	addi	s0,sp,256
    13d2:	2800                	fld	fs0,16(s0)
    13d4:	0000                	unimp
    13d6:	0100                	addi	s0,sp,128
    13d8:	fb01                	bnez	a4,12e8 <__stack_align+0x12d8>
    13da:	0d0e                	slli	s10,s10,0x3
    13dc:	0100                	addi	s0,sp,128
    13de:	0101                	addi	sp,sp,0
    13e0:	0001                	nop
    13e2:	0000                	unimp
    13e4:	0001                	nop
    13e6:	0100                	addi	s0,sp,128
    13e8:	2e2e                	fld	ft8,200(sp)
    13ea:	73696d2f          	.insn	4, 0x73696d2f
    13ee:	63000063          	beq	zero,a6,1a0e <__stack_align+0x19fe>
    13f2:	7472                	ld	s0,312(sp)
    13f4:	616d                	addi	sp,sp,240
    13f6:	6e69                	lui	t3,0x1a
    13f8:	532e                	lw	t1,232(sp)
    13fa:	0100                	addi	s0,sp,128
    13fc:	0000                	unimp
    13fe:	0000                	unimp
    1400:	0209                	addi	tp,tp,2 # 2 <__boot_hart+0x2>
    1402:	01f4                	addi	a3,sp,204
    1404:	8000                	.insn	2, 0x8000
    1406:	0000                	unimp
    1408:	0000                	unimp
    140a:	03011003          	lh	zero,48(sp)
    140e:	0901                	addi	s2,s2,0
    1410:	000a                	c.slli	zero,0x2
    1412:	0301                	addi	t1,t1,0
    1414:	0906                	slli	s2,s2,0x1
    1416:	001a                	c.slli	zero,0x6
    1418:	0301                	addi	t1,t1,0
    141a:	0901                	addi	s2,s2,0
    141c:	000c                	.insn	2, 0x000c
    141e:	0901                	addi	s2,s2,0
    1420:	001a                	c.slli	zero,0x6
    1422:	0100                	addi	s0,sp,128
    1424:	2f01                	sext.w	t5,t5
    1426:	0001                	nop
    1428:	0200                	addi	s0,sp,256
    142a:	c300                	sw	s0,0(a4)
    142c:	0000                	unimp
    142e:	0100                	addi	s0,sp,128
    1430:	fb01                	bnez	a4,1340 <__stack_align+0x1330>
    1432:	0d0e                	slli	s10,s10,0x3
    1434:	0100                	addi	s0,sp,128
    1436:	0101                	addi	sp,sp,0
    1438:	0001                	nop
    143a:	0000                	unimp
    143c:	0001                	nop
    143e:	0100                	addi	s0,sp,128
    1440:	2e2e                	fld	ft8,200(sp)
    1442:	73696d2f          	.insn	4, 0x73696d2f
    1446:	6f2f0063          	beq	t5,s2,1b26 <__stack_align+0x1b16>
    144a:	7470                	ld	a2,232(s0)
    144c:	7369722f          	.insn	4, 0x7369722f
    1450:	722f7663          	bgeu	t5,sp,1b7c <__stack_align+0x1b6c>
    1454:	7369                	lui	t1,0xffffa
    1456:	34367663          	bgeu	a2,gp,17a2 <__stack_align+0x1792>
    145a:	752d                	lui	a0,0xfffeb
    145c:	6b6e                	ld	s6,216(sp)
    145e:	6f6e                	ld	t5,216(sp)
    1460:	652d6e77          	.insn	4, 0x652d6e77
    1464:	666c                	ld	a1,200(a2)
    1466:	636e692f          	.insn	4, 0x636e692f
    146a:	756c                	ld	a1,232(a0)
    146c:	6564                	ld	s1,200(a0)
    146e:	63616d2f          	.insn	4, 0x63616d2f
    1472:	6968                	ld	a0,208(a0)
    1474:	656e                	ld	a0,216(sp)
    1476:	2f00                	fld	fs0,24(a4)
    1478:	2f74706f          	j	48f6e <__heap_size+0x28f6e>
    147c:	6972                	ld	s2,280(sp)
    147e:	2f766373          	csrrsi	t1,0x2f7,12
    1482:	6972                	ld	s2,280(sp)
    1484:	36766373          	csrrsi	t1,0x367,12
    1488:	2d34                	fld	fa3,88(a0)
    148a:	6e75                	lui	t3,0x1d
    148c:	776f6e6b          	.insn	4, 0x776f6e6b
    1490:	2d6e                	fld	fs10,216(sp)
    1492:	6c65                	lui	s8,0x19
    1494:	2f66                	fld	ft10,88(sp)
    1496:	6e69                	lui	t3,0x1a
    1498:	64756c63          	bltu	a0,t2,1af0 <__stack_align+0x1ae0>
    149c:	2f65                	addiw	t5,t5,25
    149e:	00737973          	csrrci	s2,0x7,6
    14a2:	2e2e                	fld	ft8,200(sp)
    14a4:	636e692f          	.insn	4, 0x636e692f
    14a8:	756c                	ld	a1,232(a0)
    14aa:	6564                	ld	s1,200(a0)
    14ac:	0000                	unimp
    14ae:	7274                	ld	a3,224(a2)
    14b0:	7061                	c.lui	zero,0xffff8
    14b2:	00632e73          	csrrs	t3,0x6,t1
    14b6:	0001                	nop
    14b8:	5f00                	lw	s0,56(a4)
    14ba:	6564                	ld	s1,200(a0)
    14bc:	6166                	ld	sp,88(sp)
    14be:	6c75                	lui	s8,0x1d
    14c0:	5f74                	lw	a3,124(a4)
    14c2:	7974                	ld	a3,240(a0)
    14c4:	6570                	ld	a2,200(a0)
    14c6:	00682e73          	csrrs	t3,0x6,a6
    14ca:	0002                	c.slli64	zero
    14cc:	5f00                	lw	s0,56(a4)
    14ce:	69647473          	csrrci	s0,0x696,8
    14d2:	746e                	ld	s0,248(sp)
    14d4:	682e                	ld	a6,200(sp)
    14d6:	0300                	addi	s0,sp,384
    14d8:	0000                	unimp
    14da:	7468                	ld	a0,232(s0)
    14dc:	6669                	lui	a2,0x1a
    14de:	682e                	ld	a6,200(sp)
    14e0:	0400                	addi	s0,sp,512
    14e2:	0000                	unimp
    14e4:	63737973          	csrrci	s2,0x637,6
    14e8:	6c61                	lui	s8,0x18
    14ea:	2e6c                	fld	fa1,216(a2)
    14ec:	0068                	addi	a0,sp,12
    14ee:	0004                	.insn	2, 0x0004
    14f0:	0000                	unimp
    14f2:	0105                	addi	sp,sp,1
    14f4:	0900                	addi	s0,sp,144
    14f6:	b002                	fsd	ft0,32(sp)
    14f8:	0016                	c.slli	zero,0x5
    14fa:	0080                	addi	s0,sp,64
    14fc:	0000                	unimp
    14fe:	1600                	addi	s0,sp,800
    1500:	0505                	addi	a0,a0,1 # fffffffffffeb001 <__heap_end+0xffffffff7ffc8001>
    1502:	00090203          	lb	tp,0(s2)
    1506:	0100                	addi	s0,sp,128
    1508:	0105                	addi	sp,sp,1
    150a:	0306                	slli	t1,t1,0x1
    150c:	097e                	slli	s2,s2,0x1f
    150e:	0000                	unimp
    1510:	0501                	addi	a0,a0,0
    1512:	0309                	addi	t1,t1,2 # ffffffffffffa002 <__heap_end+0xffffffff7ffd7002>
    1514:	0902                	c.slli64	s2
    1516:	0002                	c.slli64	zero
    1518:	0501                	addi	a0,a0,0
    151a:	0301                	addi	t1,t1,0
    151c:	097e                	slli	s2,s2,0x1f
    151e:	0004                	.insn	2, 0x0004
    1520:	0501                	addi	a0,a0,0
    1522:	0309                	addi	t1,t1,2
    1524:	0902                	c.slli64	s2
    1526:	0002                	c.slli64	zero
    1528:	0501                	addi	a0,a0,0
    152a:	0605                	addi	a2,a2,1 # 1a001 <__stack_size+0x12001>
    152c:	02090203          	lb	tp,32(s2)
    1530:	0100                	addi	s0,sp,128
    1532:	2a05                	addiw	s4,s4,1
    1534:	0306                	slli	t1,t1,0x1
    1536:	0900                	addi	s0,sp,144
    1538:	0000                	unimp
    153a:	0001                	nop
    153c:	0402                	c.slli64	s0
    153e:	0301                	addi	t1,t1,0
    1540:	0900                	addi	s0,sp,144
    1542:	0004                	.insn	2, 0x0004
    1544:	0501                	addi	a0,a0,0
    1546:	0005                	c.nop	1
    1548:	0402                	c.slli64	s0
    154a:	0604                	addi	s1,sp,768
    154c:	04090103          	lb	sp,64(s2)
    1550:	0100                	addi	s0,sp,128
    1552:	0409                	addi	s0,s0,2
    1554:	0000                	unimp
    1556:	0101                	addi	sp,sp,0
    1558:	017d                	addi	sp,sp,31
    155a:	0000                	unimp
    155c:	0002                	c.slli64	zero
    155e:	00e4                	addi	s1,sp,76
    1560:	0000                	unimp
    1562:	0101                	addi	sp,sp,0
    1564:	000d0efb          	.insn	4, 0x000d0efb
    1568:	0101                	addi	sp,sp,0
    156a:	0101                	addi	sp,sp,0
    156c:	0000                	unimp
    156e:	0100                	addi	s0,sp,128
    1570:	0000                	unimp
    1572:	2e01                	sext.w	t3,t3
    1574:	2f2e                	fld	ft10,200(sp)
    1576:	696d                	lui	s2,0x1b
    1578:	2f006373          	csrrsi	t1,0x2f0,0
    157c:	2f74706f          	j	49072 <__heap_size+0x29072>
    1580:	6972                	ld	s2,280(sp)
    1582:	2f766373          	csrrsi	t1,0x2f7,12
    1586:	696c                	ld	a1,208(a0)
    1588:	2f62                	fld	ft10,24(sp)
    158a:	2f636367          	.insn	4, 0x2f636367
    158e:	6972                	ld	s2,280(sp)
    1590:	36766373          	csrrsi	t1,0x367,12
    1594:	2d34                	fld	fa3,88(a0)
    1596:	6e75                	lui	t3,0x1d
    1598:	776f6e6b          	.insn	4, 0x776f6e6b
    159c:	2d6e                	fld	fs10,216(sp)
    159e:	6c65                	lui	s8,0x19
    15a0:	2f66                	fld	ft10,88(sp)
    15a2:	2e38                	fld	fa4,88(a2)
    15a4:	2e32                	fld	ft8,264(sp)
    15a6:	2f30                	fld	fa2,88(a4)
    15a8:	6e69                	lui	t3,0x1a
    15aa:	64756c63          	bltu	a0,t2,1c02 <__stack_align+0x1bf2>
    15ae:	0065                	c.nop	25
    15b0:	74706f2f          	.insn	4, 0x74706f2f
    15b4:	7369722f          	.insn	4, 0x7369722f
    15b8:	722f7663          	bgeu	t5,sp,1ce4 <__stack_align+0x1cd4>
    15bc:	7369                	lui	t1,0xffffa
    15be:	34367663          	bgeu	a2,gp,190a <__stack_align+0x18fa>
    15c2:	752d                	lui	a0,0xfffeb
    15c4:	6b6e                	ld	s6,216(sp)
    15c6:	6f6e                	ld	t5,216(sp)
    15c8:	652d6e77          	.insn	4, 0x652d6e77
    15cc:	666c                	ld	a1,200(a2)
    15ce:	636e692f          	.insn	4, 0x636e692f
    15d2:	756c                	ld	a1,232(a0)
    15d4:	6564                	ld	s1,200(a0)
    15d6:	7379732f          	.insn	4, 0x7379732f
    15da:	2f00                	fld	fs0,24(a4)
    15dc:	2f74706f          	j	490d2 <__heap_size+0x290d2>
    15e0:	6972                	ld	s2,280(sp)
    15e2:	2f766373          	csrrsi	t1,0x2f7,12
    15e6:	6972                	ld	s2,280(sp)
    15e8:	36766373          	csrrsi	t1,0x367,12
    15ec:	2d34                	fld	fa3,88(a0)
    15ee:	6e75                	lui	t3,0x1d
    15f0:	776f6e6b          	.insn	4, 0x776f6e6b
    15f4:	2d6e                	fld	fs10,216(sp)
    15f6:	6c65                	lui	s8,0x19
    15f8:	2f66                	fld	ft10,88(sp)
    15fa:	6e69                	lui	t3,0x1a
    15fc:	64756c63          	bltu	a0,t2,1c54 <__stack_align+0x1c44>
    1600:	0065                	c.nop	25
    1602:	7400                	ld	s0,40(s0)
    1604:	736c                	ld	a1,224(a4)
    1606:	632e                	ld	t1,200(sp)
    1608:	0100                	addi	s0,sp,128
    160a:	0000                	unimp
    160c:	64647473          	csrrci	s0,hviprio1,8
    1610:	6665                	lui	a2,0x19
    1612:	682e                	ld	a6,200(sp)
    1614:	0200                	addi	s0,sp,256
    1616:	0000                	unimp
    1618:	6f6c                	ld	a1,216(a4)
    161a:	682e6b63          	bltu	t3,sp,1cb0 <__stack_align+0x1ca0>
    161e:	0300                	addi	s0,sp,384
    1620:	0000                	unimp
    1622:	745f 7079 7365      	.insn	6, 0x73657079745f
    1628:	682e                	ld	a6,200(sp)
    162a:	0300                	addi	s0,sp,384
    162c:	0000                	unimp
    162e:	6572                	ld	a0,280(sp)
    1630:	6e65                	lui	t3,0x19
    1632:	2e74                	fld	fa3,216(a2)
    1634:	0068                	addi	a0,sp,12
    1636:	73000003          	lb	zero,1840(zero) # 730 <__stack_align+0x720>
    163a:	7274                	ld	a3,224(a2)
    163c:	6e69                	lui	t3,0x1a
    163e:	00682e67          	.insn	4, 0x00682e67
    1642:	0004                	.insn	2, 0x0004
    1644:	0000                	unimp
    1646:	0105                	addi	sp,sp,1
    1648:	0900                	addi	s0,sp,144
    164a:	c602                	sw	zero,12(sp)
    164c:	0016                	c.slli	zero,0x5
    164e:	0080                	addi	s0,sp,64
    1650:	0000                	unimp
    1652:	1500                	addi	s0,sp,672
    1654:	0505                	addi	a0,a0,1 # fffffffffffeb001 <__heap_end+0xffffffff7ffc8001>
    1656:	00090103          	lb	sp,0(s2) # 1b000 <__stack_size+0x13000>
    165a:	0100                	addi	s0,sp,128
    165c:	00090103          	lb	sp,0(s2)
    1660:	0100                	addi	s0,sp,128
    1662:	00090103          	lb	sp,0(s2)
    1666:	0100                	addi	s0,sp,128
    1668:	00090103          	lb	sp,0(s2)
    166c:	0100                	addi	s0,sp,128
    166e:	00090103          	lb	sp,0(s2)
    1672:	0100                	addi	s0,sp,128
    1674:	00090203          	lb	tp,0(s2)
    1678:	0100                	addi	s0,sp,128
    167a:	0105                	addi	sp,sp,1
    167c:	0306                	slli	t1,t1,0x1
    167e:	0979                	addi	s2,s2,30
    1680:	0000                	unimp
    1682:	0501                	addi	a0,a0,0
    1684:	0305                	addi	t1,t1,1 # ffffffffffffa001 <__heap_end+0xffffffff7ffd7001>
    1686:	00020907          	.insn	4, 0x00020907
    168a:	0501                	addi	a0,a0,0
    168c:	0301                	addi	t1,t1,0
    168e:	0979                	addi	s2,s2,30
    1690:	000e                	c.slli	zero,0x3
    1692:	0501                	addi	a0,a0,0
    1694:	0305                	addi	t1,t1,1
    1696:	00040907          	.insn	4, 0x00040907
    169a:	0601                	addi	a2,a2,0 # 19000 <__stack_size+0x11000>
    169c:	06090103          	lb	sp,96(s2)
    16a0:	0100                	addi	s0,sp,128
    16a2:	0105                	addi	sp,sp,1
    16a4:	0306                	slli	t1,t1,0x1
    16a6:	0901                	addi	s2,s2,0
    16a8:	0006                	c.slli	zero,0x1
    16aa:	0501                	addi	a0,a0,0
    16ac:	0305                	addi	t1,t1,1
    16ae:	097f 0004 0501 0301 	.insn	10, 0x0901030105010004097f
    16b6:	0901 
    16b8:	0004                	.insn	2, 0x0004
    16ba:	0501                	addi	a0,a0,0
    16bc:	0305                	addi	t1,t1,1
    16be:	097f 0000 0501 0301 	.insn	10, 0x0901030105010000097f
    16c6:	0901 
    16c8:	0002                	c.slli64	zero
    16ca:	0501                	addi	a0,a0,0
    16cc:	0305                	addi	t1,t1,1
    16ce:	097f 0002 0901 0002 	.insn	10, 0x0100000209010002097f
    16d6:	0100 
    16d8:	5701                	li	a4,-32
    16da:	0000                	unimp
    16dc:	0200                	addi	s0,sp,256
    16de:	2500                	fld	fs0,8(a0)
    16e0:	0000                	unimp
    16e2:	0100                	addi	s0,sp,128
    16e4:	fb01                	bnez	a4,15f4 <__stack_align+0x15e4>
    16e6:	0d0e                	slli	s10,s10,0x3
    16e8:	0100                	addi	s0,sp,128
    16ea:	0101                	addi	sp,sp,0
    16ec:	0001                	nop
    16ee:	0000                	unimp
    16f0:	0001                	nop
    16f2:	0100                	addi	s0,sp,128
    16f4:	2e2e                	fld	ft8,200(sp)
    16f6:	73696d2f          	.insn	4, 0x73696d2f
    16fa:	6d000063          	beq	zero,a6,1dba <__stack_align+0x1daa>
    16fe:	6961                	lui	s2,0x18
    1700:	2e6e                	fld	ft8,216(sp)
    1702:	00010063          	beqz	sp,1702 <__stack_align+0x16f2>
    1706:	0000                	unimp
    1708:	0105                	addi	sp,sp,1
    170a:	0900                	addi	s0,sp,144
    170c:	f402                	sd	zero,40(sp)
    170e:	0016                	c.slli	zero,0x5
    1710:	0080                	addi	s0,sp,64
    1712:	0000                	unimp
    1714:	1900                	addi	s0,sp,176
    1716:	0505                	addi	a0,a0,1
    1718:	0200                	addi	s0,sp,256
    171a:	0104                	addi	s1,sp,128
    171c:	00090103          	lb	sp,0(s2) # 18000 <__stack_size+0x10000>
    1720:	0100                	addi	s0,sp,128
    1722:	0905                	addi	s2,s2,1
    1724:	0200                	addi	s0,sp,256
    1726:	0104                	addi	s1,sp,128
    1728:	00090103          	lb	sp,0(s2)
    172c:	0100                	addi	s0,sp,128
    172e:	0609                	addi	a2,a2,2
    1730:	0000                	unimp
    1732:	0101                	addi	sp,sp,0
    1734:	00000127          	.insn	4, 0x0127
    1738:	0002                	c.slli64	zero
    173a:	00b4                	addi	a3,sp,72
    173c:	0000                	unimp
    173e:	0101                	addi	sp,sp,0
    1740:	000d0efb          	.insn	4, 0x000d0efb
    1744:	0101                	addi	sp,sp,0
    1746:	0101                	addi	sp,sp,0
    1748:	0000                	unimp
    174a:	0100                	addi	s0,sp,128
    174c:	0000                	unimp
    174e:	2e01                	sext.w	t3,t3
    1750:	2f2e                	fld	ft10,200(sp)
    1752:	00737973          	csrrci	s2,0x7,6
    1756:	74706f2f          	.insn	4, 0x74706f2f
    175a:	7369722f          	.insn	4, 0x7369722f
    175e:	722f7663          	bgeu	t5,sp,1e8a <__stack_align+0x1e7a>
    1762:	7369                	lui	t1,0xffffa
    1764:	34367663          	bgeu	a2,gp,1ab0 <__stack_align+0x1aa0>
    1768:	752d                	lui	a0,0xfffeb
    176a:	6b6e                	ld	s6,216(sp)
    176c:	6f6e                	ld	t5,216(sp)
    176e:	652d6e77          	.insn	4, 0x652d6e77
    1772:	666c                	ld	a1,200(a2)
    1774:	636e692f          	.insn	4, 0x636e692f
    1778:	756c                	ld	a1,232(a0)
    177a:	6564                	ld	s1,200(a0)
    177c:	63616d2f          	.insn	4, 0x63616d2f
    1780:	6968                	ld	a0,208(a0)
    1782:	656e                	ld	a0,216(sp)
    1784:	2f00                	fld	fs0,24(a4)
    1786:	2f74706f          	j	4927c <__heap_size+0x2927c>
    178a:	6972                	ld	s2,280(sp)
    178c:	2f766373          	csrrsi	t1,0x2f7,12
    1790:	6972                	ld	s2,280(sp)
    1792:	36766373          	csrrsi	t1,0x367,12
    1796:	2d34                	fld	fa3,88(a0)
    1798:	6e75                	lui	t3,0x1d
    179a:	776f6e6b          	.insn	4, 0x776f6e6b
    179e:	2d6e                	fld	fs10,216(sp)
    17a0:	6c65                	lui	s8,0x19
    17a2:	2f66                	fld	ft10,88(sp)
    17a4:	6e69                	lui	t3,0x1a
    17a6:	64756c63          	bltu	a0,t2,1dfe <__stack_align+0x1dee>
    17aa:	2f65                	addiw	t5,t5,25
    17ac:	00737973          	csrrci	s2,0x7,6
    17b0:	2e2e                	fld	ft8,200(sp)
    17b2:	636e692f          	.insn	4, 0x636e692f
    17b6:	756c                	ld	a1,232(a0)
    17b8:	6564                	ld	s1,200(a0)
    17ba:	0000                	unimp
    17bc:	7865                	lui	a6,0xffff9
    17be:	7469                	lui	s0,0xffffa
    17c0:	632e                	ld	t1,200(sp)
    17c2:	0100                	addi	s0,sp,128
    17c4:	0000                	unimp
    17c6:	645f 6665 7561      	.insn	6, 0x75616665645f
    17cc:	746c                	ld	a1,232(s0)
    17ce:	745f 7079 7365      	.insn	6, 0x73657079745f
    17d4:	682e                	ld	a6,200(sp)
    17d6:	0200                	addi	s0,sp,256
    17d8:	0000                	unimp
    17da:	735f 6474 6e69      	.insn	6, 0x6e696474735f
    17e0:	2e74                	fld	fa3,216(a2)
    17e2:	0068                	addi	a0,sp,12
    17e4:	68000003          	lb	zero,1664(zero) # 680 <__stack_align+0x670>
    17e8:	6974                	ld	a3,208(a0)
    17ea:	2e66                	fld	ft8,88(sp)
    17ec:	0068                	addi	a0,sp,12
    17ee:	0004                	.insn	2, 0x0004
    17f0:	0000                	unimp
    17f2:	0105                	addi	sp,sp,1
    17f4:	0900                	addi	s0,sp,144
    17f6:	fa02                	sd	zero,304(sp)
    17f8:	0016                	c.slli	zero,0x5
    17fa:	0080                	addi	s0,sp,64
    17fc:	0000                	unimp
    17fe:	1600                	addi	s0,sp,800
    1800:	0505                	addi	a0,a0,1 # fffffffffffeb001 <__heap_end+0xffffffff7ffc8001>
    1802:	00090103          	lb	sp,0(s2)
    1806:	0100                	addi	s0,sp,128
    1808:	1405                	addi	s0,s0,-31 # ffffffffffff9fe1 <__heap_end+0xffffffff7ffd6fe1>
    180a:	0306                	slli	t1,t1,0x1
    180c:	0900                	addi	s0,sp,144
    180e:	0000                	unimp
    1810:	0501                	addi	a0,a0,0
    1812:	030e                	slli	t1,t1,0x3
    1814:	0900                	addi	s0,sp,144
    1816:	000a                	c.slli	zero,0x2
    1818:	0501                	addi	a0,a0,0
    181a:	0005                	c.nop	1
    181c:	0402                	c.slli64	s0
    181e:	0601                	addi	a2,a2,0
    1820:	04090103          	lb	sp,64(s2)
    1824:	0100                	addi	s0,sp,128
    1826:	0905                	addi	s2,s2,1
    1828:	0200                	addi	s0,sp,256
    182a:	0104                	addi	s1,sp,128
    182c:	00090103          	lb	sp,0(s2)
    1830:	0100                	addi	s0,sp,128
    1832:	1205                	addi	tp,tp,-31 # ffffffffffffffe1 <__heap_end+0xffffffff7ffdcfe1>
    1834:	0200                	addi	s0,sp,256
    1836:	0104                	addi	s1,sp,128
    1838:	0306                	slli	t1,t1,0x1
    183a:	0900                	addi	s0,sp,144
    183c:	0000                	unimp
    183e:	0501                	addi	a0,a0,0
    1840:	0009                	c.nop	2
    1842:	0402                	c.slli64	s0
    1844:	0601                	addi	a2,a2,0
    1846:	08090103          	lb	sp,128(s2)
    184a:	0100                	addi	s0,sp,128
    184c:	1005                	c.nop	-31
    184e:	0200                	addi	s0,sp,256
    1850:	0104                	addi	s1,sp,128
    1852:	0306                	slli	t1,t1,0x1
    1854:	0900                	addi	s0,sp,144
    1856:	0000                	unimp
    1858:	0901                	addi	s2,s2,0
    185a:	000a                	c.slli	zero,0x2
    185c:	0100                	addi	s0,sp,128
    185e:	6601                	.insn	2, 0x6601
    1860:	0002                	c.slli64	zero
    1862:	0200                	addi	s0,sp,256
    1864:	cf00                	sw	s0,24(a4)
    1866:	0000                	unimp
    1868:	0100                	addi	s0,sp,128
    186a:	fb01                	bnez	a4,177a <__stack_align+0x176a>
    186c:	0d0e                	slli	s10,s10,0x3
    186e:	0100                	addi	s0,sp,128
    1870:	0101                	addi	sp,sp,0
    1872:	0001                	nop
    1874:	0000                	unimp
    1876:	0001                	nop
    1878:	0100                	addi	s0,sp,128
    187a:	2e2e                	fld	ft8,200(sp)
    187c:	73696d2f          	.insn	4, 0x73696d2f
    1880:	2e2e0063          	beq	t3,sp,1b60 <__stack_align+0x1b50>
    1884:	636e692f          	.insn	4, 0x636e692f
    1888:	756c                	ld	a1,232(a0)
    188a:	6564                	ld	s1,200(a0)
    188c:	2f00                	fld	fs0,24(a4)
    188e:	2f74706f          	j	49384 <__heap_size+0x29384>
    1892:	6972                	ld	s2,280(sp)
    1894:	2f766373          	csrrsi	t1,0x2f7,12
    1898:	6972                	ld	s2,280(sp)
    189a:	36766373          	csrrsi	t1,0x367,12
    189e:	2d34                	fld	fa3,88(a0)
    18a0:	6e75                	lui	t3,0x1d
    18a2:	776f6e6b          	.insn	4, 0x776f6e6b
    18a6:	2d6e                	fld	fs10,216(sp)
    18a8:	6c65                	lui	s8,0x19
    18aa:	2f66                	fld	ft10,88(sp)
    18ac:	6e69                	lui	t3,0x1a
    18ae:	64756c63          	bltu	a0,t2,1f06 <__stack_align+0x1ef6>
    18b2:	2f65                	addiw	t5,t5,25
    18b4:	616d                	addi	sp,sp,240
    18b6:	6e696863          	bltu	s2,t1,1fa6 <__stack_align+0x1f96>
    18ba:	0065                	c.nop	25
    18bc:	74706f2f          	.insn	4, 0x74706f2f
    18c0:	7369722f          	.insn	4, 0x7369722f
    18c4:	722f7663          	bgeu	t5,sp,1ff0 <__stack_align+0x1fe0>
    18c8:	7369                	lui	t1,0xffffa
    18ca:	34367663          	bgeu	a2,gp,1c16 <__stack_align+0x1c06>
    18ce:	752d                	lui	a0,0xfffeb
    18d0:	6b6e                	ld	s6,216(sp)
    18d2:	6f6e                	ld	t5,216(sp)
    18d4:	652d6e77          	.insn	4, 0x652d6e77
    18d8:	666c                	ld	a1,200(a2)
    18da:	636e692f          	.insn	4, 0x636e692f
    18de:	756c                	ld	a1,232(a0)
    18e0:	6564                	ld	s1,200(a0)
    18e2:	7379732f          	.insn	4, 0x7379732f
    18e6:	0000                	unimp
    18e8:	7468                	ld	a0,232(s0)
    18ea:	6669                	lui	a2,0x1a
    18ec:	632e                	ld	t1,200(sp)
    18ee:	0100                	addi	s0,sp,128
    18f0:	0000                	unimp
    18f2:	7461                	lui	s0,0xffff8
    18f4:	63696d6f          	jal	s10,97f2a <__heap_size+0x77f2a>
    18f8:	682e                	ld	a6,200(sp)
    18fa:	0200                	addi	s0,sp,256
    18fc:	0000                	unimp
    18fe:	6e697073          	csrci	0x6e6,18
    1902:	6f6c                	ld	a1,216(a4)
    1904:	682e6b63          	bltu	t3,sp,1f9a <__stack_align+0x1f8a>
    1908:	0200                	addi	s0,sp,256
    190a:	0000                	unimp
    190c:	645f 6665 7561      	.insn	6, 0x75616665645f
    1912:	746c                	ld	a1,232(s0)
    1914:	745f 7079 7365      	.insn	6, 0x73657079745f
    191a:	682e                	ld	a6,200(sp)
    191c:	0300                	addi	s0,sp,384
    191e:	0000                	unimp
    1920:	735f 6474 6e69      	.insn	6, 0x6e696474735f
    1926:	2e74                	fld	fa3,216(a2)
    1928:	0068                	addi	a0,sp,12
    192a:	0004                	.insn	2, 0x0004
    192c:	6800                	ld	s0,16(s0)
    192e:	6974                	ld	a3,208(a0)
    1930:	2e66                	fld	ft8,88(sp)
    1932:	0068                	addi	a0,sp,12
    1934:	0002                	c.slli64	zero
    1936:	0000                	unimp
    1938:	0105                	addi	sp,sp,1
    193a:	0900                	addi	s0,sp,144
    193c:	1a02                	slli	s4,s4,0x20
    193e:	00800017          	auipc	zero,0x800
    1942:	0000                	unimp
    1944:	0300                	addi	s0,sp,384
    1946:	010c                	addi	a1,sp,128
    1948:	0505                	addi	a0,a0,1 # fffffffffffeb001 <__heap_end+0xffffffff7ffc8001>
    194a:	00090103          	lb	sp,0(s2)
    194e:	0100                	addi	s0,sp,128
    1950:	00090103          	lb	sp,0(s2)
    1954:	0100                	addi	s0,sp,128
    1956:	00090203          	lb	tp,0(s2)
    195a:	0100                	addi	s0,sp,128
    195c:	0105                	addi	sp,sp,1
    195e:	0306                	slli	t1,t1,0x1
    1960:	097c                	addi	a5,sp,156
    1962:	0000                	unimp
    1964:	0501                	addi	a0,a0,0
    1966:	030c                	addi	a1,sp,384
    1968:	0904                	addi	s1,sp,144
    196a:	0002                	c.slli64	zero
    196c:	0501                	addi	a0,a0,0
    196e:	0605                	addi	a2,a2,1 # 1a001 <__stack_size+0x12001>
    1970:	02090103          	lb	sp,32(s2)
    1974:	0100                	addi	s0,sp,128
    1976:	0c05                	addi	s8,s8,1 # 19001 <__stack_size+0x11001>
    1978:	0306                	slli	t1,t1,0x1
    197a:	0900                	addi	s0,sp,144
    197c:	0000                	unimp
    197e:	0501                	addi	a0,a0,0
    1980:	0605                	addi	a2,a2,1
    1982:	02090103          	lb	sp,32(s2)
    1986:	0100                	addi	s0,sp,128
    1988:	0c05                	addi	s8,s8,1
    198a:	0306                	slli	t1,t1,0x1
    198c:	0900                	addi	s0,sp,144
    198e:	0000                	unimp
    1990:	0501                	addi	a0,a0,0
    1992:	0605                	addi	a2,a2,1
    1994:	02090103          	lb	sp,32(s2)
    1998:	0100                	addi	s0,sp,128
    199a:	0805                	addi	a6,a6,1 # ffffffffffff9001 <__heap_end+0xffffffff7ffd6001>
    199c:	0306                	slli	t1,t1,0x1
    199e:	0902                	c.slli64	s2
    19a0:	0000                	unimp
    19a2:	0501                	addi	a0,a0,0
    19a4:	030c                	addi	a1,sp,384
    19a6:	097e                	slli	s2,s2,0x1f
    19a8:	0002                	c.slli64	zero
    19aa:	0501                	addi	a0,a0,0
    19ac:	0605                	addi	a2,a2,1
    19ae:	02090203          	lb	tp,32(s2)
    19b2:	0100                	addi	s0,sp,128
    19b4:	0805                	addi	a6,a6,1
    19b6:	0306                	slli	t1,t1,0x1
    19b8:	0900                	addi	s0,sp,144
    19ba:	0000                	unimp
    19bc:	0501                	addi	a0,a0,0
    19be:	0605                	addi	a2,a2,1
    19c0:	06090103          	lb	sp,96(s2)
    19c4:	0100                	addi	s0,sp,128
    19c6:	0204                	addi	s1,sp,256
    19c8:	0306                	slli	t1,t1,0x1
    19ca:	0915                	addi	s2,s2,5
    19cc:	0004                	.insn	2, 0x0004
    19ce:	0401                	addi	s0,s0,0 # ffffffffffff8000 <__heap_end+0xffffffff7ffd5000>
    19d0:	06290503          	lb	a0,98(s2)
    19d4:	02096403          	lwu	s0,32(s2)
    19d8:	0100                	addi	s0,sp,128
    19da:	0204                	addi	s1,sp,256
    19dc:	0505                	addi	a0,a0,1
    19de:	00091003          	lh	zero,0(s2)
    19e2:	0100                	addi	s0,sp,128
    19e4:	0c05                	addi	s8,s8,1
    19e6:	0306                	slli	t1,t1,0x1
    19e8:	0900                	addi	s0,sp,144
    19ea:	0000                	unimp
    19ec:	0401                	addi	s0,s0,0
    19ee:	030f0503          	lb	a0,48(t5)
    19f2:	0970                	addi	a2,sp,156
    19f4:	0004                	.insn	2, 0x0004
    19f6:	0401                	addi	s0,s0,0
    19f8:	0502                	c.slli64	a0
    19fa:	0605                	addi	a2,a2,1
    19fc:	02091a03          	lh	s4,32(s2)
    1a00:	0100                	addi	s0,sp,128
    1a02:	00090203          	lb	tp,0(s2)
    1a06:	0100                	addi	s0,sp,128
    1a08:	04090d03          	lb	s10,64(s2)
    1a0c:	0100                	addi	s0,sp,128
    1a0e:	0304                	addi	s1,sp,384
    1a10:	0306                	slli	t1,t1,0x1
    1a12:	0959                	addi	s2,s2,22
    1a14:	0000                	unimp
    1a16:	0401                	addi	s0,s0,0
    1a18:	0601                	addi	a2,a2,0
    1a1a:	02090603          	lb	a2,32(s2)
    1a1e:	0100                	addi	s0,sp,128
    1a20:	0204                	addi	s1,sp,256
    1a22:	2005                	.insn	2, 0x2005
    1a24:	00097e03          	.insn	4, 0x00097e03
    1a28:	0100                	addi	s0,sp,128
    1a2a:	0104                	addi	s1,sp,128
    1a2c:	0505                	addi	a0,a0,1
    1a2e:	04090303          	lb	t1,64(s2)
    1a32:	0100                	addi	s0,sp,128
    1a34:	0c05                	addi	s8,s8,1
    1a36:	0306                	slli	t1,t1,0x1
    1a38:	0900                	addi	s0,sp,144
    1a3a:	0008                	.insn	2, 0x0008
    1a3c:	0501                	addi	a0,a0,0
    1a3e:	0605                	addi	a2,a2,1
    1a40:	08090103          	lb	sp,128(s2)
    1a44:	0100                	addi	s0,sp,128
    1a46:	1a05                	addi	s4,s4,-31
    1a48:	0200                	addi	s0,sp,256
    1a4a:	0104                	addi	s1,sp,128
    1a4c:	00090003          	lb	zero,0(s2)
    1a50:	0100                	addi	s0,sp,128
    1a52:	1505                	addi	a0,a0,-31
    1a54:	0200                	addi	s0,sp,256
    1a56:	0104                	addi	s1,sp,128
    1a58:	0306                	slli	t1,t1,0x1
    1a5a:	0900                	addi	s0,sp,144
    1a5c:	0000                	unimp
    1a5e:	0501                	addi	a0,a0,0
    1a60:	0402000b          	.insn	4, 0x0402000b
    1a64:	0301                	addi	t1,t1,0 # ffffffffffffa000 <__heap_end+0xffffffff7ffd7000>
    1a66:	0900                	addi	s0,sp,144
    1a68:	0002                	c.slli64	zero
    1a6a:	0501                	addi	a0,a0,0
    1a6c:	0605                	addi	a2,a2,1
    1a6e:	02090103          	lb	sp,32(s2)
    1a72:	0100                	addi	s0,sp,128
    1a74:	0e05                	addi	t3,t3,1 # 1a001 <__stack_size+0x12001>
    1a76:	0306                	slli	t1,t1,0x1
    1a78:	0900                	addi	s0,sp,144
    1a7a:	0000                	unimp
    1a7c:	0501                	addi	a0,a0,0
    1a7e:	0605                	addi	a2,a2,1
    1a80:	08090103          	lb	sp,128(s2)
    1a84:	0100                	addi	s0,sp,128
    1a86:	0304                	addi	s1,sp,384
    1a88:	00097b03          	.insn	4, 0x00097b03
    1a8c:	0100                	addi	s0,sp,128
    1a8e:	0204                	addi	s1,sp,256
    1a90:	00092803          	lw	a6,0(s2)
    1a94:	0100                	addi	s0,sp,128
    1a96:	0104                	addi	s1,sp,128
    1a98:	04095f03          	lhu	t5,64(s2)
    1a9c:	0100                	addi	s0,sp,128
    1a9e:	0204                	addi	s1,sp,256
    1aa0:	2005                	.insn	2, 0x2005
    1aa2:	00097703          	.insn	4, 0x00097703
    1aa6:	0100                	addi	s0,sp,128
    1aa8:	0104                	addi	s1,sp,128
    1aaa:	0505                	addi	a0,a0,1
    1aac:	04090a03          	lb	s4,64(s2)
    1ab0:	0100                	addi	s0,sp,128
    1ab2:	0f05                	addi	t5,t5,1
    1ab4:	0306                	slli	t1,t1,0x1
    1ab6:	0900                	addi	s0,sp,144
    1ab8:	0000                	unimp
    1aba:	0501                	addi	a0,a0,0
    1abc:	0301                	addi	t1,t1,0
    1abe:	0901                	addi	s2,s2,0
    1ac0:	0002                	c.slli64	zero
    1ac2:	0901                	addi	s2,s2,0
    1ac4:	0004                	.insn	2, 0x0004
    1ac6:	0100                	addi	s0,sp,128
    1ac8:	7701                	lui	a4,0xfffe0
    1aca:	0001                	nop
    1acc:	0200                	addi	s0,sp,256
    1ace:	2200                	fld	fs0,0(a2)
    1ad0:	0001                	nop
    1ad2:	0100                	addi	s0,sp,128
    1ad4:	fb01                	bnez	a4,19e4 <__stack_align+0x19d4>
    1ad6:	0d0e                	slli	s10,s10,0x3
    1ad8:	0100                	addi	s0,sp,128
    1ada:	0101                	addi	sp,sp,0
    1adc:	0001                	nop
    1ade:	0000                	unimp
    1ae0:	0001                	nop
    1ae2:	0100                	addi	s0,sp,128
    1ae4:	2e2e                	fld	ft8,200(sp)
    1ae6:	7379732f          	.insn	4, 0x7379732f
    1aea:	2f00                	fld	fs0,24(a4)
    1aec:	2f74706f          	j	495e2 <__heap_size+0x295e2>
    1af0:	6972                	ld	s2,280(sp)
    1af2:	2f766373          	csrrsi	t1,0x2f7,12
    1af6:	6972                	ld	s2,280(sp)
    1af8:	36766373          	csrrsi	t1,0x367,12
    1afc:	2d34                	fld	fa3,88(a0)
    1afe:	6e75                	lui	t3,0x1d
    1b00:	776f6e6b          	.insn	4, 0x776f6e6b
    1b04:	2d6e                	fld	fs10,216(sp)
    1b06:	6c65                	lui	s8,0x19
    1b08:	2f66                	fld	ft10,88(sp)
    1b0a:	6e69                	lui	t3,0x1a
    1b0c:	64756c63          	bltu	a0,t2,2164 <__stack_align+0x2154>
    1b10:	2f65                	addiw	t5,t5,25
    1b12:	616d                	addi	sp,sp,240
    1b14:	6e696863          	bltu	s2,t1,2204 <__stack_align+0x21f4>
    1b18:	0065                	c.nop	25
    1b1a:	74706f2f          	.insn	4, 0x74706f2f
    1b1e:	7369722f          	.insn	4, 0x7369722f
    1b22:	722f7663          	bgeu	t5,sp,224e <__stack_align+0x223e>
    1b26:	7369                	lui	t1,0xffffa
    1b28:	34367663          	bgeu	a2,gp,1e74 <__stack_align+0x1e64>
    1b2c:	752d                	lui	a0,0xfffeb
    1b2e:	6b6e                	ld	s6,216(sp)
    1b30:	6f6e                	ld	t5,216(sp)
    1b32:	652d6e77          	.insn	4, 0x652d6e77
    1b36:	666c                	ld	a1,200(a2)
    1b38:	636e692f          	.insn	4, 0x636e692f
    1b3c:	756c                	ld	a1,232(a0)
    1b3e:	6564                	ld	s1,200(a0)
    1b40:	7379732f          	.insn	4, 0x7379732f
    1b44:	2f00                	fld	fs0,24(a4)
    1b46:	2f74706f          	j	4963c <__heap_size+0x2963c>
    1b4a:	6972                	ld	s2,280(sp)
    1b4c:	2f766373          	csrrsi	t1,0x2f7,12
    1b50:	696c                	ld	a1,208(a0)
    1b52:	2f62                	fld	ft10,24(sp)
    1b54:	2f636367          	.insn	4, 0x2f636367
    1b58:	6972                	ld	s2,280(sp)
    1b5a:	36766373          	csrrsi	t1,0x367,12
    1b5e:	2d34                	fld	fa3,88(a0)
    1b60:	6e75                	lui	t3,0x1d
    1b62:	776f6e6b          	.insn	4, 0x776f6e6b
    1b66:	2d6e                	fld	fs10,216(sp)
    1b68:	6c65                	lui	s8,0x19
    1b6a:	2f66                	fld	ft10,88(sp)
    1b6c:	2e38                	fld	fa4,88(a2)
    1b6e:	2e32                	fld	ft8,264(sp)
    1b70:	2f30                	fld	fa2,88(a4)
    1b72:	6e69                	lui	t3,0x1a
    1b74:	64756c63          	bltu	a0,t2,21cc <__stack_align+0x21bc>
    1b78:	0065                	c.nop	25
    1b7a:	2e2e                	fld	ft8,200(sp)
    1b7c:	636e692f          	.insn	4, 0x636e692f
    1b80:	756c                	ld	a1,232(a0)
    1b82:	6564                	ld	s1,200(a0)
    1b84:	0000                	unimp
    1b86:	736f6c63          	bltu	t5,s6,22be <__stack_align+0x22ae>
    1b8a:	2e65                	addiw	t3,t3,25 # 1a019 <__stack_size+0x12019>
    1b8c:	00010063          	beqz	sp,1b8c <__stack_align+0x1b7c>
    1b90:	5f00                	lw	s0,56(a4)
    1b92:	6564                	ld	s1,200(a0)
    1b94:	6166                	ld	sp,88(sp)
    1b96:	6c75                	lui	s8,0x1d
    1b98:	5f74                	lw	a3,124(a4)
    1b9a:	7974                	ld	a3,240(a0)
    1b9c:	6570                	ld	a2,200(a0)
    1b9e:	00682e73          	csrrs	t3,0x6,a6
    1ba2:	0002                	c.slli64	zero
    1ba4:	6c00                	ld	s0,24(s0)
    1ba6:	2e6b636f          	jal	t1,b7e8c <__heap_size+0x97e8c>
    1baa:	0068                	addi	a0,sp,12
    1bac:	5f000003          	lb	zero,1520(zero) # 5f0 <__stack_align+0x5e0>
    1bb0:	7974                	ld	a3,240(a0)
    1bb2:	6570                	ld	a2,200(a0)
    1bb4:	00682e73          	csrrs	t3,0x6,a6
    1bb8:	73000003          	lb	zero,1840(zero) # 730 <__stack_align+0x720>
    1bbc:	6474                	ld	a3,200(s0)
    1bbe:	6564                	ld	s1,200(a0)
    1bc0:	2e66                	fld	ft8,88(sp)
    1bc2:	0068                	addi	a0,sp,12
    1bc4:	0004                	.insn	2, 0x0004
    1bc6:	7200                	ld	s0,32(a2)
    1bc8:	6565                	lui	a0,0x19
    1bca:	746e                	ld	s0,248(sp)
    1bcc:	682e                	ld	a6,200(sp)
    1bce:	0300                	addi	s0,sp,384
    1bd0:	0000                	unimp
    1bd2:	7265                	lui	tp,0xffff9
    1bd4:	6e72                	ld	t3,280(sp)
    1bd6:	00682e6f          	jal	t3,83bdc <__heap_size+0x63bdc>
    1bda:	5f000003          	lb	zero,1520(zero) # 5f0 <__stack_align+0x5e0>
    1bde:	69647473          	csrrci	s0,0x696,8
    1be2:	746e                	ld	s0,248(sp)
    1be4:	682e                	ld	a6,200(sp)
    1be6:	0300                	addi	s0,sp,384
    1be8:	0000                	unimp
    1bea:	7468                	ld	a0,232(s0)
    1bec:	6669                	lui	a2,0x1a
    1bee:	682e                	ld	a6,200(sp)
    1bf0:	0500                	addi	s0,sp,640
    1bf2:	0000                	unimp
    1bf4:	0500                	addi	s0,sp,640
    1bf6:	0001                	nop
    1bf8:	0209                	addi	tp,tp,2 # ffffffffffff9002 <__heap_end+0xffffffff7ffd6002>
    1bfa:	2242                	fld	ft4,16(sp)
    1bfc:	8000                	.insn	2, 0x8000
    1bfe:	0000                	unimp
    1c00:	0000                	unimp
    1c02:	0516                	slli	a0,a0,0x5
    1c04:	0305                	addi	t1,t1,1 # ffffffffffffa001 <__heap_end+0xffffffff7ffd7001>
    1c06:	0901                	addi	s2,s2,0
    1c08:	0000                	unimp
    1c0a:	0501                	addi	a0,a0,0 # 19000 <__stack_size+0x11000>
    1c0c:	0601                	addi	a2,a2,0 # 1a000 <__stack_size+0x12000>
    1c0e:	00097f03          	.insn	4, 0x00097f03
    1c12:	0100                	addi	s0,sp,128
    1c14:	0505                	addi	a0,a0,1
    1c16:	04090103          	lb	sp,64(s2)
    1c1a:	0100                	addi	s0,sp,128
    1c1c:	0105                	addi	sp,sp,1
    1c1e:	04090203          	lb	tp,64(s2)
    1c22:	0100                	addi	s0,sp,128
    1c24:	0b05                	addi	s6,s6,1
    1c26:	02097e03          	.insn	4, 0x02097e03
    1c2a:	0100                	addi	s0,sp,128
    1c2c:	0505                	addi	a0,a0,1
    1c2e:	0306                	slli	t1,t1,0x1
    1c30:	0901                	addi	s2,s2,0
    1c32:	0004                	.insn	2, 0x0004
    1c34:	0501                	addi	a0,a0,0
    1c36:	0601                	addi	a2,a2,0
    1c38:	00090103          	lb	sp,0(s2)
    1c3c:	0100                	addi	s0,sp,128
    1c3e:	0609                	addi	a2,a2,2
    1c40:	0000                	unimp
    1c42:	0101                	addi	sp,sp,0
    1c44:	0182                	c.slli64	gp
    1c46:	0000                	unimp
    1c48:	0002                	c.slli64	zero
    1c4a:	012d                	addi	sp,sp,11
    1c4c:	0000                	unimp
    1c4e:	0101                	addi	sp,sp,0
    1c50:	000d0efb          	.insn	4, 0x000d0efb
    1c54:	0101                	addi	sp,sp,0
    1c56:	0101                	addi	sp,sp,0
    1c58:	0000                	unimp
    1c5a:	0100                	addi	s0,sp,128
    1c5c:	0000                	unimp
    1c5e:	2e01                	sext.w	t3,t3
    1c60:	2f2e                	fld	ft10,200(sp)
    1c62:	00737973          	csrrci	s2,0x7,6
    1c66:	74706f2f          	.insn	4, 0x74706f2f
    1c6a:	7369722f          	.insn	4, 0x7369722f
    1c6e:	722f7663          	bgeu	t5,sp,239a <__stack_align+0x238a>
    1c72:	7369                	lui	t1,0xffffa
    1c74:	34367663          	bgeu	a2,gp,1fc0 <__stack_align+0x1fb0>
    1c78:	752d                	lui	a0,0xfffeb
    1c7a:	6b6e                	ld	s6,216(sp)
    1c7c:	6f6e                	ld	t5,216(sp)
    1c7e:	652d6e77          	.insn	4, 0x652d6e77
    1c82:	666c                	ld	a1,200(a2)
    1c84:	636e692f          	.insn	4, 0x636e692f
    1c88:	756c                	ld	a1,232(a0)
    1c8a:	6564                	ld	s1,200(a0)
    1c8c:	63616d2f          	.insn	4, 0x63616d2f
    1c90:	6968                	ld	a0,208(a0)
    1c92:	656e                	ld	a0,216(sp)
    1c94:	2f00                	fld	fs0,24(a4)
    1c96:	2f74706f          	j	4978c <__heap_size+0x2978c>
    1c9a:	6972                	ld	s2,280(sp)
    1c9c:	2f766373          	csrrsi	t1,0x2f7,12
    1ca0:	6972                	ld	s2,280(sp)
    1ca2:	36766373          	csrrsi	t1,0x367,12
    1ca6:	2d34                	fld	fa3,88(a0)
    1ca8:	6e75                	lui	t3,0x1d
    1caa:	776f6e6b          	.insn	4, 0x776f6e6b
    1cae:	2d6e                	fld	fs10,216(sp)
    1cb0:	6c65                	lui	s8,0x19
    1cb2:	2f66                	fld	ft10,88(sp)
    1cb4:	6e69                	lui	t3,0x1a
    1cb6:	64756c63          	bltu	a0,t2,230e <__stack_align+0x22fe>
    1cba:	2f65                	addiw	t5,t5,25
    1cbc:	00737973          	csrrci	s2,0x7,6
    1cc0:	74706f2f          	.insn	4, 0x74706f2f
    1cc4:	7369722f          	.insn	4, 0x7369722f
    1cc8:	6c2f7663          	bgeu	t5,sp,2394 <__stack_align+0x2384>
    1ccc:	6269                	lui	tp,0x1a
    1cce:	6363672f          	.insn	4, 0x6363672f
    1cd2:	7369722f          	.insn	4, 0x7369722f
    1cd6:	34367663          	bgeu	a2,gp,2022 <__stack_align+0x2012>
    1cda:	752d                	lui	a0,0xfffeb
    1cdc:	6b6e                	ld	s6,216(sp)
    1cde:	6f6e                	ld	t5,216(sp)
    1ce0:	652d6e77          	.insn	4, 0x652d6e77
    1ce4:	666c                	ld	a1,200(a2)
    1ce6:	322e382f          	.insn	4, 0x322e382f
    1cea:	302e                	fld	ft0,232(sp)
    1cec:	636e692f          	.insn	4, 0x636e692f
    1cf0:	756c                	ld	a1,232(a0)
    1cf2:	6564                	ld	s1,200(a0)
    1cf4:	2e00                	fld	fs0,24(a2)
    1cf6:	2f2e                	fld	ft10,200(sp)
    1cf8:	6e69                	lui	t3,0x1a
    1cfa:	64756c63          	bltu	a0,t2,2352 <__stack_align+0x2342>
    1cfe:	0065                	c.nop	25
    1d00:	6c00                	ld	s0,24(s0)
    1d02:	6b656573          	csrrsi	a0,0x6b6,10
    1d06:	632e                	ld	t1,200(sp)
    1d08:	0100                	addi	s0,sp,128
    1d0a:	0000                	unimp
    1d0c:	645f 6665 7561      	.insn	6, 0x75616665645f
    1d12:	746c                	ld	a1,232(s0)
    1d14:	745f 7079 7365      	.insn	6, 0x73657079745f
    1d1a:	682e                	ld	a6,200(sp)
    1d1c:	0200                	addi	s0,sp,256
    1d1e:	0000                	unimp
    1d20:	6f6c                	ld	a1,216(a4)
    1d22:	682e6b63          	bltu	t3,sp,23b8 <__stack_align+0x23a8>
    1d26:	0300                	addi	s0,sp,384
    1d28:	0000                	unimp
    1d2a:	745f 7079 7365      	.insn	6, 0x73657079745f
    1d30:	682e                	ld	a6,200(sp)
    1d32:	0300                	addi	s0,sp,384
    1d34:	0000                	unimp
    1d36:	64647473          	csrrci	s0,hviprio1,8
    1d3a:	6665                	lui	a2,0x19
    1d3c:	682e                	ld	a6,200(sp)
    1d3e:	0400                	addi	s0,sp,512
    1d40:	0000                	unimp
    1d42:	6572                	ld	a0,280(sp)
    1d44:	6e65                	lui	t3,0x19
    1d46:	2e74                	fld	fa3,216(a2)
    1d48:	0068                	addi	a0,sp,12
    1d4a:	65000003          	lb	zero,1616(zero) # 650 <__stack_align+0x640>
    1d4e:	7272                	ld	tp,312(sp)
    1d50:	6f6e                	ld	t5,216(sp)
    1d52:	682e                	ld	a6,200(sp)
    1d54:	0300                	addi	s0,sp,384
    1d56:	0000                	unimp
    1d58:	735f 6474 6e69      	.insn	6, 0x6e696474735f
    1d5e:	2e74                	fld	fa3,216(a2)
    1d60:	0068                	addi	a0,sp,12
    1d62:	74000003          	lb	zero,1856(zero) # 740 <__stack_align+0x730>
    1d66:	7079                	c.lui	zero,0xffffe
    1d68:	7365                	lui	t1,0xffff9
    1d6a:	682e                	ld	a6,200(sp)
    1d6c:	0300                	addi	s0,sp,384
    1d6e:	0000                	unimp
    1d70:	7468                	ld	a0,232(s0)
    1d72:	6669                	lui	a2,0x1a
    1d74:	682e                	ld	a6,200(sp)
    1d76:	0500                	addi	s0,sp,640
    1d78:	0000                	unimp
    1d7a:	0500                	addi	s0,sp,640
    1d7c:	0001                	nop
    1d7e:	0209                	addi	tp,tp,2 # 1a002 <__stack_size+0x12002>
    1d80:	2256                	fld	ft4,336(sp)
    1d82:	8000                	.insn	2, 0x8000
    1d84:	0000                	unimp
    1d86:	0000                	unimp
    1d88:	03050517          	auipc	a0,0x3050
    1d8c:	0901                	addi	s2,s2,0
    1d8e:	0000                	unimp
    1d90:	0501                	addi	a0,a0,0 # 3051d88 <__heap_size+0x3031d88>
    1d92:	0601                	addi	a2,a2,0 # 1a000 <__stack_size+0x12000>
    1d94:	00097f03          	.insn	4, 0x00097f03
    1d98:	0100                	addi	s0,sp,128
    1d9a:	0505                	addi	a0,a0,1
    1d9c:	04090103          	lb	sp,64(s2)
    1da0:	0100                	addi	s0,sp,128
    1da2:	0105                	addi	sp,sp,1
    1da4:	04090203          	lb	tp,64(s2)
    1da8:	0100                	addi	s0,sp,128
    1daa:	0b05                	addi	s6,s6,1
    1dac:	02097e03          	.insn	4, 0x02097e03
    1db0:	0100                	addi	s0,sp,128
    1db2:	0505                	addi	a0,a0,1
    1db4:	0306                	slli	t1,t1,0x1
    1db6:	0901                	addi	s2,s2,0
    1db8:	0004                	.insn	2, 0x0004
    1dba:	0501                	addi	a0,a0,0
    1dbc:	0601                	addi	a2,a2,0
    1dbe:	00090103          	lb	sp,0(s2)
    1dc2:	0100                	addi	s0,sp,128
    1dc4:	0609                	addi	a2,a2,2
    1dc6:	0000                	unimp
    1dc8:	0101                	addi	sp,sp,0
    1dca:	0181                	addi	gp,gp,0 # bfa <__stack_align+0xbea>
    1dcc:	0000                	unimp
    1dce:	0002                	c.slli64	zero
    1dd0:	012c                	addi	a1,sp,136
    1dd2:	0000                	unimp
    1dd4:	0101                	addi	sp,sp,0
    1dd6:	000d0efb          	.insn	4, 0x000d0efb
    1dda:	0101                	addi	sp,sp,0
    1ddc:	0101                	addi	sp,sp,0
    1dde:	0000                	unimp
    1de0:	0100                	addi	s0,sp,128
    1de2:	0000                	unimp
    1de4:	2e01                	sext.w	t3,t3
    1de6:	2f2e                	fld	ft10,200(sp)
    1de8:	00737973          	csrrci	s2,0x7,6
    1dec:	74706f2f          	.insn	4, 0x74706f2f
    1df0:	7369722f          	.insn	4, 0x7369722f
    1df4:	6c2f7663          	bgeu	t5,sp,24c0 <__stack_align+0x24b0>
    1df8:	6269                	lui	tp,0x1a
    1dfa:	6363672f          	.insn	4, 0x6363672f
    1dfe:	7369722f          	.insn	4, 0x7369722f
    1e02:	34367663          	bgeu	a2,gp,214e <__stack_align+0x213e>
    1e06:	752d                	lui	a0,0xfffeb
    1e08:	6b6e                	ld	s6,216(sp)
    1e0a:	6f6e                	ld	t5,216(sp)
    1e0c:	652d6e77          	.insn	4, 0x652d6e77
    1e10:	666c                	ld	a1,200(a2)
    1e12:	322e382f          	.insn	4, 0x322e382f
    1e16:	302e                	fld	ft0,232(sp)
    1e18:	636e692f          	.insn	4, 0x636e692f
    1e1c:	756c                	ld	a1,232(a0)
    1e1e:	6564                	ld	s1,200(a0)
    1e20:	2f00                	fld	fs0,24(a4)
    1e22:	2f74706f          	j	49918 <__heap_size+0x29918>
    1e26:	6972                	ld	s2,280(sp)
    1e28:	2f766373          	csrrsi	t1,0x2f7,12
    1e2c:	6972                	ld	s2,280(sp)
    1e2e:	36766373          	csrrsi	t1,0x367,12
    1e32:	2d34                	fld	fa3,88(a0)
    1e34:	6e75                	lui	t3,0x1d
    1e36:	776f6e6b          	.insn	4, 0x776f6e6b
    1e3a:	2d6e                	fld	fs10,216(sp)
    1e3c:	6c65                	lui	s8,0x19
    1e3e:	2f66                	fld	ft10,88(sp)
    1e40:	6e69                	lui	t3,0x1a
    1e42:	64756c63          	bltu	a0,t2,249a <__stack_align+0x248a>
    1e46:	2f65                	addiw	t5,t5,25
    1e48:	616d                	addi	sp,sp,240
    1e4a:	6e696863          	bltu	s2,t1,253a <__stack_align+0x252a>
    1e4e:	0065                	c.nop	25
    1e50:	74706f2f          	.insn	4, 0x74706f2f
    1e54:	7369722f          	.insn	4, 0x7369722f
    1e58:	722f7663          	bgeu	t5,sp,2584 <__stack_align+0x2574>
    1e5c:	7369                	lui	t1,0xffffa
    1e5e:	34367663          	bgeu	a2,gp,21aa <__stack_align+0x219a>
    1e62:	752d                	lui	a0,0xfffeb
    1e64:	6b6e                	ld	s6,216(sp)
    1e66:	6f6e                	ld	t5,216(sp)
    1e68:	652d6e77          	.insn	4, 0x652d6e77
    1e6c:	666c                	ld	a1,200(a2)
    1e6e:	636e692f          	.insn	4, 0x636e692f
    1e72:	756c                	ld	a1,232(a0)
    1e74:	6564                	ld	s1,200(a0)
    1e76:	7379732f          	.insn	4, 0x7379732f
    1e7a:	2e00                	fld	fs0,24(a2)
    1e7c:	2f2e                	fld	ft10,200(sp)
    1e7e:	6e69                	lui	t3,0x1a
    1e80:	64756c63          	bltu	a0,t2,24d8 <__stack_align+0x24c8>
    1e84:	0065                	c.nop	25
    1e86:	7200                	ld	s0,32(a2)
    1e88:	6165                	addi	sp,sp,112
    1e8a:	2e64                	fld	fs1,216(a2)
    1e8c:	00010063          	beqz	sp,1e8c <__stack_align+0x1e7c>
    1e90:	7300                	ld	s0,32(a4)
    1e92:	6474                	ld	a3,200(s0)
    1e94:	6564                	ld	s1,200(a0)
    1e96:	2e66                	fld	ft8,88(sp)
    1e98:	0068                	addi	a0,sp,12
    1e9a:	0002                	c.slli64	zero
    1e9c:	5f00                	lw	s0,56(a4)
    1e9e:	6564                	ld	s1,200(a0)
    1ea0:	6166                	ld	sp,88(sp)
    1ea2:	6c75                	lui	s8,0x1d
    1ea4:	5f74                	lw	a3,124(a4)
    1ea6:	7974                	ld	a3,240(a0)
    1ea8:	6570                	ld	a2,200(a0)
    1eaa:	00682e73          	csrrs	t3,0x6,a6
    1eae:	6c000003          	lb	zero,1728(zero) # 6c0 <__stack_align+0x6b0>
    1eb2:	2e6b636f          	jal	t1,b8198 <__heap_size+0x98198>
    1eb6:	0068                	addi	a0,sp,12
    1eb8:	0004                	.insn	2, 0x0004
    1eba:	5f00                	lw	s0,56(a4)
    1ebc:	7974                	ld	a3,240(a0)
    1ebe:	6570                	ld	a2,200(a0)
    1ec0:	00682e73          	csrrs	t3,0x6,a6
    1ec4:	0004                	.insn	2, 0x0004
    1ec6:	7200                	ld	s0,32(a2)
    1ec8:	6565                	lui	a0,0x19
    1eca:	746e                	ld	s0,248(sp)
    1ecc:	682e                	ld	a6,200(sp)
    1ece:	0400                	addi	s0,sp,512
    1ed0:	0000                	unimp
    1ed2:	7265                	lui	tp,0xffff9
    1ed4:	6e72                	ld	t3,280(sp)
    1ed6:	00682e6f          	jal	t3,83edc <__heap_size+0x63edc>
    1eda:	0004                	.insn	2, 0x0004
    1edc:	5f00                	lw	s0,56(a4)
    1ede:	69647473          	csrrci	s0,0x696,8
    1ee2:	746e                	ld	s0,248(sp)
    1ee4:	682e                	ld	a6,200(sp)
    1ee6:	0400                	addi	s0,sp,512
    1ee8:	0000                	unimp
    1eea:	7974                	ld	a3,240(a0)
    1eec:	6570                	ld	a2,200(a0)
    1eee:	00682e73          	csrrs	t3,0x6,a6
    1ef2:	0004                	.insn	2, 0x0004
    1ef4:	6800                	ld	s0,16(s0)
    1ef6:	6974                	ld	a3,208(a0)
    1ef8:	2e66                	fld	ft8,88(sp)
    1efa:	0068                	addi	a0,sp,12
    1efc:	0005                	c.nop	1
    1efe:	0000                	unimp
    1f00:	0105                	addi	sp,sp,1
    1f02:	0900                	addi	s0,sp,144
    1f04:	6a02                	ld	s4,0(sp)
    1f06:	0022                	c.slli	zero,0x8
    1f08:	0080                	addi	s0,sp,64
    1f0a:	0000                	unimp
    1f0c:	1700                	addi	s0,sp,928
    1f0e:	0505                	addi	a0,a0,1 # 19001 <__stack_size+0x11001>
    1f10:	00090103          	lb	sp,0(s2)
    1f14:	0100                	addi	s0,sp,128
    1f16:	0105                	addi	sp,sp,1
    1f18:	0306                	slli	t1,t1,0x1
    1f1a:	097f 0000 0501 0305 	.insn	10, 0x0901030505010000097f
    1f22:	0901 
    1f24:	0004                	.insn	2, 0x0004
    1f26:	0501                	addi	a0,a0,0
    1f28:	0301                	addi	t1,t1,0 # ffffffffffffa000 <__heap_end+0xffffffff7ffd7000>
    1f2a:	0902                	c.slli64	s2
    1f2c:	0004                	.insn	2, 0x0004
    1f2e:	0501                	addi	a0,a0,0
    1f30:	097e030b          	.insn	4, 0x097e030b
    1f34:	0002                	c.slli64	zero
    1f36:	0501                	addi	a0,a0,0
    1f38:	0605                	addi	a2,a2,1
    1f3a:	06090103          	lb	sp,96(s2)
    1f3e:	0100                	addi	s0,sp,128
    1f40:	0105                	addi	sp,sp,1
    1f42:	0306                	slli	t1,t1,0x1
    1f44:	0901                	addi	s2,s2,0
    1f46:	0000                	unimp
    1f48:	0901                	addi	s2,s2,0
    1f4a:	0006                	c.slli	zero,0x1
    1f4c:	0100                	addi	s0,sp,128
    1f4e:	fe01                	bnez	a2,1e66 <__stack_align+0x1e56>
    1f50:	0001                	nop
    1f52:	0200                	addi	s0,sp,256
    1f54:	2100                	fld	fs0,0(a0)
    1f56:	0001                	nop
    1f58:	0100                	addi	s0,sp,128
    1f5a:	fb01                	bnez	a4,1e6a <__stack_align+0x1e5a>
    1f5c:	0d0e                	slli	s10,s10,0x3
    1f5e:	0100                	addi	s0,sp,128
    1f60:	0101                	addi	sp,sp,0
    1f62:	0001                	nop
    1f64:	0000                	unimp
    1f66:	0001                	nop
    1f68:	0100                	addi	s0,sp,128
    1f6a:	2e2e                	fld	ft8,200(sp)
    1f6c:	7379732f          	.insn	4, 0x7379732f
    1f70:	2f00                	fld	fs0,24(a4)
    1f72:	2f74706f          	j	49a68 <__heap_size+0x29a68>
    1f76:	6972                	ld	s2,280(sp)
    1f78:	2f766373          	csrrsi	t1,0x2f7,12
    1f7c:	696c                	ld	a1,208(a0)
    1f7e:	2f62                	fld	ft10,24(sp)
    1f80:	2f636367          	.insn	4, 0x2f636367
    1f84:	6972                	ld	s2,280(sp)
    1f86:	36766373          	csrrsi	t1,0x367,12
    1f8a:	2d34                	fld	fa3,88(a0)
    1f8c:	6e75                	lui	t3,0x1d
    1f8e:	776f6e6b          	.insn	4, 0x776f6e6b
    1f92:	2d6e                	fld	fs10,216(sp)
    1f94:	6c65                	lui	s8,0x19
    1f96:	2f66                	fld	ft10,88(sp)
    1f98:	2e38                	fld	fa4,88(a2)
    1f9a:	2e32                	fld	ft8,264(sp)
    1f9c:	2f30                	fld	fa2,88(a4)
    1f9e:	6e69                	lui	t3,0x1a
    1fa0:	64756c63          	bltu	a0,t2,25f8 <__stack_align+0x25e8>
    1fa4:	0065                	c.nop	25
    1fa6:	74706f2f          	.insn	4, 0x74706f2f
    1faa:	7369722f          	.insn	4, 0x7369722f
    1fae:	722f7663          	bgeu	t5,sp,26da <__stack_align+0x26ca>
    1fb2:	7369                	lui	t1,0xffffa
    1fb4:	34367663          	bgeu	a2,gp,2300 <__stack_align+0x22f0>
    1fb8:	752d                	lui	a0,0xfffeb
    1fba:	6b6e                	ld	s6,216(sp)
    1fbc:	6f6e                	ld	t5,216(sp)
    1fbe:	652d6e77          	.insn	4, 0x652d6e77
    1fc2:	666c                	ld	a1,200(a2)
    1fc4:	636e692f          	.insn	4, 0x636e692f
    1fc8:	756c                	ld	a1,232(a0)
    1fca:	6564                	ld	s1,200(a0)
    1fcc:	63616d2f          	.insn	4, 0x63616d2f
    1fd0:	6968                	ld	a0,208(a0)
    1fd2:	656e                	ld	a0,216(sp)
    1fd4:	2f00                	fld	fs0,24(a4)
    1fd6:	2f74706f          	j	49acc <__heap_size+0x29acc>
    1fda:	6972                	ld	s2,280(sp)
    1fdc:	2f766373          	csrrsi	t1,0x2f7,12
    1fe0:	6972                	ld	s2,280(sp)
    1fe2:	36766373          	csrrsi	t1,0x367,12
    1fe6:	2d34                	fld	fa3,88(a0)
    1fe8:	6e75                	lui	t3,0x1d
    1fea:	776f6e6b          	.insn	4, 0x776f6e6b
    1fee:	2d6e                	fld	fs10,216(sp)
    1ff0:	6c65                	lui	s8,0x19
    1ff2:	2f66                	fld	ft10,88(sp)
    1ff4:	6e69                	lui	t3,0x1a
    1ff6:	64756c63          	bltu	a0,t2,264e <__stack_align+0x263e>
    1ffa:	2f65                	addiw	t5,t5,25
    1ffc:	00737973          	csrrci	s2,0x7,6
    2000:	2e2e                	fld	ft8,200(sp)
    2002:	636e692f          	.insn	4, 0x636e692f
    2006:	756c                	ld	a1,232(a0)
    2008:	6564                	ld	s1,200(a0)
    200a:	0000                	unimp
    200c:	6b726273          	csrrsi	tp,0x6b7,4
    2010:	632e                	ld	t1,200(sp)
    2012:	0100                	addi	s0,sp,128
    2014:	0000                	unimp
    2016:	64647473          	csrrci	s0,hviprio1,8
    201a:	6665                	lui	a2,0x19
    201c:	682e                	ld	a6,200(sp)
    201e:	0200                	addi	s0,sp,256
    2020:	0000                	unimp
    2022:	645f 6665 7561      	.insn	6, 0x75616665645f
    2028:	746c                	ld	a1,232(s0)
    202a:	745f 7079 7365      	.insn	6, 0x73657079745f
    2030:	682e                	ld	a6,200(sp)
    2032:	0300                	addi	s0,sp,384
    2034:	0000                	unimp
    2036:	6f6c                	ld	a1,216(a4)
    2038:	682e6b63          	bltu	t3,sp,26ce <__stack_align+0x26be>
    203c:	0400                	addi	s0,sp,512
    203e:	0000                	unimp
    2040:	745f 7079 7365      	.insn	6, 0x73657079745f
    2046:	682e                	ld	a6,200(sp)
    2048:	0400                	addi	s0,sp,512
    204a:	0000                	unimp
    204c:	6572                	ld	a0,280(sp)
    204e:	6e65                	lui	t3,0x19
    2050:	2e74                	fld	fa3,216(a2)
    2052:	0068                	addi	a0,sp,12
    2054:	0004                	.insn	2, 0x0004
    2056:	6500                	ld	s0,8(a0)
    2058:	7272                	ld	tp,312(sp)
    205a:	6f6e                	ld	t5,216(sp)
    205c:	682e                	ld	a6,200(sp)
    205e:	0400                	addi	s0,sp,512
    2060:	0000                	unimp
    2062:	735f 6474 6e69      	.insn	6, 0x6e696474735f
    2068:	2e74                	fld	fa3,216(a2)
    206a:	0068                	addi	a0,sp,12
    206c:	0004                	.insn	2, 0x0004
    206e:	6800                	ld	s0,16(s0)
    2070:	6974                	ld	a3,208(a0)
    2072:	2e66                	fld	ft8,88(sp)
    2074:	0068                	addi	a0,sp,12
    2076:	0005                	c.nop	1
    2078:	0000                	unimp
    207a:	0105                	addi	sp,sp,1
    207c:	0900                	addi	s0,sp,144
    207e:	8002                	.insn	2, 0x8002
    2080:	0022                	c.slli	zero,0x8
    2082:	0080                	addi	s0,sp,64
    2084:	0000                	unimp
    2086:	0300                	addi	s0,sp,384
    2088:	0109                	addi	sp,sp,2
    208a:	0505                	addi	a0,a0,1 # fffffffffffeb001 <__heap_end+0xffffffff7ffc8001>
    208c:	00090103          	lb	sp,0(s2)
    2090:	0100                	addi	s0,sp,128
    2092:	00090103          	lb	sp,0(s2)
    2096:	0100                	addi	s0,sp,128
    2098:	00090103          	lb	sp,0(s2)
    209c:	0100                	addi	s0,sp,128
    209e:	00090203          	lb	tp,0(s2)
    20a2:	0100                	addi	s0,sp,128
    20a4:	0c05                	addi	s8,s8,1 # 19001 <__stack_size+0x11001>
    20a6:	0306                	slli	t1,t1,0x1
    20a8:	0900                	addi	s0,sp,144
    20aa:	0000                	unimp
    20ac:	0501                	addi	a0,a0,0
    20ae:	0605                	addi	a2,a2,1 # 19001 <__stack_size+0x11001>
    20b0:	06090103          	lb	sp,96(s2)
    20b4:	0100                	addi	s0,sp,128
    20b6:	0805                	addi	a6,a6,1
    20b8:	0306                	slli	t1,t1,0x1
    20ba:	0901                	addi	s2,s2,0
    20bc:	0000                	unimp
    20be:	0501                	addi	a0,a0,0
    20c0:	030c                	addi	a1,sp,384
    20c2:	097f 0004 0501 0605 	.insn	10, 0x0103060505010004097f
    20ca:	0103 
    20cc:	0209                	addi	tp,tp,2 # ffffffffffff9002 <__heap_end+0xffffffff7ffd6002>
    20ce:	0100                	addi	s0,sp,128
    20d0:	0805                	addi	a6,a6,1
    20d2:	0306                	slli	t1,t1,0x1
    20d4:	0900                	addi	s0,sp,144
    20d6:	0000                	unimp
    20d8:	0001                	nop
    20da:	0402                	c.slli64	s0
    20dc:	0301                	addi	t1,t1,0 # ffffffffffffa000 <__heap_end+0xffffffff7ffd7000>
    20de:	0900                	addi	s0,sp,144
    20e0:	0004                	.insn	2, 0x0004
    20e2:	0501                	addi	a0,a0,0
    20e4:	0605                	addi	a2,a2,1
    20e6:	0c090503          	lb	a0,192(s2)
    20ea:	0100                	addi	s0,sp,128
    20ec:	0c05                	addi	s8,s8,1
    20ee:	0306                	slli	t1,t1,0x1
    20f0:	0900                	addi	s0,sp,144
    20f2:	0000                	unimp
    20f4:	0501                	addi	a0,a0,0
    20f6:	0605                	addi	a2,a2,1
    20f8:	04090103          	lb	sp,64(s2)
    20fc:	0100                	addi	s0,sp,128
    20fe:	0105                	addi	sp,sp,1
    2100:	0306                	slli	t1,t1,0x1
    2102:	0901                	addi	s2,s2,0
    2104:	0000                	unimp
    2106:	0501                	addi	a0,a0,0
    2108:	0609                	addi	a2,a2,2
    210a:	04097a03          	.insn	4, 0x04097a03
    210e:	0100                	addi	s0,sp,128
    2110:	0105                	addi	sp,sp,1
    2112:	0306                	slli	t1,t1,0x1
    2114:	0978                	addi	a4,sp,156
    2116:	0000                	unimp
    2118:	0501                	addi	a0,a0,0
    211a:	0309                	addi	t1,t1,2
    211c:	0908                	addi	a0,sp,144
    211e:	0004                	.insn	2, 0x0004
    2120:	0501                	addi	a0,a0,0
    2122:	0301                	addi	t1,t1,0
    2124:	0906                	slli	s2,s2,0x1
    2126:	0004                	.insn	2, 0x0004
    2128:	0501                	addi	a0,a0,0
    212a:	097a030f          	.insn	4, 0x097a030f
    212e:	0002                	c.slli64	zero
    2130:	0501                	addi	a0,a0,0
    2132:	0609                	addi	a2,a2,2
    2134:	04090103          	lb	sp,64(s2)
    2138:	0100                	addi	s0,sp,128
    213a:	1005                	c.nop	-31
    213c:	0306                	slli	t1,t1,0x1
    213e:	0900                	addi	s0,sp,144
    2140:	0000                	unimp
    2142:	0501                	addi	a0,a0,0
    2144:	0301                	addi	t1,t1,0
    2146:	0905                	addi	s2,s2,1
    2148:	0002                	c.slli64	zero
    214a:	0901                	addi	s2,s2,0
    214c:	0006                	c.slli	zero,0x1
    214e:	0100                	addi	s0,sp,128
    2150:	6401                	.insn	2, 0x6401
    2152:	0001                	nop
    2154:	0200                	addi	s0,sp,256
    2156:	3900                	fld	fs0,48(a0)
    2158:	0001                	nop
    215a:	0100                	addi	s0,sp,128
    215c:	fb01                	bnez	a4,206c <__stack_align+0x205c>
    215e:	0d0e                	slli	s10,s10,0x3
    2160:	0100                	addi	s0,sp,128
    2162:	0101                	addi	sp,sp,0
    2164:	0001                	nop
    2166:	0000                	unimp
    2168:	0001                	nop
    216a:	0100                	addi	s0,sp,128
    216c:	2e2e                	fld	ft8,200(sp)
    216e:	7379732f          	.insn	4, 0x7379732f
    2172:	2f00                	fld	fs0,24(a4)
    2174:	2f74706f          	j	49c6a <__heap_size+0x29c6a>
    2178:	6972                	ld	s2,280(sp)
    217a:	2f766373          	csrrsi	t1,0x2f7,12
    217e:	696c                	ld	a1,208(a0)
    2180:	2f62                	fld	ft10,24(sp)
    2182:	2f636367          	.insn	4, 0x2f636367
    2186:	6972                	ld	s2,280(sp)
    2188:	36766373          	csrrsi	t1,0x367,12
    218c:	2d34                	fld	fa3,88(a0)
    218e:	6e75                	lui	t3,0x1d
    2190:	776f6e6b          	.insn	4, 0x776f6e6b
    2194:	2d6e                	fld	fs10,216(sp)
    2196:	6c65                	lui	s8,0x19
    2198:	2f66                	fld	ft10,88(sp)
    219a:	2e38                	fld	fa4,88(a2)
    219c:	2e32                	fld	ft8,264(sp)
    219e:	2f30                	fld	fa2,88(a4)
    21a0:	6e69                	lui	t3,0x1a
    21a2:	64756c63          	bltu	a0,t2,27fa <__stack_align+0x27ea>
    21a6:	0065                	c.nop	25
    21a8:	74706f2f          	.insn	4, 0x74706f2f
    21ac:	7369722f          	.insn	4, 0x7369722f
    21b0:	722f7663          	bgeu	t5,sp,28dc <__stack_align+0x28cc>
    21b4:	7369                	lui	t1,0xffffa
    21b6:	34367663          	bgeu	a2,gp,2502 <__stack_align+0x24f2>
    21ba:	752d                	lui	a0,0xfffeb
    21bc:	6b6e                	ld	s6,216(sp)
    21be:	6f6e                	ld	t5,216(sp)
    21c0:	652d6e77          	.insn	4, 0x652d6e77
    21c4:	666c                	ld	a1,200(a2)
    21c6:	636e692f          	.insn	4, 0x636e692f
    21ca:	756c                	ld	a1,232(a0)
    21cc:	6564                	ld	s1,200(a0)
    21ce:	63616d2f          	.insn	4, 0x63616d2f
    21d2:	6968                	ld	a0,208(a0)
    21d4:	656e                	ld	a0,216(sp)
    21d6:	2f00                	fld	fs0,24(a4)
    21d8:	2f74706f          	j	49cce <__heap_size+0x29cce>
    21dc:	6972                	ld	s2,280(sp)
    21de:	2f766373          	csrrsi	t1,0x2f7,12
    21e2:	6972                	ld	s2,280(sp)
    21e4:	36766373          	csrrsi	t1,0x367,12
    21e8:	2d34                	fld	fa3,88(a0)
    21ea:	6e75                	lui	t3,0x1d
    21ec:	776f6e6b          	.insn	4, 0x776f6e6b
    21f0:	2d6e                	fld	fs10,216(sp)
    21f2:	6c65                	lui	s8,0x19
    21f4:	2f66                	fld	ft10,88(sp)
    21f6:	6e69                	lui	t3,0x1a
    21f8:	64756c63          	bltu	a0,t2,2850 <__stack_align+0x2840>
    21fc:	2f65                	addiw	t5,t5,25
    21fe:	00737973          	csrrci	s2,0x7,6
    2202:	2e2e                	fld	ft8,200(sp)
    2204:	636e692f          	.insn	4, 0x636e692f
    2208:	756c                	ld	a1,232(a0)
    220a:	6564                	ld	s1,200(a0)
    220c:	0000                	unimp
    220e:	74697277          	.insn	4, 0x74697277
    2212:	2e65                	addiw	t3,t3,25 # 1a019 <__stack_size+0x12019>
    2214:	00010063          	beqz	sp,2214 <__stack_align+0x2204>
    2218:	7300                	ld	s0,32(a4)
    221a:	6474                	ld	a3,200(s0)
    221c:	6564                	ld	s1,200(a0)
    221e:	2e66                	fld	ft8,88(sp)
    2220:	0068                	addi	a0,sp,12
    2222:	0002                	c.slli64	zero
    2224:	5f00                	lw	s0,56(a4)
    2226:	6564                	ld	s1,200(a0)
    2228:	6166                	ld	sp,88(sp)
    222a:	6c75                	lui	s8,0x1d
    222c:	5f74                	lw	a3,124(a4)
    222e:	7974                	ld	a3,240(a0)
    2230:	6570                	ld	a2,200(a0)
    2232:	00682e73          	csrrs	t3,0x6,a6
    2236:	6c000003          	lb	zero,1728(zero) # 6c0 <__stack_align+0x6b0>
    223a:	2e6b636f          	jal	t1,b8520 <__heap_size+0x98520>
    223e:	0068                	addi	a0,sp,12
    2240:	0004                	.insn	2, 0x0004
    2242:	5f00                	lw	s0,56(a4)
    2244:	7974                	ld	a3,240(a0)
    2246:	6570                	ld	a2,200(a0)
    2248:	00682e73          	csrrs	t3,0x6,a6
    224c:	0004                	.insn	2, 0x0004
    224e:	7200                	ld	s0,32(a2)
    2250:	6565                	lui	a0,0x19
    2252:	746e                	ld	s0,248(sp)
    2254:	682e                	ld	a6,200(sp)
    2256:	0400                	addi	s0,sp,512
    2258:	0000                	unimp
    225a:	7265                	lui	tp,0xffff9
    225c:	6e72                	ld	t3,280(sp)
    225e:	00682e6f          	jal	t3,84264 <__heap_size+0x64264>
    2262:	0004                	.insn	2, 0x0004
    2264:	5f00                	lw	s0,56(a4)
    2266:	69647473          	csrrci	s0,0x696,8
    226a:	746e                	ld	s0,248(sp)
    226c:	682e                	ld	a6,200(sp)
    226e:	0400                	addi	s0,sp,512
    2270:	0000                	unimp
    2272:	7974                	ld	a3,240(a0)
    2274:	6570                	ld	a2,200(a0)
    2276:	00682e73          	csrrs	t3,0x6,a6
    227a:	0004                	.insn	2, 0x0004
    227c:	7500                	ld	s0,40(a0)
    227e:	696e                	ld	s2,216(sp)
    2280:	2e647473          	csrrci	s0,0x2e6,8
    2284:	0068                	addi	a0,sp,12
    2286:	0004                	.insn	2, 0x0004
    2288:	6800                	ld	s0,16(s0)
    228a:	6974                	ld	a3,208(a0)
    228c:	2e66                	fld	ft8,88(sp)
    228e:	0068                	addi	a0,sp,12
    2290:	0005                	c.nop	1
    2292:	0000                	unimp
    2294:	0105                	addi	sp,sp,1
    2296:	0900                	addi	s0,sp,144
    2298:	ba02                	fsd	ft0,304(sp)
    229a:	0022                	c.slli	zero,0x8
    229c:	0080                	addi	s0,sp,64
    229e:	0000                	unimp
    22a0:	1800                	addi	s0,sp,48
    22a2:	0505                	addi	a0,a0,1 # 19001 <__stack_size+0x11001>
    22a4:	00090103          	lb	sp,0(s2)
    22a8:	0100                	addi	s0,sp,128
    22aa:	0c05                	addi	s8,s8,1 # 1d001 <__stack_size+0x15001>
    22ac:	0306                	slli	t1,t1,0x1
    22ae:	0900                	addi	s0,sp,144
    22b0:	0000                	unimp
    22b2:	0901                	addi	s2,s2,0
    22b4:	0008                	.insn	2, 0x0008
    22b6:	0100                	addi	s0,sp,128
    22b8:	Address 0x22b8 is out of bounds.


Disassembly of section .debug_str:

0000000000000000 <.debug_str>:
   0:	33616873          	csrrsi	a6,mhpmevent22,2
   4:	355f 3231 685f      	.insn	6, 0x685f3231355f
   a:	7361                	lui	t1,0xffff8
   c:	0068                	addi	a0,sp,12
   e:	63616863          	bltu	sp,s6,63e <__stack_align+0x62e>
  12:	6168                	ld	a0,192(a0)
  14:	6b5f 7965 7300      	.insn	6, 0x730079656b5f
  1a:	6168                	ld	a0,192(a0)
  1c:	65745f33          	.insn	4, 0x65745f33
  20:	635f7473          	csrrci	s0,0x635,30
  24:	7361                	lui	t1,0xffff8
  26:	7365                	lui	t1,0xffff9
  28:	6300                	ld	s0,0(a4)
  2a:	6168                	ld	a0,192(a0)
  2c:	5f616863          	bltu	sp,s6,61c <__stack_align+0x60c>
  30:	74666f73          	csrrsi	t5,0x746,12
  34:	725f 7365 7465      	.insn	6, 0x74657365725f
  3a:	6c00                	ld	s0,24(s0)
  3c:	20676e6f          	jal	t3,76242 <__heap_size+0x56242>
  40:	6f6c                	ld	a1,216(a4)
  42:	676e                	ld	a4,216(sp)
  44:	7520                	ld	s0,104(a0)
  46:	736e                	ld	t1,248(sp)
  48:	6769                	lui	a4,0x1a
  4a:	656e                	ld	a0,216(sp)
  4c:	2064                	fld	fs1,192(s0)
  4e:	6e69                	lui	t3,0x1a
  50:	0074                	addi	a3,sp,12
  52:	6461                	lui	s0,0x18
  54:	7264                	ld	s1,224(a2)
  56:	6300                	ld	s0,0(a4)
  58:	6168                	ld	a0,192(a0)
  5a:	5f616863          	bltu	sp,s6,64a <__stack_align+0x63a>
  5e:	74697277          	.insn	4, 0x74697277
  62:	5f65                	li	t5,-7
  64:	6f74                	ld	a3,216(a4)
  66:	615f 6464 6572      	.insn	6, 0x65726464615f
  6c:	63007373          	csrrci	t1,0x630,0
  70:	6168                	ld	a0,192(a0)
  72:	5f616863          	bltu	sp,s6,662 <__stack_align+0x652>
  76:	68706963          	bltu	zero,t2,708 <__stack_align+0x6f8>
  7a:	7265                	lui	tp,0xffff9
  7c:	6c00                	ld	s0,24(s0)
  7e:	20676e6f          	jal	t3,76284 <__heap_size+0x56284>
  82:	6f6c                	ld	a1,216(a4)
  84:	676e                	ld	a4,216(sp)
  86:	6920                	ld	s0,80(a0)
  88:	746e                	ld	s0,248(sp)
  8a:	7300                	ld	s0,32(a4)
  8c:	6168                	ld	a0,192(a0)
  8e:	65745f33          	.insn	4, 0x65745f33
  92:	655f7473          	csrrci	s0,hviph,30
  96:	616c                	ld	a1,192(a0)
  98:	7370                	ld	a2,224(a4)
  9a:	6465                	lui	s0,0x19
  9c:	7300                	ld	s0,32(a4)
  9e:	6168                	ld	a0,192(a0)
  a0:	6f735f33          	.insn	4, 0x6f735f33
  a4:	7466                	ld	s0,120(sp)
  a6:	725f 7365 7465      	.insn	6, 0x74657365725f
  ac:	5f00                	lw	s0,56(a4)
  ae:	6e65                	lui	t3,0x19
  b0:	70797263          	bgeu	s2,t2,7b4 <__stack_align+0x7a4>
  b4:	6974                	ld	a3,208(a0)
  b6:	635f6e6f          	jal	t3,f6eea <__heap_size+0xd6eea>
  ba:	6379                	lui	t1,0x1e
  bc:	656c                	ld	a1,200(a0)
  be:	61680073          	.insn	4, 0x61680073
  c2:	7472                	ld	s0,312(sp)
  c4:	6469                	lui	s0,0x1a
  c6:	6300                	ld	s0,0(a4)
  c8:	6168                	ld	a0,192(a0)
  ca:	5f616863          	bltu	sp,s6,6ba <__stack_align+0x6aa>
  ce:	6574                	ld	a3,200(a0)
  d0:	655f7473          	csrrci	s0,hviph,30
  d4:	616c                	ld	a1,192(a0)
  d6:	7370                	ld	a2,224(a4)
  d8:	6465                	lui	s0,0x19
  da:	6b00                	ld	s0,16(a4)
  dc:	656c                	ld	a1,200(a0)
  de:	6e69                	lui	t3,0x1a
  e0:	745f 7365 0074      	.insn	6, 0x00747365745f
  e6:	5f79656b          	.insn	4, 0x5f79656b
  ea:	656c                	ld	a1,200(a0)
  ec:	006e                	c.slli	zero,0x1b
  ee:	6164                	ld	s1,192(a0)
  f0:	6174                	ld	a3,192(a0)
  f2:	6f5f 7475 5f00      	.insn	6, 0x5f0074756f5f
  f8:	755f 6e69 3374      	.insn	6, 0x33746e69755f
  fe:	5f32                	lw	t5,44(sp)
 100:	0074                	addi	a3,sp,12
 102:	5f5f 6d74 0070      	.insn	6, 0x00706d745f5f
 108:	63616863          	bltu	sp,s6,738 <__stack_align+0x728>
 10c:	6168                	ld	a0,192(a0)
 10e:	645f 7461 5f61      	.insn	6, 0x5f617461645f
 114:	6e69                	lui	t3,0x1a
 116:	7400                	ld	s0,40(s0)
 118:	6d65                	lui	s10,0x19
 11a:	0070                	addi	a2,sp,12
 11c:	6e756f63          	bltu	a0,t2,81a <__stack_align+0x80a>
 120:	5f74                	lw	a3,124(a4)
 122:	6c637963          	bgeu	t1,t1,7f4 <__stack_align+0x7e4>
 126:	7365                	lui	t1,0xffff9
 128:	7300                	ld	s0,32(a4)
 12a:	6f68                	ld	a0,216(a4)
 12c:	7472                	ld	s0,312(sp)
 12e:	7520                	ld	s0,104(a0)
 130:	736e                	ld	t1,248(sp)
 132:	6769                	lui	a4,0x1a
 134:	656e                	ld	a0,216(sp)
 136:	2064                	fld	fs1,192(s0)
 138:	6e69                	lui	t3,0x1a
 13a:	0074                	addi	a3,sp,12
 13c:	6964                	ld	s1,208(a0)
 13e:	74736567          	.insn	4, 0x74736567
 142:	7300                	ld	s0,32(a4)
 144:	6168                	ld	a0,192(a0)
 146:	65725f33          	.insn	4, 0x65725f33
 14a:	6461                	lui	s0,0x18
 14c:	665f 6f72 5f6d      	.insn	6, 0x5f6d6f72665f
 152:	6461                	lui	s0,0x18
 154:	7264                	ld	s1,224(a2)
 156:	7365                	lui	t1,0xffff9
 158:	65720073          	.insn	4, 0x65720073
 15c:	65725f67          	.insn	4, 0x65725f67
 160:	6461                	lui	s0,0x18
 162:	63003233          	.insn	4, 0x63003233
 166:	6168                	ld	a0,192(a0)
 168:	5f616863          	bltu	sp,s6,758 <__stack_align+0x748>
 16c:	6572                	ld	a0,280(sp)
 16e:	6461                	lui	s0,0x18
 170:	665f 6f72 5f6d      	.insn	6, 0x5f6d6f72665f
 176:	6461                	lui	s0,0x18
 178:	7264                	ld	s1,224(a2)
 17a:	7365                	lui	t1,0xffff9
 17c:	68630073          	.insn	4, 0x68630073
 180:	6361                	lui	t1,0x18
 182:	6168                	ld	a0,192(a0)
 184:	645f 6d75 0070      	.insn	6, 0x00706d75645f
 18a:	63616863          	bltu	sp,s6,7ba <__stack_align+0x7aa>
 18e:	6168                	ld	a0,192(a0)
 190:	655f 7078 6365      	.insn	6, 0x63657078655f
 196:	6574                	ld	a3,200(a0)
 198:	0064                	addi	s1,sp,12
 19a:	6f6c                	ld	a1,216(a4)
 19c:	676e                	ld	a4,216(sp)
 19e:	6420                	ld	s0,72(s0)
 1a0:	6c62756f          	jal	a0,27866 <__heap_size+0x7866>
 1a4:	0065                	c.nop	25
 1a6:	656d                	lui	a0,0x1b
 1a8:	67617373          	csrrci	t1,0x676,2
 1ac:	0065                	c.nop	25
 1ae:	6175                	addi	sp,sp,368
 1b0:	7472                	ld	s0,312(sp)
 1b2:	6300                	ld	s0,0(a4)
 1b4:	6168                	ld	a0,192(a0)
 1b6:	5f616863          	bltu	sp,s6,7a6 <__stack_align+0x796>
 1ba:	68706963          	bltu	zero,t2,84c <__stack_align+0x83c>
 1be:	7265                	lui	tp,0xffff9
 1c0:	6e5f 7865 5f74      	.insn	6, 0x5f7478656e5f
 1c6:	6c62                	ld	s8,24(sp)
 1c8:	006b636f          	jal	t1,b61ce <__heap_size+0x961ce>
 1cc:	6c62                	ld	s8,24(sp)
 1ce:	5f6b636f          	jal	t1,b67c4 <__heap_size+0x967c4>
 1d2:	0031                	c.nop	12
 1d4:	6c62                	ld	s8,24(sp)
 1d6:	5f6b636f          	jal	t1,b67cc <__heap_size+0x967cc>
 1da:	0032                	c.slli	zero,0xc
 1dc:	6e75                	lui	t3,0x1d
 1de:	6e676973          	csrrsi	s2,0x6e6,14
 1e2:	6465                	lui	s0,0x19
 1e4:	6320                	ld	s0,64(a4)
 1e6:	6168                	ld	a0,192(a0)
 1e8:	0072                	c.slli	zero,0x1c
 1ea:	20554e47          	fmsub.s	ft8,fa0,ft5,ft4,rmm
 1ee:	20313143          	fmadd.s	ft2,ft2,ft3,ft4,rup
 1f2:	3331                	addiw	t1,t1,-20 # 17fec <__stack_size+0xffec>
 1f4:	322e                	fld	ft4,232(sp)
 1f6:	302e                	fld	ft0,232(sp)
 1f8:	2d20                	fld	fs0,88(a0)
 1fa:	636d                	lui	t1,0x1b
 1fc:	6f6d                	lui	t5,0x1b
 1fe:	6564                	ld	s1,200(a0)
 200:	3d6c                	fld	fa1,248(a0)
 202:	656d                	lui	a0,0x1b
 204:	6164                	ld	s1,192(a0)
 206:	796e                	ld	s2,248(sp)
 208:	2d20                	fld	fs0,88(a0)
 20a:	616d                	addi	sp,sp,240
 20c:	6962                	ld	s2,24(sp)
 20e:	6c3d                	lui	s8,0xf
 210:	3670                	fld	fa2,232(a2)
 212:	6434                	ld	a3,72(s0)
 214:	2d20                	fld	fs0,88(a0)
 216:	636d                	lui	t1,0x1b
 218:	6f6d                	lui	t5,0x1b
 21a:	6564                	ld	s1,200(a0)
 21c:	3d6c                	fld	fa1,248(a0)
 21e:	656d                	lui	a0,0x1b
 220:	6164                	ld	s1,192(a0)
 222:	796e                	ld	s2,248(sp)
 224:	2d20                	fld	fs0,88(a0)
 226:	746d                	lui	s0,0xffffb
 228:	6e75                	lui	t3,0x1d
 22a:	3d65                	addiw	s10,s10,-7 # 18ff9 <__stack_size+0x10ff9>
 22c:	6f72                	ld	t5,280(sp)
 22e:	74656b63          	bltu	a0,t1,984 <__stack_align+0x974>
 232:	2d20                	fld	fs0,88(a0)
 234:	696d                	lui	s2,0x1b
 236:	732d6173          	csrrsi	sp,mhpmevent18h,26
 23a:	6570                	ld	a2,200(a0)
 23c:	30323d63          	.insn	4, 0x30323d63
 240:	3931                	addiw	s2,s2,-20 # 1afec <__stack_size+0x12fec>
 242:	3231                	addiw	tp,tp,-20 # ffffffffffff8fec <__heap_end+0xffffffff7ffd5fec>
 244:	3331                	addiw	t1,t1,-20 # 1afec <__stack_size+0x12fec>
 246:	2d20                	fld	fs0,88(a0)
 248:	616d                	addi	sp,sp,240
 24a:	6372                	ld	t1,280(sp)
 24c:	3d68                	fld	fa0,248(a0)
 24e:	7672                	ld	a2,312(sp)
 250:	3436                	fld	fs0,360(sp)
 252:	6d69                	lui	s10,0x1a
 254:	6661                	lui	a2,0x18
 256:	6364                	ld	s1,192(a4)
 258:	7a5f 6369 7273      	.insn	6, 0x727363697a5f
 25e:	7a5f 6669 6e65      	.insn	6, 0x6e6566697a5f
 264:	20696563          	bltu	s2,t1,46e <__stack_align+0x45e>
 268:	672d                	lui	a4,0xb
 26a:	2d20                	fld	fs0,88(a0)
 26c:	2d20304f          	.insn	4, 0x2d20304f
 270:	3d647473          	csrrci	s0,0x3d6,8
 274:	31756e67          	.insn	4, 0x31756e67
 278:	2031                	.insn	2, 0x2031
 27a:	662d                	lui	a2,0xb
 27c:	6f6e                	ld	t5,216(sp)
 27e:	632d                	lui	t1,0xb
 280:	6f6d6d6f          	jal	s10,d6976 <__heap_size+0xb6976>
 284:	006e                	c.slli	zero,0x1b
 286:	726f6873          	csrrsi	a6,mhpmevent6h,30
 28a:	2074                	fld	fa3,192(s0)
 28c:	6e69                	lui	t3,0x1a
 28e:	0074                	addi	a3,sp,12
 290:	5f5f 6975 746e      	.insn	6, 0x746e69755f5f
 296:	7470                	ld	a2,232(s0)
 298:	5f72                	lw	t5,60(sp)
 29a:	0074                	addi	a3,sp,12
 29c:	33616873          	csrrsi	a6,mhpmevent22,2
 2a0:	775f 6972 6574      	.insn	6, 0x65746972775f
 2a6:	745f 5f6f 6461      	.insn	6, 0x64615f6f745f
 2ac:	7264                	ld	s1,224(a2)
 2ae:	7365                	lui	t1,0xffff9
 2b0:	656d0073          	.insn	4, 0x656d0073
 2b4:	67617373          	csrrci	t1,0x676,2
 2b8:	5f65                	li	t5,-7
 2ba:	0031                	c.nop	12
 2bc:	656d                	lui	a0,0x1b
 2be:	67617373          	csrrci	t1,0x676,2
 2c2:	5f65                	li	t5,-7
 2c4:	0032                	c.slli	zero,0xc
 2c6:	656d                	lui	a0,0x1b
 2c8:	67617373          	csrrci	t1,0x676,2
 2cc:	5f65                	li	t5,-7
 2ce:	0034                	addi	a3,sp,8
 2d0:	645f 6365 7972      	.insn	6, 0x79726365645f
 2d6:	7470                	ld	a2,232(s0)
 2d8:	6f69                	lui	t5,0x1a
 2da:	5f6e                	lw	t5,248(sp)
 2dc:	6c637963          	bgeu	t1,t1,9ae <__stack_align+0x99e>
 2e0:	7365                	lui	t1,0xffff9
 2e2:	6b00                	ld	s0,16(a4)
 2e4:	656c                	ld	a1,200(a0)
 2e6:	6e69                	lui	t3,0x1a
 2e8:	775f 6972 6574      	.insn	6, 0x65746972775f
 2ee:	745f 5f6f 6461      	.insn	6, 0x64615f6f745f
 2f4:	7264                	ld	s1,224(a2)
 2f6:	7365                	lui	t1,0xffff9
 2f8:	65720073          	.insn	4, 0x65720073
 2fc:	72775f67          	.insn	4, 0x72775f67
 300:	7469                	lui	s0,0xffffa
 302:	3365                	addiw	t1,t1,-7 # ffffffffffff8ff9 <__heap_end+0xffffffff7ffd5ff9>
 304:	0032                	c.slli	zero,0xc
 306:	736d                	lui	t1,0xffffb
 308:	656c5f67          	.insn	4, 0x656c5f67
 30c:	5f6e                	lw	t5,248(sp)
 30e:	64726f77          	.insn	4, 0x64726f77
 312:	6300                	ld	s0,0(a4)
 314:	6168                	ld	a0,192(a0)
 316:	5f616863          	bltu	sp,s6,906 <__stack_align+0x8f6>
 31a:	7669                	lui	a2,0xffffa
 31c:	6b00                	ld	s0,16(a4)
 31e:	7270                	ld	a2,224(a2)
 320:	6e69                	lui	t3,0x1a
 322:	6674                	ld	a3,200(a2)
 324:	6b00                	ld	s0,16(a4)
 326:	656c                	ld	a1,200(a0)
 328:	6e69                	lui	t3,0x1a
 32a:	725f 6165 5f64      	.insn	6, 0x5f646165725f
 330:	6f74                	ld	a3,216(a4)
 332:	615f 6464 6572      	.insn	6, 0x65726464615f
 338:	6b007373          	csrrci	t1,0x6b0,0
 33c:	656c                	ld	a1,200(a0)
 33e:	6e69                	lui	t3,0x1a
 340:	745f 7365 5f74      	.insn	6, 0x5f747365745f
 346:	6e65                	lui	t3,0x19
 348:	70797263          	bgeu	s2,t2,a4c <__stack_align+0xa3c>
 34c:	6974                	ld	a3,208(a0)
 34e:	655f6e6f          	jal	t3,f71a2 <__heap_size+0xd71a2>
 352:	616c                	ld	a1,192(a0)
 354:	7370                	ld	a2,224(a4)
 356:	6465                	lui	s0,0x19
 358:	6b00                	ld	s0,16(a4)
 35a:	656c                	ld	a1,200(a0)
 35c:	6e69                	lui	t3,0x1a
 35e:	745f 7365 5f74      	.insn	6, 0x5f747365745f
 364:	6564                	ld	s1,200(a0)
 366:	70797263          	bgeu	s2,t2,a6a <__stack_align+0xa5a>
 36a:	6974                	ld	a3,208(a0)
 36c:	655f6e6f          	jal	t3,f71c0 <__heap_size+0xd71c0>
 370:	616c                	ld	a1,192(a0)
 372:	7370                	ld	a2,224(a4)
 374:	6465                	lui	s0,0x19
 376:	6c00                	ld	s0,24(s0)
 378:	7361                	lui	t1,0xffff8
 37a:	5f74                	lw	a3,124(a4)
 37c:	7962                	ld	s2,56(sp)
 37e:	6574                	ld	a3,200(a0)
 380:	6e5f 6d75 6300      	.insn	6, 0x63006d756e5f
 386:	6168                	ld	a0,192(a0)
 388:	5f616863          	bltu	sp,s6,978 <__stack_align+0x968>
 38c:	6574                	ld	a3,200(a0)
 38e:	635f7473          	csrrci	s0,0x635,30
 392:	7361                	lui	t1,0xffff8
 394:	7365                	lui	t1,0xffff9
 396:	6e00                	ld	s0,24(a2)
 398:	6d75                	lui	s10,0x1d
 39a:	725f 756f 646e      	.insn	6, 0x646e756f725f
 3a0:	6900                	ld	s0,16(a0)
 3a2:	68635f73          	csrrwi	t5,0x686,6
 3a6:	7261                	lui	tp,0xffff8
 3a8:	5f00                	lw	s0,56(a4)
 3aa:	625f 6975 746c      	.insn	6, 0x746c6975625f
 3b0:	6e69                	lui	t3,0x1a
 3b2:	765f 5f61 696c      	.insn	6, 0x696c5f61765f
 3b8:	5f007473          	csrrci	s0,0x5f0,0
 3bc:	695f 746e 3233      	.insn	6, 0x3233746e695f
 3c2:	745f 6900 5f73      	.insn	6, 0x5f736900745f
 3c8:	6f6c                	ld	a1,216(a4)
 3ca:	676e                	ld	a4,216(sp)
 3cc:	5f00                	lw	s0,56(a4)
 3ce:	675f 756e 5f63      	.insn	6, 0x5f63756e675f
 3d4:	6176                	ld	sp,344(sp)
 3d6:	6c5f 7369 0074      	.insn	6, 0x007473696c5f
 3dc:	7369                	lui	t1,0xffffa
 3de:	665f 726f 616d      	.insn	6, 0x616d726f665f
 3e4:	0074                	addi	a3,sp,12
 3e6:	7562                	ld	a0,56(sp)
 3e8:	6666                	ld	a2,88(sp)
 3ea:	7265                	lui	tp,0xffff9
 3ec:	5f00                	lw	s0,56(a4)
 3ee:	7475706b          	.insn	4, 0x7475706b
 3f2:	706b0073          	.insn	4, 0x706b0073
 3f6:	7475                	lui	s0,0xffffd
 3f8:	425f0063          	beq	t5,t0,818 <__stack_align+0x808>
 3fc:	006c6f6f          	jal	t5,c6402 <__heap_size+0xa6402>
 400:	2e2e                	fld	ft8,200(sp)
 402:	73696d2f          	.insn	4, 0x73696d2f
 406:	72632f63          	.insn	4, 0x72632f63
 40a:	3074                	fld	fa3,224(s0)
 40c:	532e                	lw	t1,232(sp)
 40e:	2f00                	fld	fs0,24(a4)
 410:	6f68                	ld	a0,216(a4)
 412:	656d                	lui	a0,0x1b
 414:	6868742f          	.insn	4, 0x6868742f
 418:	6968632f          	.insn	4, 0x6968632f
 41c:	7970                	ld	a2,240(a0)
 41e:	7261                	lui	tp,0xffff8
 420:	2f64                	fld	fs1,216(a4)
 422:	6f74                	ld	a3,216(a4)
 424:	68636c6f          	jal	s8,36aaa <__heap_size+0x16aaa>
 428:	6961                	lui	s2,0x18
 42a:	736e                	ld	t1,248(sp)
 42c:	62696c2f          	.insn	4, 0x62696c2f
 430:	736f6c67          	.insn	4, 0x736f6c67
 434:	75622f73          	csrrs	t5,0x756,tp
 438:	6c69                	lui	s8,0x1a
 43a:	0064                	addi	s1,sp,12
 43c:	20554e47          	fmsub.s	ft8,fa0,ft5,ft4,rmm
 440:	5341                	li	t1,-16
 442:	3220                	fld	fs0,96(a2)
 444:	332e                	fld	ft6,232(sp)
 446:	2e31                	addiw	t3,t3,12 # 1a00c <__stack_size+0x1200c>
 448:	0031                	c.nop	12
 44a:	2e2e                	fld	ft8,200(sp)
 44c:	73696d2f          	.insn	4, 0x73696d2f
 450:	72632f63          	.insn	4, 0x72632f63
 454:	6d74                	ld	a3,216(a0)
 456:	6961                	lui	s2,0x18
 458:	2e6e                	fld	ft8,216(sp)
 45a:	61680053          	.insn	4, 0x61680053
 45e:	646e                	ld	s0,216(sp)
 460:	656c                	ld	a1,200(a0)
 462:	745f 6172 0070      	.insn	6, 0x00706172745f
 468:	6f74                	ld	a3,216(a4)
 46a:	6f68                	ld	a0,216(a4)
 46c:	63007473          	csrrci	s0,0x630,0
 470:	7561                	lui	a0,0xffff8
 472:	2e006573          	csrrsi	a0,0x2e0,0
 476:	2f2e                	fld	ft10,200(sp)
 478:	696d                	lui	s2,0x1b
 47a:	742f6373          	csrrsi	t1,0x742,30
 47e:	6172                	ld	sp,280(sp)
 480:	7370                	ld	a2,224(a4)
 482:	632e                	ld	t1,200(sp)
 484:	5f00                	lw	s0,56(a4)
 486:	7865                	lui	a6,0xffff9
 488:	7469                	lui	s0,0xffffa
 48a:	4700                	lw	s0,8(a4)
 48c:	554e                	lw	a0,240(sp)
 48e:	4320                	lw	s0,64(a4)
 490:	3131                	addiw	sp,sp,-20
 492:	3820                	fld	fs0,112(s0)
 494:	322e                	fld	ft4,232(sp)
 496:	302e                	fld	ft0,232(sp)
 498:	2d20                	fld	fs0,88(a0)
 49a:	636d                	lui	t1,0x1b
 49c:	6f6d                	lui	t5,0x1b
 49e:	6564                	ld	s1,200(a0)
 4a0:	3d6c                	fld	fa1,248(a0)
 4a2:	656d                	lui	a0,0x1b
 4a4:	6164                	ld	s1,192(a0)
 4a6:	796e                	ld	s2,248(sp)
 4a8:	2d20                	fld	fs0,88(a0)
 4aa:	616d                	addi	sp,sp,240
 4ac:	6372                	ld	t1,280(sp)
 4ae:	3d68                	fld	fa0,248(a0)
 4b0:	7672                	ld	a2,312(sp)
 4b2:	3436                	fld	fs0,360(sp)
 4b4:	6d69                	lui	s10,0x1a
 4b6:	6661                	lui	a2,0x18
 4b8:	6364                	ld	s1,192(a4)
 4ba:	2d20                	fld	fs0,88(a0)
 4bc:	616d                	addi	sp,sp,240
 4be:	6962                	ld	s2,24(sp)
 4c0:	6c3d                	lui	s8,0xf
 4c2:	3670                	fld	fa2,232(a2)
 4c4:	6434                	ld	a3,72(s0)
 4c6:	2d20                	fld	fs0,88(a0)
 4c8:	4f2d2067          	.insn	4, 0x4f2d2067
 4cc:	2032                	fld	ft0,264(sp)
 4ce:	732d                	lui	t1,0xfffeb
 4d0:	6474                	ld	a3,200(s0)
 4d2:	633d                	lui	t1,0xf
 4d4:	3131                	addiw	sp,sp,-20
 4d6:	2d20                	fld	fs0,88(a0)
 4d8:	6e66                	ld	t3,88(sp)
 4da:	6f632d6f          	jal	s10,32bd0 <__heap_size+0x12bd0>
 4de:	6d6d                	lui	s10,0x1b
 4e0:	2d206e6f          	jal	t3,67b2 <__stack_size_min+0x7b2>
 4e4:	6e66                	ld	t3,88(sp)
 4e6:	75622d6f          	jal	s10,22c3c <__heap_size+0x2c3c>
 4ea:	6c69                	lui	s8,0x1a
 4ec:	6974                	ld	a3,208(a0)
 4ee:	006e                	c.slli	zero,0x1b
 4f0:	5f5f 6e69 7074      	.insn	6, 0x70746e695f5f
 4f6:	7274                	ld	a3,224(a2)
 4f8:	745f 7200 6765      	.insn	6, 0x67657200745f
 4fe:	72660073          	.insn	4, 0x72660073
 502:	6f686d6f          	jal	s10,86bf8 <__heap_size+0x66bf8>
 506:	5f007473          	csrrci	s0,0x5f0,0
 50a:	755f 6e69 3674      	.insn	6, 0x36746e69755f
 510:	5f34                	lw	a3,120(a4)
 512:	0074                	addi	a3,sp,12
 514:	65646f63          	bltu	s0,s6,b72 <__stack_align+0xb62>
 518:	7400                	ld	s0,40(s0)
 51a:	6176                	ld	sp,344(sp)
 51c:	006c                	addi	a1,sp,12
 51e:	645f 6f73 685f      	.insn	6, 0x685f6f73645f
 524:	6e61                	lui	t3,0x18
 526:	6c64                	ld	s1,216(s0)
 528:	0065                	c.nop	25
 52a:	725f 6e61 3464      	.insn	6, 0x34646e61725f
 530:	0038                	addi	a4,sp,8
 532:	655f 656d 6772      	.insn	6, 0x6772656d655f
 538:	6e65                	lui	t3,0x19
 53a:	5f007963          	bgeu	zero,a6,b2c <__stack_align+0xb1c>
 53e:	6164                	ld	s1,192(a0)
 540:	6174                	ld	a3,192(a0)
 542:	5f00                	lw	s0,56(a4)
 544:	74726377          	.insn	4, 0x74726377
 548:	5f626d6f          	jal	s10,26b3e <__heap_size+0x6b3e>
 54c:	74617473          	csrrci	s0,0x746,2
 550:	0065                	c.nop	25
 552:	775f 7363 7472      	.insn	6, 0x74727363775f
 558:	73626d6f          	jal	s10,26c8e <__heap_size+0x6c8e>
 55c:	735f 6174 6574      	.insn	6, 0x65746174735f
 562:	5f00                	lw	s0,56(a4)
 564:	626c                	ld	a1,192(a2)
 566:	7366                	ld	t1,120(sp)
 568:	7a69                	lui	s4,0xffffa
 56a:	0065                	c.nop	25
 56c:	5f5f 6f6c 6163      	.insn	6, 0x61636f6c5f5f
 572:	656c                	ld	a1,200(a0)
 574:	745f 5f00 626d      	.insn	6, 0x626d5f00745f
 57a:	7472                	ld	s0,312(sp)
 57c:	5f63776f          	jal	a4,37b72 <__heap_size+0x17b72>
 580:	74617473          	csrrci	s0,0x746,2
 584:	0065                	c.nop	25
 586:	775f 7463 6d6f      	.insn	6, 0x6d6f7463775f
 58c:	5f62                	lw	t5,56(sp)
 58e:	74617473          	csrrci	s0,0x746,2
 592:	0065                	c.nop	25
 594:	5f5f 6d74 735f      	.insn	6, 0x735f6d745f5f
 59a:	6365                	lui	t1,0x19
 59c:	5f00                	lw	s0,56(a4)
 59e:	6275                	lui	tp,0x1d
 5a0:	6675                	lui	a2,0x1d
 5a2:	5f00                	lw	s0,56(a4)
 5a4:	6162                	ld	sp,24(sp)
 5a6:	5f006573          	csrrsi	a0,0x5f0,0
 5aa:	745f 5f6d 6f68      	.insn	6, 0x6f685f6d745f
 5b0:	7275                	lui	tp,0xffffd
 5b2:	5f00                	lw	s0,56(a4)
 5b4:	735f 0066 6f5f      	.insn	6, 0x6f5f0066735f
 5ba:	5f6e                	lw	t5,248(sp)
 5bc:	7865                	lui	a6,0xffff9
 5be:	7469                	lui	s0,0xffffa
 5c0:	615f 6772 0073      	.insn	6, 0x00736772615f
 5c6:	635f 6f6f 696b      	.insn	6, 0x696b6f6f635f
 5cc:	0065                	c.nop	25
 5ce:	5f5f 6773 756c      	.insn	6, 0x756c67735f5f
 5d4:	0065                	c.nop	25
 5d6:	665f 616c 7367      	.insn	6, 0x7367616c665f
 5dc:	5f00                	lw	s0,56(a4)
 5de:	7369                	lui	t1,0xffffa
 5e0:	635f 6178 5f00      	.insn	6, 0x5f006178635f
 5e6:	69647473          	csrrci	s0,0x696,8
 5ea:	006e                	c.slli	zero,0x1b
 5ec:	5f5f 6474 7461      	.insn	6, 0x746164745f5f
 5f2:	5f61                	li	t5,-8
 5f4:	657a6973          	csrrsi	s2,hviprio2h,20
 5f8:	5f00                	lw	s0,56(a4)
 5fa:	6c62                	ld	s8,24(sp)
 5fc:	7a69736b          	.insn	4, 0x7a69736b
 600:	0065                	c.nop	25
 602:	635f 7476 7562      	.insn	6, 0x75627476635f
 608:	0066                	c.slli	zero,0x19
 60a:	6d5f 7362 7472      	.insn	6, 0x747273626d5f
 610:	7363776f          	jal	a4,37d46 <__heap_size+0x17d46>
 614:	735f 6174 6574      	.insn	6, 0x65746174735f
 61a:	5f00                	lw	s0,56(a4)
 61c:	626d                	lui	tp,0x1b
 61e:	6c72                	ld	s8,280(sp)
 620:	6e65                	lui	t3,0x19
 622:	735f 6174 6574      	.insn	6, 0x65746174735f
 628:	5f00                	lw	s0,56(a4)
 62a:	6e66                	ld	t3,88(sp)
 62c:	7261                	lui	tp,0xffff8
 62e:	5f007367          	.insn	4, 0x5f007367
 632:	745f 7362 5f73      	.insn	6, 0x5f737362745f
 638:	657a6973          	csrrsi	s2,hviprio2h,20
 63c:	5f00                	lw	s0,56(a4)
 63e:	6e66                	ld	t3,88(sp)
 640:	735f0073          	.insn	4, 0x735f0073
 644:	6769                	lui	a4,0x1a
 646:	006e                	c.slli	zero,0x1b
 648:	665f 6f6c 6b63      	.insn	6, 0x6b636f6c665f
 64e:	745f 5f00 7473      	.insn	6, 0x74735f00745f
 654:	6564                	ld	s1,200(a0)
 656:	7272                	ld	tp,312(sp)
 658:	5f00                	lw	s0,56(a4)
 65a:	6942                	ld	s2,16(sp)
 65c:	746e6967          	.insn	4, 0x746e6967
 660:	5f00                	lw	s0,56(a4)
 662:	6d6d6167          	.insn	4, 0x6d6d6167
 666:	5f61                	li	t5,-8
 668:	6e676973          	csrrsi	s2,0x6e6,14
 66c:	006d6167          	.insn	4, 0x006d6167
 670:	725f 6165 0064      	.insn	6, 0x00646165725f
 676:	725f 7365 6c75      	.insn	6, 0x6c757365725f
 67c:	5f74                	lw	a3,124(a4)
 67e:	5f5f006b          	.insn	4, 0x5f5f006b
 682:	6d74                	ld	a3,216(a0)
 684:	5f00                	lw	s0,56(a4)
 686:	775f 6863 0062      	.insn	6, 0x00626863775f
 68c:	735f 6474 756f      	.insn	6, 0x756f6474735f
 692:	0074                	addi	a3,sp,12
 694:	635f 7476 656c      	.insn	6, 0x656c7476635f
 69a:	006e                	c.slli	zero,0x1b
 69c:	665f 6c69 0065      	.insn	6, 0x00656c69665f
 6a2:	5f5f 6474 7461      	.insn	6, 0x746164745f5f
 6a8:	5f61                	li	t5,-8
 6aa:	72617473          	csrrci	s0,mhpmevent6h,2
 6ae:	0074                	addi	a3,sp,12
 6b0:	6e5f 6f69 7362      	.insn	6, 0x73626f696e5f
 6b6:	5f00                	lw	s0,56(a4)
 6b8:	7461                	lui	s0,0xffff8
 6ba:	7865                	lui	a6,0xffff9
 6bc:	7469                	lui	s0,0xffffa
 6be:	0030                	addi	a2,sp,8
 6c0:	735f 6769 616e      	.insn	6, 0x616e6769735f
 6c6:	5f6c                	lw	a1,124(a4)
 6c8:	7562                	ld	a0,56(sp)
 6ca:	0066                	c.slli	zero,0x19
 6cc:	615f 6373 6974      	.insn	6, 0x69746373615f
 6d2:	656d                	lui	a0,0x1b
 6d4:	625f 6675 5f00      	.insn	6, 0x5f006675625f
 6da:	6572                	ld	a0,280(sp)
 6dc:	746c7573          	csrrci	a0,0x746,24
 6e0:	5f00                	lw	s0,56(a4)
 6e2:	775f 6863 6d00      	.insn	6, 0x6d006863775f
 6e8:	6d65                	lui	s10,0x19
 6ea:	00797063          	bgeu	s2,t2,6ea <__stack_align+0x6da>
 6ee:	746e6977          	.insn	4, 0x746e6977
 6f2:	745f 5f00 6c66      	.insn	6, 0x6c665f00745f
 6f8:	6761                	lui	a4,0x18
 6fa:	5f003273          	csrrc	tp,0x5f0,zero
 6fe:	74697277          	.insn	4, 0x74697277
 702:	0065                	c.nop	25
 704:	5f5f 6d74 795f      	.insn	6, 0x795f6d745f5f
 70a:	6165                	addi	sp,sp,112
 70c:	0072                	c.slli	zero,0x1c
 70e:	6e5f 616d 6c6c      	.insn	6, 0x6c6c616d6e5f
 714:	5f00636f          	jal	t1,6d04 <__stack_size_min+0xd04>
 718:	745f 7362 5f73      	.insn	6, 0x5f737362745f
 71e:	7366666f          	jal	a2,66e54 <__heap_size+0x46e54>
 722:	7465                	lui	s0,0xffff9
 724:	5f00                	lw	s0,56(a4)
 726:	656e                	ld	a0,216(sp)
 728:	7478                	ld	a4,232(s0)
 72a:	0066                	c.slli	zero,0x19
 72c:	5f5f 6d74 6d5f      	.insn	6, 0x6d5f6d745f5f
 732:	5f006e6f          	jal	t3,6d22 <__stack_size_min+0xd22>
 736:	7461                	lui	s0,0xffff8
 738:	7865                	lui	a6,0xffff9
 73a:	7469                	lui	s0,0xffffa
 73c:	5f00                	lw	s0,56(a4)
 73e:	735f 6964 6964      	.insn	6, 0x69646964735f
 744:	696e                	ld	s2,216(sp)
 746:	0074                	addi	a3,sp,12
 748:	665f 6572 6c65      	.insn	6, 0x6c656572665f
 74e:	7369                	lui	t1,0xffffa
 750:	0074                	addi	a3,sp,12
 752:	5f5f 6874 6572      	.insn	6, 0x657268745f5f
 758:	6461                	lui	s0,0x18
 75a:	735f 6c65 0066      	.insn	6, 0x00666c65735f
 760:	4c5f 434f 5f4b      	.insn	6, 0x5f4b434f4c5f
 766:	4552                	lw	a0,20(sp)
 768:	53525543          	fmadd.d	fa0,ft4,fs5,fa0,unknown
 76c:	5649                	li	a2,-14
 76e:	5f45                	li	t5,-15
 770:	0054                	addi	a3,sp,4
 772:	6e5f 7765 5f00      	.insn	6, 0x5f0077656e5f
 778:	5f68                	lw	a0,124(a4)
 77a:	7265                	lui	tp,0xffff9
 77c:	6e72                	ld	t3,280(sp)
 77e:	5f5f006f          	j	f1572 <__heap_size+0xd1572>
 782:	6d74                	ld	a3,216(a0)
 784:	795f 6164 0079      	.insn	6, 0x00796164795f
 78a:	5f5f 6273 6675      	.insn	6, 0x667562735f5f
 790:	5f00                	lw	s0,56(a4)
 792:	6f69                	lui	t5,0x1a
 794:	7362                	ld	t1,56(sp)
 796:	5f00                	lw	s0,56(a4)
 798:	465f 4c49 0045      	.insn	6, 0x00454c49465f
 79e:	6d5f 7362 6174      	.insn	6, 0x617473626d5f
 7a4:	6574                	ld	a3,200(a0)
 7a6:	745f 5f00 735f      	.insn	6, 0x735f5f00745f
 7ac:	4946                	lw	s2,80(sp)
 7ae:	454c                	lw	a1,12(a0)
 7b0:	5f00                	lw	s0,56(a4)
 7b2:	626d                	lui	tp,0x1b
 7b4:	74617473          	csrrci	s0,0x746,2
 7b8:	0065                	c.nop	25
 7ba:	725f 6e61 5f64      	.insn	6, 0x5f646e61725f
 7c0:	656e                	ld	a0,216(sp)
 7c2:	7478                	ld	a4,232(s0)
 7c4:	5f00                	lw	s0,56(a4)
 7c6:	626d                	lui	tp,0x1b
 7c8:	656c                	ld	a1,200(a0)
 7ca:	5f6e                	lw	t5,248(sp)
 7cc:	74617473          	csrrci	s0,0x746,2
 7d0:	0065                	c.nop	25
 7d2:	695f 636e 5f00      	.insn	6, 0x5f00636e695f
 7d8:	6e69                	lui	t3,0x1a
 7da:	0064                	addi	s1,sp,12
 7dc:	6c5f 636f 6c61      	.insn	6, 0x6c61636f6c5f
 7e2:	0065                	c.nop	25
 7e4:	5f5f 6c63 6165      	.insn	6, 0x61656c635f5f
 7ea:	756e                	ld	a0,248(sp)
 7ec:	0070                	addi	a2,sp,12
 7ee:	755f 736e 6570      	.insn	6, 0x6570736e755f
 7f4:	69666963          	bltu	a2,s6,e86 <__stack_align+0xe76>
 7f8:	6465                	lui	s0,0x19
 7fa:	6c5f 636f 6c61      	.insn	6, 0x6c61636f6c5f
 800:	5f65                	li	t5,-7
 802:	6e69                	lui	t3,0x1a
 804:	6f66                	ld	t5,88(sp)
 806:	5f00                	lw	s0,56(a4)
 808:	616d                	addi	sp,sp,240
 80a:	7778                	ld	a4,232(a4)
 80c:	7364                	ld	s1,224(a4)
 80e:	5f00                	lw	s0,56(a4)
 810:	6572                	ld	a0,280(sp)
 812:	6e65                	lui	t3,0x19
 814:	0074                	addi	a3,sp,12
 816:	735f 6565 0064      	.insn	6, 0x00646565735f
 81c:	5f5f 6f63 6e75      	.insn	6, 0x6e756f635f5f
 822:	0074                	addi	a3,sp,12
 824:	5f5f 6176 756c      	.insn	6, 0x756c61765f5f
 82a:	0065                	c.nop	25
 82c:	735f 6565 006b      	.insn	6, 0x006b6565735f
 832:	665f 6f70 5f73      	.insn	6, 0x5f736f70665f
 838:	0074                	addi	a3,sp,12
 83a:	5f5f 6d74 6d5f      	.insn	6, 0x6d5f6d745f5f
 840:	6e69                	lui	t3,0x1a
 842:	5f00                	lw	s0,56(a4)
 844:	756d                	lui	a0,0xffffb
 846:	746c                	ld	a1,232(s0)
 848:	2e00                	fld	fs0,24(a2)
 84a:	2f2e                	fld	ft10,200(sp)
 84c:	696d                	lui	s2,0x1b
 84e:	742f6373          	csrrsi	t1,0x742,30
 852:	736c                	ld	a1,224(a4)
 854:	632e                	ld	t1,200(sp)
 856:	5f00                	lw	s0,56(a4)
 858:	74727473          	csrrci	s0,0x747,4
 85c:	6c5f6b6f          	jal	s6,f7720 <__heap_size+0xd7720>
 860:	7361                	lui	t1,0xffff8
 862:	0074                	addi	a3,sp,12
 864:	665f 746e 7079      	.insn	6, 0x7079746e665f
 86a:	7365                	lui	t1,0xffff9
 86c:	5f00                	lw	s0,56(a4)
 86e:	6461                	lui	s0,0x18
 870:	0064                	addi	s1,sp,12
 872:	5f5f 4c55 6e6f      	.insn	6, 0x6e6f4c555f5f
 878:	675f0067          	jr	1653(t5) # 1a675 <__stack_size+0x12675>
 87c:	7465                	lui	s0,0xffff9
 87e:	6164                	ld	s1,192(a0)
 880:	6574                	ld	a3,200(a0)
 882:	655f 7272 5f00      	.insn	6, 0x5f007272655f
 888:	626f6c67          	.insn	4, 0x626f6c67
 88c:	6c61                	lui	s8,0x18
 88e:	695f 706d 7275      	.insn	6, 0x7275706d695f
 894:	5f65                	li	t5,-7
 896:	7470                	ld	a2,232(s0)
 898:	0072                	c.slli	zero,0x1c
 89a:	656d                	lui	a0,0x1b
 89c:	736d                	lui	t1,0xffffb
 89e:	7465                	lui	s0,0xffff9
 8a0:	5f00                	lw	s0,56(a4)
 8a2:	6e75                	lui	t3,0x1d
 8a4:	7375                	lui	t1,0xffffd
 8a6:	6465                	lui	s0,0x19
 8a8:	725f 6e61 0064      	.insn	6, 0x00646e61725f
 8ae:	775f 7364 5f00      	.insn	6, 0x5f007364775f
 8b4:	745f 5f6d 6477      	.insn	6, 0x64775f6d745f
 8ba:	7961                	lui	s2,0xffff8
 8bc:	5f00                	lw	s0,56(a4)
 8be:	65756c67          	.insn	4, 0x65756c67
 8c2:	5f00                	lw	s0,56(a4)
 8c4:	7a697373          	csrrci	t1,0x7a6,18
 8c8:	5f65                	li	t5,-7
 8ca:	0074                	addi	a3,sp,12
 8cc:	6c5f 3436 5f61      	.insn	6, 0x5f6134366c5f
 8d2:	7562                	ld	a0,56(sp)
 8d4:	0066                	c.slli	zero,0x19
 8d6:	5f5f 6e69 7469      	.insn	6, 0x74696e695f5f
 8dc:	745f 736c 5f00      	.insn	6, 0x5f00736c745f
 8e2:	5f676973          	csrrsi	s2,0x5f6,14
 8e6:	7566                	ld	a0,120(sp)
 8e8:	636e                	ld	t1,216(sp)
 8ea:	5f00                	lw	s0,56(a4)
 8ec:	626e                	ld	tp,216(sp)
 8ee:	6675                	lui	a2,0x1d
 8f0:	5f00                	lw	s0,56(a4)
 8f2:	6e75                	lui	t3,0x1d
 8f4:	7375                	lui	t1,0xffffd
 8f6:	6465                	lui	s0,0x19
 8f8:	5f00                	lw	s0,56(a4)
 8fa:	745f 5f6d 7369      	.insn	6, 0x73695f6d745f
 900:	7364                	ld	s1,224(a4)
 902:	0074                	addi	a3,sp,12
 904:	6c5f 636f 6c61      	.insn	6, 0x6c61636f6c5f
 90a:	6974                	ld	a3,208(a0)
 90c:	656d                	lui	a0,0x1b
 90e:	625f 6675 5f00      	.insn	6, 0x5f006675625f
 914:	736f6c63          	bltu	t5,s6,104c <__stack_align+0x103c>
 918:	0065                	c.nop	25
 91a:	725f 3834 5f00      	.insn	6, 0x5f003834725f
 920:	626d                	lui	tp,0x1b
 922:	6f74                	ld	a3,216(a4)
 924:	735f6377          	.insn	4, 0x735f6377
 928:	6174                	ld	a3,192(a0)
 92a:	6574                	ld	a3,200(a0)
 92c:	5f00                	lw	s0,56(a4)
 92e:	3570                	fld	fa2,232(a0)
 930:	5f5f0073          	.insn	4, 0x5f5f0073
 934:	6d74                	ld	a3,216(a0)
 936:	6d5f 6164 0079      	.insn	6, 0x007961646d5f
 93c:	5f5f 616d 6e69      	.insn	6, 0x6e69616d5f5f
 942:	2e00                	fld	fs0,24(a2)
 944:	2f2e                	fld	ft10,200(sp)
 946:	696d                	lui	s2,0x1b
 948:	6d2f6373          	csrrsi	t1,0x6d2,30
 94c:	6961                	lui	s2,0x18
 94e:	2e6e                	fld	ft8,216(sp)
 950:	2e2e0063          	beq	t3,sp,c30 <__stack_align+0xc20>
 954:	7379732f          	.insn	4, 0x7379732f
 958:	6978652f          	.insn	4, 0x6978652f
 95c:	2e74                	fld	fa3,216(a2)
 95e:	70730063          	beq	t1,t2,105e <__stack_align+0x104e>
 962:	6e69                	lui	t3,0x1a
 964:	6f6c                	ld	a1,216(a4)
 966:	745f6b63          	bltu	t5,t0,10bc <__stack_align+0x10ac>
 96a:	2e00                	fld	fs0,24(a2)
 96c:	2f2e                	fld	ft10,200(sp)
 96e:	696d                	lui	s2,0x1b
 970:	682f6373          	csrrsi	t1,0x682,30
 974:	6974                	ld	a3,208(a0)
 976:	2e66                	fld	ft8,88(sp)
 978:	74680063          	beq	a6,t1,10b8 <__stack_align+0x10a8>
 97c:	6669                	lui	a2,0x1a
 97e:	6c5f 636f 006b      	.insn	6, 0x006b636f6c5f
 984:	7468                	ld	a0,232(s0)
 986:	6669                	lui	a2,0x1a
 988:	735f 7379 6163      	.insn	6, 0x61637379735f
 98e:	6c6c                	ld	a1,216(s0)
 990:	6100                	ld	s0,0(a0)
 992:	6f74                	ld	a3,216(a4)
 994:	696d                	lui	s2,0x1b
 996:	77735f63          	bge	t1,s7,1114 <__stack_align+0x1104>
 99a:	7061                	c.lui	zero,0xffff8
 99c:	615f 7163 6975      	.insn	6, 0x69757163615f
 9a2:	6572                	ld	a0,280(sp)
 9a4:	6100                	ld	s0,0(a0)
 9a6:	6f74                	ld	a3,216(a4)
 9a8:	696d                	lui	s2,0x1b
 9aa:	00745f63          	bge	s0,t2,9c8 <__stack_align+0x9b8>
 9ae:	7461                	lui	s0,0xffff8
 9b0:	63696d6f          	jal	s10,96fe6 <__heap_size+0x76fe6>
 9b4:	6c5f 616f 0064      	.insn	6, 0x0064616f6c5f
 9ba:	6e697073          	csrci	0x6e6,18
 9be:	6c5f 636f 006b      	.insn	6, 0x006b636f6c5f
 9c4:	6e697073          	csrci	0x6e6,18
 9c8:	755f 6c6e 636f      	.insn	6, 0x636f6c6e755f
 9ce:	7461006b          	.insn	4, 0x7461006b
 9d2:	63696d6f          	jal	s10,97008 <__heap_size+0x77008>
 9d6:	635f 656c 7261      	.insn	6, 0x7261656c635f
 9dc:	725f 6c65 6165      	.insn	6, 0x61656c65725f
 9e2:	5f006573          	csrrsi	a0,0x5f0,0
 9e6:	655f 7272 6f6e      	.insn	6, 0x6f6e7272655f
 9ec:	5f00                	lw	s0,56(a4)
 9ee:	5f737973          	csrrci	s2,0x5f7,6
 9f2:	7265                	lui	tp,0xffff9
 9f4:	6c72                	ld	s8,280(sp)
 9f6:	7369                	lui	t1,0xffffa
 9f8:	0074                	addi	a3,sp,12
 9fa:	2e2e                	fld	ft8,200(sp)
 9fc:	7379732f          	.insn	4, 0x7379732f
 a00:	6f6c632f          	.insn	4, 0x6f6c632f
 a04:	632e6573          	csrrsi	a0,0x632,28
 a08:	5f00                	lw	s0,56(a4)
 a0a:	5f737973          	csrrci	s2,0x5f7,6
 a0e:	656e                	ld	a0,216(sp)
 a10:	7272                	ld	tp,312(sp)
 a12:	5f00                	lw	s0,56(a4)
 a14:	6f5f 6666 745f      	.insn	6, 0x745f66666f5f
 a1a:	5f00                	lw	s0,56(a4)
 a1c:	736c                	ld	a1,224(a4)
 a1e:	6565                	lui	a0,0x19
 a20:	2e2e006b          	.insn	4, 0x2e2e006b
 a24:	7379732f          	.insn	4, 0x7379732f
 a28:	65736c2f          	.insn	4, 0x65736c2f
 a2c:	6b65                	lui	s6,0x19
 a2e:	632e                	ld	t1,200(sp)
 a30:	2e00                	fld	fs0,24(a2)
 a32:	2f2e                	fld	ft10,200(sp)
 a34:	2f737973          	csrrci	s2,0x2f7,6
 a38:	6572                	ld	a0,280(sp)
 a3a:	6461                	lui	s0,0x18
 a3c:	632e                	ld	t1,200(sp)
 a3e:	6300                	ld	s0,0(a4)
 a40:	7275                	lui	tp,0xffffd
 a42:	7262                	ld	tp,56(sp)
 a44:	5f5f006b          	.insn	4, 0x5f5f006b
 a48:	6568                	ld	a0,200(a0)
 a4a:	7061                	c.lui	zero,0xffff8
 a4c:	655f 646e 6900      	.insn	6, 0x6900646e655f
 a52:	636e                	ld	t1,216(sp)
 a54:	0072                	c.slli	zero,0x1c
 a56:	2e2e                	fld	ft8,200(sp)
 a58:	7379732f          	.insn	4, 0x7379732f
 a5c:	7262732f          	.insn	4, 0x7262732f
 a60:	00632e6b          	.insn	4, 0x00632e6b
 a64:	7470                	ld	a2,232(s0)
 a66:	6472                	ld	s0,280(sp)
 a68:	6669                	lui	a2,0x1a
 a6a:	5f66                	lw	t5,120(sp)
 a6c:	0074                	addi	a3,sp,12
 a6e:	62646c6f          	jal	s8,47094 <__heap_size+0x27094>
 a72:	6b72                	ld	s6,280(sp)
 a74:	6e00                	ld	s0,24(a2)
 a76:	7765                	lui	a4,0xffff9
 a78:	7262                	ld	tp,56(sp)
 a7a:	735f006b          	.insn	4, 0x735f006b
 a7e:	7262                	ld	tp,56(sp)
 a80:	2e2e006b          	.insn	4, 0x2e2e006b
 a84:	7379732f          	.insn	4, 0x7379732f
 a88:	6972772f          	.insn	4, 0x6972772f
 a8c:	6574                	ld	a3,200(a0)
 a8e:	632e                	ld	t1,200(sp)
 a90:	6500                	ld	s0,8(a0)
 a92:	766e                	ld	a2,248(sp)
 a94:	7269                	lui	tp,0xffffa
 a96:	6f006e6f          	jal	t3,7186 <__stack_size_min+0x1186>
 a9a:	7470                	ld	a2,232(s0)
 a9c:	6572                	ld	a0,280(sp)
 a9e:	00746573          	csrrsi	a0,0x7,8
 aa2:	6174706f          	j	488b8 <__heap_size+0x288b8>
 aa6:	6772                	ld	a4,280(sp)
 aa8:	6f00                	ld	s0,24(a4)
 aaa:	7470                	ld	a2,232(s0)
 aac:	6e69                	lui	t3,0x1a
 aae:	0064                	addi	s1,sp,12
 ab0:	6574706f          	j	48906 <__heap_size+0x28906>
 ab4:	7272                	ld	tp,312(sp)
 ab6:	6f00                	ld	s0,24(a4)
 ab8:	7470                	ld	a2,232(s0)
 aba:	0074706f          	j	482c0 <__heap_size+0x282c0>

Disassembly of section .debug_line_str:

0000000000000000 <.debug_line_str>:
   0:	68706963          	bltu	zero,t2,692 <__stack_align+0x682>
   4:	7265                	lui	tp,0xffff9
   6:	632e                	ld	t1,200(sp)
   8:	2f00                	fld	fs0,24(a4)
   a:	6f68                	ld	a0,216(a4)
   c:	656d                	lui	a0,0x1b
   e:	6868742f          	.insn	4, 0x6868742f
  12:	6968632f          	.insn	4, 0x6968632f
  16:	7970                	ld	a2,240(a0)
  18:	7261                	lui	tp,0xffff8
  1a:	2f64                	fld	fs1,216(a4)
  1c:	6564                	ld	s1,200(a0)
  1e:	6f6d                	lui	t5,0x1b
  20:	6972                	ld	s2,280(sp)
  22:	2f766373          	csrrsi	t1,0x2f7,12
  26:	74666f73          	csrrsi	t5,0x746,12
  2a:	65726177          	.insn	4, 0x65726177
  2e:	7069432f          	.insn	4, 0x7069432f
  32:	6568                	ld	a0,200(a0)
  34:	0072                	c.slli	zero,0x1c
  36:	6d6f682f          	.insn	4, 0x6d6f682f
  3a:	2f65                	addiw	t5,t5,25 # 1b019 <__stack_size+0x13019>
  3c:	6874                	ld	a3,208(s0)
  3e:	2f68                	fld	fa0,216(a4)
  40:	70696863          	bltu	s2,t1,750 <__stack_align+0x740>
  44:	6179                	addi	sp,sp,464
  46:	6472                	ld	s0,280(sp)
  48:	6d65642f          	.insn	4, 0x6d65642f
  4c:	7369726f          	jal	tp,97782 <__heap_size+0x77782>
  50:	732f7663          	bgeu	t5,s2,77c <__stack_align+0x76c>
  54:	7774666f          	jal	a2,46fca <__heap_size+0x26fca>
  58:	7261                	lui	tp,0xffff8
  5a:	2f65                	addiw	t5,t5,25
  5c:	68706943          	fmadd.s	fs2,ft0,ft7,fa3,unknown
  60:	7265                	lui	tp,0xffff9
  62:	6e692f2f          	.insn	4, 0x6e692f2f
  66:	64756c63          	bltu	a0,t2,6be <__stack_align+0x6ae>
  6a:	0065                	c.nop	25
  6c:	6d6f682f          	.insn	4, 0x6d6f682f
  70:	2f65                	addiw	t5,t5,25
  72:	6874                	ld	a3,208(s0)
  74:	2f68                	fld	fa0,216(a4)
  76:	70696863          	bltu	s2,t1,786 <__stack_align+0x776>
  7a:	6179                	addi	sp,sp,464
  7c:	6472                	ld	s0,280(sp)
  7e:	6d65642f          	.insn	4, 0x6d65642f
  82:	7369726f          	jal	tp,977b8 <__heap_size+0x777b8>
  86:	732f7663          	bgeu	t5,s2,7b2 <__stack_align+0x7a2>
  8a:	7774666f          	jal	a2,47000 <__heap_size+0x27000>
  8e:	7261                	lui	tp,0xffff8
  90:	2f65                	addiw	t5,t5,25
  92:	68706943          	fmadd.s	fs2,ft0,ft7,fa3,unknown
  96:	7265                	lui	tp,0xffff9
  98:	6e692f2f          	.insn	4, 0x6e692f2f
  9c:	64756c63          	bltu	a0,t2,6f4 <__stack_align+0x6e4>
  a0:	2f65                	addiw	t5,t5,25
  a2:	68706963          	bltu	zero,t2,734 <__stack_align+0x724>
  a6:	7265                	lui	tp,0xffff9
  a8:	2f00                	fld	fs0,24(a4)
  aa:	6f68                	ld	a0,216(a4)
  ac:	656d                	lui	a0,0x1b
  ae:	6868742f          	.insn	4, 0x6868742f
  b2:	6968632f          	.insn	4, 0x6968632f
  b6:	7970                	ld	a2,240(a0)
  b8:	7261                	lui	tp,0xffff8
  ba:	2f64                	fld	fs1,216(a4)
  bc:	632e                	ld	t1,200(sp)
  be:	61646e6f          	jal	t3,466d4 <__heap_size+0x266d4>
  c2:	652d                	lui	a0,0xb
  c4:	766e                	ld	a2,248(sp)
  c6:	7369722f          	.insn	4, 0x7369722f
  ca:	742d7663          	bgeu	s10,sp,816 <__stack_align+0x806>
  ce:	736c6f6f          	jal	t5,c6804 <__heap_size+0xa6804>
  d2:	7369722f          	.insn	4, 0x7369722f
  d6:	34367663          	bgeu	a2,gp,422 <__stack_align+0x412>
  da:	752d                	lui	a0,0xfffeb
  dc:	6b6e                	ld	s6,216(sp)
  de:	6f6e                	ld	t5,216(sp)
  e0:	652d6e77          	.insn	4, 0x652d6e77
  e4:	666c                	ld	a1,200(a2)
  e6:	636e692f          	.insn	4, 0x636e692f
  ea:	756c                	ld	a1,232(a0)
  ec:	6564                	ld	s1,200(a0)
  ee:	63616d2f          	.insn	4, 0x63616d2f
  f2:	6968                	ld	a0,208(a0)
  f4:	656e                	ld	a0,216(sp)
  f6:	2f00                	fld	fs0,24(a4)
  f8:	6f68                	ld	a0,216(a4)
  fa:	656d                	lui	a0,0x1b
  fc:	6868742f          	.insn	4, 0x6868742f
 100:	6968632f          	.insn	4, 0x6968632f
 104:	7970                	ld	a2,240(a0)
 106:	7261                	lui	tp,0xffff8
 108:	2f64                	fld	fs1,216(a4)
 10a:	632e                	ld	t1,200(sp)
 10c:	61646e6f          	jal	t3,46722 <__heap_size+0x26722>
 110:	652d                	lui	a0,0xb
 112:	766e                	ld	a2,248(sp)
 114:	7369722f          	.insn	4, 0x7369722f
 118:	742d7663          	bgeu	s10,sp,864 <__stack_align+0x854>
 11c:	736c6f6f          	jal	t5,c6852 <__heap_size+0xa6852>
 120:	7369722f          	.insn	4, 0x7369722f
 124:	34367663          	bgeu	a2,gp,470 <__stack_align+0x460>
 128:	752d                	lui	a0,0xfffeb
 12a:	6b6e                	ld	s6,216(sp)
 12c:	6f6e                	ld	t5,216(sp)
 12e:	652d6e77          	.insn	4, 0x652d6e77
 132:	666c                	ld	a1,200(a2)
 134:	636e692f          	.insn	4, 0x636e692f
 138:	756c                	ld	a1,232(a0)
 13a:	6564                	ld	s1,200(a0)
 13c:	7379732f          	.insn	4, 0x7379732f
 140:	6d00                	ld	s0,24(a0)
 142:	696d                	lui	s2,0x1b
 144:	00682e6f          	jal	t3,8214a <__heap_size+0x6214a>
 148:	6361                	lui	t1,0x18
 14a:	5f6c6563          	bltu	s8,s6,734 <__stack_align+0x724>
 14e:	63616863          	bltu	sp,s6,77e <__stack_align+0x76e>
 152:	6168                	ld	a0,192(a0)
 154:	682e                	ld	a6,200(sp)
 156:	6100                	ld	s0,0(a0)
 158:	6c656363          	bltu	a0,t1,81e <__stack_align+0x80e>
 15c:	6b5f 656c 6e69      	.insn	6, 0x6e69656c6b5f
 162:	682e                	ld	a6,200(sp)
 164:	6100                	ld	s0,0(a0)
 166:	6c656363          	bltu	a0,t1,82c <__stack_align+0x81c>
 16a:	735f 6168 2e33      	.insn	6, 0x2e336168735f
 170:	0068                	addi	a0,sp,12
 172:	645f 6665 7561      	.insn	6, 0x75616665645f
 178:	746c                	ld	a1,232(s0)
 17a:	745f 7079 7365      	.insn	6, 0x73657079745f
 180:	682e                	ld	a6,200(sp)
 182:	5f00                	lw	s0,56(a4)
 184:	69647473          	csrrci	s0,0x696,8
 188:	746e                	ld	s0,248(sp)
 18a:	682e                	ld	a6,200(sp)
 18c:	6b00                	ld	s0,16(a4)
 18e:	7270                	ld	a2,224(a2)
 190:	6e69                	lui	t3,0x1a
 192:	6674                	ld	a3,200(a2)
 194:	682e                	ld	a6,200(sp)
 196:	6b00                	ld	s0,16(a4)
 198:	7270                	ld	a2,224(a2)
 19a:	6e69                	lui	t3,0x1a
 19c:	6674                	ld	a3,200(a2)
 19e:	632e                	ld	t1,200(sp)
 1a0:	2f00                	fld	fs0,24(a4)
 1a2:	6f68                	ld	a0,216(a4)
 1a4:	656d                	lui	a0,0x1b
 1a6:	6868742f          	.insn	4, 0x6868742f
 1aa:	6968632f          	.insn	4, 0x6968632f
 1ae:	7970                	ld	a2,240(a0)
 1b0:	7261                	lui	tp,0xffff8
 1b2:	2f64                	fld	fs1,216(a4)
 1b4:	632e                	ld	t1,200(sp)
 1b6:	61646e6f          	jal	t3,467cc <__heap_size+0x267cc>
 1ba:	652d                	lui	a0,0xb
 1bc:	766e                	ld	a2,248(sp)
 1be:	7369722f          	.insn	4, 0x7369722f
 1c2:	742d7663          	bgeu	s10,sp,90e <__stack_align+0x8fe>
 1c6:	736c6f6f          	jal	t5,c68fc <__heap_size+0xa68fc>
 1ca:	62696c2f          	.insn	4, 0x62696c2f
 1ce:	6363672f          	.insn	4, 0x6363672f
 1d2:	7369722f          	.insn	4, 0x7369722f
 1d6:	34367663          	bgeu	a2,gp,522 <__stack_align+0x512>
 1da:	752d                	lui	a0,0xfffeb
 1dc:	6b6e                	ld	s6,216(sp)
 1de:	6f6e                	ld	t5,216(sp)
 1e0:	652d6e77          	.insn	4, 0x652d6e77
 1e4:	666c                	ld	a1,200(a2)
 1e6:	2e33312f          	.insn	4, 0x2e33312f
 1ea:	2e32                	fld	ft8,264(sp)
 1ec:	2f30                	fld	fa2,88(a4)
 1ee:	6e69                	lui	t3,0x1a
 1f0:	64756c63          	bltu	a0,t2,848 <__stack_align+0x838>
 1f4:	0065                	c.nop	25
 1f6:	61647473          	csrrci	s0,0x616,8
 1fa:	6772                	ld	a4,280(sp)
 1fc:	682e                	ld	a6,200(sp)
	...

Disassembly of section .comment:

0000000000000000 <.comment>:
   0:	3a434347          	fmsub.d	ft6,ft6,ft4,ft7,rmm
   4:	2820                	fld	fs0,80(s0)
   6:	39386367          	.insn	4, 0x39386367
   a:	6431                	lui	s0,0xc
   c:	6438                	ld	a4,72(s0)
   e:	65333263          	.insn	4, 0x65333263
  12:	2029                	.insn	2, 0x2029
  14:	3331                	addiw	t1,t1,-20 # 17fec <__stack_size+0xffec>
  16:	322e                	fld	ft4,232(sp)
  18:	302e                	fld	ft0,232(sp)
  1a:	4700                	lw	s0,8(a4)
  1c:	203a4343          	fmadd.s	ft6,fs4,ft3,ft4,rmm
  20:	4728                	lw	a0,72(a4)
  22:	554e                	lw	a0,240(sp)
  24:	2029                	.insn	2, 0x2029
  26:	2e38                	fld	fa4,88(a2)
  28:	2e32                	fld	ft8,264(sp)
  2a:	0030                	addi	a2,sp,8
  2c:	3a434347          	fmsub.d	ft6,ft6,ft4,ft7,rmm
  30:	2820                	fld	fs0,80(s0)
  32:	29554e47          	fmsub.s	ft8,fa0,fs5,ft5,rmm
  36:	3120                	fld	fs0,96(a0)
  38:	2e322e33          	.insn	4, 0x2e322e33
  3c:	0030                	addi	a2,sp,8

Disassembly of section .riscv.attributes:

0000000000000000 <.riscv.attributes>:
   0:	5641                	li	a2,-16
   2:	0000                	unimp
   4:	7200                	ld	s0,32(a2)
   6:	7369                	lui	t1,0xffffa
   8:	01007663          	bgeu	zero,a6,14 <__stack_align+0x4>
   c:	004c                	addi	a1,sp,4
   e:	0000                	unimp
  10:	1004                	addi	s1,sp,32
  12:	7205                	lui	tp,0xfffe1
  14:	3676                	fld	fa2,376(sp)
  16:	6934                	ld	a3,80(a0)
  18:	7032                	.insn	2, 0x7032
  1a:	5f31                	li	t5,-20
  1c:	326d                	addiw	tp,tp,-5 # fffffffffffe0ffb <__heap_end+0xffffffff7ffbdffb>
  1e:	3070                	fld	fa2,224(s0)
  20:	615f 7032 5f31      	.insn	6, 0x5f317032615f
  26:	3266                	fld	ft4,120(sp)
  28:	3270                	fld	fa2,224(a2)
  2a:	645f 7032 5f32      	.insn	6, 0x5f327032645f
  30:	30703263          	.insn	4, 0x30703263
  34:	7a5f 6369 7273      	.insn	6, 0x727363697a5f
  3a:	7032                	.insn	2, 0x7032
  3c:	5f30                	lw	a2,120(a4)
  3e:	697a                	ld	s2,408(sp)
  40:	6566                	ld	a0,88(sp)
  42:	636e                	ld	t1,216(sp)
  44:	6965                	lui	s2,0x19
  46:	7032                	.insn	2, 0x7032
  48:	5f30                	lw	a2,120(a4)
  4a:	6d7a                	ld	s10,408(sp)
  4c:	756d                	lui	a0,0xffffb
  4e:	316c                	fld	fa1,224(a0)
  50:	3070                	fld	fa2,224(s0)
  52:	0800                	addi	s0,sp,16
  54:	0a01                	addi	s4,s4,0 # ffffffffffffa000 <__heap_end+0xffffffff7ffd7000>
  56:	Address 0x56 is out of bounds.


Disassembly of section .debug_frame:

0000000000000000 <.debug_frame>:
   0:	000c                	.insn	2, 0x000c
   2:	0000                	unimp
   4:	ffff                	.insn	2, 0xffff
   6:	ffff                	.insn	2, 0xffff
   8:	7c010003          	lb	zero,1984(sp)
   c:	0d01                	addi	s10,s10,0 # 19000 <__stack_size+0x11000>
   e:	0002                	c.slli64	zero
  10:	002c                	addi	a1,sp,8
  12:	0000                	unimp
  14:	0000                	unimp
  16:	0000                	unimp
  18:	023e                	slli	tp,tp,0xf
  1a:	8000                	.insn	2, 0x8000
  1c:	0000                	unimp
  1e:	0000                	unimp
  20:	002a                	c.slli	zero,0xa
  22:	0000                	unimp
  24:	0000                	unimp
  26:	0000                	unimp
  28:	0e42                	slli	t3,t3,0x10
  2a:	4230                	lw	a2,64(a2)
  2c:	0288                	addi	a0,sp,320
  2e:	0c42                	slli	s8,s8,0x10
  30:	0008                	.insn	2, 0x0008
  32:	c860                	sw	s0,84(s0)
  34:	020c                	addi	a1,sp,256
  36:	4230                	lw	a2,64(a2)
  38:	000e                	c.slli	zero,0x3
  3a:	0000                	unimp
  3c:	0000                	unimp
  3e:	0000                	unimp
  40:	002c                	addi	a1,sp,8
  42:	0000                	unimp
  44:	0000                	unimp
  46:	0000                	unimp
  48:	0268                	addi	a0,sp,268
  4a:	8000                	.insn	2, 0x8000
  4c:	0000                	unimp
  4e:	0000                	unimp
  50:	0022                	c.slli	zero,0x8
  52:	0000                	unimp
  54:	0000                	unimp
  56:	0000                	unimp
  58:	0e42                	slli	t3,t3,0x10
  5a:	4230                	lw	a2,64(a2)
  5c:	0288                	addi	a0,sp,320
  5e:	0c42                	slli	s8,s8,0x10
  60:	0008                	.insn	2, 0x0008
  62:	c858                	sw	a4,20(s0)
  64:	020c                	addi	a1,sp,256
  66:	4230                	lw	a2,64(a2)
  68:	000e                	c.slli	zero,0x3
  6a:	0000                	unimp
  6c:	0000                	unimp
  6e:	0000                	unimp
  70:	002c                	addi	a1,sp,8
  72:	0000                	unimp
  74:	0000                	unimp
  76:	0000                	unimp
  78:	028a                	slli	t0,t0,0x2
  7a:	8000                	.insn	2, 0x8000
  7c:	0000                	unimp
  7e:	0000                	unimp
  80:	0026                	c.slli	zero,0x9
  82:	0000                	unimp
  84:	0000                	unimp
  86:	0000                	unimp
  88:	0e42                	slli	t3,t3,0x10
  8a:	4410                	lw	a2,8(s0)
  8c:	0281                	addi	t0,t0,0 # 1194eac <__heap_size+0x1174eac>
  8e:	0488                	addi	a0,sp,576
  90:	0c42                	slli	s8,s8,0x10
  92:	0008                	.insn	2, 0x0008
  94:	c158                	sw	a4,4(a0)
  96:	c842                	sw	a6,16(sp)
  98:	020c                	addi	a1,sp,256
  9a:	4210                	lw	a2,0(a2)
  9c:	000e                	c.slli	zero,0x3
  9e:	0000                	unimp
  a0:	002c                	addi	a1,sp,8
  a2:	0000                	unimp
  a4:	0000                	unimp
  a6:	0000                	unimp
  a8:	02b0                	addi	a2,sp,328
  aa:	8000                	.insn	2, 0x8000
  ac:	0000                	unimp
  ae:	0000                	unimp
  b0:	0058                	addi	a4,sp,4
  b2:	0000                	unimp
  b4:	0000                	unimp
  b6:	0000                	unimp
  b8:	0e42                	slli	t3,t3,0x10
  ba:	4420                	lw	s0,72(s0)
  bc:	0281                	addi	t0,t0,0
  be:	0488                	addi	a0,sp,576
  c0:	0c42                	slli	s8,s8,0x10
  c2:	0008                	.insn	2, 0x0008
  c4:	4a02                	lw	s4,0(sp)
  c6:	42c1                	li	t0,16
  c8:	0cc8                	addi	a0,sp,596
  ca:	2002                	fld	ft0,0(sp)
  cc:	0e42                	slli	t3,t3,0x10
  ce:	0000                	unimp
  d0:	002c                	addi	a1,sp,8
  d2:	0000                	unimp
  d4:	0000                	unimp
  d6:	0000                	unimp
  d8:	0308                	addi	a0,sp,384
  da:	8000                	.insn	2, 0x8000
  dc:	0000                	unimp
  de:	0000                	unimp
  e0:	0062                	c.slli	zero,0x18
  e2:	0000                	unimp
  e4:	0000                	unimp
  e6:	0000                	unimp
  e8:	0e42                	slli	t3,t3,0x10
  ea:	4430                	lw	a2,72(s0)
  ec:	0281                	addi	t0,t0,0
  ee:	0488                	addi	a0,sp,576
  f0:	0c42                	slli	s8,s8,0x10
  f2:	0008                	.insn	2, 0x0008
  f4:	5402                	lw	s0,32(sp)
  f6:	42c1                	li	t0,16
  f8:	0cc8                	addi	a0,sp,596
  fa:	3002                	fld	ft0,32(sp)
  fc:	0e42                	slli	t3,t3,0x10
  fe:	0000                	unimp
 100:	0034                	addi	a3,sp,8
 102:	0000                	unimp
 104:	0000                	unimp
 106:	0000                	unimp
 108:	036a                	slli	t1,t1,0x1a
 10a:	8000                	.insn	2, 0x8000
 10c:	0000                	unimp
 10e:	0000                	unimp
 110:	014c                	addi	a1,sp,132
 112:	0000                	unimp
 114:	0000                	unimp
 116:	0000                	unimp
 118:	0e42                	slli	t3,t3,0x10
 11a:	4660                	lw	s0,76(a2)
 11c:	0281                	addi	t0,t0,0
 11e:	0488                	addi	a0,sp,576
 120:	0689                	addi	a3,a3,2
 122:	0c42                	slli	s8,s8,0x10
 124:	0008                	.insn	2, 0x0008
 126:	c1013a03          	ld	s4,-1008(sp)
 12a:	c842                	sw	a6,16(sp)
 12c:	020c                	addi	a1,sp,256
 12e:	4260                	lw	s0,68(a2)
 130:	42c9                	li	t0,18
 132:	000e                	c.slli	zero,0x3
 134:	0000                	unimp
 136:	0000                	unimp
 138:	0034                	addi	a3,sp,8
 13a:	0000                	unimp
 13c:	0000                	unimp
 13e:	0000                	unimp
 140:	04b6                	slli	s1,s1,0xd
 142:	8000                	.insn	2, 0x8000
 144:	0000                	unimp
 146:	0000                	unimp
 148:	0078                	addi	a4,sp,12
 14a:	0000                	unimp
 14c:	0000                	unimp
 14e:	0000                	unimp
 150:	0e42                	slli	t3,t3,0x10
 152:	4640                	lw	s0,12(a2)
 154:	0281                	addi	t0,t0,0
 156:	0488                	addi	a0,sp,576
 158:	0689                	addi	a3,a3,2
 15a:	0c42                	slli	s8,s8,0x10
 15c:	0008                	.insn	2, 0x0008
 15e:	6602                	ld	a2,0(sp)
 160:	42c1                	li	t0,16
 162:	0cc8                	addi	a0,sp,596
 164:	4002                	.insn	2, 0x4002
 166:	c942                	sw	a6,144(sp)
 168:	0e42                	slli	t3,t3,0x10
 16a:	0000                	unimp
 16c:	0000                	unimp
 16e:	0000                	unimp
 170:	0034                	addi	a3,sp,8
 172:	0000                	unimp
 174:	0000                	unimp
 176:	0000                	unimp
 178:	052e                	slli	a0,a0,0xb
 17a:	8000                	.insn	2, 0x8000
 17c:	0000                	unimp
 17e:	0000                	unimp
 180:	039c                	addi	a5,sp,448
 182:	0000                	unimp
 184:	0000                	unimp
 186:	0000                	unimp
 188:	0e42                	slli	t3,t3,0x10
 18a:	0290                	addi	a2,sp,320
 18c:	8144                	.insn	2, 0x8144
 18e:	8802                	jr	a6
 190:	4204                	lw	s1,0(a2)
 192:	080c                	addi	a1,sp,16
 194:	0300                	addi	s0,sp,384
 196:	038e                	slli	t2,t2,0x3
 198:	42c1                	li	t0,16
 19a:	0cc8                	addi	a0,sp,596
 19c:	9002                	ebreak
 19e:	4202                	lw	tp,0(sp)
 1a0:	000e                	c.slli	zero,0x3
 1a2:	0000                	unimp
 1a4:	0000                	unimp
 1a6:	0000                	unimp
 1a8:	0034                	addi	a3,sp,8
 1aa:	0000                	unimp
 1ac:	0000                	unimp
 1ae:	0000                	unimp
 1b0:	08ca                	slli	a7,a7,0x12
 1b2:	8000                	.insn	2, 0x8000
 1b4:	0000                	unimp
 1b6:	0000                	unimp
 1b8:	0184                	addi	s1,sp,192
 1ba:	0000                	unimp
 1bc:	0000                	unimp
 1be:	0000                	unimp
 1c0:	0e42                	slli	t3,t3,0x10
 1c2:	01a0                	addi	s0,sp,200
 1c4:	8144                	.insn	2, 0x8144
 1c6:	8802                	jr	a6
 1c8:	4204                	lw	s1,0(a2)
 1ca:	080c                	addi	a1,sp,16
 1cc:	0300                	addi	s0,sp,384
 1ce:	0176                	slli	sp,sp,0x1d
 1d0:	42c1                	li	t0,16
 1d2:	0cc8                	addi	a0,sp,596
 1d4:	a002                	fsd	ft0,0(sp)
 1d6:	4201                	li	tp,0
 1d8:	000e                	c.slli	zero,0x3
 1da:	0000                	unimp
 1dc:	0000                	unimp
 1de:	0000                	unimp
 1e0:	002c                	addi	a1,sp,8
 1e2:	0000                	unimp
 1e4:	0000                	unimp
 1e6:	0000                	unimp
 1e8:	0a4e                	slli	s4,s4,0x13
 1ea:	8000                	.insn	2, 0x8000
 1ec:	0000                	unimp
 1ee:	0000                	unimp
 1f0:	005a                	c.slli	zero,0x16
 1f2:	0000                	unimp
 1f4:	0000                	unimp
 1f6:	0000                	unimp
 1f8:	0e42                	slli	t3,t3,0x10
 1fa:	4420                	lw	s0,72(s0)
 1fc:	0281                	addi	t0,t0,0
 1fe:	0488                	addi	a0,sp,576
 200:	0c42                	slli	s8,s8,0x10
 202:	0008                	.insn	2, 0x0008
 204:	4c02                	lw	s8,0(sp)
 206:	42c1                	li	t0,16
 208:	0cc8                	addi	a0,sp,596
 20a:	2002                	fld	ft0,0(sp)
 20c:	0e42                	slli	t3,t3,0x10
 20e:	0000                	unimp
 210:	002c                	addi	a1,sp,8
 212:	0000                	unimp
 214:	0000                	unimp
 216:	0000                	unimp
 218:	0aa8                	addi	a0,sp,344
 21a:	8000                	.insn	2, 0x8000
 21c:	0000                	unimp
 21e:	0000                	unimp
 220:	0062                	c.slli	zero,0x18
 222:	0000                	unimp
 224:	0000                	unimp
 226:	0000                	unimp
 228:	0e42                	slli	t3,t3,0x10
 22a:	4430                	lw	a2,72(s0)
 22c:	0281                	addi	t0,t0,0
 22e:	0488                	addi	a0,sp,576
 230:	0c42                	slli	s8,s8,0x10
 232:	0008                	.insn	2, 0x0008
 234:	5402                	lw	s0,32(sp)
 236:	42c1                	li	t0,16
 238:	0cc8                	addi	a0,sp,596
 23a:	3002                	fld	ft0,32(sp)
 23c:	0e42                	slli	t3,t3,0x10
 23e:	0000                	unimp
 240:	002c                	addi	a1,sp,8
 242:	0000                	unimp
 244:	0000                	unimp
 246:	0000                	unimp
 248:	0b0a                	slli	s6,s6,0x2
 24a:	8000                	.insn	2, 0x8000
 24c:	0000                	unimp
 24e:	0000                	unimp
 250:	018a                	slli	gp,gp,0x2
 252:	0000                	unimp
 254:	0000                	unimp
 256:	0000                	unimp
 258:	0e42                	slli	t3,t3,0x10
 25a:	4420                	lw	s0,72(s0)
 25c:	0281                	addi	t0,t0,0
 25e:	0488                	addi	a0,sp,576
 260:	0c42                	slli	s8,s8,0x10
 262:	0008                	.insn	2, 0x0008
 264:	c1017c03          	.insn	4, 0xc1017c03
 268:	c842                	sw	a6,16(sp)
 26a:	020c                	addi	a1,sp,256
 26c:	4220                	lw	s0,64(a2)
 26e:	000e                	c.slli	zero,0x3
 270:	002c                	addi	a1,sp,8
 272:	0000                	unimp
 274:	0000                	unimp
 276:	0000                	unimp
 278:	0c94                	addi	a3,sp,592
 27a:	8000                	.insn	2, 0x8000
 27c:	0000                	unimp
 27e:	0000                	unimp
 280:	00c0                	addi	s0,sp,68
 282:	0000                	unimp
 284:	0000                	unimp
 286:	0000                	unimp
 288:	0e42                	slli	t3,t3,0x10
 28a:	4430                	lw	a2,72(s0)
 28c:	0281                	addi	t0,t0,0
 28e:	0488                	addi	a0,sp,576
 290:	0c42                	slli	s8,s8,0x10
 292:	0008                	.insn	2, 0x0008
 294:	b202                	fsd	ft0,288(sp)
 296:	42c1                	li	t0,16
 298:	0cc8                	addi	a0,sp,596
 29a:	3002                	fld	ft0,32(sp)
 29c:	0e42                	slli	t3,t3,0x10
 29e:	0000                	unimp
 2a0:	002c                	addi	a1,sp,8
 2a2:	0000                	unimp
 2a4:	0000                	unimp
 2a6:	0000                	unimp
 2a8:	0d54                	addi	a3,sp,660
 2aa:	8000                	.insn	2, 0x8000
 2ac:	0000                	unimp
 2ae:	0000                	unimp
 2b0:	00f0                	addi	a2,sp,76
 2b2:	0000                	unimp
 2b4:	0000                	unimp
 2b6:	0000                	unimp
 2b8:	0e42                	slli	t3,t3,0x10
 2ba:	4430                	lw	a2,72(s0)
 2bc:	0281                	addi	t0,t0,0
 2be:	0488                	addi	a0,sp,576
 2c0:	0c42                	slli	s8,s8,0x10
 2c2:	0008                	.insn	2, 0x0008
 2c4:	c100e203          	lwu	tp,-1008(ra)
 2c8:	c842                	sw	a6,16(sp)
 2ca:	020c                	addi	a1,sp,256
 2cc:	4230                	lw	a2,64(a2)
 2ce:	000e                	c.slli	zero,0x3
 2d0:	002c                	addi	a1,sp,8
 2d2:	0000                	unimp
 2d4:	0000                	unimp
 2d6:	0000                	unimp
 2d8:	0e44                	addi	s1,sp,788
 2da:	8000                	.insn	2, 0x8000
 2dc:	0000                	unimp
 2de:	0000                	unimp
 2e0:	0026                	c.slli	zero,0x9
 2e2:	0000                	unimp
 2e4:	0000                	unimp
 2e6:	0000                	unimp
 2e8:	0e42                	slli	t3,t3,0x10
 2ea:	4410                	lw	a2,8(s0)
 2ec:	0281                	addi	t0,t0,0
 2ee:	0488                	addi	a0,sp,576
 2f0:	0c42                	slli	s8,s8,0x10
 2f2:	0008                	.insn	2, 0x0008
 2f4:	c158                	sw	a4,4(a0)
 2f6:	c842                	sw	a6,16(sp)
 2f8:	020c                	addi	a1,sp,256
 2fa:	4210                	lw	a2,0(a2)
 2fc:	000e                	c.slli	zero,0x3
 2fe:	0000                	unimp
 300:	002c                	addi	a1,sp,8
 302:	0000                	unimp
 304:	0000                	unimp
 306:	0000                	unimp
 308:	0e6a                	slli	t3,t3,0x1a
 30a:	8000                	.insn	2, 0x8000
 30c:	0000                	unimp
 30e:	0000                	unimp
 310:	0058                	addi	a4,sp,4
 312:	0000                	unimp
 314:	0000                	unimp
 316:	0000                	unimp
 318:	0e42                	slli	t3,t3,0x10
 31a:	4420                	lw	s0,72(s0)
 31c:	0281                	addi	t0,t0,0
 31e:	0488                	addi	a0,sp,576
 320:	0c42                	slli	s8,s8,0x10
 322:	0008                	.insn	2, 0x0008
 324:	4a02                	lw	s4,0(sp)
 326:	42c1                	li	t0,16
 328:	0cc8                	addi	a0,sp,596
 32a:	2002                	fld	ft0,0(sp)
 32c:	0e42                	slli	t3,t3,0x10
 32e:	0000                	unimp
 330:	002c                	addi	a1,sp,8
 332:	0000                	unimp
 334:	0000                	unimp
 336:	0000                	unimp
 338:	0ec2                	slli	t4,t4,0x10
 33a:	8000                	.insn	2, 0x8000
 33c:	0000                	unimp
 33e:	0000                	unimp
 340:	0062                	c.slli	zero,0x18
 342:	0000                	unimp
 344:	0000                	unimp
 346:	0000                	unimp
 348:	0e42                	slli	t3,t3,0x10
 34a:	4430                	lw	a2,72(s0)
 34c:	0281                	addi	t0,t0,0
 34e:	0488                	addi	a0,sp,576
 350:	0c42                	slli	s8,s8,0x10
 352:	0008                	.insn	2, 0x0008
 354:	5402                	lw	s0,32(sp)
 356:	42c1                	li	t0,16
 358:	0cc8                	addi	a0,sp,596
 35a:	3002                	fld	ft0,32(sp)
 35c:	0e42                	slli	t3,t3,0x10
 35e:	0000                	unimp
 360:	0034                	addi	a3,sp,8
 362:	0000                	unimp
 364:	0000                	unimp
 366:	0000                	unimp
 368:	0f24                	addi	s1,sp,920
 36a:	8000                	.insn	2, 0x8000
 36c:	0000                	unimp
 36e:	0000                	unimp
 370:	00f2                	slli	ra,ra,0x1c
 372:	0000                	unimp
 374:	0000                	unimp
 376:	0000                	unimp
 378:	0e42                	slli	t3,t3,0x10
 37a:	4650                	lw	a2,12(a2)
 37c:	0281                	addi	t0,t0,0
 37e:	0488                	addi	a0,sp,576
 380:	0689                	addi	a3,a3,2
 382:	0c42                	slli	s8,s8,0x10
 384:	0008                	.insn	2, 0x0008
 386:	e002                	sd	zero,0(sp)
 388:	42c1                	li	t0,16
 38a:	0cc8                	addi	a0,sp,596
 38c:	5002                	.insn	2, 0x5002
 38e:	c942                	sw	a6,144(sp)
 390:	0e42                	slli	t3,t3,0x10
 392:	0000                	unimp
 394:	0000                	unimp
 396:	0000                	unimp
 398:	0034                	addi	a3,sp,8
 39a:	0000                	unimp
 39c:	0000                	unimp
 39e:	0000                	unimp
 3a0:	1016                	c.slli	zero,0x25
 3a2:	8000                	.insn	2, 0x8000
 3a4:	0000                	unimp
 3a6:	0000                	unimp
 3a8:	01be                	slli	gp,gp,0xf
 3aa:	0000                	unimp
 3ac:	0000                	unimp
 3ae:	0000                	unimp
 3b0:	0e42                	slli	t3,t3,0x10
 3b2:	01c0                	addi	s0,sp,196
 3b4:	8144                	.insn	2, 0x8144
 3b6:	8802                	jr	a6
 3b8:	4204                	lw	s1,0(a2)
 3ba:	080c                	addi	a1,sp,16
 3bc:	0300                	addi	s0,sp,384
 3be:	01b0                	addi	a2,sp,200
 3c0:	42c1                	li	t0,16
 3c2:	0cc8                	addi	a0,sp,596
 3c4:	c002                	sw	zero,0(sp)
 3c6:	4201                	li	tp,0
 3c8:	000e                	c.slli	zero,0x3
 3ca:	0000                	unimp
 3cc:	0000                	unimp
 3ce:	0000                	unimp
 3d0:	0034                	addi	a3,sp,8
 3d2:	0000                	unimp
 3d4:	0000                	unimp
 3d6:	0000                	unimp
 3d8:	11d4                	addi	a3,sp,228
 3da:	8000                	.insn	2, 0x8000
 3dc:	0000                	unimp
 3de:	0000                	unimp
 3e0:	00c6                	slli	ra,ra,0x11
 3e2:	0000                	unimp
 3e4:	0000                	unimp
 3e6:	0000                	unimp
 3e8:	0e42                	slli	t3,t3,0x10
 3ea:	0180                	addi	s0,sp,192
 3ec:	8144                	.insn	2, 0x8144
 3ee:	8802                	jr	a6
 3f0:	4204                	lw	s1,0(a2)
 3f2:	080c                	addi	a1,sp,16
 3f4:	0200                	addi	s0,sp,256
 3f6:	c1b8                	sw	a4,64(a1)
 3f8:	c842                	sw	a6,16(sp)
 3fa:	020c                	addi	a1,sp,256
 3fc:	0180                	addi	s0,sp,192
 3fe:	0e42                	slli	t3,t3,0x10
	...
 408:	002c                	addi	a1,sp,8
 40a:	0000                	unimp
 40c:	0000                	unimp
 40e:	0000                	unimp
 410:	129a                	slli	t0,t0,0x26
 412:	8000                	.insn	2, 0x8000
 414:	0000                	unimp
 416:	0000                	unimp
 418:	003e                	c.slli	zero,0xf
 41a:	0000                	unimp
 41c:	0000                	unimp
 41e:	0000                	unimp
 420:	0e42                	slli	t3,t3,0x10
 422:	4420                	lw	s0,72(s0)
 424:	0281                	addi	t0,t0,0
 426:	0488                	addi	a0,sp,576
 428:	0c42                	slli	s8,s8,0x10
 42a:	0008                	.insn	2, 0x0008
 42c:	3002                	fld	ft0,32(sp)
 42e:	42c1                	li	t0,16
 430:	0cc8                	addi	a0,sp,596
 432:	2002                	fld	ft0,0(sp)
 434:	0e42                	slli	t3,t3,0x10
 436:	0000                	unimp
 438:	000c                	.insn	2, 0x000c
 43a:	0000                	unimp
 43c:	ffff                	.insn	2, 0xffff
 43e:	ffff                	.insn	2, 0xffff
 440:	7c010003          	lb	zero,1984(sp)
 444:	0d01                	addi	s10,s10,0
 446:	0002                	c.slli64	zero
 448:	002c                	addi	a1,sp,8
 44a:	0000                	unimp
 44c:	0438                	addi	a4,sp,520
 44e:	0000                	unimp
 450:	12d8                	addi	a4,sp,356
 452:	8000                	.insn	2, 0x8000
 454:	0000                	unimp
 456:	0000                	unimp
 458:	003e                	c.slli	zero,0xf
 45a:	0000                	unimp
 45c:	0000                	unimp
 45e:	0000                	unimp
 460:	0e42                	slli	t3,t3,0x10
 462:	4230                	lw	a2,64(a2)
 464:	0288                	addi	a0,sp,320
 466:	0c42                	slli	s8,s8,0x10
 468:	0008                	.insn	2, 0x0008
 46a:	c874                	sw	a3,84(s0)
 46c:	020c                	addi	a1,sp,256
 46e:	4230                	lw	a2,64(a2)
 470:	000e                	c.slli	zero,0x3
 472:	0000                	unimp
 474:	0000                	unimp
 476:	0000                	unimp
 478:	002c                	addi	a1,sp,8
 47a:	0000                	unimp
 47c:	0438                	addi	a4,sp,520
 47e:	0000                	unimp
 480:	1316                	slli	t1,t1,0x25
 482:	8000                	.insn	2, 0x8000
 484:	0000                	unimp
 486:	0000                	unimp
 488:	0044                	addi	s1,sp,4
 48a:	0000                	unimp
 48c:	0000                	unimp
 48e:	0000                	unimp
 490:	0e42                	slli	t3,t3,0x10
 492:	4430                	lw	a2,72(s0)
 494:	0281                	addi	t0,t0,0
 496:	0488                	addi	a0,sp,576
 498:	0c42                	slli	s8,s8,0x10
 49a:	0008                	.insn	2, 0x0008
 49c:	c176                	sw	t4,128(sp)
 49e:	c842                	sw	a6,16(sp)
 4a0:	020c                	addi	a1,sp,256
 4a2:	4230                	lw	a2,64(a2)
 4a4:	000e                	c.slli	zero,0x3
 4a6:	0000                	unimp
 4a8:	002c                	addi	a1,sp,8
 4aa:	0000                	unimp
 4ac:	0438                	addi	a4,sp,520
 4ae:	0000                	unimp
 4b0:	135a                	slli	t1,t1,0x36
 4b2:	8000                	.insn	2, 0x8000
 4b4:	0000                	unimp
 4b6:	0000                	unimp
 4b8:	002a                	c.slli	zero,0xa
 4ba:	0000                	unimp
 4bc:	0000                	unimp
 4be:	0000                	unimp
 4c0:	0e42                	slli	t3,t3,0x10
 4c2:	4420                	lw	s0,72(s0)
 4c4:	0281                	addi	t0,t0,0
 4c6:	0488                	addi	a0,sp,576
 4c8:	0c42                	slli	s8,s8,0x10
 4ca:	0008                	.insn	2, 0x0008
 4cc:	c15c                	sw	a5,4(a0)
 4ce:	c842                	sw	a6,16(sp)
 4d0:	020c                	addi	a1,sp,256
 4d2:	4220                	lw	s0,64(a2)
 4d4:	000e                	c.slli	zero,0x3
 4d6:	0000                	unimp
 4d8:	0034                	addi	a3,sp,8
 4da:	0000                	unimp
 4dc:	0438                	addi	a4,sp,520
 4de:	0000                	unimp
 4e0:	1384                	addi	s1,sp,480
 4e2:	8000                	.insn	2, 0x8000
 4e4:	0000                	unimp
 4e6:	0000                	unimp
 4e8:	032c                	addi	a1,sp,392
 4ea:	0000                	unimp
 4ec:	0000                	unimp
 4ee:	0000                	unimp
 4f0:	0e42                	slli	t3,t3,0x10
 4f2:	01d0                	addi	a2,sp,196
 4f4:	8144                	.insn	2, 0x8144
 4f6:	8812                	mv	a6,tp
 4f8:	4214                	lw	a3,0(a2)
 4fa:	080c                	addi	a1,sp,16
 4fc:	0340                	addi	s0,sp,388
 4fe:	031e                	slli	t1,t1,0x7
 500:	42c1                	li	t0,16
 502:	0cc8                	addi	a0,sp,596
 504:	d002                	sw	zero,32(sp)
 506:	4201                	li	tp,0
 508:	000e                	c.slli	zero,0x3
 50a:	0000                	unimp
 50c:	0000                	unimp
 50e:	0000                	unimp
 510:	000c                	.insn	2, 0x000c
 512:	0000                	unimp
 514:	ffff                	.insn	2, 0xffff
 516:	ffff                	.insn	2, 0xffff
 518:	0001                	nop
 51a:	7c01                	lui	s8,0xfffe0
 51c:	0d01                	addi	s10,s10,0
 51e:	0002                	c.slli64	zero
 520:	001c                	.insn	2, 0x001c
 522:	0000                	unimp
 524:	0510                	addi	a2,sp,640
 526:	0000                	unimp
 528:	16b0                	addi	a2,sp,872
 52a:	8000                	.insn	2, 0x8000
 52c:	0000                	unimp
 52e:	0000                	unimp
 530:	0016                	c.slli	zero,0x5
 532:	0000                	unimp
 534:	0000                	unimp
 536:	0000                	unimp
 538:	0e42                	slli	t3,t3,0x10
 53a:	4610                	lw	a2,8(a2)
 53c:	0281                	addi	t0,t0,0
 53e:	0000                	unimp
 540:	000c                	.insn	2, 0x000c
 542:	0000                	unimp
 544:	ffff                	.insn	2, 0xffff
 546:	ffff                	.insn	2, 0xffff
 548:	0001                	nop
 54a:	7c01                	lui	s8,0xfffe0
 54c:	0d01                	addi	s10,s10,0
 54e:	0002                	c.slli64	zero
 550:	0024                	addi	s1,sp,8
 552:	0000                	unimp
 554:	0540                	addi	s0,sp,644
 556:	0000                	unimp
 558:	16c6                	slli	a3,a3,0x31
 55a:	8000                	.insn	2, 0x8000
 55c:	0000                	unimp
 55e:	0000                	unimp
 560:	002e                	c.slli	zero,0xb
 562:	0000                	unimp
 564:	0000                	unimp
 566:	0000                	unimp
 568:	0e42                	slli	t3,t3,0x10
 56a:	5210                	lw	a2,32(a2)
 56c:	0488                	addi	a0,sp,576
 56e:	0281                	addi	t0,t0,0
 570:	c84e                	sw	s3,16(sp)
 572:	c142                	sw	a6,128(sp)
 574:	0e48                	addi	a0,sp,788
 576:	0000                	unimp
 578:	000c                	.insn	2, 0x000c
 57a:	0000                	unimp
 57c:	ffff                	.insn	2, 0xffff
 57e:	ffff                	.insn	2, 0xffff
 580:	0001                	nop
 582:	7c01                	lui	s8,0xfffe0
 584:	0d01                	addi	s10,s10,0
 586:	0002                	c.slli64	zero
 588:	0014                	.insn	2, 0x0014
 58a:	0000                	unimp
 58c:	0578                	addi	a4,sp,652
 58e:	0000                	unimp
 590:	16f4                	addi	a3,sp,876
 592:	8000                	.insn	2, 0x8000
 594:	0000                	unimp
 596:	0000                	unimp
 598:	0006                	c.slli	zero,0x1
 59a:	0000                	unimp
 59c:	0000                	unimp
 59e:	0000                	unimp
 5a0:	000c                	.insn	2, 0x000c
 5a2:	0000                	unimp
 5a4:	ffff                	.insn	2, 0xffff
 5a6:	ffff                	.insn	2, 0xffff
 5a8:	0001                	nop
 5aa:	7c01                	lui	s8,0xfffe0
 5ac:	0d01                	addi	s10,s10,0
 5ae:	0002                	c.slli64	zero
 5b0:	0014                	.insn	2, 0x0014
 5b2:	0000                	unimp
 5b4:	05a0                	addi	s0,sp,712
 5b6:	0000                	unimp
 5b8:	16fa                	slli	a3,a3,0x3e
 5ba:	8000                	.insn	2, 0x8000
 5bc:	0000                	unimp
 5be:	0000                	unimp
 5c0:	0020                	addi	s0,sp,8
 5c2:	0000                	unimp
 5c4:	0000                	unimp
 5c6:	0000                	unimp
 5c8:	000c                	.insn	2, 0x000c
 5ca:	0000                	unimp
 5cc:	ffff                	.insn	2, 0xffff
 5ce:	ffff                	.insn	2, 0xffff
 5d0:	0001                	nop
 5d2:	7c01                	lui	s8,0xfffe0
 5d4:	0d01                	addi	s10,s10,0
 5d6:	0002                	c.slli64	zero
 5d8:	001c                	.insn	2, 0x001c
 5da:	0000                	unimp
 5dc:	05c8                	addi	a0,sp,708
 5de:	0000                	unimp
 5e0:	171a                	slli	a4,a4,0x26
 5e2:	8000                	.insn	2, 0x8000
 5e4:	0000                	unimp
 5e6:	0000                	unimp
 5e8:	0052                	c.slli	zero,0x14
 5ea:	0000                	unimp
 5ec:	0000                	unimp
 5ee:	0000                	unimp
 5f0:	0e42                	slli	t3,t3,0x10
 5f2:	0240                	addi	s0,sp,260
 5f4:	0e4e                	slli	t3,t3,0x13
 5f6:	0000                	unimp
 5f8:	000c                	.insn	2, 0x000c
 5fa:	0000                	unimp
 5fc:	ffff                	.insn	2, 0xffff
 5fe:	ffff                	.insn	2, 0xffff
 600:	0001                	nop
 602:	7c01                	lui	s8,0xfffe0
 604:	0d01                	addi	s10,s10,0
 606:	0002                	c.slli64	zero
 608:	0024                	addi	s1,sp,8
 60a:	0000                	unimp
 60c:	05f8                	addi	a4,sp,716
 60e:	0000                	unimp
 610:	2242                	fld	ft4,16(sp)
 612:	8000                	.insn	2, 0x8000
 614:	0000                	unimp
 616:	0000                	unimp
 618:	0014                	.insn	2, 0x0014
 61a:	0000                	unimp
 61c:	0000                	unimp
 61e:	0000                	unimp
 620:	0e42                	slli	t3,t3,0x10
 622:	4210                	lw	a2,0(a2)
 624:	0281                	addi	t0,t0,0
 626:	c146                	sw	a7,128(sp)
 628:	0e48                	addi	a0,sp,788
 62a:	0000                	unimp
 62c:	0000                	unimp
 62e:	0000                	unimp
 630:	000c                	.insn	2, 0x000c
 632:	0000                	unimp
 634:	ffff                	.insn	2, 0xffff
 636:	ffff                	.insn	2, 0xffff
 638:	0001                	nop
 63a:	7c01                	lui	s8,0xfffe0
 63c:	0d01                	addi	s10,s10,0
 63e:	0002                	c.slli64	zero
 640:	0024                	addi	s1,sp,8
 642:	0000                	unimp
 644:	0630                	addi	a2,sp,776
 646:	0000                	unimp
 648:	2256                	fld	ft4,336(sp)
 64a:	8000                	.insn	2, 0x8000
 64c:	0000                	unimp
 64e:	0000                	unimp
 650:	0014                	.insn	2, 0x0014
 652:	0000                	unimp
 654:	0000                	unimp
 656:	0000                	unimp
 658:	0e42                	slli	t3,t3,0x10
 65a:	4210                	lw	a2,0(a2)
 65c:	0281                	addi	t0,t0,0
 65e:	c146                	sw	a7,128(sp)
 660:	0e48                	addi	a0,sp,788
 662:	0000                	unimp
 664:	0000                	unimp
 666:	0000                	unimp
 668:	000c                	.insn	2, 0x000c
 66a:	0000                	unimp
 66c:	ffff                	.insn	2, 0xffff
 66e:	ffff                	.insn	2, 0xffff
 670:	0001                	nop
 672:	7c01                	lui	s8,0xfffe0
 674:	0d01                	addi	s10,s10,0
 676:	0002                	c.slli64	zero
 678:	0024                	addi	s1,sp,8
 67a:	0000                	unimp
 67c:	0668                	addi	a0,sp,780
 67e:	0000                	unimp
 680:	226a                	fld	ft4,152(sp)
 682:	8000                	.insn	2, 0x8000
 684:	0000                	unimp
 686:	0000                	unimp
 688:	0016                	c.slli	zero,0x5
 68a:	0000                	unimp
 68c:	0000                	unimp
 68e:	0000                	unimp
 690:	0e42                	slli	t3,t3,0x10
 692:	4210                	lw	a2,0(a2)
 694:	0281                	addi	t0,t0,0
 696:	c146                	sw	a7,128(sp)
 698:	0e4a                	slli	t3,t3,0x12
 69a:	0000                	unimp
 69c:	0000                	unimp
 69e:	0000                	unimp
 6a0:	000c                	.insn	2, 0x000c
 6a2:	0000                	unimp
 6a4:	ffff                	.insn	2, 0xffff
 6a6:	ffff                	.insn	2, 0xffff
 6a8:	0001                	nop
 6aa:	7c01                	lui	s8,0xfffe0
 6ac:	0d01                	addi	s10,s10,0
 6ae:	0002                	c.slli64	zero
 6b0:	0024                	addi	s1,sp,8
 6b2:	0000                	unimp
 6b4:	06a0                	addi	s0,sp,840
 6b6:	0000                	unimp
 6b8:	2280                	fld	fs0,0(a3)
 6ba:	8000                	.insn	2, 0x8000
 6bc:	0000                	unimp
 6be:	0000                	unimp
 6c0:	003a                	c.slli	zero,0xe
 6c2:	0000                	unimp
 6c4:	0000                	unimp
 6c6:	0000                	unimp
 6c8:	0e66                	slli	t3,t3,0x19
 6ca:	4210                	lw	a2,0(a2)
 6cc:	0281                	addi	t0,t0,0
 6ce:	c146                	sw	a7,128(sp)
 6d0:	0e4a                	slli	t3,t3,0x12
 6d2:	0000                	unimp
 6d4:	0000                	unimp
 6d6:	0000                	unimp
 6d8:	000c                	.insn	2, 0x000c
 6da:	0000                	unimp
 6dc:	ffff                	.insn	2, 0xffff
 6de:	ffff                	.insn	2, 0xffff
 6e0:	0001                	nop
 6e2:	7c01                	lui	s8,0xfffe0
 6e4:	0d01                	addi	s10,s10,0
 6e6:	0002                	c.slli64	zero
 6e8:	0014                	.insn	2, 0x0014
 6ea:	0000                	unimp
 6ec:	06d8                	addi	a4,sp,836
 6ee:	0000                	unimp
 6f0:	22ba                	fld	ft5,392(sp)
 6f2:	8000                	.insn	2, 0x8000
 6f4:	0000                	unimp
 6f6:	0000                	unimp
 6f8:	0008                	.insn	2, 0x0008
 6fa:	0000                	unimp
 6fc:	0000                	unimp
	...

Disassembly of section .debug_loc:

0000000000000000 <.debug_loc>:
	...
   8:	0006                	c.slli	zero,0x1
   a:	0000                	unimp
   c:	0000                	unimp
   e:	0000                	unimp
  10:	0001                	nop
  12:	065a                	slli	a2,a2,0x16
  14:	0000                	unimp
  16:	0000                	unimp
  18:	0000                	unimp
  1a:	1600                	addi	s0,sp,800
  1c:	0000                	unimp
  1e:	0000                	unimp
  20:	0000                	unimp
  22:	0400                	addi	s0,sp,512
  24:	f300                	sd	s0,32(a4)
  26:	5a01                	li	s4,-32
  28:	009f 0000 0000      	.insn	6, 0x009f
	...
  3e:	0000                	unimp
  40:	1500                	addi	s0,sp,672
  42:	0000                	unimp
  44:	0000                	unimp
  46:	0000                	unimp
  48:	0100                	addi	s0,sp,128
  4a:	5b00                	lw	s0,48(a4)
  4c:	0015                	c.nop	5
  4e:	0000                	unimp
  50:	0000                	unimp
  52:	0000                	unimp
  54:	0016                	c.slli	zero,0x5
  56:	0000                	unimp
  58:	0000                	unimp
  5a:	0000                	unimp
  5c:	0004                	.insn	2, 0x0004
  5e:	9f5b01f3          	.insn	4, 0x9f5b01f3
	...
  7a:	0015                	c.nop	5
  7c:	0000                	unimp
  7e:	0000                	unimp
  80:	0000                	unimp
  82:	0001                	nop
  84:	155c                	addi	a5,sp,676
  86:	0000                	unimp
  88:	0000                	unimp
  8a:	0000                	unimp
  8c:	1600                	addi	s0,sp,800
  8e:	0000                	unimp
  90:	0000                	unimp
  92:	0000                	unimp
  94:	0400                	addi	s0,sp,512
  96:	f300                	sd	s0,32(a4)
  98:	5c01                	li	s8,-32
  9a:	009f 0000 0000      	.insn	6, 0x009f
	...
  b0:	0000                	unimp
  b2:	1500                	addi	s0,sp,672
  b4:	0000                	unimp
  b6:	0000                	unimp
  b8:	0000                	unimp
  ba:	0100                	addi	s0,sp,128
  bc:	5d00                	lw	s0,56(a0)
  be:	0015                	c.nop	5
  c0:	0000                	unimp
  c2:	0000                	unimp
  c4:	0000                	unimp
  c6:	0016                	c.slli	zero,0x5
  c8:	0000                	unimp
  ca:	0000                	unimp
  cc:	0000                	unimp
  ce:	0004                	.insn	2, 0x0004
  d0:	9f5d01f3          	.insn	4, 0x9f5d01f3
	...
  e4:	000a                	c.slli	zero,0x2
  e6:	0000                	unimp
  e8:	0000                	unimp
  ea:	0000                	unimp
  ec:	0015                	c.nop	5
  ee:	0000                	unimp
  f0:	0000                	unimp
  f2:	0000                	unimp
  f4:	0001                	nop
  f6:	005a                	c.slli	zero,0x16
	...
 10c:	0000                	unimp
 10e:	4e00                	lw	s0,24(a2)
 110:	0000                	unimp
 112:	0000                	unimp
 114:	0000                	unimp
 116:	0100                	addi	s0,sp,128
 118:	5a00                	lw	s0,48(a2)
 11a:	004e                	c.slli	zero,0x13
 11c:	0000                	unimp
 11e:	0000                	unimp
 120:	0000                	unimp
 122:	0052                	c.slli	zero,0x14
 124:	0000                	unimp
 126:	0000                	unimp
 128:	0000                	unimp
 12a:	0004                	.insn	2, 0x0004
 12c:	9f5a01f3          	.insn	4, 0x9f5a01f3
	...
 148:	0010                	.insn	2, 0x0010
 14a:	0000                	unimp
 14c:	0000                	unimp
 14e:	0000                	unimp
 150:	0001                	nop
 152:	105c                	addi	a5,sp,36
 154:	0000                	unimp
 156:	0000                	unimp
 158:	0000                	unimp
 15a:	3800                	fld	fs0,48(s0)
 15c:	0000                	unimp
 15e:	0000                	unimp
 160:	0000                	unimp
 162:	0200                	addi	s0,sp,256
 164:	9100                	.insn	2, 0x9100
 166:	3858                	fld	fa4,176(s0)
 168:	0000                	unimp
 16a:	0000                	unimp
 16c:	0000                	unimp
 16e:	5200                	lw	s0,32(a2)
 170:	0000                	unimp
 172:	0000                	unimp
 174:	0000                	unimp
 176:	0400                	addi	s0,sp,512
 178:	f300                	sd	s0,32(a4)
 17a:	5c01                	li	s8,-32
 17c:	009f 0000 0000      	.insn	6, 0x009f
	...
 192:	0000                	unimp
 194:	1800                	addi	s0,sp,48
 196:	0000                	unimp
 198:	0000                	unimp
 19a:	0000                	unimp
 19c:	0100                	addi	s0,sp,128
 19e:	5d00                	lw	s0,56(a0)
 1a0:	0018                	.insn	2, 0x0018
 1a2:	0000                	unimp
 1a4:	0000                	unimp
 1a6:	0000                	unimp
 1a8:	0052                	c.slli	zero,0x14
 1aa:	0000                	unimp
 1ac:	0000                	unimp
 1ae:	0000                	unimp
 1b0:	0004                	.insn	2, 0x0004
 1b2:	9f5d01f3          	.insn	4, 0x9f5d01f3
	...
 1c6:	0012                	c.slli	zero,0x4
 1c8:	0000                	unimp
 1ca:	0000                	unimp
 1cc:	0000                	unimp
 1ce:	0024                	addi	s1,sp,8
 1d0:	0000                	unimp
 1d2:	0000                	unimp
 1d4:	0000                	unimp
 1d6:	000a                	c.slli	zero,0x2
 1d8:	002b6803          	lwu	a6,2(s6) # 19002 <__stack_size+0x11002>
 1dc:	0080                	addi	s0,sp,64
 1de:	0000                	unimp
 1e0:	9f00                	.insn	2, 0x9f00
	...
 1f2:	001e                	c.slli	zero,0x7
 1f4:	0000                	unimp
 1f6:	0000                	unimp
 1f8:	0000                	unimp
 1fa:	0022                	c.slli	zero,0x8
 1fc:	0000                	unimp
 1fe:	0000                	unimp
 200:	0000                	unimp
 202:	ff090003          	lb	zero,-16(s2) # 18ff0 <__stack_size+0x10ff0>
 206:	009f 0000 0000      	.insn	6, 0x009f
	...
 214:	0000                	unimp
 216:	1e00                	addi	s0,sp,816
 218:	0000                	unimp
 21a:	0000                	unimp
 21c:	0000                	unimp
 21e:	2200                	fld	fs0,0(a2)
 220:	0000                	unimp
 222:	0000                	unimp
 224:	0000                	unimp
 226:	0a00                	addi	s0,sp,272
 228:	0300                	addi	s0,sp,384
 22a:	2b68                	fld	fa0,208(a4)
 22c:	8000                	.insn	2, 0x8000
 22e:	0000                	unimp
 230:	0000                	unimp
 232:	009f 0000 0000      	.insn	6, 0x009f
	...
 240:	0000                	unimp
 242:	1800                	addi	s0,sp,48
 244:	0000                	unimp
 246:	0000                	unimp
 248:	0000                	unimp
 24a:	1c00                	addi	s0,sp,560
 24c:	0000                	unimp
 24e:	0000                	unimp
 250:	0000                	unimp
 252:	0a00                	addi	s0,sp,272
 254:	0300                	addi	s0,sp,384
 256:	2b68                	fld	fa0,208(a4)
 258:	8000                	.insn	2, 0x8000
 25a:	0000                	unimp
 25c:	0000                	unimp
 25e:	009f 0000 0000      	.insn	6, 0x009f
	...
 26c:	0000                	unimp
 26e:	4400                	lw	s0,8(s0)
 270:	0000                	unimp
 272:	0000                	unimp
 274:	0000                	unimp
 276:	4800                	lw	s0,16(s0)
 278:	0000                	unimp
 27a:	0000                	unimp
 27c:	0000                	unimp
 27e:	0a00                	addi	s0,sp,272
 280:	0300                	addi	s0,sp,384
 282:	2b68                	fld	fa0,208(a4)
 284:	8000                	.insn	2, 0x8000
 286:	0000                	unimp
 288:	0000                	unimp
 28a:	009f 0000 0000      	.insn	6, 0x009f
	...
 2a0:	0000                	unimp
 2a2:	0700                	addi	s0,sp,896
 2a4:	0000                	unimp
 2a6:	0000                	unimp
 2a8:	0000                	unimp
 2aa:	0100                	addi	s0,sp,128
 2ac:	5a00                	lw	s0,48(a2)
 2ae:	00000007          	.insn	4, 0x0007
 2b2:	0000                	unimp
 2b4:	0000                	unimp
 2b6:	0014                	.insn	2, 0x0014
 2b8:	0000                	unimp
 2ba:	0000                	unimp
 2bc:	0000                	unimp
 2be:	0004                	.insn	2, 0x0004
 2c0:	9f5a01f3          	.insn	4, 0x9f5a01f3
	...
 2dc:	00000007          	.insn	4, 0x0007
 2e0:	0000                	unimp
 2e2:	0000                	unimp
 2e4:	0001                	nop
 2e6:	075a                	slli	a4,a4,0x16
 2e8:	0000                	unimp
 2ea:	0000                	unimp
 2ec:	0000                	unimp
 2ee:	1400                	addi	s0,sp,544
 2f0:	0000                	unimp
 2f2:	0000                	unimp
 2f4:	0000                	unimp
 2f6:	0400                	addi	s0,sp,512
 2f8:	f300                	sd	s0,32(a4)
 2fa:	5a01                	li	s4,-32
 2fc:	009f 0000 0000      	.insn	6, 0x009f
	...
 312:	0000                	unimp
 314:	0700                	addi	s0,sp,896
 316:	0000                	unimp
 318:	0000                	unimp
 31a:	0000                	unimp
 31c:	0100                	addi	s0,sp,128
 31e:	5b00                	lw	s0,48(a4)
 320:	00000007          	.insn	4, 0x0007
 324:	0000                	unimp
 326:	0000                	unimp
 328:	0014                	.insn	2, 0x0014
 32a:	0000                	unimp
 32c:	0000                	unimp
 32e:	0000                	unimp
 330:	0004                	.insn	2, 0x0004
 332:	9f5b01f3          	.insn	4, 0x9f5b01f3
	...
 34e:	00000007          	.insn	4, 0x0007
 352:	0000                	unimp
 354:	0000                	unimp
 356:	0001                	nop
 358:	075c                	addi	a5,sp,900
 35a:	0000                	unimp
 35c:	0000                	unimp
 35e:	0000                	unimp
 360:	1400                	addi	s0,sp,544
 362:	0000                	unimp
 364:	0000                	unimp
 366:	0000                	unimp
 368:	0400                	addi	s0,sp,512
 36a:	f300                	sd	s0,32(a4)
 36c:	5c01                	li	s8,-32
 36e:	009f 0000 0000      	.insn	6, 0x009f
	...
 384:	0000                	unimp
 386:	0700                	addi	s0,sp,896
 388:	0000                	unimp
 38a:	0000                	unimp
 38c:	0000                	unimp
 38e:	0100                	addi	s0,sp,128
 390:	5a00                	lw	s0,48(a2)
 392:	00000007          	.insn	4, 0x0007
 396:	0000                	unimp
 398:	0000                	unimp
 39a:	0016                	c.slli	zero,0x5
 39c:	0000                	unimp
 39e:	0000                	unimp
 3a0:	0000                	unimp
 3a2:	0004                	.insn	2, 0x0004
 3a4:	9f5a01f3          	.insn	4, 0x9f5a01f3
	...
 3c0:	00000007          	.insn	4, 0x0007
 3c4:	0000                	unimp
 3c6:	0000                	unimp
 3c8:	0001                	nop
 3ca:	0000075b          	.insn	4, 0x075b
 3ce:	0000                	unimp
 3d0:	0000                	unimp
 3d2:	1600                	addi	s0,sp,800
 3d4:	0000                	unimp
 3d6:	0000                	unimp
 3d8:	0000                	unimp
 3da:	0400                	addi	s0,sp,512
 3dc:	f300                	sd	s0,32(a4)
 3de:	5b01                	li	s6,-32
 3e0:	009f 0000 0000      	.insn	6, 0x009f
	...
 3f6:	0000                	unimp
 3f8:	0700                	addi	s0,sp,896
 3fa:	0000                	unimp
 3fc:	0000                	unimp
 3fe:	0000                	unimp
 400:	0100                	addi	s0,sp,128
 402:	5c00                	lw	s0,56(s0)
 404:	00000007          	.insn	4, 0x0007
 408:	0000                	unimp
 40a:	0000                	unimp
 40c:	0016                	c.slli	zero,0x5
 40e:	0000                	unimp
 410:	0000                	unimp
 412:	0000                	unimp
 414:	0004                	.insn	2, 0x0004
 416:	9f5c01f3          	.insn	4, 0x9f5c01f3
	...
 432:	000c                	.insn	2, 0x000c
 434:	0000                	unimp
 436:	0000                	unimp
 438:	0000                	unimp
 43a:	0001                	nop
 43c:	0c5a                	slli	s8,s8,0x16
 43e:	0000                	unimp
 440:	0000                	unimp
 442:	0000                	unimp
 444:	3a00                	fld	fs0,48(a2)
 446:	0000                	unimp
 448:	0000                	unimp
 44a:	0000                	unimp
 44c:	0400                	addi	s0,sp,512
 44e:	f300                	sd	s0,32(a4)
 450:	5a01                	li	s4,-32
 452:	009f 0000 0000      	.insn	6, 0x009f
	...
 460:	0000                	unimp
 462:	0c00                	addi	s0,sp,528
 464:	0000                	unimp
 466:	0000                	unimp
 468:	0000                	unimp
 46a:	2200                	fld	fs0,0(a2)
 46c:	0000                	unimp
 46e:	0000                	unimp
 470:	0000                	unimp
 472:	0100                	addi	s0,sp,128
 474:	5a00                	lw	s0,48(a2)
 476:	0022                	c.slli	zero,0x8
 478:	0000                	unimp
 47a:	0000                	unimp
 47c:	0000                	unimp
 47e:	0024                	addi	s1,sp,8
 480:	0000                	unimp
 482:	0000                	unimp
 484:	0000                	unimp
 486:	0009                	c.nop	2
 488:	002b5003          	lhu	zero,2(s6)
 48c:	0080                	addi	s0,sp,64
 48e:	0000                	unimp
 490:	2400                	fld	fs0,8(s0)
 492:	0000                	unimp
 494:	0000                	unimp
 496:	0000                	unimp
 498:	2b00                	fld	fs0,16(a4)
 49a:	0000                	unimp
 49c:	0000                	unimp
 49e:	0000                	unimp
 4a0:	0100                	addi	s0,sp,128
 4a2:	5a00                	lw	s0,48(a2)
	...
 4b4:	0006                	c.slli	zero,0x1
 4b6:	0000                	unimp
 4b8:	0000                	unimp
 4ba:	0000                	unimp
 4bc:	0000002b          	.insn	4, 0x002b
 4c0:	0000                	unimp
 4c2:	0000                	unimp
 4c4:	0001                	nop
 4c6:	005f 0000 0000      	.insn	6, 0x005f
	...
 4dc:	0000                	unimp
 4de:	0700                	addi	s0,sp,896
 4e0:	0000                	unimp
 4e2:	0000                	unimp
 4e4:	0000                	unimp
 4e6:	0100                	addi	s0,sp,128
 4e8:	5a00                	lw	s0,48(a2)
 4ea:	00000007          	.insn	4, 0x0007
 4ee:	0000                	unimp
 4f0:	0000                	unimp
 4f2:	0008                	.insn	2, 0x0008
 4f4:	0000                	unimp
 4f6:	0000                	unimp
 4f8:	0000                	unimp
 4fa:	0004                	.insn	2, 0x0004
 4fc:	9f5a01f3          	.insn	4, 0x9f5a01f3
	...
 518:	00000007          	.insn	4, 0x0007
 51c:	0000                	unimp
 51e:	0000                	unimp
 520:	0001                	nop
 522:	0000075b          	.insn	4, 0x075b
 526:	0000                	unimp
 528:	0000                	unimp
 52a:	0800                	addi	s0,sp,16
 52c:	0000                	unimp
 52e:	0000                	unimp
 530:	0000                	unimp
 532:	0400                	addi	s0,sp,512
 534:	f300                	sd	s0,32(a4)
 536:	5b01                	li	s6,-32
 538:	009f 0000 0000      	.insn	6, 0x009f
	...
 54e:	0000                	unimp
 550:	0700                	addi	s0,sp,896
 552:	0000                	unimp
 554:	0000                	unimp
 556:	0000                	unimp
 558:	0100                	addi	s0,sp,128
 55a:	5c00                	lw	s0,56(s0)
 55c:	00000007          	.insn	4, 0x0007
 560:	0000                	unimp
 562:	0000                	unimp
 564:	0008                	.insn	2, 0x0008
 566:	0000                	unimp
 568:	0000                	unimp
 56a:	0000                	unimp
 56c:	0004                	.insn	2, 0x0004
 56e:	9f5c01f3          	.insn	4, 0x9f5c01f3
	...

Disassembly of section .debug_ranges:

0000000000000000 <.debug_ranges>:
   0:	0016                	c.slli	zero,0x5
   2:	0000                	unimp
   4:	0000                	unimp
   6:	0000                	unimp
   8:	0018                	.insn	2, 0x0018
   a:	0000                	unimp
   c:	0000                	unimp
   e:	0000                	unimp
  10:	001e                	c.slli	zero,0x7
  12:	0000                	unimp
  14:	0000                	unimp
  16:	0000                	unimp
  18:	0022                	c.slli	zero,0x8
	...
