
/home/thh/chipyard/demoriscv/software/Cipher/build/cipher.elf:     file format elf64-littleriscv


Disassembly of section .text:

0000000080000000 <_prog_start>:

  .section .text.init
  .option norvc
  .globl _prog_start
_prog_start:
  csrr a0, mhartid
    80000000:	f1402573          	csrr	a0,mhartid
  beq a0, zero, _main
    80000004:	00050463          	beqz	a0,8000000c <_main>
  j _loopback
    80000008:	0200006f          	j	80000028 <_loopback>

000000008000000c <_main>:
_main:
  csrw mie, s2
    8000000c:	30491073          	csrw	mie,s2
  li sp, (PAYLOAD_DEST + 0x1ff00)
    80000010:	00004137          	lui	sp,0x4
    80000014:	0011011b          	addiw	sp,sp,1 # 4001 <_prog_start-0x7fffbfff>
    80000018:	01111113          	slli	sp,sp,0x11
    8000001c:	f0010113          	addi	sp,sp,-256
  call main
    80000020:	646010ef          	jal	80001666 <main>
  wfi
    80000024:	10500073          	wfi

0000000080000028 <_loopback>:
_loopback:
  j _loopback
    80000028:	0000006f          	j	80000028 <_loopback>

000000008000002c <reg_write32>:
//    aes_test_cases();

    // klein
//    klein_test();
    klein_test_encryption_elapsed();
    klein_test_decryption_elapsed();
    8000002c:	7179                	addi	sp,sp,-48
    8000002e:	f422                	sd	s0,40(sp)
    80000030:	1800                	addi	s0,sp,48
    80000032:	fca43c23          	sd	a0,-40(s0)
    80000036:	87ae                	mv	a5,a1
    80000038:	fcf42a23          	sw	a5,-44(s0)
    klein_test_software();
    8000003c:	fd843783          	ld	a5,-40(s0)
    80000040:	fef43423          	sd	a5,-24(s0)
  }
    80000044:	fe843783          	ld	a5,-24(s0)
    80000048:	fd442703          	lw	a4,-44(s0)
    8000004c:	c398                	sw	a4,0(a5)
  return 0;
    8000004e:	0001                	nop
    80000050:	7422                	ld	s0,40(sp)
    80000052:	6145                	addi	sp,sp,48
    80000054:	8082                	ret

0000000080000056 <reg_read32>:
}
    80000056:	7179                	addi	sp,sp,-48
    80000058:	f422                	sd	s0,40(sp)
    8000005a:	1800                	addi	s0,sp,48
    8000005c:	fca43c23          	sd	a0,-40(s0)
    80000060:	fd843783          	ld	a5,-40(s0)
    80000064:	fef43423          	sd	a5,-24(s0)
    80000068:	fe843783          	ld	a5,-24(s0)
    8000006c:	439c                	lw	a5,0(a5)
    8000006e:	2781                	sext.w	a5,a5
    80000070:	853e                	mv	a0,a5
    80000072:	7422                	ld	s0,40(sp)
    80000074:	6145                	addi	sp,sp,48
    80000076:	8082                	ret

0000000080000078 <mytimer_soft_reset>:
#define CTRL_MyTimer_CLEAR    0x04
#define CTRL_MyTimer_PAUSE    0x02
#define CTRL_MyTimer_START    0x01


void mytimer_soft_reset() {
    80000078:	1141                	addi	sp,sp,-16
    8000007a:	e406                	sd	ra,8(sp)
    8000007c:	e022                	sd	s0,0(sp)
    8000007e:	0800                	addi	s0,sp,16
  reg_write32(MyTimer_control, CTRL_MyTimer_RESET);
    80000080:	45a1                	li	a1,8
    80000082:	651d                	lui	a0,0x7
    80000084:	fa9ff0ef          	jal	8000002c <reg_write32>
  reg_write32(MyTimer_control, CTRL_MyTimer_IDLE);
    80000088:	4581                	li	a1,0
    8000008a:	651d                	lui	a0,0x7
    8000008c:	fa1ff0ef          	jal	8000002c <reg_write32>
}
    80000090:	0001                	nop
    80000092:	60a2                	ld	ra,8(sp)
    80000094:	6402                	ld	s0,0(sp)
    80000096:	0141                	addi	sp,sp,16
    80000098:	8082                	ret

000000008000009a <mytimer_start>:


void mytimer_start() {
    8000009a:	1141                	addi	sp,sp,-16
    8000009c:	e406                	sd	ra,8(sp)
    8000009e:	e022                	sd	s0,0(sp)
    800000a0:	0800                	addi	s0,sp,16
  reg_write32(MyTimer_control, CTRL_MyTimer_START);
    800000a2:	4585                	li	a1,1
    800000a4:	651d                	lui	a0,0x7
    800000a6:	f87ff0ef          	jal	8000002c <reg_write32>
  reg_write32(MyTimer_control, CTRL_MyTimer_IDLE);
    800000aa:	4581                	li	a1,0
    800000ac:	651d                	lui	a0,0x7
    800000ae:	f7fff0ef          	jal	8000002c <reg_write32>
}
    800000b2:	0001                	nop
    800000b4:	60a2                	ld	ra,8(sp)
    800000b6:	6402                	ld	s0,0(sp)
    800000b8:	0141                	addi	sp,sp,16
    800000ba:	8082                	ret

00000000800000bc <mytimer_clear>:


void mytimer_clear() {
    800000bc:	1141                	addi	sp,sp,-16
    800000be:	e406                	sd	ra,8(sp)
    800000c0:	e022                	sd	s0,0(sp)
    800000c2:	0800                	addi	s0,sp,16
  reg_write32(MyTimer_control, CTRL_MyTimer_CLEAR);
    800000c4:	4591                	li	a1,4
    800000c6:	651d                	lui	a0,0x7
    800000c8:	f65ff0ef          	jal	8000002c <reg_write32>
  reg_write32(MyTimer_control, CTRL_MyTimer_IDLE);
    800000cc:	4581                	li	a1,0
    800000ce:	651d                	lui	a0,0x7
    800000d0:	f5dff0ef          	jal	8000002c <reg_write32>
}
    800000d4:	0001                	nop
    800000d6:	60a2                	ld	ra,8(sp)
    800000d8:	6402                	ld	s0,0(sp)
    800000da:	0141                	addi	sp,sp,16
    800000dc:	8082                	ret

00000000800000de <mytimer_pause_and_return>:


uint32_t mytimer_pause_and_return() {
    800000de:	1141                	addi	sp,sp,-16
    800000e0:	e406                	sd	ra,8(sp)
    800000e2:	e022                	sd	s0,0(sp)
    800000e4:	0800                	addi	s0,sp,16
  reg_write32(MyTimer_control, CTRL_MyTimer_PAUSE);
    800000e6:	4589                	li	a1,2
    800000e8:	651d                	lui	a0,0x7
    800000ea:	f43ff0ef          	jal	8000002c <reg_write32>
  reg_write32(MyTimer_control, CTRL_MyTimer_IDLE);
    800000ee:	4581                	li	a1,0
    800000f0:	651d                	lui	a0,0x7
    800000f2:	f3bff0ef          	jal	8000002c <reg_write32>
  return reg_read32(MyTimer_count);
    800000f6:	679d                	lui	a5,0x7
    800000f8:	00478513          	addi	a0,a5,4 # 7004 <_prog_start-0x7fff8ffc>
    800000fc:	f5bff0ef          	jal	80000056 <reg_read32>
    80000100:	87aa                	mv	a5,a0
    80000102:	2781                	sext.w	a5,a5
}
    80000104:	853e                	mv	a0,a5
    80000106:	60a2                	ld	ra,8(sp)
    80000108:	6402                	ld	s0,0(sp)
    8000010a:	0141                	addi	sp,sp,16
    8000010c:	8082                	ret

000000008000010e <klein64_encrypt_rounds>:

#define klein64_encrypt(plain, key, cipher) klein64_encrypt_rounds((plain), (key), ROUNDS_64, (cipher))
#define klein64_decrypt(cipher, key, plain) klein64_decrypt_rounds((cipher), (key), ROUNDS_64, (plain))

void klein64_encrypt_rounds(const uint8_t *plain, const uint8_t *key, const uint8_t rounds, uint8_t *cipher)
{
    8000010e:	715d                	addi	sp,sp,-80
    80000110:	e4a2                	sd	s0,72(sp)
    80000112:	0880                	addi	s0,sp,80
    80000114:	fca43423          	sd	a0,-56(s0)
    80000118:	fcb43023          	sd	a1,-64(s0)
    8000011c:	87b2                	mv	a5,a2
    8000011e:	fad43823          	sd	a3,-80(s0)
    80000122:	faf40fa3          	sb	a5,-65(s0)
		uint8_t state[8];
		uint8_t temp_state[8];
		uint8_t u,v = 0;
    80000126:	fe040723          	sb	zero,-18(s0)
		uint8_t round_key[8];
		uint8_t i;

		//initialize the key and the state;
		round_key[0] = key[0];
    8000012a:	fc043783          	ld	a5,-64(s0)
    8000012e:	0007c783          	lbu	a5,0(a5)
    80000132:	fcf40823          	sb	a5,-48(s0)
		round_key[1] = key[1];
    80000136:	fc043783          	ld	a5,-64(s0)
    8000013a:	0785                	addi	a5,a5,1
    8000013c:	0007c783          	lbu	a5,0(a5)
    80000140:	fcf408a3          	sb	a5,-47(s0)
		round_key[2] = key[2];
    80000144:	fc043783          	ld	a5,-64(s0)
    80000148:	0789                	addi	a5,a5,2
    8000014a:	0007c783          	lbu	a5,0(a5)
    8000014e:	fcf40923          	sb	a5,-46(s0)
		round_key[3] = key[3];
    80000152:	fc043783          	ld	a5,-64(s0)
    80000156:	078d                	addi	a5,a5,3
    80000158:	0007c783          	lbu	a5,0(a5)
    8000015c:	fcf409a3          	sb	a5,-45(s0)
		round_key[4] = key[4];
    80000160:	fc043783          	ld	a5,-64(s0)
    80000164:	0791                	addi	a5,a5,4
    80000166:	0007c783          	lbu	a5,0(a5)
    8000016a:	fcf40a23          	sb	a5,-44(s0)
		round_key[5] = key[5];
    8000016e:	fc043783          	ld	a5,-64(s0)
    80000172:	0795                	addi	a5,a5,5
    80000174:	0007c783          	lbu	a5,0(a5)
    80000178:	fcf40aa3          	sb	a5,-43(s0)
		round_key[6] = key[6];
    8000017c:	fc043783          	ld	a5,-64(s0)
    80000180:	0799                	addi	a5,a5,6
    80000182:	0007c783          	lbu	a5,0(a5)
    80000186:	fcf40b23          	sb	a5,-42(s0)
		round_key[7] = key[7];
    8000018a:	fc043783          	ld	a5,-64(s0)
    8000018e:	079d                	addi	a5,a5,7
    80000190:	0007c783          	lbu	a5,0(a5)
    80000194:	fcf40ba3          	sb	a5,-41(s0)

		state[0] = plain[0];
    80000198:	fc843783          	ld	a5,-56(s0)
    8000019c:	0007c783          	lbu	a5,0(a5)
    800001a0:	fef40023          	sb	a5,-32(s0)
		state[1] = plain[1];
    800001a4:	fc843783          	ld	a5,-56(s0)
    800001a8:	0785                	addi	a5,a5,1
    800001aa:	0007c783          	lbu	a5,0(a5)
    800001ae:	fef400a3          	sb	a5,-31(s0)
		state[2] = plain[2];
    800001b2:	fc843783          	ld	a5,-56(s0)
    800001b6:	0789                	addi	a5,a5,2
    800001b8:	0007c783          	lbu	a5,0(a5)
    800001bc:	fef40123          	sb	a5,-30(s0)
		state[3] = plain[3];
    800001c0:	fc843783          	ld	a5,-56(s0)
    800001c4:	078d                	addi	a5,a5,3
    800001c6:	0007c783          	lbu	a5,0(a5)
    800001ca:	fef401a3          	sb	a5,-29(s0)
		state[4] = plain[4];
    800001ce:	fc843783          	ld	a5,-56(s0)
    800001d2:	0791                	addi	a5,a5,4
    800001d4:	0007c783          	lbu	a5,0(a5)
    800001d8:	fef40223          	sb	a5,-28(s0)
		state[5] = plain[5];
    800001dc:	fc843783          	ld	a5,-56(s0)
    800001e0:	0795                	addi	a5,a5,5
    800001e2:	0007c783          	lbu	a5,0(a5)
    800001e6:	fef402a3          	sb	a5,-27(s0)
		state[6] = plain[6];
    800001ea:	fc843783          	ld	a5,-56(s0)
    800001ee:	0799                	addi	a5,a5,6
    800001f0:	0007c783          	lbu	a5,0(a5)
    800001f4:	fef40323          	sb	a5,-26(s0)
		state[7] = plain[7];
    800001f8:	fc843783          	ld	a5,-56(s0)
    800001fc:	079d                	addi	a5,a5,7
    800001fe:	0007c783          	lbu	a5,0(a5)
    80000202:	fef403a3          	sb	a5,-25(s0)

		for(i = 1; i <= rounds; i++)
    80000206:	4785                	li	a5,1
    80000208:	fef407a3          	sb	a5,-17(s0)
    8000020c:	a16d                	j	800006b6 <klein64_encrypt_rounds+0x5a8>
		{
			//add round key;
			state[0] = state[0] ^ round_key[0];
    8000020e:	fe044703          	lbu	a4,-32(s0)
    80000212:	fd044783          	lbu	a5,-48(s0)
    80000216:	8fb9                	xor	a5,a5,a4
    80000218:	0ff7f793          	zext.b	a5,a5
    8000021c:	fef40023          	sb	a5,-32(s0)
			state[1] = state[1] ^ round_key[1];
    80000220:	fe144703          	lbu	a4,-31(s0)
    80000224:	fd144783          	lbu	a5,-47(s0)
    80000228:	8fb9                	xor	a5,a5,a4
    8000022a:	0ff7f793          	zext.b	a5,a5
    8000022e:	fef400a3          	sb	a5,-31(s0)
			state[2] = state[2] ^ round_key[2];
    80000232:	fe244703          	lbu	a4,-30(s0)
    80000236:	fd244783          	lbu	a5,-46(s0)
    8000023a:	8fb9                	xor	a5,a5,a4
    8000023c:	0ff7f793          	zext.b	a5,a5
    80000240:	fef40123          	sb	a5,-30(s0)
			state[3] = state[3] ^ round_key[3];
    80000244:	fe344703          	lbu	a4,-29(s0)
    80000248:	fd344783          	lbu	a5,-45(s0)
    8000024c:	8fb9                	xor	a5,a5,a4
    8000024e:	0ff7f793          	zext.b	a5,a5
    80000252:	fef401a3          	sb	a5,-29(s0)
			state[4] = state[4] ^ round_key[4];
    80000256:	fe444703          	lbu	a4,-28(s0)
    8000025a:	fd444783          	lbu	a5,-44(s0)
    8000025e:	8fb9                	xor	a5,a5,a4
    80000260:	0ff7f793          	zext.b	a5,a5
    80000264:	fef40223          	sb	a5,-28(s0)
			state[5] = state[5] ^ round_key[5];
    80000268:	fe544703          	lbu	a4,-27(s0)
    8000026c:	fd544783          	lbu	a5,-43(s0)
    80000270:	8fb9                	xor	a5,a5,a4
    80000272:	0ff7f793          	zext.b	a5,a5
    80000276:	fef402a3          	sb	a5,-27(s0)
			state[6] = state[6] ^ round_key[6];
    8000027a:	fe644703          	lbu	a4,-26(s0)
    8000027e:	fd644783          	lbu	a5,-42(s0)
    80000282:	8fb9                	xor	a5,a5,a4
    80000284:	0ff7f793          	zext.b	a5,a5
    80000288:	fef40323          	sb	a5,-26(s0)
			state[7] = state[7] ^ round_key[7];
    8000028c:	fe744703          	lbu	a4,-25(s0)
    80000290:	fd744783          	lbu	a5,-41(s0)
    80000294:	8fb9                	xor	a5,a5,a4
    80000296:	0ff7f793          	zext.b	a5,a5
    8000029a:	fef403a3          	sb	a5,-25(s0)

			//key schedule;
	        temp_state[0] = round_key[0];
    8000029e:	fd044783          	lbu	a5,-48(s0)
    800002a2:	fcf40c23          	sb	a5,-40(s0)
	        temp_state[1] = round_key[1];
    800002a6:	fd144783          	lbu	a5,-47(s0)
    800002aa:	fcf40ca3          	sb	a5,-39(s0)
	        temp_state[2] = round_key[2];
    800002ae:	fd244783          	lbu	a5,-46(s0)
    800002b2:	fcf40d23          	sb	a5,-38(s0)
	        temp_state[3] = round_key[3];
    800002b6:	fd344783          	lbu	a5,-45(s0)
    800002ba:	fcf40da3          	sb	a5,-37(s0)
	        temp_state[4] = round_key[4];
    800002be:	fd444783          	lbu	a5,-44(s0)
    800002c2:	fcf40e23          	sb	a5,-36(s0)

	        round_key[0] = round_key[5];
    800002c6:	fd544783          	lbu	a5,-43(s0)
    800002ca:	fcf40823          	sb	a5,-48(s0)
	        round_key[1] = round_key[6];
    800002ce:	fd644783          	lbu	a5,-42(s0)
    800002d2:	fcf408a3          	sb	a5,-47(s0)
	        round_key[2] = round_key[7] ^ i;
    800002d6:	fd744783          	lbu	a5,-41(s0)
    800002da:	fef44703          	lbu	a4,-17(s0)
    800002de:	8fb9                	xor	a5,a5,a4
    800002e0:	0ff7f793          	zext.b	a5,a5
    800002e4:	fcf40923          	sb	a5,-46(s0)
	        round_key[3] = round_key[4];
    800002e8:	fd444783          	lbu	a5,-44(s0)
    800002ec:	fcf409a3          	sb	a5,-45(s0)

	        round_key[4] = temp_state[1] ^ round_key[5];
    800002f0:	fd944703          	lbu	a4,-39(s0)
    800002f4:	fd544783          	lbu	a5,-43(s0)
    800002f8:	8fb9                	xor	a5,a5,a4
    800002fa:	0ff7f793          	zext.b	a5,a5
    800002fe:	fcf40a23          	sb	a5,-44(s0)
	        round_key[5] = sbox8[temp_state[2] ^ round_key[6]];
    80000302:	fda44703          	lbu	a4,-38(s0)
    80000306:	fd644783          	lbu	a5,-42(s0)
    8000030a:	8fb9                	xor	a5,a5,a4
    8000030c:	0ff7f793          	zext.b	a5,a5
    80000310:	2781                	sext.w	a5,a5
    80000312:	00001717          	auipc	a4,0x1
    80000316:	7ae70713          	addi	a4,a4,1966 # 80001ac0 <sbox8>
    8000031a:	97ba                	add	a5,a5,a4
    8000031c:	0007c783          	lbu	a5,0(a5)
    80000320:	fcf40aa3          	sb	a5,-43(s0)
	        round_key[6] = sbox8[temp_state[3] ^ round_key[7]];
    80000324:	fdb44703          	lbu	a4,-37(s0)
    80000328:	fd744783          	lbu	a5,-41(s0)
    8000032c:	8fb9                	xor	a5,a5,a4
    8000032e:	0ff7f793          	zext.b	a5,a5
    80000332:	2781                	sext.w	a5,a5
    80000334:	00001717          	auipc	a4,0x1
    80000338:	78c70713          	addi	a4,a4,1932 # 80001ac0 <sbox8>
    8000033c:	97ba                	add	a5,a5,a4
    8000033e:	0007c783          	lbu	a5,0(a5)
    80000342:	fcf40b23          	sb	a5,-42(s0)
	        round_key[7] = temp_state[0] ^ temp_state[4];
    80000346:	fd844703          	lbu	a4,-40(s0)
    8000034a:	fdc44783          	lbu	a5,-36(s0)
    8000034e:	8fb9                	xor	a5,a5,a4
    80000350:	0ff7f793          	zext.b	a5,a5
    80000354:	fcf40ba3          	sb	a5,-41(s0)


			//substitute nibbles with the byte-oriented sbox;
			state[0] = sbox8[state[0]];
    80000358:	fe044783          	lbu	a5,-32(s0)
    8000035c:	2781                	sext.w	a5,a5
    8000035e:	00001717          	auipc	a4,0x1
    80000362:	76270713          	addi	a4,a4,1890 # 80001ac0 <sbox8>
    80000366:	97ba                	add	a5,a5,a4
    80000368:	0007c783          	lbu	a5,0(a5)
    8000036c:	fef40023          	sb	a5,-32(s0)
			state[1] = sbox8[state[1]];
    80000370:	fe144783          	lbu	a5,-31(s0)
    80000374:	2781                	sext.w	a5,a5
    80000376:	00001717          	auipc	a4,0x1
    8000037a:	74a70713          	addi	a4,a4,1866 # 80001ac0 <sbox8>
    8000037e:	97ba                	add	a5,a5,a4
    80000380:	0007c783          	lbu	a5,0(a5)
    80000384:	fef400a3          	sb	a5,-31(s0)
			state[2] = sbox8[state[2]];
    80000388:	fe244783          	lbu	a5,-30(s0)
    8000038c:	2781                	sext.w	a5,a5
    8000038e:	00001717          	auipc	a4,0x1
    80000392:	73270713          	addi	a4,a4,1842 # 80001ac0 <sbox8>
    80000396:	97ba                	add	a5,a5,a4
    80000398:	0007c783          	lbu	a5,0(a5)
    8000039c:	fef40123          	sb	a5,-30(s0)
			state[3] = sbox8[state[3]];
    800003a0:	fe344783          	lbu	a5,-29(s0)
    800003a4:	2781                	sext.w	a5,a5
    800003a6:	00001717          	auipc	a4,0x1
    800003aa:	71a70713          	addi	a4,a4,1818 # 80001ac0 <sbox8>
    800003ae:	97ba                	add	a5,a5,a4
    800003b0:	0007c783          	lbu	a5,0(a5)
    800003b4:	fef401a3          	sb	a5,-29(s0)
			state[4] = sbox8[state[4]];
    800003b8:	fe444783          	lbu	a5,-28(s0)
    800003bc:	2781                	sext.w	a5,a5
    800003be:	00001717          	auipc	a4,0x1
    800003c2:	70270713          	addi	a4,a4,1794 # 80001ac0 <sbox8>
    800003c6:	97ba                	add	a5,a5,a4
    800003c8:	0007c783          	lbu	a5,0(a5)
    800003cc:	fef40223          	sb	a5,-28(s0)
			state[5] = sbox8[state[5]];
    800003d0:	fe544783          	lbu	a5,-27(s0)
    800003d4:	2781                	sext.w	a5,a5
    800003d6:	00001717          	auipc	a4,0x1
    800003da:	6ea70713          	addi	a4,a4,1770 # 80001ac0 <sbox8>
    800003de:	97ba                	add	a5,a5,a4
    800003e0:	0007c783          	lbu	a5,0(a5)
    800003e4:	fef402a3          	sb	a5,-27(s0)
			state[6] = sbox8[state[6]];
    800003e8:	fe644783          	lbu	a5,-26(s0)
    800003ec:	2781                	sext.w	a5,a5
    800003ee:	00001717          	auipc	a4,0x1
    800003f2:	6d270713          	addi	a4,a4,1746 # 80001ac0 <sbox8>
    800003f6:	97ba                	add	a5,a5,a4
    800003f8:	0007c783          	lbu	a5,0(a5)
    800003fc:	fef40323          	sb	a5,-26(s0)
			state[7] = sbox8[state[7]];
    80000400:	fe744783          	lbu	a5,-25(s0)
    80000404:	2781                	sext.w	a5,a5
    80000406:	00001717          	auipc	a4,0x1
    8000040a:	6ba70713          	addi	a4,a4,1722 # 80001ac0 <sbox8>
    8000040e:	97ba                	add	a5,a5,a4
    80000410:	0007c783          	lbu	a5,0(a5)
    80000414:	fef403a3          	sb	a5,-25(s0)

	        //the RotateNibbles step, left shift two bytes;
			temp_state[0] = state[2];
    80000418:	fe244783          	lbu	a5,-30(s0)
    8000041c:	fcf40c23          	sb	a5,-40(s0)
		    temp_state[1] = state[3];
    80000420:	fe344783          	lbu	a5,-29(s0)
    80000424:	fcf40ca3          	sb	a5,-39(s0)
			temp_state[2] = state[4];
    80000428:	fe444783          	lbu	a5,-28(s0)
    8000042c:	fcf40d23          	sb	a5,-38(s0)
			temp_state[3] = state[5];
    80000430:	fe544783          	lbu	a5,-27(s0)
    80000434:	fcf40da3          	sb	a5,-37(s0)
			temp_state[4] = state[6];
    80000438:	fe644783          	lbu	a5,-26(s0)
    8000043c:	fcf40e23          	sb	a5,-36(s0)
			temp_state[5] = state[7];
    80000440:	fe744783          	lbu	a5,-25(s0)
    80000444:	fcf40ea3          	sb	a5,-35(s0)
			temp_state[6] = state[0];
    80000448:	fe044783          	lbu	a5,-32(s0)
    8000044c:	fcf40f23          	sb	a5,-34(s0)
			temp_state[7] = state[1];
    80000450:	fe144783          	lbu	a5,-31(s0)
    80000454:	fcf40fa3          	sb	a5,-33(s0)

            //an efficient MixNibbles implementation for AES, Book Page 54;
            u = temp_state[0] ^ temp_state[1] ^ temp_state[2] ^ temp_state[3];
    80000458:	fd844703          	lbu	a4,-40(s0)
    8000045c:	fd944783          	lbu	a5,-39(s0)
    80000460:	8fb9                	xor	a5,a5,a4
    80000462:	0ff7f713          	zext.b	a4,a5
    80000466:	fda44783          	lbu	a5,-38(s0)
    8000046a:	8fb9                	xor	a5,a5,a4
    8000046c:	0ff7f713          	zext.b	a4,a5
    80000470:	fdb44783          	lbu	a5,-37(s0)
    80000474:	8fb9                	xor	a5,a5,a4
    80000476:	fef406a3          	sb	a5,-19(s0)
            v = temp_state[0] ^ temp_state[1];
    8000047a:	fd844703          	lbu	a4,-40(s0)
    8000047e:	fd944783          	lbu	a5,-39(s0)
    80000482:	8fb9                	xor	a5,a5,a4
    80000484:	fef40723          	sb	a5,-18(s0)
            v = multiply2[v];
    80000488:	fee44783          	lbu	a5,-18(s0)
    8000048c:	2781                	sext.w	a5,a5
    8000048e:	00001717          	auipc	a4,0x1
    80000492:	73270713          	addi	a4,a4,1842 # 80001bc0 <multiply2>
    80000496:	97ba                	add	a5,a5,a4
    80000498:	0007c783          	lbu	a5,0(a5)
    8000049c:	fef40723          	sb	a5,-18(s0)
            state[0] = temp_state[0] ^ v ^ u;
    800004a0:	fd844783          	lbu	a5,-40(s0)
    800004a4:	fee44703          	lbu	a4,-18(s0)
    800004a8:	8fb9                	xor	a5,a5,a4
    800004aa:	0ff7f793          	zext.b	a5,a5
    800004ae:	fed44703          	lbu	a4,-19(s0)
    800004b2:	8fb9                	xor	a5,a5,a4
    800004b4:	0ff7f793          	zext.b	a5,a5
    800004b8:	fef40023          	sb	a5,-32(s0)

            v = temp_state[1] ^ temp_state[2];
    800004bc:	fd944703          	lbu	a4,-39(s0)
    800004c0:	fda44783          	lbu	a5,-38(s0)
    800004c4:	8fb9                	xor	a5,a5,a4
    800004c6:	fef40723          	sb	a5,-18(s0)
            v = multiply2[v];
    800004ca:	fee44783          	lbu	a5,-18(s0)
    800004ce:	2781                	sext.w	a5,a5
    800004d0:	00001717          	auipc	a4,0x1
    800004d4:	6f070713          	addi	a4,a4,1776 # 80001bc0 <multiply2>
    800004d8:	97ba                	add	a5,a5,a4
    800004da:	0007c783          	lbu	a5,0(a5)
    800004de:	fef40723          	sb	a5,-18(s0)
            state[1] = temp_state[1] ^ v ^ u;
    800004e2:	fd944783          	lbu	a5,-39(s0)
    800004e6:	fee44703          	lbu	a4,-18(s0)
    800004ea:	8fb9                	xor	a5,a5,a4
    800004ec:	0ff7f793          	zext.b	a5,a5
    800004f0:	fed44703          	lbu	a4,-19(s0)
    800004f4:	8fb9                	xor	a5,a5,a4
    800004f6:	0ff7f793          	zext.b	a5,a5
    800004fa:	fef400a3          	sb	a5,-31(s0)

            v = temp_state[2] ^ temp_state[3];
    800004fe:	fda44703          	lbu	a4,-38(s0)
    80000502:	fdb44783          	lbu	a5,-37(s0)
    80000506:	8fb9                	xor	a5,a5,a4
    80000508:	fef40723          	sb	a5,-18(s0)
            v = multiply2[v];
    8000050c:	fee44783          	lbu	a5,-18(s0)
    80000510:	2781                	sext.w	a5,a5
    80000512:	00001717          	auipc	a4,0x1
    80000516:	6ae70713          	addi	a4,a4,1710 # 80001bc0 <multiply2>
    8000051a:	97ba                	add	a5,a5,a4
    8000051c:	0007c783          	lbu	a5,0(a5)
    80000520:	fef40723          	sb	a5,-18(s0)
            state[2] = temp_state[2] ^ v ^ u;
    80000524:	fda44783          	lbu	a5,-38(s0)
    80000528:	fee44703          	lbu	a4,-18(s0)
    8000052c:	8fb9                	xor	a5,a5,a4
    8000052e:	0ff7f793          	zext.b	a5,a5
    80000532:	fed44703          	lbu	a4,-19(s0)
    80000536:	8fb9                	xor	a5,a5,a4
    80000538:	0ff7f793          	zext.b	a5,a5
    8000053c:	fef40123          	sb	a5,-30(s0)

            v = temp_state[3] ^ temp_state[0];
    80000540:	fdb44703          	lbu	a4,-37(s0)
    80000544:	fd844783          	lbu	a5,-40(s0)
    80000548:	8fb9                	xor	a5,a5,a4
    8000054a:	fef40723          	sb	a5,-18(s0)
            v = multiply2[v];
    8000054e:	fee44783          	lbu	a5,-18(s0)
    80000552:	2781                	sext.w	a5,a5
    80000554:	00001717          	auipc	a4,0x1
    80000558:	66c70713          	addi	a4,a4,1644 # 80001bc0 <multiply2>
    8000055c:	97ba                	add	a5,a5,a4
    8000055e:	0007c783          	lbu	a5,0(a5)
    80000562:	fef40723          	sb	a5,-18(s0)
            state[3] = temp_state[3] ^ v ^ u;
    80000566:	fdb44783          	lbu	a5,-37(s0)
    8000056a:	fee44703          	lbu	a4,-18(s0)
    8000056e:	8fb9                	xor	a5,a5,a4
    80000570:	0ff7f793          	zext.b	a5,a5
    80000574:	fed44703          	lbu	a4,-19(s0)
    80000578:	8fb9                	xor	a5,a5,a4
    8000057a:	0ff7f793          	zext.b	a5,a5
    8000057e:	fef401a3          	sb	a5,-29(s0)

            u = temp_state[4] ^ temp_state[5] ^ temp_state[6] ^ temp_state[7];
    80000582:	fdc44703          	lbu	a4,-36(s0)
    80000586:	fdd44783          	lbu	a5,-35(s0)
    8000058a:	8fb9                	xor	a5,a5,a4
    8000058c:	0ff7f713          	zext.b	a4,a5
    80000590:	fde44783          	lbu	a5,-34(s0)
    80000594:	8fb9                	xor	a5,a5,a4
    80000596:	0ff7f713          	zext.b	a4,a5
    8000059a:	fdf44783          	lbu	a5,-33(s0)
    8000059e:	8fb9                	xor	a5,a5,a4
    800005a0:	fef406a3          	sb	a5,-19(s0)
            v = temp_state[4] ^ temp_state[5];
    800005a4:	fdc44703          	lbu	a4,-36(s0)
    800005a8:	fdd44783          	lbu	a5,-35(s0)
    800005ac:	8fb9                	xor	a5,a5,a4
    800005ae:	fef40723          	sb	a5,-18(s0)
            v = multiply2[v];
    800005b2:	fee44783          	lbu	a5,-18(s0)
    800005b6:	2781                	sext.w	a5,a5
    800005b8:	00001717          	auipc	a4,0x1
    800005bc:	60870713          	addi	a4,a4,1544 # 80001bc0 <multiply2>
    800005c0:	97ba                	add	a5,a5,a4
    800005c2:	0007c783          	lbu	a5,0(a5)
    800005c6:	fef40723          	sb	a5,-18(s0)
            state[4] = temp_state[4] ^ v ^ u;
    800005ca:	fdc44783          	lbu	a5,-36(s0)
    800005ce:	fee44703          	lbu	a4,-18(s0)
    800005d2:	8fb9                	xor	a5,a5,a4
    800005d4:	0ff7f793          	zext.b	a5,a5
    800005d8:	fed44703          	lbu	a4,-19(s0)
    800005dc:	8fb9                	xor	a5,a5,a4
    800005de:	0ff7f793          	zext.b	a5,a5
    800005e2:	fef40223          	sb	a5,-28(s0)

            v = temp_state[5] ^ temp_state[6];
    800005e6:	fdd44703          	lbu	a4,-35(s0)
    800005ea:	fde44783          	lbu	a5,-34(s0)
    800005ee:	8fb9                	xor	a5,a5,a4
    800005f0:	fef40723          	sb	a5,-18(s0)
            v = multiply2[v];
    800005f4:	fee44783          	lbu	a5,-18(s0)
    800005f8:	2781                	sext.w	a5,a5
    800005fa:	00001717          	auipc	a4,0x1
    800005fe:	5c670713          	addi	a4,a4,1478 # 80001bc0 <multiply2>
    80000602:	97ba                	add	a5,a5,a4
    80000604:	0007c783          	lbu	a5,0(a5)
    80000608:	fef40723          	sb	a5,-18(s0)
            state[5] = temp_state[5] ^ v ^ u;
    8000060c:	fdd44783          	lbu	a5,-35(s0)
    80000610:	fee44703          	lbu	a4,-18(s0)
    80000614:	8fb9                	xor	a5,a5,a4
    80000616:	0ff7f793          	zext.b	a5,a5
    8000061a:	fed44703          	lbu	a4,-19(s0)
    8000061e:	8fb9                	xor	a5,a5,a4
    80000620:	0ff7f793          	zext.b	a5,a5
    80000624:	fef402a3          	sb	a5,-27(s0)

            v = temp_state[6] ^ temp_state[7];
    80000628:	fde44703          	lbu	a4,-34(s0)
    8000062c:	fdf44783          	lbu	a5,-33(s0)
    80000630:	8fb9                	xor	a5,a5,a4
    80000632:	fef40723          	sb	a5,-18(s0)
            v = multiply2[v];
    80000636:	fee44783          	lbu	a5,-18(s0)
    8000063a:	2781                	sext.w	a5,a5
    8000063c:	00001717          	auipc	a4,0x1
    80000640:	58470713          	addi	a4,a4,1412 # 80001bc0 <multiply2>
    80000644:	97ba                	add	a5,a5,a4
    80000646:	0007c783          	lbu	a5,0(a5)
    8000064a:	fef40723          	sb	a5,-18(s0)
            state[6] = temp_state[6] ^ v ^ u;
    8000064e:	fde44783          	lbu	a5,-34(s0)
    80000652:	fee44703          	lbu	a4,-18(s0)
    80000656:	8fb9                	xor	a5,a5,a4
    80000658:	0ff7f793          	zext.b	a5,a5
    8000065c:	fed44703          	lbu	a4,-19(s0)
    80000660:	8fb9                	xor	a5,a5,a4
    80000662:	0ff7f793          	zext.b	a5,a5
    80000666:	fef40323          	sb	a5,-26(s0)

            v = temp_state[7] ^ temp_state[4];
    8000066a:	fdf44703          	lbu	a4,-33(s0)
    8000066e:	fdc44783          	lbu	a5,-36(s0)
    80000672:	8fb9                	xor	a5,a5,a4
    80000674:	fef40723          	sb	a5,-18(s0)
            v = multiply2[v];
    80000678:	fee44783          	lbu	a5,-18(s0)
    8000067c:	2781                	sext.w	a5,a5
    8000067e:	00001717          	auipc	a4,0x1
    80000682:	54270713          	addi	a4,a4,1346 # 80001bc0 <multiply2>
    80000686:	97ba                	add	a5,a5,a4
    80000688:	0007c783          	lbu	a5,0(a5)
    8000068c:	fef40723          	sb	a5,-18(s0)
            state[7] = temp_state[7] ^ v ^ u;
    80000690:	fdf44783          	lbu	a5,-33(s0)
    80000694:	fee44703          	lbu	a4,-18(s0)
    80000698:	8fb9                	xor	a5,a5,a4
    8000069a:	0ff7f793          	zext.b	a5,a5
    8000069e:	fed44703          	lbu	a4,-19(s0)
    800006a2:	8fb9                	xor	a5,a5,a4
    800006a4:	0ff7f793          	zext.b	a5,a5
    800006a8:	fef403a3          	sb	a5,-25(s0)
		for(i = 1; i <= rounds; i++)
    800006ac:	fef44783          	lbu	a5,-17(s0)
    800006b0:	2785                	addiw	a5,a5,1
    800006b2:	fef407a3          	sb	a5,-17(s0)
    800006b6:	fef44783          	lbu	a5,-17(s0)
    800006ba:	873e                	mv	a4,a5
    800006bc:	fbf44783          	lbu	a5,-65(s0)
    800006c0:	0ff77713          	zext.b	a4,a4
    800006c4:	0ff7f793          	zext.b	a5,a5
    800006c8:	b4e7f3e3          	bgeu	a5,a4,8000020e <klein64_encrypt_rounds+0x100>

		}

		//xored by the whitenning key, output the ciphertext;
		cipher[0] = state[0] ^ round_key[0];
    800006cc:	fe044703          	lbu	a4,-32(s0)
    800006d0:	fd044783          	lbu	a5,-48(s0)
    800006d4:	8fb9                	xor	a5,a5,a4
    800006d6:	0ff7f713          	zext.b	a4,a5
    800006da:	fb043783          	ld	a5,-80(s0)
    800006de:	00e78023          	sb	a4,0(a5)
		cipher[1] = state[1] ^ round_key[1];
    800006e2:	fe144683          	lbu	a3,-31(s0)
    800006e6:	fd144703          	lbu	a4,-47(s0)
    800006ea:	fb043783          	ld	a5,-80(s0)
    800006ee:	0785                	addi	a5,a5,1
    800006f0:	8f35                	xor	a4,a4,a3
    800006f2:	0ff77713          	zext.b	a4,a4
    800006f6:	00e78023          	sb	a4,0(a5)
		cipher[2] = state[2] ^ round_key[2];
    800006fa:	fe244683          	lbu	a3,-30(s0)
    800006fe:	fd244703          	lbu	a4,-46(s0)
    80000702:	fb043783          	ld	a5,-80(s0)
    80000706:	0789                	addi	a5,a5,2
    80000708:	8f35                	xor	a4,a4,a3
    8000070a:	0ff77713          	zext.b	a4,a4
    8000070e:	00e78023          	sb	a4,0(a5)
		cipher[3] = state[3] ^ round_key[3];
    80000712:	fe344683          	lbu	a3,-29(s0)
    80000716:	fd344703          	lbu	a4,-45(s0)
    8000071a:	fb043783          	ld	a5,-80(s0)
    8000071e:	078d                	addi	a5,a5,3
    80000720:	8f35                	xor	a4,a4,a3
    80000722:	0ff77713          	zext.b	a4,a4
    80000726:	00e78023          	sb	a4,0(a5)
		cipher[4] = state[4] ^ round_key[4];
    8000072a:	fe444683          	lbu	a3,-28(s0)
    8000072e:	fd444703          	lbu	a4,-44(s0)
    80000732:	fb043783          	ld	a5,-80(s0)
    80000736:	0791                	addi	a5,a5,4
    80000738:	8f35                	xor	a4,a4,a3
    8000073a:	0ff77713          	zext.b	a4,a4
    8000073e:	00e78023          	sb	a4,0(a5)
		cipher[5] = state[5] ^ round_key[5];
    80000742:	fe544683          	lbu	a3,-27(s0)
    80000746:	fd544703          	lbu	a4,-43(s0)
    8000074a:	fb043783          	ld	a5,-80(s0)
    8000074e:	0795                	addi	a5,a5,5
    80000750:	8f35                	xor	a4,a4,a3
    80000752:	0ff77713          	zext.b	a4,a4
    80000756:	00e78023          	sb	a4,0(a5)
		cipher[6] = state[6] ^ round_key[6];
    8000075a:	fe644683          	lbu	a3,-26(s0)
    8000075e:	fd644703          	lbu	a4,-42(s0)
    80000762:	fb043783          	ld	a5,-80(s0)
    80000766:	0799                	addi	a5,a5,6
    80000768:	8f35                	xor	a4,a4,a3
    8000076a:	0ff77713          	zext.b	a4,a4
    8000076e:	00e78023          	sb	a4,0(a5)
		cipher[7] = state[7] ^ round_key[7];
    80000772:	fe744683          	lbu	a3,-25(s0)
    80000776:	fd744703          	lbu	a4,-41(s0)
    8000077a:	fb043783          	ld	a5,-80(s0)
    8000077e:	079d                	addi	a5,a5,7
    80000780:	8f35                	xor	a4,a4,a3
    80000782:	0ff77713          	zext.b	a4,a4
    80000786:	00e78023          	sb	a4,0(a5)

}
    8000078a:	0001                	nop
    8000078c:	6426                	ld	s0,72(sp)
    8000078e:	6161                	addi	sp,sp,80
    80000790:	8082                	ret

0000000080000792 <klein64_decrypt_rounds>:

void klein64_decrypt_rounds(const uint8_t *cipher, const uint8_t *key, const uint8_t rounds, uint8_t *plain)
{
    80000792:	715d                	addi	sp,sp,-80
    80000794:	e4a2                	sd	s0,72(sp)
    80000796:	0880                	addi	s0,sp,80
    80000798:	fca43423          	sd	a0,-56(s0)
    8000079c:	fcb43023          	sd	a1,-64(s0)
    800007a0:	87b2                	mv	a5,a2
    800007a2:	fad43823          	sd	a3,-80(s0)
    800007a6:	faf40fa3          	sb	a5,-65(s0)
	uint8_t state[8];
  uint8_t temp_state[8];
  uint8_t u,v = 0;
    800007aa:	fe040723          	sb	zero,-18(s0)
	uint8_t round_key[8];
	uint8_t i;

	//initialize the state and the key;
	round_key[0] = key[0];
    800007ae:	fc043783          	ld	a5,-64(s0)
    800007b2:	0007c783          	lbu	a5,0(a5)
    800007b6:	fcf40823          	sb	a5,-48(s0)
	round_key[1] = key[1];
    800007ba:	fc043783          	ld	a5,-64(s0)
    800007be:	0785                	addi	a5,a5,1
    800007c0:	0007c783          	lbu	a5,0(a5)
    800007c4:	fcf408a3          	sb	a5,-47(s0)
	round_key[2] = key[2];
    800007c8:	fc043783          	ld	a5,-64(s0)
    800007cc:	0789                	addi	a5,a5,2
    800007ce:	0007c783          	lbu	a5,0(a5)
    800007d2:	fcf40923          	sb	a5,-46(s0)
	round_key[3] = key[3];
    800007d6:	fc043783          	ld	a5,-64(s0)
    800007da:	078d                	addi	a5,a5,3
    800007dc:	0007c783          	lbu	a5,0(a5)
    800007e0:	fcf409a3          	sb	a5,-45(s0)
	round_key[4] = key[4];
    800007e4:	fc043783          	ld	a5,-64(s0)
    800007e8:	0791                	addi	a5,a5,4
    800007ea:	0007c783          	lbu	a5,0(a5)
    800007ee:	fcf40a23          	sb	a5,-44(s0)
	round_key[5] = key[5];
    800007f2:	fc043783          	ld	a5,-64(s0)
    800007f6:	0795                	addi	a5,a5,5
    800007f8:	0007c783          	lbu	a5,0(a5)
    800007fc:	fcf40aa3          	sb	a5,-43(s0)
	round_key[6] = key[6];
    80000800:	fc043783          	ld	a5,-64(s0)
    80000804:	0799                	addi	a5,a5,6
    80000806:	0007c783          	lbu	a5,0(a5)
    8000080a:	fcf40b23          	sb	a5,-42(s0)
	round_key[7] = key[7];
    8000080e:	fc043783          	ld	a5,-64(s0)
    80000812:	079d                	addi	a5,a5,7
    80000814:	0007c783          	lbu	a5,0(a5)
    80000818:	fcf40ba3          	sb	a5,-41(s0)

	//key expansion
	for(i = 1; i <= rounds; i++)
    8000081c:	4785                	li	a5,1
    8000081e:	fef407a3          	sb	a5,-17(s0)
    80000822:	a0d9                	j	800008e8 <klein64_decrypt_rounds+0x156>
	{
        temp_state[0] = round_key[0];
    80000824:	fd044783          	lbu	a5,-48(s0)
    80000828:	fcf40c23          	sb	a5,-40(s0)
        temp_state[1] = round_key[1];
    8000082c:	fd144783          	lbu	a5,-47(s0)
    80000830:	fcf40ca3          	sb	a5,-39(s0)
        temp_state[2] = round_key[2];
    80000834:	fd244783          	lbu	a5,-46(s0)
    80000838:	fcf40d23          	sb	a5,-38(s0)
        temp_state[3] = round_key[3];
    8000083c:	fd344783          	lbu	a5,-45(s0)
    80000840:	fcf40da3          	sb	a5,-37(s0)
        temp_state[4] = round_key[4];
    80000844:	fd444783          	lbu	a5,-44(s0)
    80000848:	fcf40e23          	sb	a5,-36(s0)

        round_key[0] = round_key[5];
    8000084c:	fd544783          	lbu	a5,-43(s0)
    80000850:	fcf40823          	sb	a5,-48(s0)
        round_key[1] = round_key[6];
    80000854:	fd644783          	lbu	a5,-42(s0)
    80000858:	fcf408a3          	sb	a5,-47(s0)
        round_key[2] = round_key[7] ^ i;
    8000085c:	fd744783          	lbu	a5,-41(s0)
    80000860:	fef44703          	lbu	a4,-17(s0)
    80000864:	8fb9                	xor	a5,a5,a4
    80000866:	0ff7f793          	zext.b	a5,a5
    8000086a:	fcf40923          	sb	a5,-46(s0)
        round_key[3] = round_key[4];
    8000086e:	fd444783          	lbu	a5,-44(s0)
    80000872:	fcf409a3          	sb	a5,-45(s0)

        round_key[4] = temp_state[1] ^ round_key[5];
    80000876:	fd944703          	lbu	a4,-39(s0)
    8000087a:	fd544783          	lbu	a5,-43(s0)
    8000087e:	8fb9                	xor	a5,a5,a4
    80000880:	0ff7f793          	zext.b	a5,a5
    80000884:	fcf40a23          	sb	a5,-44(s0)
        round_key[5] = sbox8[temp_state[2] ^ round_key[6]];
    80000888:	fda44703          	lbu	a4,-38(s0)
    8000088c:	fd644783          	lbu	a5,-42(s0)
    80000890:	8fb9                	xor	a5,a5,a4
    80000892:	0ff7f793          	zext.b	a5,a5
    80000896:	2781                	sext.w	a5,a5
    80000898:	00001717          	auipc	a4,0x1
    8000089c:	22870713          	addi	a4,a4,552 # 80001ac0 <sbox8>
    800008a0:	97ba                	add	a5,a5,a4
    800008a2:	0007c783          	lbu	a5,0(a5)
    800008a6:	fcf40aa3          	sb	a5,-43(s0)
        round_key[6] = sbox8[temp_state[3] ^ round_key[7]];
    800008aa:	fdb44703          	lbu	a4,-37(s0)
    800008ae:	fd744783          	lbu	a5,-41(s0)
    800008b2:	8fb9                	xor	a5,a5,a4
    800008b4:	0ff7f793          	zext.b	a5,a5
    800008b8:	2781                	sext.w	a5,a5
    800008ba:	00001717          	auipc	a4,0x1
    800008be:	20670713          	addi	a4,a4,518 # 80001ac0 <sbox8>
    800008c2:	97ba                	add	a5,a5,a4
    800008c4:	0007c783          	lbu	a5,0(a5)
    800008c8:	fcf40b23          	sb	a5,-42(s0)
        round_key[7] = temp_state[0] ^ temp_state[4];
    800008cc:	fd844703          	lbu	a4,-40(s0)
    800008d0:	fdc44783          	lbu	a5,-36(s0)
    800008d4:	8fb9                	xor	a5,a5,a4
    800008d6:	0ff7f793          	zext.b	a5,a5
    800008da:	fcf40ba3          	sb	a5,-41(s0)
	for(i = 1; i <= rounds; i++)
    800008de:	fef44783          	lbu	a5,-17(s0)
    800008e2:	2785                	addiw	a5,a5,1
    800008e4:	fef407a3          	sb	a5,-17(s0)
    800008e8:	fef44783          	lbu	a5,-17(s0)
    800008ec:	873e                	mv	a4,a5
    800008ee:	fbf44783          	lbu	a5,-65(s0)
    800008f2:	0ff77713          	zext.b	a4,a4
    800008f6:	0ff7f793          	zext.b	a5,a5
    800008fa:	f2e7f5e3          	bgeu	a5,a4,80000824 <klein64_decrypt_rounds+0x92>

	}

	state[0] = cipher[0] ^ round_key[0];
    800008fe:	fc843783          	ld	a5,-56(s0)
    80000902:	0007c703          	lbu	a4,0(a5)
    80000906:	fd044783          	lbu	a5,-48(s0)
    8000090a:	8fb9                	xor	a5,a5,a4
    8000090c:	0ff7f793          	zext.b	a5,a5
    80000910:	fef40023          	sb	a5,-32(s0)
  state[1] = cipher[1] ^ round_key[1];
    80000914:	fc843783          	ld	a5,-56(s0)
    80000918:	0785                	addi	a5,a5,1
    8000091a:	0007c703          	lbu	a4,0(a5)
    8000091e:	fd144783          	lbu	a5,-47(s0)
    80000922:	8fb9                	xor	a5,a5,a4
    80000924:	0ff7f793          	zext.b	a5,a5
    80000928:	fef400a3          	sb	a5,-31(s0)
	state[2] = cipher[2] ^ round_key[2];
    8000092c:	fc843783          	ld	a5,-56(s0)
    80000930:	0789                	addi	a5,a5,2
    80000932:	0007c703          	lbu	a4,0(a5)
    80000936:	fd244783          	lbu	a5,-46(s0)
    8000093a:	8fb9                	xor	a5,a5,a4
    8000093c:	0ff7f793          	zext.b	a5,a5
    80000940:	fef40123          	sb	a5,-30(s0)
	state[3] = cipher[3] ^ round_key[3];
    80000944:	fc843783          	ld	a5,-56(s0)
    80000948:	078d                	addi	a5,a5,3
    8000094a:	0007c703          	lbu	a4,0(a5)
    8000094e:	fd344783          	lbu	a5,-45(s0)
    80000952:	8fb9                	xor	a5,a5,a4
    80000954:	0ff7f793          	zext.b	a5,a5
    80000958:	fef401a3          	sb	a5,-29(s0)
	state[4] = cipher[4] ^ round_key[4];
    8000095c:	fc843783          	ld	a5,-56(s0)
    80000960:	0791                	addi	a5,a5,4
    80000962:	0007c703          	lbu	a4,0(a5)
    80000966:	fd444783          	lbu	a5,-44(s0)
    8000096a:	8fb9                	xor	a5,a5,a4
    8000096c:	0ff7f793          	zext.b	a5,a5
    80000970:	fef40223          	sb	a5,-28(s0)
	state[5] = cipher[5] ^ round_key[5];
    80000974:	fc843783          	ld	a5,-56(s0)
    80000978:	0795                	addi	a5,a5,5
    8000097a:	0007c703          	lbu	a4,0(a5)
    8000097e:	fd544783          	lbu	a5,-43(s0)
    80000982:	8fb9                	xor	a5,a5,a4
    80000984:	0ff7f793          	zext.b	a5,a5
    80000988:	fef402a3          	sb	a5,-27(s0)
	state[6] = cipher[6] ^ round_key[6];
    8000098c:	fc843783          	ld	a5,-56(s0)
    80000990:	0799                	addi	a5,a5,6
    80000992:	0007c703          	lbu	a4,0(a5)
    80000996:	fd644783          	lbu	a5,-42(s0)
    8000099a:	8fb9                	xor	a5,a5,a4
    8000099c:	0ff7f793          	zext.b	a5,a5
    800009a0:	fef40323          	sb	a5,-26(s0)
	state[7] = cipher[7] ^ round_key[7];
    800009a4:	fc843783          	ld	a5,-56(s0)
    800009a8:	079d                	addi	a5,a5,7
    800009aa:	0007c703          	lbu	a4,0(a5)
    800009ae:	fd744783          	lbu	a5,-41(s0)
    800009b2:	8fb9                	xor	a5,a5,a4
    800009b4:	0ff7f793          	zext.b	a5,a5
    800009b8:	fef403a3          	sb	a5,-25(s0)

	//inverse the subsequent rounds;
	for(i = 0; i < rounds; i++)
    800009bc:	fe0407a3          	sb	zero,-17(s0)
    800009c0:	a505                	j	80000fe0 <klein64_decrypt_rounds+0x84e>
	{
		//inverse the MixNibbles and the Rotate steps;
		temp_state[0] = state[0];
    800009c2:	fe044783          	lbu	a5,-32(s0)
    800009c6:	fcf40c23          	sb	a5,-40(s0)
		temp_state[1] = state[1];
    800009ca:	fe144783          	lbu	a5,-31(s0)
    800009ce:	fcf40ca3          	sb	a5,-39(s0)
		temp_state[2] = state[2];
    800009d2:	fe244783          	lbu	a5,-30(s0)
    800009d6:	fcf40d23          	sb	a5,-38(s0)
		temp_state[3] = state[3];
    800009da:	fe344783          	lbu	a5,-29(s0)
    800009de:	fcf40da3          	sb	a5,-37(s0)
		temp_state[4] = state[4];
    800009e2:	fe444783          	lbu	a5,-28(s0)
    800009e6:	fcf40e23          	sb	a5,-36(s0)
		temp_state[5] = state[5];
    800009ea:	fe544783          	lbu	a5,-27(s0)
    800009ee:	fcf40ea3          	sb	a5,-35(s0)
		temp_state[6] = state[6];
    800009f2:	fe644783          	lbu	a5,-26(s0)
    800009f6:	fcf40f23          	sb	a5,-34(s0)
		temp_state[7] = state[7];
    800009fa:	fe744783          	lbu	a5,-25(s0)
    800009fe:	fcf40fa3          	sb	a5,-33(s0)

		u = multiply2[multiply2[temp_state[0] ^ temp_state[2]]];
    80000a02:	fd844703          	lbu	a4,-40(s0)
    80000a06:	fda44783          	lbu	a5,-38(s0)
    80000a0a:	8fb9                	xor	a5,a5,a4
    80000a0c:	0ff7f793          	zext.b	a5,a5
    80000a10:	2781                	sext.w	a5,a5
    80000a12:	00001717          	auipc	a4,0x1
    80000a16:	1ae70713          	addi	a4,a4,430 # 80001bc0 <multiply2>
    80000a1a:	97ba                	add	a5,a5,a4
    80000a1c:	0007c783          	lbu	a5,0(a5)
    80000a20:	2781                	sext.w	a5,a5
    80000a22:	00001717          	auipc	a4,0x1
    80000a26:	19e70713          	addi	a4,a4,414 # 80001bc0 <multiply2>
    80000a2a:	97ba                	add	a5,a5,a4
    80000a2c:	0007c783          	lbu	a5,0(a5)
    80000a30:	fef406a3          	sb	a5,-19(s0)
		v = multiply2[multiply2[temp_state[1] ^ temp_state[3]]];
    80000a34:	fd944703          	lbu	a4,-39(s0)
    80000a38:	fdb44783          	lbu	a5,-37(s0)
    80000a3c:	8fb9                	xor	a5,a5,a4
    80000a3e:	0ff7f793          	zext.b	a5,a5
    80000a42:	2781                	sext.w	a5,a5
    80000a44:	00001717          	auipc	a4,0x1
    80000a48:	17c70713          	addi	a4,a4,380 # 80001bc0 <multiply2>
    80000a4c:	97ba                	add	a5,a5,a4
    80000a4e:	0007c783          	lbu	a5,0(a5)
    80000a52:	2781                	sext.w	a5,a5
    80000a54:	00001717          	auipc	a4,0x1
    80000a58:	16c70713          	addi	a4,a4,364 # 80001bc0 <multiply2>
    80000a5c:	97ba                	add	a5,a5,a4
    80000a5e:	0007c783          	lbu	a5,0(a5)
    80000a62:	fef40723          	sb	a5,-18(s0)

		temp_state[0] = temp_state[0] ^ u;
    80000a66:	fd844783          	lbu	a5,-40(s0)
    80000a6a:	fed44703          	lbu	a4,-19(s0)
    80000a6e:	8fb9                	xor	a5,a5,a4
    80000a70:	0ff7f793          	zext.b	a5,a5
    80000a74:	fcf40c23          	sb	a5,-40(s0)
		temp_state[1] = temp_state[1] ^ v;
    80000a78:	fd944783          	lbu	a5,-39(s0)
    80000a7c:	fee44703          	lbu	a4,-18(s0)
    80000a80:	8fb9                	xor	a5,a5,a4
    80000a82:	0ff7f793          	zext.b	a5,a5
    80000a86:	fcf40ca3          	sb	a5,-39(s0)
		temp_state[2] = temp_state[2] ^ u;
    80000a8a:	fda44783          	lbu	a5,-38(s0)
    80000a8e:	fed44703          	lbu	a4,-19(s0)
    80000a92:	8fb9                	xor	a5,a5,a4
    80000a94:	0ff7f793          	zext.b	a5,a5
    80000a98:	fcf40d23          	sb	a5,-38(s0)
		temp_state[3] = temp_state[3] ^ v;
    80000a9c:	fdb44783          	lbu	a5,-37(s0)
    80000aa0:	fee44703          	lbu	a4,-18(s0)
    80000aa4:	8fb9                	xor	a5,a5,a4
    80000aa6:	0ff7f793          	zext.b	a5,a5
    80000aaa:	fcf40da3          	sb	a5,-37(s0)

		u = multiply2[multiply2[temp_state[4] ^ temp_state[6]]];
    80000aae:	fdc44703          	lbu	a4,-36(s0)
    80000ab2:	fde44783          	lbu	a5,-34(s0)
    80000ab6:	8fb9                	xor	a5,a5,a4
    80000ab8:	0ff7f793          	zext.b	a5,a5
    80000abc:	2781                	sext.w	a5,a5
    80000abe:	00001717          	auipc	a4,0x1
    80000ac2:	10270713          	addi	a4,a4,258 # 80001bc0 <multiply2>
    80000ac6:	97ba                	add	a5,a5,a4
    80000ac8:	0007c783          	lbu	a5,0(a5)
    80000acc:	2781                	sext.w	a5,a5
    80000ace:	00001717          	auipc	a4,0x1
    80000ad2:	0f270713          	addi	a4,a4,242 # 80001bc0 <multiply2>
    80000ad6:	97ba                	add	a5,a5,a4
    80000ad8:	0007c783          	lbu	a5,0(a5)
    80000adc:	fef406a3          	sb	a5,-19(s0)
		v = multiply2[multiply2[temp_state[5] ^ temp_state[7]]];
    80000ae0:	fdd44703          	lbu	a4,-35(s0)
    80000ae4:	fdf44783          	lbu	a5,-33(s0)
    80000ae8:	8fb9                	xor	a5,a5,a4
    80000aea:	0ff7f793          	zext.b	a5,a5
    80000aee:	2781                	sext.w	a5,a5
    80000af0:	00001717          	auipc	a4,0x1
    80000af4:	0d070713          	addi	a4,a4,208 # 80001bc0 <multiply2>
    80000af8:	97ba                	add	a5,a5,a4
    80000afa:	0007c783          	lbu	a5,0(a5)
    80000afe:	2781                	sext.w	a5,a5
    80000b00:	00001717          	auipc	a4,0x1
    80000b04:	0c070713          	addi	a4,a4,192 # 80001bc0 <multiply2>
    80000b08:	97ba                	add	a5,a5,a4
    80000b0a:	0007c783          	lbu	a5,0(a5)
    80000b0e:	fef40723          	sb	a5,-18(s0)

		temp_state[4] = temp_state[4] ^ u;
    80000b12:	fdc44783          	lbu	a5,-36(s0)
    80000b16:	fed44703          	lbu	a4,-19(s0)
    80000b1a:	8fb9                	xor	a5,a5,a4
    80000b1c:	0ff7f793          	zext.b	a5,a5
    80000b20:	fcf40e23          	sb	a5,-36(s0)
		temp_state[5] = temp_state[5] ^ v;
    80000b24:	fdd44783          	lbu	a5,-35(s0)
    80000b28:	fee44703          	lbu	a4,-18(s0)
    80000b2c:	8fb9                	xor	a5,a5,a4
    80000b2e:	0ff7f793          	zext.b	a5,a5
    80000b32:	fcf40ea3          	sb	a5,-35(s0)
		temp_state[6] = temp_state[6] ^ u;
    80000b36:	fde44783          	lbu	a5,-34(s0)
    80000b3a:	fed44703          	lbu	a4,-19(s0)
    80000b3e:	8fb9                	xor	a5,a5,a4
    80000b40:	0ff7f793          	zext.b	a5,a5
    80000b44:	fcf40f23          	sb	a5,-34(s0)
		temp_state[7] = temp_state[7] ^ v;
    80000b48:	fdf44783          	lbu	a5,-33(s0)
    80000b4c:	fee44703          	lbu	a4,-18(s0)
    80000b50:	8fb9                	xor	a5,a5,a4
    80000b52:	0ff7f793          	zext.b	a5,a5
    80000b56:	fcf40fa3          	sb	a5,-33(s0)

        u = temp_state[0] ^ temp_state[1] ^ temp_state[2] ^ temp_state[3];
    80000b5a:	fd844703          	lbu	a4,-40(s0)
    80000b5e:	fd944783          	lbu	a5,-39(s0)
    80000b62:	8fb9                	xor	a5,a5,a4
    80000b64:	0ff7f713          	zext.b	a4,a5
    80000b68:	fda44783          	lbu	a5,-38(s0)
    80000b6c:	8fb9                	xor	a5,a5,a4
    80000b6e:	0ff7f713          	zext.b	a4,a5
    80000b72:	fdb44783          	lbu	a5,-37(s0)
    80000b76:	8fb9                	xor	a5,a5,a4
    80000b78:	fef406a3          	sb	a5,-19(s0)
        v = temp_state[0] ^ temp_state[1];
    80000b7c:	fd844703          	lbu	a4,-40(s0)
    80000b80:	fd944783          	lbu	a5,-39(s0)
    80000b84:	8fb9                	xor	a5,a5,a4
    80000b86:	fef40723          	sb	a5,-18(s0)
        v = multiply2[v];
    80000b8a:	fee44783          	lbu	a5,-18(s0)
    80000b8e:	2781                	sext.w	a5,a5
    80000b90:	00001717          	auipc	a4,0x1
    80000b94:	03070713          	addi	a4,a4,48 # 80001bc0 <multiply2>
    80000b98:	97ba                	add	a5,a5,a4
    80000b9a:	0007c783          	lbu	a5,0(a5)
    80000b9e:	fef40723          	sb	a5,-18(s0)
        state[2] = temp_state[0] ^ v ^ u;
    80000ba2:	fd844783          	lbu	a5,-40(s0)
    80000ba6:	fee44703          	lbu	a4,-18(s0)
    80000baa:	8fb9                	xor	a5,a5,a4
    80000bac:	0ff7f793          	zext.b	a5,a5
    80000bb0:	fed44703          	lbu	a4,-19(s0)
    80000bb4:	8fb9                	xor	a5,a5,a4
    80000bb6:	0ff7f793          	zext.b	a5,a5
    80000bba:	fef40123          	sb	a5,-30(s0)

        v = temp_state[1] ^ temp_state[2];
    80000bbe:	fd944703          	lbu	a4,-39(s0)
    80000bc2:	fda44783          	lbu	a5,-38(s0)
    80000bc6:	8fb9                	xor	a5,a5,a4
    80000bc8:	fef40723          	sb	a5,-18(s0)
        v = multiply2[v];
    80000bcc:	fee44783          	lbu	a5,-18(s0)
    80000bd0:	2781                	sext.w	a5,a5
    80000bd2:	00001717          	auipc	a4,0x1
    80000bd6:	fee70713          	addi	a4,a4,-18 # 80001bc0 <multiply2>
    80000bda:	97ba                	add	a5,a5,a4
    80000bdc:	0007c783          	lbu	a5,0(a5)
    80000be0:	fef40723          	sb	a5,-18(s0)
        state[3] = temp_state[1] ^ v ^ u;
    80000be4:	fd944783          	lbu	a5,-39(s0)
    80000be8:	fee44703          	lbu	a4,-18(s0)
    80000bec:	8fb9                	xor	a5,a5,a4
    80000bee:	0ff7f793          	zext.b	a5,a5
    80000bf2:	fed44703          	lbu	a4,-19(s0)
    80000bf6:	8fb9                	xor	a5,a5,a4
    80000bf8:	0ff7f793          	zext.b	a5,a5
    80000bfc:	fef401a3          	sb	a5,-29(s0)

        v = temp_state[2] ^ temp_state[3];
    80000c00:	fda44703          	lbu	a4,-38(s0)
    80000c04:	fdb44783          	lbu	a5,-37(s0)
    80000c08:	8fb9                	xor	a5,a5,a4
    80000c0a:	fef40723          	sb	a5,-18(s0)
        v = multiply2[v];
    80000c0e:	fee44783          	lbu	a5,-18(s0)
    80000c12:	2781                	sext.w	a5,a5
    80000c14:	00001717          	auipc	a4,0x1
    80000c18:	fac70713          	addi	a4,a4,-84 # 80001bc0 <multiply2>
    80000c1c:	97ba                	add	a5,a5,a4
    80000c1e:	0007c783          	lbu	a5,0(a5)
    80000c22:	fef40723          	sb	a5,-18(s0)
        state[4] = temp_state[2] ^ v ^ u;
    80000c26:	fda44783          	lbu	a5,-38(s0)
    80000c2a:	fee44703          	lbu	a4,-18(s0)
    80000c2e:	8fb9                	xor	a5,a5,a4
    80000c30:	0ff7f793          	zext.b	a5,a5
    80000c34:	fed44703          	lbu	a4,-19(s0)
    80000c38:	8fb9                	xor	a5,a5,a4
    80000c3a:	0ff7f793          	zext.b	a5,a5
    80000c3e:	fef40223          	sb	a5,-28(s0)

        v = temp_state[3] ^ temp_state[0];
    80000c42:	fdb44703          	lbu	a4,-37(s0)
    80000c46:	fd844783          	lbu	a5,-40(s0)
    80000c4a:	8fb9                	xor	a5,a5,a4
    80000c4c:	fef40723          	sb	a5,-18(s0)
        v = multiply2[v];
    80000c50:	fee44783          	lbu	a5,-18(s0)
    80000c54:	2781                	sext.w	a5,a5
    80000c56:	00001717          	auipc	a4,0x1
    80000c5a:	f6a70713          	addi	a4,a4,-150 # 80001bc0 <multiply2>
    80000c5e:	97ba                	add	a5,a5,a4
    80000c60:	0007c783          	lbu	a5,0(a5)
    80000c64:	fef40723          	sb	a5,-18(s0)
        state[5] = temp_state[3] ^ v ^ u;
    80000c68:	fdb44783          	lbu	a5,-37(s0)
    80000c6c:	fee44703          	lbu	a4,-18(s0)
    80000c70:	8fb9                	xor	a5,a5,a4
    80000c72:	0ff7f793          	zext.b	a5,a5
    80000c76:	fed44703          	lbu	a4,-19(s0)
    80000c7a:	8fb9                	xor	a5,a5,a4
    80000c7c:	0ff7f793          	zext.b	a5,a5
    80000c80:	fef402a3          	sb	a5,-27(s0)

        u = temp_state[4] ^ temp_state[5] ^ temp_state[6] ^ temp_state[7];
    80000c84:	fdc44703          	lbu	a4,-36(s0)
    80000c88:	fdd44783          	lbu	a5,-35(s0)
    80000c8c:	8fb9                	xor	a5,a5,a4
    80000c8e:	0ff7f713          	zext.b	a4,a5
    80000c92:	fde44783          	lbu	a5,-34(s0)
    80000c96:	8fb9                	xor	a5,a5,a4
    80000c98:	0ff7f713          	zext.b	a4,a5
    80000c9c:	fdf44783          	lbu	a5,-33(s0)
    80000ca0:	8fb9                	xor	a5,a5,a4
    80000ca2:	fef406a3          	sb	a5,-19(s0)
        v = temp_state[4] ^ temp_state[5];
    80000ca6:	fdc44703          	lbu	a4,-36(s0)
    80000caa:	fdd44783          	lbu	a5,-35(s0)
    80000cae:	8fb9                	xor	a5,a5,a4
    80000cb0:	fef40723          	sb	a5,-18(s0)
        v = multiply2[v];
    80000cb4:	fee44783          	lbu	a5,-18(s0)
    80000cb8:	2781                	sext.w	a5,a5
    80000cba:	00001717          	auipc	a4,0x1
    80000cbe:	f0670713          	addi	a4,a4,-250 # 80001bc0 <multiply2>
    80000cc2:	97ba                	add	a5,a5,a4
    80000cc4:	0007c783          	lbu	a5,0(a5)
    80000cc8:	fef40723          	sb	a5,-18(s0)
        state[6] = temp_state[4] ^ v ^ u;
    80000ccc:	fdc44783          	lbu	a5,-36(s0)
    80000cd0:	fee44703          	lbu	a4,-18(s0)
    80000cd4:	8fb9                	xor	a5,a5,a4
    80000cd6:	0ff7f793          	zext.b	a5,a5
    80000cda:	fed44703          	lbu	a4,-19(s0)
    80000cde:	8fb9                	xor	a5,a5,a4
    80000ce0:	0ff7f793          	zext.b	a5,a5
    80000ce4:	fef40323          	sb	a5,-26(s0)

        v = temp_state[5] ^ temp_state[6];
    80000ce8:	fdd44703          	lbu	a4,-35(s0)
    80000cec:	fde44783          	lbu	a5,-34(s0)
    80000cf0:	8fb9                	xor	a5,a5,a4
    80000cf2:	fef40723          	sb	a5,-18(s0)
        v = multiply2[v];
    80000cf6:	fee44783          	lbu	a5,-18(s0)
    80000cfa:	2781                	sext.w	a5,a5
    80000cfc:	00001717          	auipc	a4,0x1
    80000d00:	ec470713          	addi	a4,a4,-316 # 80001bc0 <multiply2>
    80000d04:	97ba                	add	a5,a5,a4
    80000d06:	0007c783          	lbu	a5,0(a5)
    80000d0a:	fef40723          	sb	a5,-18(s0)
        state[7] = temp_state[5] ^ v ^ u;
    80000d0e:	fdd44783          	lbu	a5,-35(s0)
    80000d12:	fee44703          	lbu	a4,-18(s0)
    80000d16:	8fb9                	xor	a5,a5,a4
    80000d18:	0ff7f793          	zext.b	a5,a5
    80000d1c:	fed44703          	lbu	a4,-19(s0)
    80000d20:	8fb9                	xor	a5,a5,a4
    80000d22:	0ff7f793          	zext.b	a5,a5
    80000d26:	fef403a3          	sb	a5,-25(s0)

        v = temp_state[6] ^ temp_state[7];
    80000d2a:	fde44703          	lbu	a4,-34(s0)
    80000d2e:	fdf44783          	lbu	a5,-33(s0)
    80000d32:	8fb9                	xor	a5,a5,a4
    80000d34:	fef40723          	sb	a5,-18(s0)
        v = multiply2[v];
    80000d38:	fee44783          	lbu	a5,-18(s0)
    80000d3c:	2781                	sext.w	a5,a5
    80000d3e:	00001717          	auipc	a4,0x1
    80000d42:	e8270713          	addi	a4,a4,-382 # 80001bc0 <multiply2>
    80000d46:	97ba                	add	a5,a5,a4
    80000d48:	0007c783          	lbu	a5,0(a5)
    80000d4c:	fef40723          	sb	a5,-18(s0)
        state[0] = temp_state[6] ^ v ^ u;
    80000d50:	fde44783          	lbu	a5,-34(s0)
    80000d54:	fee44703          	lbu	a4,-18(s0)
    80000d58:	8fb9                	xor	a5,a5,a4
    80000d5a:	0ff7f793          	zext.b	a5,a5
    80000d5e:	fed44703          	lbu	a4,-19(s0)
    80000d62:	8fb9                	xor	a5,a5,a4
    80000d64:	0ff7f793          	zext.b	a5,a5
    80000d68:	fef40023          	sb	a5,-32(s0)

        v = temp_state[7] ^ temp_state[4];
    80000d6c:	fdf44703          	lbu	a4,-33(s0)
    80000d70:	fdc44783          	lbu	a5,-36(s0)
    80000d74:	8fb9                	xor	a5,a5,a4
    80000d76:	fef40723          	sb	a5,-18(s0)
        v = multiply2[v];
    80000d7a:	fee44783          	lbu	a5,-18(s0)
    80000d7e:	2781                	sext.w	a5,a5
    80000d80:	00001717          	auipc	a4,0x1
    80000d84:	e4070713          	addi	a4,a4,-448 # 80001bc0 <multiply2>
    80000d88:	97ba                	add	a5,a5,a4
    80000d8a:	0007c783          	lbu	a5,0(a5)
    80000d8e:	fef40723          	sb	a5,-18(s0)
        state[1] = temp_state[7] ^ v ^ u;
    80000d92:	fdf44783          	lbu	a5,-33(s0)
    80000d96:	fee44703          	lbu	a4,-18(s0)
    80000d9a:	8fb9                	xor	a5,a5,a4
    80000d9c:	0ff7f793          	zext.b	a5,a5
    80000da0:	fed44703          	lbu	a4,-19(s0)
    80000da4:	8fb9                	xor	a5,a5,a4
    80000da6:	0ff7f793          	zext.b	a5,a5
    80000daa:	fef400a3          	sb	a5,-31(s0)

        //inverse the SubNibbles step;
		state[0] = sbox8[state[0]];
    80000dae:	fe044783          	lbu	a5,-32(s0)
    80000db2:	2781                	sext.w	a5,a5
    80000db4:	00001717          	auipc	a4,0x1
    80000db8:	d0c70713          	addi	a4,a4,-756 # 80001ac0 <sbox8>
    80000dbc:	97ba                	add	a5,a5,a4
    80000dbe:	0007c783          	lbu	a5,0(a5)
    80000dc2:	fef40023          	sb	a5,-32(s0)
		state[1] = sbox8[state[1]];
    80000dc6:	fe144783          	lbu	a5,-31(s0)
    80000dca:	2781                	sext.w	a5,a5
    80000dcc:	00001717          	auipc	a4,0x1
    80000dd0:	cf470713          	addi	a4,a4,-780 # 80001ac0 <sbox8>
    80000dd4:	97ba                	add	a5,a5,a4
    80000dd6:	0007c783          	lbu	a5,0(a5)
    80000dda:	fef400a3          	sb	a5,-31(s0)
		state[2] = sbox8[state[2]];
    80000dde:	fe244783          	lbu	a5,-30(s0)
    80000de2:	2781                	sext.w	a5,a5
    80000de4:	00001717          	auipc	a4,0x1
    80000de8:	cdc70713          	addi	a4,a4,-804 # 80001ac0 <sbox8>
    80000dec:	97ba                	add	a5,a5,a4
    80000dee:	0007c783          	lbu	a5,0(a5)
    80000df2:	fef40123          	sb	a5,-30(s0)
		state[3] = sbox8[state[3]];
    80000df6:	fe344783          	lbu	a5,-29(s0)
    80000dfa:	2781                	sext.w	a5,a5
    80000dfc:	00001717          	auipc	a4,0x1
    80000e00:	cc470713          	addi	a4,a4,-828 # 80001ac0 <sbox8>
    80000e04:	97ba                	add	a5,a5,a4
    80000e06:	0007c783          	lbu	a5,0(a5)
    80000e0a:	fef401a3          	sb	a5,-29(s0)
		state[4] = sbox8[state[4]];
    80000e0e:	fe444783          	lbu	a5,-28(s0)
    80000e12:	2781                	sext.w	a5,a5
    80000e14:	00001717          	auipc	a4,0x1
    80000e18:	cac70713          	addi	a4,a4,-852 # 80001ac0 <sbox8>
    80000e1c:	97ba                	add	a5,a5,a4
    80000e1e:	0007c783          	lbu	a5,0(a5)
    80000e22:	fef40223          	sb	a5,-28(s0)
		state[5] = sbox8[state[5]];
    80000e26:	fe544783          	lbu	a5,-27(s0)
    80000e2a:	2781                	sext.w	a5,a5
    80000e2c:	00001717          	auipc	a4,0x1
    80000e30:	c9470713          	addi	a4,a4,-876 # 80001ac0 <sbox8>
    80000e34:	97ba                	add	a5,a5,a4
    80000e36:	0007c783          	lbu	a5,0(a5)
    80000e3a:	fef402a3          	sb	a5,-27(s0)
		state[6] = sbox8[state[6]];
    80000e3e:	fe644783          	lbu	a5,-26(s0)
    80000e42:	2781                	sext.w	a5,a5
    80000e44:	00001717          	auipc	a4,0x1
    80000e48:	c7c70713          	addi	a4,a4,-900 # 80001ac0 <sbox8>
    80000e4c:	97ba                	add	a5,a5,a4
    80000e4e:	0007c783          	lbu	a5,0(a5)
    80000e52:	fef40323          	sb	a5,-26(s0)
		state[7] = sbox8[state[7]];
    80000e56:	fe744783          	lbu	a5,-25(s0)
    80000e5a:	2781                	sext.w	a5,a5
    80000e5c:	00001717          	auipc	a4,0x1
    80000e60:	c6470713          	addi	a4,a4,-924 # 80001ac0 <sbox8>
    80000e64:	97ba                	add	a5,a5,a4
    80000e66:	0007c783          	lbu	a5,0(a5)
    80000e6a:	fef403a3          	sb	a5,-25(s0)

		//reverse the round key;
		temp_state[4] = round_key[4];
    80000e6e:	fd444783          	lbu	a5,-44(s0)
    80000e72:	fcf40e23          	sb	a5,-36(s0)
		temp_state[5] = round_key[5];
    80000e76:	fd544783          	lbu	a5,-43(s0)
    80000e7a:	fcf40ea3          	sb	a5,-35(s0)
		temp_state[6] = round_key[6];
    80000e7e:	fd644783          	lbu	a5,-42(s0)
    80000e82:	fcf40f23          	sb	a5,-34(s0)
		temp_state[7] = round_key[7];
    80000e86:	fd744783          	lbu	a5,-41(s0)
    80000e8a:	fcf40fa3          	sb	a5,-33(s0)

		round_key[4] = round_key[3];
    80000e8e:	fd344783          	lbu	a5,-45(s0)
    80000e92:	fcf40a23          	sb	a5,-44(s0)
		round_key[5] = round_key[0];
    80000e96:	fd044783          	lbu	a5,-48(s0)
    80000e9a:	fcf40aa3          	sb	a5,-43(s0)
		round_key[6] = round_key[1];
    80000e9e:	fd144783          	lbu	a5,-47(s0)
    80000ea2:	fcf40b23          	sb	a5,-42(s0)
		round_key[7] = round_key[2] ^ (rounds - i);
    80000ea6:	fd244783          	lbu	a5,-46(s0)
    80000eaa:	0187971b          	slliw	a4,a5,0x18
    80000eae:	4187571b          	sraiw	a4,a4,0x18
    80000eb2:	fbf44783          	lbu	a5,-65(s0)
    80000eb6:	86be                	mv	a3,a5
    80000eb8:	fef44783          	lbu	a5,-17(s0)
    80000ebc:	40f687bb          	subw	a5,a3,a5
    80000ec0:	0ff7f793          	zext.b	a5,a5
    80000ec4:	0187979b          	slliw	a5,a5,0x18
    80000ec8:	4187d79b          	sraiw	a5,a5,0x18
    80000ecc:	8fb9                	xor	a5,a5,a4
    80000ece:	0187979b          	slliw	a5,a5,0x18
    80000ed2:	4187d79b          	sraiw	a5,a5,0x18
    80000ed6:	0ff7f793          	zext.b	a5,a5
    80000eda:	fcf40ba3          	sb	a5,-41(s0)

		round_key[0] = temp_state[7] ^ round_key[4];
    80000ede:	fdf44703          	lbu	a4,-33(s0)
    80000ee2:	fd444783          	lbu	a5,-44(s0)
    80000ee6:	8fb9                	xor	a5,a5,a4
    80000ee8:	0ff7f793          	zext.b	a5,a5
    80000eec:	fcf40823          	sb	a5,-48(s0)
		round_key[1] = temp_state[4] ^ round_key[5];
    80000ef0:	fdc44703          	lbu	a4,-36(s0)
    80000ef4:	fd544783          	lbu	a5,-43(s0)
    80000ef8:	8fb9                	xor	a5,a5,a4
    80000efa:	0ff7f793          	zext.b	a5,a5
    80000efe:	fcf408a3          	sb	a5,-47(s0)
		round_key[2] = sbox8[temp_state[5]] ^ round_key[6];
    80000f02:	fdd44783          	lbu	a5,-35(s0)
    80000f06:	2781                	sext.w	a5,a5
    80000f08:	00001717          	auipc	a4,0x1
    80000f0c:	bb870713          	addi	a4,a4,-1096 # 80001ac0 <sbox8>
    80000f10:	97ba                	add	a5,a5,a4
    80000f12:	0007c703          	lbu	a4,0(a5)
    80000f16:	fd644783          	lbu	a5,-42(s0)
    80000f1a:	8fb9                	xor	a5,a5,a4
    80000f1c:	0ff7f793          	zext.b	a5,a5
    80000f20:	fcf40923          	sb	a5,-46(s0)
		round_key[3] = sbox8[temp_state[6]] ^ round_key[7];
    80000f24:	fde44783          	lbu	a5,-34(s0)
    80000f28:	2781                	sext.w	a5,a5
    80000f2a:	00001717          	auipc	a4,0x1
    80000f2e:	b9670713          	addi	a4,a4,-1130 # 80001ac0 <sbox8>
    80000f32:	97ba                	add	a5,a5,a4
    80000f34:	0007c703          	lbu	a4,0(a5)
    80000f38:	fd744783          	lbu	a5,-41(s0)
    80000f3c:	8fb9                	xor	a5,a5,a4
    80000f3e:	0ff7f793          	zext.b	a5,a5
    80000f42:	fcf409a3          	sb	a5,-45(s0)

		//add round key with the intermediate state;
		state[0] = state[0] ^ round_key[0];
    80000f46:	fe044703          	lbu	a4,-32(s0)
    80000f4a:	fd044783          	lbu	a5,-48(s0)
    80000f4e:	8fb9                	xor	a5,a5,a4
    80000f50:	0ff7f793          	zext.b	a5,a5
    80000f54:	fef40023          	sb	a5,-32(s0)
		state[1] = state[1] ^ round_key[1];
    80000f58:	fe144703          	lbu	a4,-31(s0)
    80000f5c:	fd144783          	lbu	a5,-47(s0)
    80000f60:	8fb9                	xor	a5,a5,a4
    80000f62:	0ff7f793          	zext.b	a5,a5
    80000f66:	fef400a3          	sb	a5,-31(s0)
		state[2] = state[2] ^ round_key[2];
    80000f6a:	fe244703          	lbu	a4,-30(s0)
    80000f6e:	fd244783          	lbu	a5,-46(s0)
    80000f72:	8fb9                	xor	a5,a5,a4
    80000f74:	0ff7f793          	zext.b	a5,a5
    80000f78:	fef40123          	sb	a5,-30(s0)
		state[3] = state[3] ^ round_key[3];
    80000f7c:	fe344703          	lbu	a4,-29(s0)
    80000f80:	fd344783          	lbu	a5,-45(s0)
    80000f84:	8fb9                	xor	a5,a5,a4
    80000f86:	0ff7f793          	zext.b	a5,a5
    80000f8a:	fef401a3          	sb	a5,-29(s0)
		state[4] = state[4] ^ round_key[4];
    80000f8e:	fe444703          	lbu	a4,-28(s0)
    80000f92:	fd444783          	lbu	a5,-44(s0)
    80000f96:	8fb9                	xor	a5,a5,a4
    80000f98:	0ff7f793          	zext.b	a5,a5
    80000f9c:	fef40223          	sb	a5,-28(s0)
		state[5] = state[5] ^ round_key[5];
    80000fa0:	fe544703          	lbu	a4,-27(s0)
    80000fa4:	fd544783          	lbu	a5,-43(s0)
    80000fa8:	8fb9                	xor	a5,a5,a4
    80000faa:	0ff7f793          	zext.b	a5,a5
    80000fae:	fef402a3          	sb	a5,-27(s0)
		state[6] = state[6] ^ round_key[6];
    80000fb2:	fe644703          	lbu	a4,-26(s0)
    80000fb6:	fd644783          	lbu	a5,-42(s0)
    80000fba:	8fb9                	xor	a5,a5,a4
    80000fbc:	0ff7f793          	zext.b	a5,a5
    80000fc0:	fef40323          	sb	a5,-26(s0)
		state[7] = state[7] ^ round_key[7];
    80000fc4:	fe744703          	lbu	a4,-25(s0)
    80000fc8:	fd744783          	lbu	a5,-41(s0)
    80000fcc:	8fb9                	xor	a5,a5,a4
    80000fce:	0ff7f793          	zext.b	a5,a5
    80000fd2:	fef403a3          	sb	a5,-25(s0)
	for(i = 0; i < rounds; i++)
    80000fd6:	fef44783          	lbu	a5,-17(s0)
    80000fda:	2785                	addiw	a5,a5,1
    80000fdc:	fef407a3          	sb	a5,-17(s0)
    80000fe0:	fef44783          	lbu	a5,-17(s0)
    80000fe4:	873e                	mv	a4,a5
    80000fe6:	fbf44783          	lbu	a5,-65(s0)
    80000fea:	0ff77713          	zext.b	a4,a4
    80000fee:	0ff7f793          	zext.b	a5,a5
    80000ff2:	9cf768e3          	bltu	a4,a5,800009c2 <klein64_decrypt_rounds+0x230>

	}

	//output the plaintext;
	plain[0] = state[0];
    80000ff6:	fe044703          	lbu	a4,-32(s0)
    80000ffa:	fb043783          	ld	a5,-80(s0)
    80000ffe:	00e78023          	sb	a4,0(a5)
	plain[1] = state[1];
    80001002:	fb043783          	ld	a5,-80(s0)
    80001006:	0785                	addi	a5,a5,1
    80001008:	fe144703          	lbu	a4,-31(s0)
    8000100c:	00e78023          	sb	a4,0(a5)
	plain[2] = state[2];
    80001010:	fb043783          	ld	a5,-80(s0)
    80001014:	0789                	addi	a5,a5,2
    80001016:	fe244703          	lbu	a4,-30(s0)
    8000101a:	00e78023          	sb	a4,0(a5)
	plain[3] = state[3];
    8000101e:	fb043783          	ld	a5,-80(s0)
    80001022:	078d                	addi	a5,a5,3
    80001024:	fe344703          	lbu	a4,-29(s0)
    80001028:	00e78023          	sb	a4,0(a5)
	plain[4] = state[4];
    8000102c:	fb043783          	ld	a5,-80(s0)
    80001030:	0791                	addi	a5,a5,4
    80001032:	fe444703          	lbu	a4,-28(s0)
    80001036:	00e78023          	sb	a4,0(a5)
	plain[5] = state[5];
    8000103a:	fb043783          	ld	a5,-80(s0)
    8000103e:	0795                	addi	a5,a5,5
    80001040:	fe544703          	lbu	a4,-27(s0)
    80001044:	00e78023          	sb	a4,0(a5)
	plain[6] = state[6];
    80001048:	fb043783          	ld	a5,-80(s0)
    8000104c:	0799                	addi	a5,a5,6
    8000104e:	fe644703          	lbu	a4,-26(s0)
    80001052:	00e78023          	sb	a4,0(a5)
	plain[7] = state[7];
    80001056:	fb043783          	ld	a5,-80(s0)
    8000105a:	079d                	addi	a5,a5,7
    8000105c:	fe744703          	lbu	a4,-25(s0)
    80001060:	00e78023          	sb	a4,0(a5)

}
    80001064:	0001                	nop
    80001066:	6426                	ld	s0,72(sp)
    80001068:	6161                	addi	sp,sp,80
    8000106a:	8082                	ret

000000008000106c <klein_write_to_address>:

#define KLEIN_ADDR_RESULT0  0x30
#define KLEIN_ADDR_RESULT1  0x31

void klein_write_to_address(uint32_t address, uint32_t data)
{
    8000106c:	1101                	addi	sp,sp,-32
    8000106e:	ec06                	sd	ra,24(sp)
    80001070:	e822                	sd	s0,16(sp)
    80001072:	1000                	addi	s0,sp,32
    80001074:	87aa                	mv	a5,a0
    80001076:	872e                	mv	a4,a1
    80001078:	fef42623          	sw	a5,-20(s0)
    8000107c:	87ba                	mv	a5,a4
    8000107e:	fef42423          	sw	a5,-24(s0)
  reg_write32(KLEIN_DATA_A, address);
    80001082:	fec42783          	lw	a5,-20(s0)
    80001086:	85be                	mv	a1,a5
    80001088:	6799                	lui	a5,0x6
    8000108a:	00478513          	addi	a0,a5,4 # 6004 <_prog_start-0x7fff9ffc>
    8000108e:	f9ffe0ef          	jal	8000002c <reg_write32>
  reg_write32(KLEIN_DATA_B, data);
    80001092:	fe842783          	lw	a5,-24(s0)
    80001096:	85be                	mv	a1,a5
    80001098:	6799                	lui	a5,0x6
    8000109a:	00878513          	addi	a0,a5,8 # 6008 <_prog_start-0x7fff9ff8>
    8000109e:	f8ffe0ef          	jal	8000002c <reg_write32>
  reg_write32(KLEIN_TRIGGER, 0x00000101);
    800010a2:	10100593          	li	a1,257
    800010a6:	6519                	lui	a0,0x6
    800010a8:	f85fe0ef          	jal	8000002c <reg_write32>
  reg_write32(KLEIN_TRIGGER, 0x00000000);
    800010ac:	4581                	li	a1,0
    800010ae:	6519                	lui	a0,0x6
    800010b0:	f7dfe0ef          	jal	8000002c <reg_write32>
}
    800010b4:	0001                	nop
    800010b6:	60e2                	ld	ra,24(sp)
    800010b8:	6442                	ld	s0,16(sp)
    800010ba:	6105                	addi	sp,sp,32
    800010bc:	8082                	ret

00000000800010be <klein_read_to_address>:

uint32_t klein_read_to_address(uint32_t address)
{
    800010be:	7179                	addi	sp,sp,-48
    800010c0:	f406                	sd	ra,40(sp)
    800010c2:	f022                	sd	s0,32(sp)
    800010c4:	1800                	addi	s0,sp,48
    800010c6:	87aa                	mv	a5,a0
    800010c8:	fcf42e23          	sw	a5,-36(s0)
  reg_write32(KLEIN_DATA_A, address);
    800010cc:	fdc42783          	lw	a5,-36(s0)
    800010d0:	85be                	mv	a1,a5
    800010d2:	6799                	lui	a5,0x6
    800010d4:	00478513          	addi	a0,a5,4 # 6004 <_prog_start-0x7fff9ffc>
    800010d8:	f55fe0ef          	jal	8000002c <reg_write32>
  reg_write32(KLEIN_DATA_B, 0);
    800010dc:	4581                	li	a1,0
    800010de:	6799                	lui	a5,0x6
    800010e0:	00878513          	addi	a0,a5,8 # 6008 <_prog_start-0x7fff9ff8>
    800010e4:	f49fe0ef          	jal	8000002c <reg_write32>
  reg_write32(KLEIN_TRIGGER, 0x00000001);
    800010e8:	4585                	li	a1,1
    800010ea:	6519                	lui	a0,0x6
    800010ec:	f41fe0ef          	jal	8000002c <reg_write32>
  uint32_t temp = reg_read32(KLEIN_DATA_C);
    800010f0:	6799                	lui	a5,0x6
    800010f2:	00c78513          	addi	a0,a5,12 # 600c <_prog_start-0x7fff9ff4>
    800010f6:	f61fe0ef          	jal	80000056 <reg_read32>
    800010fa:	87aa                	mv	a5,a0
    800010fc:	fef42623          	sw	a5,-20(s0)
  reg_write32(KLEIN_TRIGGER, 0x00000000);
    80001100:	4581                	li	a1,0
    80001102:	6519                	lui	a0,0x6
    80001104:	f29fe0ef          	jal	8000002c <reg_write32>
  return temp;
    80001108:	fec42783          	lw	a5,-20(s0)
}
    8000110c:	853e                	mv	a0,a5
    8000110e:	70a2                	ld	ra,40(sp)
    80001110:	7402                	ld	s0,32(sp)
    80001112:	6145                	addi	sp,sp,48
    80001114:	8082                	ret

0000000080001116 <klein_test>:

void klein_test(void)
{
    80001116:	1101                	addi	sp,sp,-32
    80001118:	ec06                	sd	ra,24(sp)
    8000111a:	e822                	sd	s0,16(sp)
    8000111c:	1000                	addi	s0,sp,32
  // reset
  reg_write32(KLEIN_TRIGGER, 0x00010000);
    8000111e:	65c1                	lui	a1,0x10
    80001120:	6519                	lui	a0,0x6
    80001122:	f0bfe0ef          	jal	8000002c <reg_write32>
  reg_write32(KLEIN_TRIGGER, 0x00000000);
    80001126:	4581                	li	a1,0
    80001128:	6519                	lui	a0,0x6
    8000112a:	f03fe0ef          	jal	8000002c <reg_write32>
  // cipher
  klein_write_to_address(KLEIN_ADDR_BLOCK0, 0xdeadbeef); // inp
    8000112e:	deadc7b7          	lui	a5,0xdeadc
    80001132:	eef78593          	addi	a1,a5,-273 # ffffffffdeadbeef <multiply2+0xffffffff5eada32f>
    80001136:	02000513          	li	a0,32
    8000113a:	f33ff0ef          	jal	8000106c <klein_write_to_address>
  klein_write_to_address(KLEIN_ADDR_BLOCK1, 0xf000000f);
    8000113e:	f00007b7          	lui	a5,0xf0000
    80001142:	00f78593          	addi	a1,a5,15 # fffffffff000000f <multiply2+0xffffffff6fffe44f>
    80001146:	02100513          	li	a0,33
    8000114a:	f23ff0ef          	jal	8000106c <klein_write_to_address>
  klein_write_to_address(KLEIN_ADDR_KEY0, 0x12345678); // key
    8000114e:	123457b7          	lui	a5,0x12345
    80001152:	67878593          	addi	a1,a5,1656 # 12345678 <_prog_start-0x6dcba988>
    80001156:	4541                	li	a0,16
    80001158:	f15ff0ef          	jal	8000106c <klein_write_to_address>
  klein_write_to_address(KLEIN_ADDR_KEY1, 0x90abcdef);
    8000115c:	90abd7b7          	lui	a5,0x90abd
    80001160:	def78593          	addi	a1,a5,-529 # ffffffff90abcdef <multiply2+0xffffffff10abb22f>
    80001164:	4545                	li	a0,17
    80001166:	f07ff0ef          	jal	8000106c <klein_write_to_address>

  klein_write_to_address(KLEIN_ADDR_CONF, 0x01);
    8000116a:	4585                	li	a1,1
    8000116c:	4505                	li	a0,1
    8000116e:	effff0ef          	jal	8000106c <klein_write_to_address>
  klein_write_to_address(KLEIN_ADDR_CTRL, 0x02);
    80001172:	4589                	li	a1,2
    80001174:	4501                	li	a0,0
    80001176:	ef7ff0ef          	jal	8000106c <klein_write_to_address>

  while(!(klein_read_to_address(KLEIN_ADDR_STATUS) == 0x03));
    8000117a:	0001                	nop
    8000117c:	4509                	li	a0,2
    8000117e:	f41ff0ef          	jal	800010be <klein_read_to_address>
    80001182:	87aa                	mv	a5,a0
    80001184:	2781                	sext.w	a5,a5
    80001186:	873e                	mv	a4,a5
    80001188:	478d                	li	a5,3
    8000118a:	fef719e3          	bne	a4,a5,8000117c <klein_test+0x66>

  uint32_t block_1, block_2;
  block_1 = klein_read_to_address(KLEIN_ADDR_RESULT0);
    8000118e:	03000513          	li	a0,48
    80001192:	f2dff0ef          	jal	800010be <klein_read_to_address>
    80001196:	87aa                	mv	a5,a0
    80001198:	fef42623          	sw	a5,-20(s0)
  block_2 = klein_read_to_address(KLEIN_ADDR_RESULT1);
    8000119c:	03100513          	li	a0,49
    800011a0:	f1fff0ef          	jal	800010be <klein_read_to_address>
    800011a4:	87aa                	mv	a5,a0
    800011a6:	fef42423          	sw	a5,-24(s0)

  kprintf("\r# KLEIN-64 - Cipher and Decipher ============================================\r\n");
    800011aa:	00001517          	auipc	a0,0x1
    800011ae:	b1650513          	addi	a0,a0,-1258 # 80001cc0 <multiply2+0x100>
    800011b2:	592000ef          	jal	80001744 <kprintf>
  kprintf("\rBlock:    deadbeeff000000f\r\n");
    800011b6:	00001517          	auipc	a0,0x1
    800011ba:	b6250513          	addi	a0,a0,-1182 # 80001d18 <multiply2+0x158>
    800011be:	586000ef          	jal	80001744 <kprintf>
  kprintf("\rKey:      1234567890abcdef\r\n");
    800011c2:	00001517          	auipc	a0,0x1
    800011c6:	b7650513          	addi	a0,a0,-1162 # 80001d38 <multiply2+0x178>
    800011ca:	57a000ef          	jal	80001744 <kprintf>
  kprintf("\rCipher:   %w%w\r\n", block_1, block_2);
    800011ce:	fe842703          	lw	a4,-24(s0)
    800011d2:	fec42783          	lw	a5,-20(s0)
    800011d6:	863a                	mv	a2,a4
    800011d8:	85be                	mv	a1,a5
    800011da:	00001517          	auipc	a0,0x1
    800011de:	b7e50513          	addi	a0,a0,-1154 # 80001d58 <multiply2+0x198>
    800011e2:	562000ef          	jal	80001744 <kprintf>

  // decipher
  klein_write_to_address(KLEIN_ADDR_BLOCK0, block_1); // inp
    800011e6:	fec42783          	lw	a5,-20(s0)
    800011ea:	85be                	mv	a1,a5
    800011ec:	02000513          	li	a0,32
    800011f0:	e7dff0ef          	jal	8000106c <klein_write_to_address>
  klein_write_to_address(KLEIN_ADDR_BLOCK1, block_2);
    800011f4:	fe842783          	lw	a5,-24(s0)
    800011f8:	85be                	mv	a1,a5
    800011fa:	02100513          	li	a0,33
    800011fe:	e6fff0ef          	jal	8000106c <klein_write_to_address>
  klein_write_to_address(KLEIN_ADDR_KEY0, 0x12345678); // key
    80001202:	123457b7          	lui	a5,0x12345
    80001206:	67878593          	addi	a1,a5,1656 # 12345678 <_prog_start-0x6dcba988>
    8000120a:	4541                	li	a0,16
    8000120c:	e61ff0ef          	jal	8000106c <klein_write_to_address>
  klein_write_to_address(KLEIN_ADDR_KEY1, 0x90abcdef);
    80001210:	90abd7b7          	lui	a5,0x90abd
    80001214:	def78593          	addi	a1,a5,-529 # ffffffff90abcdef <multiply2+0xffffffff10abb22f>
    80001218:	4545                	li	a0,17
    8000121a:	e53ff0ef          	jal	8000106c <klein_write_to_address>

  klein_write_to_address(KLEIN_ADDR_CONF, 0x00);
    8000121e:	4581                	li	a1,0
    80001220:	4505                	li	a0,1
    80001222:	e4bff0ef          	jal	8000106c <klein_write_to_address>
  klein_write_to_address(KLEIN_ADDR_CTRL, 0x01);
    80001226:	4585                	li	a1,1
    80001228:	4501                	li	a0,0
    8000122a:	e43ff0ef          	jal	8000106c <klein_write_to_address>

  while(!(klein_read_to_address(KLEIN_ADDR_STATUS) == 0x01));
    8000122e:	0001                	nop
    80001230:	4509                	li	a0,2
    80001232:	e8dff0ef          	jal	800010be <klein_read_to_address>
    80001236:	87aa                	mv	a5,a0
    80001238:	2781                	sext.w	a5,a5
    8000123a:	873e                	mv	a4,a5
    8000123c:	4785                	li	a5,1
    8000123e:	fef719e3          	bne	a4,a5,80001230 <klein_test+0x11a>
  klein_write_to_address(KLEIN_ADDR_CTRL, 0x02);
    80001242:	4589                	li	a1,2
    80001244:	4501                	li	a0,0
    80001246:	e27ff0ef          	jal	8000106c <klein_write_to_address>
  while(!(klein_read_to_address(KLEIN_ADDR_STATUS) == 0x03));
    8000124a:	0001                	nop
    8000124c:	4509                	li	a0,2
    8000124e:	e71ff0ef          	jal	800010be <klein_read_to_address>
    80001252:	87aa                	mv	a5,a0
    80001254:	2781                	sext.w	a5,a5
    80001256:	873e                	mv	a4,a5
    80001258:	478d                	li	a5,3
    8000125a:	fef719e3          	bne	a4,a5,8000124c <klein_test+0x136>

  block_1 = klein_read_to_address(KLEIN_ADDR_RESULT0);
    8000125e:	03000513          	li	a0,48
    80001262:	e5dff0ef          	jal	800010be <klein_read_to_address>
    80001266:	87aa                	mv	a5,a0
    80001268:	fef42623          	sw	a5,-20(s0)
  block_2 = klein_read_to_address(KLEIN_ADDR_RESULT1);
    8000126c:	03100513          	li	a0,49
    80001270:	e4fff0ef          	jal	800010be <klein_read_to_address>
    80001274:	87aa                	mv	a5,a0
    80001276:	fef42423          	sw	a5,-24(s0)

  kprintf("\rDecipher: %w%w\r\n\r\n", block_1, block_2);
    8000127a:	fe842703          	lw	a4,-24(s0)
    8000127e:	fec42783          	lw	a5,-20(s0)
    80001282:	863a                	mv	a2,a4
    80001284:	85be                	mv	a1,a5
    80001286:	00001517          	auipc	a0,0x1
    8000128a:	aea50513          	addi	a0,a0,-1302 # 80001d70 <multiply2+0x1b0>
    8000128e:	4b6000ef          	jal	80001744 <kprintf>
}
    80001292:	0001                	nop
    80001294:	60e2                	ld	ra,24(sp)
    80001296:	6442                	ld	s0,16(sp)
    80001298:	6105                	addi	sp,sp,32
    8000129a:	8082                	ret

000000008000129c <klein_test_encryption_elapsed>:

void klein_test_encryption_elapsed() {
    8000129c:	1101                	addi	sp,sp,-32
    8000129e:	ec06                	sd	ra,24(sp)
    800012a0:	e822                	sd	s0,16(sp)
    800012a2:	1000                	addi	s0,sp,32
    uint32_t count_cycles = 0;
    800012a4:	fe042623          	sw	zero,-20(s0)

    // Reset the KLEIN cipher
    reg_write32(KLEIN_TRIGGER, 0x00010000);
    800012a8:	65c1                	lui	a1,0x10
    800012aa:	6519                	lui	a0,0x6
    800012ac:	d81fe0ef          	jal	8000002c <reg_write32>
    reg_write32(KLEIN_TRIGGER, 0x00000000);
    800012b0:	4581                	li	a1,0
    800012b2:	6519                	lui	a0,0x6
    800012b4:	d79fe0ef          	jal	8000002c <reg_write32>

    // Set input data (plaintext)
    klein_write_to_address(KLEIN_ADDR_BLOCK0, 0xdeadbeef);
    800012b8:	deadc7b7          	lui	a5,0xdeadc
    800012bc:	eef78593          	addi	a1,a5,-273 # ffffffffdeadbeef <multiply2+0xffffffff5eada32f>
    800012c0:	02000513          	li	a0,32
    800012c4:	da9ff0ef          	jal	8000106c <klein_write_to_address>
    klein_write_to_address(KLEIN_ADDR_BLOCK1, 0xf000000f);
    800012c8:	f00007b7          	lui	a5,0xf0000
    800012cc:	00f78593          	addi	a1,a5,15 # fffffffff000000f <multiply2+0xffffffff6fffe44f>
    800012d0:	02100513          	li	a0,33
    800012d4:	d99ff0ef          	jal	8000106c <klein_write_to_address>

    // Set encryption key
    klein_write_to_address(KLEIN_ADDR_KEY0, 0x12345678);
    800012d8:	123457b7          	lui	a5,0x12345
    800012dc:	67878593          	addi	a1,a5,1656 # 12345678 <_prog_start-0x6dcba988>
    800012e0:	4541                	li	a0,16
    800012e2:	d8bff0ef          	jal	8000106c <klein_write_to_address>
    klein_write_to_address(KLEIN_ADDR_KEY1, 0x90abcdef);
    800012e6:	90abd7b7          	lui	a5,0x90abd
    800012ea:	def78593          	addi	a1,a5,-529 # ffffffff90abcdef <multiply2+0xffffffff10abb22f>
    800012ee:	4545                	li	a0,17
    800012f0:	d7dff0ef          	jal	8000106c <klein_write_to_address>

    // Configure and start encryption
    klein_write_to_address(KLEIN_ADDR_CONF, 0x01);
    800012f4:	4585                	li	a1,1
    800012f6:	4505                	li	a0,1
    800012f8:	d75ff0ef          	jal	8000106c <klein_write_to_address>

    // Start measuring time
    mytimer_soft_reset();
    800012fc:	d7dfe0ef          	jal	80000078 <mytimer_soft_reset>
    klein_write_to_address(KLEIN_ADDR_CTRL, 0x02);
    80001300:	4589                	li	a1,2
    80001302:	4501                	li	a0,0
    80001304:	d69ff0ef          	jal	8000106c <klein_write_to_address>
    mytimer_start();
    80001308:	d93fe0ef          	jal	8000009a <mytimer_start>

    // Wait for encryption to complete
    while (!(klein_read_to_address(KLEIN_ADDR_STATUS) == 0x03));
    8000130c:	0001                	nop
    8000130e:	4509                	li	a0,2
    80001310:	dafff0ef          	jal	800010be <klein_read_to_address>
    80001314:	87aa                	mv	a5,a0
    80001316:	2781                	sext.w	a5,a5
    80001318:	873e                	mv	a4,a5
    8000131a:	478d                	li	a5,3
    8000131c:	fef719e3          	bne	a4,a5,8000130e <klein_test_encryption_elapsed+0x72>

    // Stop the timer and get elapsed cycles
    count_cycles = mytimer_pause_and_return();
    80001320:	dbffe0ef          	jal	800000de <mytimer_pause_and_return>
    80001324:	87aa                	mv	a5,a0
    80001326:	fef42623          	sw	a5,-20(s0)

    // Get result
    uint32_t cipher_1, cipher_2;
    cipher_1 = klein_read_to_address(KLEIN_ADDR_RESULT0);
    8000132a:	03000513          	li	a0,48
    8000132e:	d91ff0ef          	jal	800010be <klein_read_to_address>
    80001332:	87aa                	mv	a5,a0
    80001334:	fef42423          	sw	a5,-24(s0)
    cipher_2 = klein_read_to_address(KLEIN_ADDR_RESULT1);
    80001338:	03100513          	li	a0,49
    8000133c:	d83ff0ef          	jal	800010be <klein_read_to_address>
    80001340:	87aa                	mv	a5,a0
    80001342:	fef42223          	sw	a5,-28(s0)

    // Print results
    kprintf("\r\n# ELAPSED - KLEIN-64 Cipher Encryption ======================\r\n");
    80001346:	00001517          	auipc	a0,0x1
    8000134a:	a4250513          	addi	a0,a0,-1470 # 80001d88 <multiply2+0x1c8>
    8000134e:	3f6000ef          	jal	80001744 <kprintf>
    kprintf("Elapsed cycles: %d\r\n", count_cycles);
    80001352:	fec42783          	lw	a5,-20(s0)
    80001356:	85be                	mv	a1,a5
    80001358:	00001517          	auipc	a0,0x1
    8000135c:	a7850513          	addi	a0,a0,-1416 # 80001dd0 <multiply2+0x210>
    80001360:	3e4000ef          	jal	80001744 <kprintf>
    kprintf("Cipher text:    %w%w\r\n", cipher_1, cipher_2);
    80001364:	fe442703          	lw	a4,-28(s0)
    80001368:	fe842783          	lw	a5,-24(s0)
    8000136c:	863a                	mv	a2,a4
    8000136e:	85be                	mv	a1,a5
    80001370:	00001517          	auipc	a0,0x1
    80001374:	a7850513          	addi	a0,a0,-1416 # 80001de8 <multiply2+0x228>
    80001378:	3cc000ef          	jal	80001744 <kprintf>
}
    8000137c:	0001                	nop
    8000137e:	60e2                	ld	ra,24(sp)
    80001380:	6442                	ld	s0,16(sp)
    80001382:	6105                	addi	sp,sp,32
    80001384:	8082                	ret

0000000080001386 <klein_test_decryption_elapsed>:

void klein_test_decryption_elapsed() {
    80001386:	7179                	addi	sp,sp,-48
    80001388:	f406                	sd	ra,40(sp)
    8000138a:	f022                	sd	s0,32(sp)
    8000138c:	1800                	addi	s0,sp,48
    uint32_t count_cycles = 0;
    8000138e:	fe042623          	sw	zero,-20(s0)

    // Reset the KLEIN cipher
    reg_write32(KLEIN_TRIGGER, 0x00010000);
    80001392:	65c1                	lui	a1,0x10
    80001394:	6519                	lui	a0,0x6
    80001396:	c97fe0ef          	jal	8000002c <reg_write32>
    reg_write32(KLEIN_TRIGGER, 0x00000000);
    8000139a:	4581                	li	a1,0
    8000139c:	6519                	lui	a0,0x6
    8000139e:	c8ffe0ef          	jal	8000002c <reg_write32>

    // Set input data (ciphertext from previous encryption)
    uint32_t block_1 = 0x5a14d676; // Example ciphertext
    800013a2:	5a14d7b7          	lui	a5,0x5a14d
    800013a6:	67678793          	addi	a5,a5,1654 # 5a14d676 <_prog_start-0x25eb298a>
    800013aa:	fef42423          	sw	a5,-24(s0)
    uint32_t block_2 = 0x98fa7e4c;
    800013ae:	98fa87b7          	lui	a5,0x98fa8
    800013b2:	e4c78793          	addi	a5,a5,-436 # ffffffff98fa7e4c <multiply2+0xffffffff18fa628c>
    800013b6:	fef42223          	sw	a5,-28(s0)

    klein_write_to_address(KLEIN_ADDR_BLOCK0, block_1);
    800013ba:	fe842783          	lw	a5,-24(s0)
    800013be:	85be                	mv	a1,a5
    800013c0:	02000513          	li	a0,32
    800013c4:	ca9ff0ef          	jal	8000106c <klein_write_to_address>
    klein_write_to_address(KLEIN_ADDR_BLOCK1, block_2);
    800013c8:	fe442783          	lw	a5,-28(s0)
    800013cc:	85be                	mv	a1,a5
    800013ce:	02100513          	li	a0,33
    800013d2:	c9bff0ef          	jal	8000106c <klein_write_to_address>

    // Set the same encryption key for decryption
    klein_write_to_address(KLEIN_ADDR_KEY0, 0x12345678);
    800013d6:	123457b7          	lui	a5,0x12345
    800013da:	67878593          	addi	a1,a5,1656 # 12345678 <_prog_start-0x6dcba988>
    800013de:	4541                	li	a0,16
    800013e0:	c8dff0ef          	jal	8000106c <klein_write_to_address>
    klein_write_to_address(KLEIN_ADDR_KEY1, 0x90abcdef);
    800013e4:	90abd7b7          	lui	a5,0x90abd
    800013e8:	def78593          	addi	a1,a5,-529 # ffffffff90abcdef <multiply2+0xffffffff10abb22f>
    800013ec:	4545                	li	a0,17
    800013ee:	c7fff0ef          	jal	8000106c <klein_write_to_address>

    // Configure for decryption mode
    klein_write_to_address(KLEIN_ADDR_CONF, 0x00);
    800013f2:	4581                	li	a1,0
    800013f4:	4505                	li	a0,1
    800013f6:	c77ff0ef          	jal	8000106c <klein_write_to_address>

    // Start measuring time
    mytimer_soft_reset();
    800013fa:	c7ffe0ef          	jal	80000078 <mytimer_soft_reset>
    klein_write_to_address(KLEIN_ADDR_CTRL, 0x01);
    800013fe:	4585                	li	a1,1
    80001400:	4501                	li	a0,0
    80001402:	c6bff0ef          	jal	8000106c <klein_write_to_address>
    mytimer_start();
    80001406:	c95fe0ef          	jal	8000009a <mytimer_start>

    // Wait for keyschedule ready
    while (!(klein_read_to_address(KLEIN_ADDR_STATUS) == 0x01));
    8000140a:	0001                	nop
    8000140c:	4509                	li	a0,2
    8000140e:	cb1ff0ef          	jal	800010be <klein_read_to_address>
    80001412:	87aa                	mv	a5,a0
    80001414:	2781                	sext.w	a5,a5
    80001416:	873e                	mv	a4,a5
    80001418:	4785                	li	a5,1
    8000141a:	fef719e3          	bne	a4,a5,8000140c <klein_test_decryption_elapsed+0x86>

    // Trigger decryption
    klein_write_to_address(KLEIN_ADDR_CTRL, 0x02);
    8000141e:	4589                	li	a1,2
    80001420:	4501                	li	a0,0
    80001422:	c4bff0ef          	jal	8000106c <klein_write_to_address>

    // Wait for decryption to complete
    while (!(klein_read_to_address(KLEIN_ADDR_STATUS) == 0x03));
    80001426:	0001                	nop
    80001428:	4509                	li	a0,2
    8000142a:	c95ff0ef          	jal	800010be <klein_read_to_address>
    8000142e:	87aa                	mv	a5,a0
    80001430:	2781                	sext.w	a5,a5
    80001432:	873e                	mv	a4,a5
    80001434:	478d                	li	a5,3
    80001436:	fef719e3          	bne	a4,a5,80001428 <klein_test_decryption_elapsed+0xa2>

    // Stop the timer and get elapsed cycles
    count_cycles = mytimer_pause_and_return();
    8000143a:	ca5fe0ef          	jal	800000de <mytimer_pause_and_return>
    8000143e:	87aa                	mv	a5,a0
    80001440:	fef42623          	sw	a5,-20(s0)

    // Get result
    uint32_t decipher_1, decipher_2;
    decipher_1 = klein_read_to_address(KLEIN_ADDR_RESULT0);
    80001444:	03000513          	li	a0,48
    80001448:	c77ff0ef          	jal	800010be <klein_read_to_address>
    8000144c:	87aa                	mv	a5,a0
    8000144e:	fef42023          	sw	a5,-32(s0)
    decipher_2 = klein_read_to_address(KLEIN_ADDR_RESULT1);
    80001452:	03100513          	li	a0,49
    80001456:	c69ff0ef          	jal	800010be <klein_read_to_address>
    8000145a:	87aa                	mv	a5,a0
    8000145c:	fcf42e23          	sw	a5,-36(s0)

    // Print results
    kprintf("\r\n# ELAPSED - KLEIN-64 Cipher Decryption ======================\r\n");
    80001460:	00001517          	auipc	a0,0x1
    80001464:	9a050513          	addi	a0,a0,-1632 # 80001e00 <multiply2+0x240>
    80001468:	2dc000ef          	jal	80001744 <kprintf>
    kprintf("Elapsed cycles: %d\r\n", count_cycles);
    8000146c:	fec42783          	lw	a5,-20(s0)
    80001470:	85be                	mv	a1,a5
    80001472:	00001517          	auipc	a0,0x1
    80001476:	95e50513          	addi	a0,a0,-1698 # 80001dd0 <multiply2+0x210>
    8000147a:	2ca000ef          	jal	80001744 <kprintf>
    kprintf("Decipher text:  %w%w\r\n", decipher_1, decipher_2);
    8000147e:	fdc42703          	lw	a4,-36(s0)
    80001482:	fe042783          	lw	a5,-32(s0)
    80001486:	863a                	mv	a2,a4
    80001488:	85be                	mv	a1,a5
    8000148a:	00001517          	auipc	a0,0x1
    8000148e:	9be50513          	addi	a0,a0,-1602 # 80001e48 <multiply2+0x288>
    80001492:	2b2000ef          	jal	80001744 <kprintf>
}
    80001496:	0001                	nop
    80001498:	70a2                	ld	ra,40(sp)
    8000149a:	7402                	ld	s0,32(sp)
    8000149c:	6145                	addi	sp,sp,48
    8000149e:	8082                	ret

00000000800014a0 <klein_test_software>:

static void klein_test_software() {
    800014a0:	715d                	addi	sp,sp,-80
    800014a2:	e486                	sd	ra,72(sp)
    800014a4:	e0a2                	sd	s0,64(sp)
    800014a6:	0880                	addi	s0,sp,80
    uint8_t key[8] = {0x12, 0x34, 0x56, 0x78, 0x90, 0xab, 0xcd, 0xef};
    800014a8:	00001797          	auipc	a5,0x1
    800014ac:	a7878793          	addi	a5,a5,-1416 # 80001f20 <multiply2+0x360>
    800014b0:	639c                	ld	a5,0(a5)
    800014b2:	fcf43c23          	sd	a5,-40(s0)
    uint8_t message[8] = {0xde, 0xad, 0xbe, 0xef, 0xf0, 0x00, 0x00, 0x0f};
    800014b6:	00001797          	auipc	a5,0x1
    800014ba:	a7278793          	addi	a5,a5,-1422 # 80001f28 <multiply2+0x368>
    800014be:	639c                	ld	a5,0(a5)
    800014c0:	fcf43823          	sd	a5,-48(s0)
    unsigned int encryption_cycles, decryption_cycles;
    uint8_t cipher_text[8];
    uint8_t decipher_text[8];

    // Measure encryption time using mytimer
    mytimer_soft_reset();
    800014c4:	bb5fe0ef          	jal	80000078 <mytimer_soft_reset>
    mytimer_start();
    800014c8:	bd3fe0ef          	jal	8000009a <mytimer_start>
    klein64_encrypt(message, key, cipher);
    800014cc:	fc840693          	addi	a3,s0,-56
    800014d0:	fd840713          	addi	a4,s0,-40
    800014d4:	fd040793          	addi	a5,s0,-48
    800014d8:	4631                	li	a2,12
    800014da:	85ba                	mv	a1,a4
    800014dc:	853e                	mv	a0,a5
    800014de:	c31fe0ef          	jal	8000010e <klein64_encrypt_rounds>
    encryption_cycles = mytimer_pause_and_return();
    800014e2:	bfdfe0ef          	jal	800000de <mytimer_pause_and_return>
    800014e6:	87aa                	mv	a5,a0
    800014e8:	fef42223          	sw	a5,-28(s0)

    cipher_text[0] = cipher[0];
    800014ec:	fc844783          	lbu	a5,-56(s0)
    800014f0:	faf40c23          	sb	a5,-72(s0)
    cipher_text[1] = cipher[1];
    800014f4:	fc944783          	lbu	a5,-55(s0)
    800014f8:	faf40ca3          	sb	a5,-71(s0)
    cipher_text[2] = cipher[2];
    800014fc:	fca44783          	lbu	a5,-54(s0)
    80001500:	faf40d23          	sb	a5,-70(s0)
    cipher_text[3] = cipher[3];
    80001504:	fcb44783          	lbu	a5,-53(s0)
    80001508:	faf40da3          	sb	a5,-69(s0)
    cipher_text[4] = cipher[4];
    8000150c:	fcc44783          	lbu	a5,-52(s0)
    80001510:	faf40e23          	sb	a5,-68(s0)
    cipher_text[5] = cipher[5];
    80001514:	fcd44783          	lbu	a5,-51(s0)
    80001518:	faf40ea3          	sb	a5,-67(s0)
    cipher_text[6] = cipher[6];
    8000151c:	fce44783          	lbu	a5,-50(s0)
    80001520:	faf40f23          	sb	a5,-66(s0)
    cipher_text[7] = cipher[7];
    80001524:	fcf44783          	lbu	a5,-49(s0)
    80001528:	faf40fa3          	sb	a5,-65(s0)

    // Measure decryption time using mytimer
    mytimer_soft_reset();
    8000152c:	b4dfe0ef          	jal	80000078 <mytimer_soft_reset>
    mytimer_start();
    80001530:	b6bfe0ef          	jal	8000009a <mytimer_start>
    klein64_decrypt(cipher, key, decrypted);
    80001534:	fc040693          	addi	a3,s0,-64
    80001538:	fd840713          	addi	a4,s0,-40
    8000153c:	fc840793          	addi	a5,s0,-56
    80001540:	4631                	li	a2,12
    80001542:	85ba                	mv	a1,a4
    80001544:	853e                	mv	a0,a5
    80001546:	a4cff0ef          	jal	80000792 <klein64_decrypt_rounds>
    decryption_cycles = mytimer_pause_and_return();
    8000154a:	b95fe0ef          	jal	800000de <mytimer_pause_and_return>
    8000154e:	87aa                	mv	a5,a0
    80001550:	fef42023          	sw	a5,-32(s0)

    decipher_text[0] = decrypted[0];
    80001554:	fc044783          	lbu	a5,-64(s0)
    80001558:	faf40823          	sb	a5,-80(s0)
    decipher_text[1] = decrypted[1];
    8000155c:	fc144783          	lbu	a5,-63(s0)
    80001560:	faf408a3          	sb	a5,-79(s0)
    decipher_text[2] = decrypted[2];
    80001564:	fc244783          	lbu	a5,-62(s0)
    80001568:	faf40923          	sb	a5,-78(s0)
    decipher_text[3] = decrypted[3];
    8000156c:	fc344783          	lbu	a5,-61(s0)
    80001570:	faf409a3          	sb	a5,-77(s0)
    decipher_text[4] = decrypted[4];
    80001574:	fc444783          	lbu	a5,-60(s0)
    80001578:	faf40a23          	sb	a5,-76(s0)
    decipher_text[5] = decrypted[5];
    8000157c:	fc544783          	lbu	a5,-59(s0)
    80001580:	faf40aa3          	sb	a5,-75(s0)
    decipher_text[6] = decrypted[6];
    80001584:	fc644783          	lbu	a5,-58(s0)
    80001588:	faf40b23          	sb	a5,-74(s0)
    decipher_text[7] = decrypted[7];
    8000158c:	fc744783          	lbu	a5,-57(s0)
    80001590:	faf40ba3          	sb	a5,-73(s0)

    // Print results
    kprintf("\r\n# ELAPSED - KLEIN-64 Software ===============================\r\n");
    80001594:	00001517          	auipc	a0,0x1
    80001598:	8cc50513          	addi	a0,a0,-1844 # 80001e60 <multiply2+0x2a0>
    8000159c:	1a8000ef          	jal	80001744 <kprintf>
    kprintf("Encryption Cycles: %d\r\n", encryption_cycles);
    800015a0:	fe442783          	lw	a5,-28(s0)
    800015a4:	85be                	mv	a1,a5
    800015a6:	00001517          	auipc	a0,0x1
    800015aa:	90250513          	addi	a0,a0,-1790 # 80001ea8 <multiply2+0x2e8>
    800015ae:	196000ef          	jal	80001744 <kprintf>
    kprintf("Cipher text:       ");
    800015b2:	00001517          	auipc	a0,0x1
    800015b6:	90e50513          	addi	a0,a0,-1778 # 80001ec0 <multiply2+0x300>
    800015ba:	18a000ef          	jal	80001744 <kprintf>
    for (int i = 0; i < 8; i++) kprintf("%hx", cipher_text[i]);
    800015be:	fe042623          	sw	zero,-20(s0)
    800015c2:	a025                	j	800015ea <klein_test_software+0x14a>
    800015c4:	fec42783          	lw	a5,-20(s0)
    800015c8:	17c1                	addi	a5,a5,-16
    800015ca:	97a2                	add	a5,a5,s0
    800015cc:	fc87c783          	lbu	a5,-56(a5)
    800015d0:	2781                	sext.w	a5,a5
    800015d2:	85be                	mv	a1,a5
    800015d4:	00001517          	auipc	a0,0x1
    800015d8:	90450513          	addi	a0,a0,-1788 # 80001ed8 <multiply2+0x318>
    800015dc:	168000ef          	jal	80001744 <kprintf>
    800015e0:	fec42783          	lw	a5,-20(s0)
    800015e4:	2785                	addiw	a5,a5,1
    800015e6:	fef42623          	sw	a5,-20(s0)
    800015ea:	fec42783          	lw	a5,-20(s0)
    800015ee:	0007871b          	sext.w	a4,a5
    800015f2:	479d                	li	a5,7
    800015f4:	fce7d8e3          	bge	a5,a4,800015c4 <klein_test_software+0x124>
    kprintf("\r\nDecryption Cycles: %d\r\n", decryption_cycles);
    800015f8:	fe042783          	lw	a5,-32(s0)
    800015fc:	85be                	mv	a1,a5
    800015fe:	00001517          	auipc	a0,0x1
    80001602:	8e250513          	addi	a0,a0,-1822 # 80001ee0 <multiply2+0x320>
    80001606:	13e000ef          	jal	80001744 <kprintf>
    kprintf("Decrypted text:    ");
    8000160a:	00001517          	auipc	a0,0x1
    8000160e:	8f650513          	addi	a0,a0,-1802 # 80001f00 <multiply2+0x340>
    80001612:	132000ef          	jal	80001744 <kprintf>
    for (int i = 0; i < 8; i++) kprintf("%hx", decipher_text[i]);
    80001616:	fe042423          	sw	zero,-24(s0)
    8000161a:	a025                	j	80001642 <klein_test_software+0x1a2>
    8000161c:	fe842783          	lw	a5,-24(s0)
    80001620:	17c1                	addi	a5,a5,-16
    80001622:	97a2                	add	a5,a5,s0
    80001624:	fc07c783          	lbu	a5,-64(a5)
    80001628:	2781                	sext.w	a5,a5
    8000162a:	85be                	mv	a1,a5
    8000162c:	00001517          	auipc	a0,0x1
    80001630:	8ac50513          	addi	a0,a0,-1876 # 80001ed8 <multiply2+0x318>
    80001634:	110000ef          	jal	80001744 <kprintf>
    80001638:	fe842783          	lw	a5,-24(s0)
    8000163c:	2785                	addiw	a5,a5,1
    8000163e:	fef42423          	sw	a5,-24(s0)
    80001642:	fe842783          	lw	a5,-24(s0)
    80001646:	0007871b          	sext.w	a4,a5
    8000164a:	479d                	li	a5,7
    8000164c:	fce7d8e3          	bge	a5,a4,8000161c <klein_test_software+0x17c>
    kprintf("\r\n\r\n");
    80001650:	00001517          	auipc	a0,0x1
    80001654:	8c850513          	addi	a0,a0,-1848 # 80001f18 <multiply2+0x358>
    80001658:	0ec000ef          	jal	80001744 <kprintf>
    8000165c:	0001                	nop
    8000165e:	60a6                	ld	ra,72(sp)
    80001660:	6406                	ld	s0,64(sp)
    80001662:	6161                	addi	sp,sp,80
    80001664:	8082                	ret

0000000080001666 <main>:
int main(int hartid, char **arv) {
    80001666:	1101                	addi	sp,sp,-32
    80001668:	ec06                	sd	ra,24(sp)
    8000166a:	e822                	sd	s0,16(sp)
    8000166c:	1000                	addi	s0,sp,32
    8000166e:	87aa                	mv	a5,a0
    80001670:	feb43023          	sd	a1,-32(s0)
    80001674:	fef42623          	sw	a5,-20(s0)
  if(hartid == 0) {
    80001678:	fec42783          	lw	a5,-20(s0)
    8000167c:	2781                	sext.w	a5,a5
    8000167e:	e799                	bnez	a5,8000168c <main+0x26>
    klein_test_encryption_elapsed();
    80001680:	c1dff0ef          	jal	8000129c <klein_test_encryption_elapsed>
    klein_test_decryption_elapsed();
    80001684:	d03ff0ef          	jal	80001386 <klein_test_decryption_elapsed>
    klein_test_software();
    80001688:	e19ff0ef          	jal	800014a0 <klein_test_software>
  return 0;
    8000168c:	4781                	li	a5,0
}
    8000168e:	853e                	mv	a0,a5
    80001690:	60e2                	ld	ra,24(sp)
    80001692:	6442                	ld	s0,16(sp)
    80001694:	6105                	addi	sp,sp,32
    80001696:	8082                	ret

0000000080001698 <kputc>:
	_kputs(s);
	kputc('\r');
	kputc('\n');
}

void kprintf(const char *fmt, ...)
    80001698:	7179                	addi	sp,sp,-48
    8000169a:	f422                	sd	s0,40(sp)
    8000169c:	1800                	addi	s0,sp,48
    8000169e:	87aa                	mv	a5,a0
    800016a0:	fcf40fa3          	sb	a5,-33(s0)
{
    800016a4:	640007b7          	lui	a5,0x64000
    800016a8:	fef43423          	sd	a5,-24(s0)
    va_list vl;
    bool is_format, is_long, is_char;
    char c;

    800016ac:	fe843703          	ld	a4,-24(s0)
    800016b0:	fdf44783          	lbu	a5,-33(s0)
    800016b4:	86be                	mv	a3,a5
    800016b6:	fe843783          	ld	a5,-24(s0)
    800016ba:	40d727af          	amoor.w	a5,a3,(a4)
    800016be:	fef42223          	sw	a5,-28(s0)
    va_start(vl, fmt);
    is_format = false;
    is_long = false;
    is_char = false;
    800016c2:	fe442783          	lw	a5,-28(s0)
    800016c6:	2781                	sext.w	a5,a5
    800016c8:	fe07c2e3          	bltz	a5,800016ac <kputc+0x14>

    while ((c = *fmt++) != '\0') {
        if (is_format) {
            switch (c) {
            case 'l':
    800016cc:	0001                	nop
    800016ce:	0001                	nop
    800016d0:	7422                	ld	s0,40(sp)
    800016d2:	6145                	addi	sp,sp,48
    800016d4:	8082                	ret

00000000800016d6 <_kputs>:
{
    800016d6:	7179                	addi	sp,sp,-48
    800016d8:	f406                	sd	ra,40(sp)
    800016da:	f022                	sd	s0,32(sp)
    800016dc:	1800                	addi	s0,sp,48
    800016de:	fca43c23          	sd	a0,-40(s0)
	for (; (c = *s) != '\0'; s++)
    800016e2:	a819                	j	800016f8 <_kputs+0x22>
		kputc(c);
    800016e4:	fef44783          	lbu	a5,-17(s0)
    800016e8:	853e                	mv	a0,a5
    800016ea:	fafff0ef          	jal	80001698 <kputc>
	for (; (c = *s) != '\0'; s++)
    800016ee:	fd843783          	ld	a5,-40(s0)
    800016f2:	0785                	addi	a5,a5,1 # 64000001 <_prog_start-0x1bffffff>
    800016f4:	fcf43c23          	sd	a5,-40(s0)
    800016f8:	fd843783          	ld	a5,-40(s0)
    800016fc:	0007c783          	lbu	a5,0(a5)
    80001700:	fef407a3          	sb	a5,-17(s0)
    80001704:	fef44783          	lbu	a5,-17(s0)
    80001708:	0ff7f793          	zext.b	a5,a5
    8000170c:	ffe1                	bnez	a5,800016e4 <_kputs+0xe>
}
    8000170e:	0001                	nop
    80001710:	0001                	nop
    80001712:	70a2                	ld	ra,40(sp)
    80001714:	7402                	ld	s0,32(sp)
    80001716:	6145                	addi	sp,sp,48
    80001718:	8082                	ret

000000008000171a <kputs>:
{
    8000171a:	1101                	addi	sp,sp,-32
    8000171c:	ec06                	sd	ra,24(sp)
    8000171e:	e822                	sd	s0,16(sp)
    80001720:	1000                	addi	s0,sp,32
    80001722:	fea43423          	sd	a0,-24(s0)
	_kputs(s);
    80001726:	fe843503          	ld	a0,-24(s0)
    8000172a:	fadff0ef          	jal	800016d6 <_kputs>
	kputc('\r');
    8000172e:	4535                	li	a0,13
    80001730:	f69ff0ef          	jal	80001698 <kputc>
	kputc('\n');
    80001734:	4529                	li	a0,10
    80001736:	f63ff0ef          	jal	80001698 <kputc>
}
    8000173a:	0001                	nop
    8000173c:	60e2                	ld	ra,24(sp)
    8000173e:	6442                	ld	s0,16(sp)
    80001740:	6105                	addi	sp,sp,32
    80001742:	8082                	ret

0000000080001744 <kprintf>:
{
    80001744:	7155                	addi	sp,sp,-208
    80001746:	e506                	sd	ra,136(sp)
    80001748:	e122                	sd	s0,128(sp)
    8000174a:	0900                	addi	s0,sp,144
    8000174c:	f6a43c23          	sd	a0,-136(s0)
    80001750:	e40c                	sd	a1,8(s0)
    80001752:	e810                	sd	a2,16(s0)
    80001754:	ec14                	sd	a3,24(s0)
    80001756:	f018                	sd	a4,32(s0)
    80001758:	f41c                	sd	a5,40(s0)
    8000175a:	03043823          	sd	a6,48(s0)
    8000175e:	03143c23          	sd	a7,56(s0)
    va_start(vl, fmt);
    80001762:	04040793          	addi	a5,s0,64
    80001766:	f6f43823          	sd	a5,-144(s0)
    8000176a:	f7043783          	ld	a5,-144(s0)
    8000176e:	fc878793          	addi	a5,a5,-56
    80001772:	faf43423          	sd	a5,-88(s0)
    is_format = false;
    80001776:	fe0407a3          	sb	zero,-17(s0)
    is_long = false;
    8000177a:	fe040723          	sb	zero,-18(s0)
    is_char = false;
    8000177e:	fe0406a3          	sb	zero,-19(s0)
    while ((c = *fmt++) != '\0') {
    80001782:	a4c9                	j	80001a44 <kprintf+0x300>
        if (is_format) {
    80001784:	fef44783          	lbu	a5,-17(s0)
    80001788:	0ff7f793          	zext.b	a5,a5
    8000178c:	28078b63          	beqz	a5,80001a22 <kprintf+0x2de>
            switch (c) {
    80001790:	fc744783          	lbu	a5,-57(s0)
    80001794:	2781                	sext.w	a5,a5
    80001796:	f9d7869b          	addiw	a3,a5,-99
    8000179a:	0006871b          	sext.w	a4,a3
    8000179e:	47d5                	li	a5,21
    800017a0:	26e7ea63          	bltu	a5,a4,80001a14 <kprintf+0x2d0>
    800017a4:	02069793          	slli	a5,a3,0x20
    800017a8:	9381                	srli	a5,a5,0x20
    800017aa:	00279713          	slli	a4,a5,0x2
    800017ae:	00000797          	auipc	a5,0x0
    800017b2:	78278793          	addi	a5,a5,1922 # 80001f30 <multiply2+0x370>
    800017b6:	97ba                	add	a5,a5,a4
    800017b8:	439c                	lw	a5,0(a5)
    800017ba:	0007871b          	sext.w	a4,a5
    800017be:	00000797          	auipc	a5,0x0
    800017c2:	77278793          	addi	a5,a5,1906 # 80001f30 <multiply2+0x370>
    800017c6:	97ba                	add	a5,a5,a4
    800017c8:	8782                	jr	a5
                /* 'l' indicates a "long" modifier (e.g. %ld) */
                is_long = true;
    800017ca:	4785                	li	a5,1
    800017cc:	fef40723          	sb	a5,-18(s0)
                continue;
    800017d0:	ac95                	j	80001a44 <kprintf+0x300>
            case 'h':
                /* 'h' indicates a "short" modifier (e.g. %hd) */
                is_char = true;  /* re-using is_char to represent short */
    800017d2:	4785                	li	a5,1
    800017d4:	fef406a3          	sb	a5,-19(s0)
                continue;
    800017d8:	a4b5                	j	80001a44 <kprintf+0x300>
            case 'x': {
                /* Print in hexadecimal. Existing code. */
                unsigned long n;
                long i;
                if (is_long) {
    800017da:	fee44783          	lbu	a5,-18(s0)
    800017de:	0ff7f793          	zext.b	a5,a5
    800017e2:	cf99                	beqz	a5,80001800 <kprintf+0xbc>
                    n = va_arg(vl, unsigned long);
    800017e4:	fa843783          	ld	a5,-88(s0)
    800017e8:	00878713          	addi	a4,a5,8
    800017ec:	fae43423          	sd	a4,-88(s0)
    800017f0:	639c                	ld	a5,0(a5)
    800017f2:	fef43023          	sd	a5,-32(s0)
                    i = (sizeof(unsigned long) << 3) - 4;
    800017f6:	03c00793          	li	a5,60
    800017fa:	fcf43c23          	sd	a5,-40(s0)
    800017fe:	a041                	j	8000187e <kprintf+0x13a>
                } else {
                    n = va_arg(vl, unsigned int);
    80001800:	fa843783          	ld	a5,-88(s0)
    80001804:	00878713          	addi	a4,a5,8
    80001808:	fae43423          	sd	a4,-88(s0)
    8000180c:	439c                	lw	a5,0(a5)
    8000180e:	1782                	slli	a5,a5,0x20
    80001810:	9381                	srli	a5,a5,0x20
    80001812:	fef43023          	sd	a5,-32(s0)
                    i = is_char ? 4 : (sizeof(unsigned int) << 3) - 4;
    80001816:	fed44783          	lbu	a5,-19(s0)
    8000181a:	0ff7f793          	zext.b	a5,a5
    8000181e:	c399                	beqz	a5,80001824 <kprintf+0xe0>
    80001820:	4791                	li	a5,4
    80001822:	a011                	j	80001826 <kprintf+0xe2>
    80001824:	47f1                	li	a5,28
    80001826:	fcf43c23          	sd	a5,-40(s0)
                }
                for (; i >= 0; i -= 4) {
    8000182a:	a891                	j	8000187e <kprintf+0x13a>
                    long d = (n >> i) & 0xF;
    8000182c:	fd843783          	ld	a5,-40(s0)
    80001830:	2781                	sext.w	a5,a5
    80001832:	873e                	mv	a4,a5
    80001834:	fe043783          	ld	a5,-32(s0)
    80001838:	00e7d7b3          	srl	a5,a5,a4
    8000183c:	8bbd                	andi	a5,a5,15
    8000183e:	faf43c23          	sd	a5,-72(s0)
                    kputc(d < 10 ? '0' + d : 'a' + d - 10);
    80001842:	fb843703          	ld	a4,-72(s0)
    80001846:	47a5                	li	a5,9
    80001848:	00e7cb63          	blt	a5,a4,8000185e <kprintf+0x11a>
    8000184c:	fb843783          	ld	a5,-72(s0)
    80001850:	0ff7f793          	zext.b	a5,a5
    80001854:	0307879b          	addiw	a5,a5,48
    80001858:	0ff7f793          	zext.b	a5,a5
    8000185c:	a809                	j	8000186e <kprintf+0x12a>
    8000185e:	fb843783          	ld	a5,-72(s0)
    80001862:	0ff7f793          	zext.b	a5,a5
    80001866:	0577879b          	addiw	a5,a5,87
    8000186a:	0ff7f793          	zext.b	a5,a5
    8000186e:	853e                	mv	a0,a5
    80001870:	e29ff0ef          	jal	80001698 <kputc>
                for (; i >= 0; i -= 4) {
    80001874:	fd843783          	ld	a5,-40(s0)
    80001878:	17f1                	addi	a5,a5,-4
    8000187a:	fcf43c23          	sd	a5,-40(s0)
    8000187e:	fd843783          	ld	a5,-40(s0)
    80001882:	fa07d5e3          	bgez	a5,8000182c <kprintf+0xe8>
                }
                break;
    80001886:	a279                	j	80001a14 <kprintf+0x2d0>
                 * If 'l' was present: treat as 'long'
                 * If 'h' was present: treat as 'short'
                 * otherwise treat as regular 'int'.
                 */
                long num;
                if (is_long) {
    80001888:	fee44783          	lbu	a5,-18(s0)
    8000188c:	0ff7f793          	zext.b	a5,a5
    80001890:	cb99                	beqz	a5,800018a6 <kprintf+0x162>
                    num = va_arg(vl, long);
    80001892:	fa843783          	ld	a5,-88(s0)
    80001896:	00878713          	addi	a4,a5,8
    8000189a:	fae43423          	sd	a4,-88(s0)
    8000189e:	639c                	ld	a5,0(a5)
    800018a0:	fcf43823          	sd	a5,-48(s0)
    800018a4:	a03d                	j	800018d2 <kprintf+0x18e>
                } else {
                    /* Variadic arguments of type short/char
                     * are promoted to int, but we can cast later if needed. */
                    num = va_arg(vl, int);
    800018a6:	fa843783          	ld	a5,-88(s0)
    800018aa:	00878713          	addi	a4,a5,8
    800018ae:	fae43423          	sd	a4,-88(s0)
    800018b2:	439c                	lw	a5,0(a5)
    800018b4:	fcf43823          	sd	a5,-48(s0)
                    if (is_char) {
    800018b8:	fed44783          	lbu	a5,-19(s0)
    800018bc:	0ff7f793          	zext.b	a5,a5
    800018c0:	cb89                	beqz	a5,800018d2 <kprintf+0x18e>
                        /* For %hd, cast down to short (optional). */
                        num = (short)num;
    800018c2:	fd043783          	ld	a5,-48(s0)
    800018c6:	0107979b          	slliw	a5,a5,0x10
    800018ca:	4107d79b          	sraiw	a5,a5,0x10
    800018ce:	fcf43823          	sd	a5,-48(s0)
                    }
                }

                /* Handle negative sign if needed */
                if (num < 0) {
    800018d2:	fd043783          	ld	a5,-48(s0)
    800018d6:	0007dc63          	bgez	a5,800018ee <kprintf+0x1aa>
                    kputc('-');
    800018da:	02d00513          	li	a0,45
    800018de:	dbbff0ef          	jal	80001698 <kputc>
                    num = -num;
    800018e2:	fd043783          	ld	a5,-48(s0)
    800018e6:	40f007b3          	neg	a5,a5
    800018ea:	fcf43823          	sd	a5,-48(s0)
                }

                /* Convert number to decimal string (in reverse) */
                char buffer[32];
                int pos = 0;
    800018ee:	fc042623          	sw	zero,-52(s0)
                do {
                    buffer[pos++] = '0' + (num % 10);
    800018f2:	fd043703          	ld	a4,-48(s0)
    800018f6:	47a9                	li	a5,10
    800018f8:	02f767b3          	rem	a5,a4,a5
    800018fc:	0ff7f713          	zext.b	a4,a5
    80001900:	fcc42783          	lw	a5,-52(s0)
    80001904:	0017869b          	addiw	a3,a5,1
    80001908:	fcd42623          	sw	a3,-52(s0)
    8000190c:	0307071b          	addiw	a4,a4,48
    80001910:	0ff77713          	zext.b	a4,a4
    80001914:	17c1                	addi	a5,a5,-16
    80001916:	97a2                	add	a5,a5,s0
    80001918:	f8e78c23          	sb	a4,-104(a5)
                    num /= 10;
    8000191c:	fd043703          	ld	a4,-48(s0)
    80001920:	47a9                	li	a5,10
    80001922:	02f747b3          	div	a5,a4,a5
    80001926:	fcf43823          	sd	a5,-48(s0)
                } while (num > 0 && pos < (int)sizeof(buffer));
    8000192a:	fd043783          	ld	a5,-48(s0)
    8000192e:	02f05863          	blez	a5,8000195e <kprintf+0x21a>
    80001932:	fcc42783          	lw	a5,-52(s0)
    80001936:	0007871b          	sext.w	a4,a5
    8000193a:	47fd                	li	a5,31
    8000193c:	fae7dbe3          	bge	a5,a4,800018f2 <kprintf+0x1ae>

                /* Write out the digits in correct order */
                while (pos > 0) {
    80001940:	a839                	j	8000195e <kprintf+0x21a>
                    kputc(buffer[--pos]);
    80001942:	fcc42783          	lw	a5,-52(s0)
    80001946:	37fd                	addiw	a5,a5,-1
    80001948:	fcf42623          	sw	a5,-52(s0)
    8000194c:	fcc42783          	lw	a5,-52(s0)
    80001950:	17c1                	addi	a5,a5,-16
    80001952:	97a2                	add	a5,a5,s0
    80001954:	f987c783          	lbu	a5,-104(a5)
    80001958:	853e                	mv	a0,a5
    8000195a:	d3fff0ef          	jal	80001698 <kputc>
                while (pos > 0) {
    8000195e:	fcc42783          	lw	a5,-52(s0)
    80001962:	2781                	sext.w	a5,a5
    80001964:	fcf04fe3          	bgtz	a5,80001942 <kprintf+0x1fe>
                }
                break;
    80001968:	a075                	j	80001a14 <kprintf+0x2d0>
            }
            case 's':
                _kputs(va_arg(vl, const char *));
    8000196a:	fa843783          	ld	a5,-88(s0)
    8000196e:	00878713          	addi	a4,a5,8
    80001972:	fae43423          	sd	a4,-88(s0)
    80001976:	639c                	ld	a5,0(a5)
    80001978:	853e                	mv	a0,a5
    8000197a:	d5dff0ef          	jal	800016d6 <_kputs>
                break;
    8000197e:	a859                	j	80001a14 <kprintf+0x2d0>
            case 'c':
                kputc(va_arg(vl, int));
    80001980:	fa843783          	ld	a5,-88(s0)
    80001984:	00878713          	addi	a4,a5,8
    80001988:	fae43423          	sd	a4,-88(s0)
    8000198c:	439c                	lw	a5,0(a5)
    8000198e:	0ff7f793          	zext.b	a5,a5
    80001992:	853e                	mv	a0,a5
    80001994:	d05ff0ef          	jal	80001698 <kputc>
                break;
    80001998:	a8b5                	j	80001a14 <kprintf+0x2d0>
            case 'w': /* Force 32-bit hex output */
                unsigned int n = va_arg(vl, unsigned int);
    8000199a:	fa843783          	ld	a5,-88(s0)
    8000199e:	00878713          	addi	a4,a5,8
    800019a2:	fae43423          	sd	a4,-88(s0)
    800019a6:	439c                	lw	a5,0(a5)
    800019a8:	faf42a23          	sw	a5,-76(s0)
                /* We want exactly 32 bits (8 hex digits). Start at bit 28 (the top nibble). */
                for (int i = 28; i >= 0; i -= 4) {
    800019ac:	47f1                	li	a5,28
    800019ae:	fcf42423          	sw	a5,-56(s0)
    800019b2:	a899                	j	80001a08 <kprintf+0x2c4>
                    unsigned int d = (n >> i) & 0xF;
    800019b4:	fc842783          	lw	a5,-56(s0)
    800019b8:	fb442703          	lw	a4,-76(s0)
    800019bc:	00f757bb          	srlw	a5,a4,a5
    800019c0:	2781                	sext.w	a5,a5
    800019c2:	8bbd                	andi	a5,a5,15
    800019c4:	faf42823          	sw	a5,-80(s0)
                    kputc(d < 10 ? '0' + d : 'a' + d - 10);
    800019c8:	fb042783          	lw	a5,-80(s0)
    800019cc:	0007871b          	sext.w	a4,a5
    800019d0:	47a5                	li	a5,9
    800019d2:	00e7eb63          	bltu	a5,a4,800019e8 <kprintf+0x2a4>
    800019d6:	fb042783          	lw	a5,-80(s0)
    800019da:	0ff7f793          	zext.b	a5,a5
    800019de:	0307879b          	addiw	a5,a5,48
    800019e2:	0ff7f793          	zext.b	a5,a5
    800019e6:	a809                	j	800019f8 <kprintf+0x2b4>
    800019e8:	fb042783          	lw	a5,-80(s0)
    800019ec:	0ff7f793          	zext.b	a5,a5
    800019f0:	0577879b          	addiw	a5,a5,87
    800019f4:	0ff7f793          	zext.b	a5,a5
    800019f8:	853e                	mv	a0,a5
    800019fa:	c9fff0ef          	jal	80001698 <kputc>
                for (int i = 28; i >= 0; i -= 4) {
    800019fe:	fc842783          	lw	a5,-56(s0)
    80001a02:	37f1                	addiw	a5,a5,-4
    80001a04:	fcf42423          	sw	a5,-56(s0)
    80001a08:	fc842783          	lw	a5,-56(s0)
    80001a0c:	2781                	sext.w	a5,a5
    80001a0e:	fa07d3e3          	bgez	a5,800019b4 <kprintf+0x270>
                }
                break;
    80001a12:	0001                	nop
            }

            /* Reset state after handling a format specifier */
            is_format = false;
    80001a14:	fe0407a3          	sb	zero,-17(s0)
            is_long   = false;
    80001a18:	fe040723          	sb	zero,-18(s0)
            is_char   = false;
    80001a1c:	fe0406a3          	sb	zero,-19(s0)
    80001a20:	a015                	j	80001a44 <kprintf+0x300>
        } else if (c == '%') {
    80001a22:	fc744783          	lbu	a5,-57(s0)
    80001a26:	0ff7f713          	zext.b	a4,a5
    80001a2a:	02500793          	li	a5,37
    80001a2e:	00f71663          	bne	a4,a5,80001a3a <kprintf+0x2f6>
            /* Next character(s) will define a format specifier */
            is_format = true;
    80001a32:	4785                	li	a5,1
    80001a34:	fef407a3          	sb	a5,-17(s0)
    80001a38:	a031                	j	80001a44 <kprintf+0x300>
        } else {
            /* Normal character output */
            kputc(c);
    80001a3a:	fc744783          	lbu	a5,-57(s0)
    80001a3e:	853e                	mv	a0,a5
    80001a40:	c59ff0ef          	jal	80001698 <kputc>
    while ((c = *fmt++) != '\0') {
    80001a44:	f7843783          	ld	a5,-136(s0)
    80001a48:	00178713          	addi	a4,a5,1
    80001a4c:	f6e43c23          	sd	a4,-136(s0)
    80001a50:	0007c783          	lbu	a5,0(a5)
    80001a54:	fcf403a3          	sb	a5,-57(s0)
    80001a58:	fc744783          	lbu	a5,-57(s0)
    80001a5c:	0ff7f793          	zext.b	a5,a5
    80001a60:	d20792e3          	bnez	a5,80001784 <kprintf+0x40>
        }
    }

    va_end(vl);
}
    80001a64:	0001                	nop
    80001a66:	0001                	nop
    80001a68:	60aa                	ld	ra,136(sp)
    80001a6a:	640a                	ld	s0,128(sp)
    80001a6c:	6169                	addi	sp,sp,208
    80001a6e:	8082                	ret
	...

Disassembly of section .srodata:

0000000080001ab0 <uart>:

  #define _CONCAT3(A, B, C) A ## B ## C
  #define _UART_CTRL_ADDR(UART_NUM) _CONCAT3(UART, UART_NUM, _CTRL_ADDR)
  #define UART_CTRL_ADDR _UART_CTRL_ADDR(UART_NUM)
#endif
static volatile uint32_t * const uart = (void *)(UART_CTRL_ADDR);
    80001ab0:	0000                	unimp
    80001ab2:	6400                	ld	s0,8(s0)
    80001ab4:	0000                	unimp
	...

0000000080001ab8 <uart>:
    80001ab8:	0000                	unimp
    80001aba:	6400                	ld	s0,8(s0)
    80001abc:	0000                	unimp
	...
