
/home/thh/chipyard/demoriscv/software/MatMul/build/matmul.elf:     file format elf64-littleriscv


Disassembly of section .text:

0000000080000000 <_start>:
    .global _start
    .type _start, @function
_start:
    .cfi_startproc

    li x1, 0
    80000000:	4081                	li	ra,0
    li x2, 0
    80000002:	4101                	li	sp,0
    li x3, 0
    80000004:	4181                	li	gp,0
    li x4, 0
    80000006:	4201                	li	tp,0
    li x5, 0
    80000008:	4281                	li	t0,0
    li x6, 0
    8000000a:	4301                	li	t1,0
    li x7, 0
    8000000c:	4381                	li	t2,0
    li x8, 0
    8000000e:	4401                	li	s0,0
    li x9, 0
    80000010:	4481                	li	s1,0
    li x10, 0
    80000012:	4501                	li	a0,0
    li x11, 0
    80000014:	4581                	li	a1,0
    li x12, 0
    80000016:	4601                	li	a2,0
    li x13, 0
    80000018:	4681                	li	a3,0
    li x14, 0
    8000001a:	4701                	li	a4,0
    li x15, 0
    8000001c:	4781                	li	a5,0
    li x16, 0
    8000001e:	4801                	li	a6,0
    li x17, 0
    80000020:	4881                	li	a7,0
    li x18, 0
    80000022:	4901                	li	s2,0
    li x19, 0
    80000024:	4981                	li	s3,0
    li x20, 0
    80000026:	4a01                	li	s4,0
    li x21, 0
    80000028:	4a81                	li	s5,0
    li x22, 0
    8000002a:	4b01                	li	s6,0
    li x23, 0
    8000002c:	4b81                	li	s7,0
    li x24, 0
    8000002e:	4c01                	li	s8,0
    li x25, 0
    80000030:	4c81                	li	s9,0
    li x26, 0
    80000032:	4d01                	li	s10,0
    li x27, 0
    80000034:	4d81                	li	s11,0
    li x28, 0
    80000036:	4e01                	li	t3,0
    li x29, 0
    80000038:	4e81                	li	t4,0
    li x30, 0
    8000003a:	4f01                	li	t5,0
    li x31, 0
    8000003c:	4f81                	li	t6,0

    li t0, (MSTATUS_FS | MSTATUS_XS | MSTATUS_VS)
    8000003e:	0001e2b7          	lui	t0,0x1e
    80000042:	6002829b          	addiw	t0,t0,1536 # 1e600 <__stack_size+0x16600>
    csrs mstatus, t0
    80000046:	3002a073          	csrs	mstatus,t0

#ifdef __riscv_flen
    /* Initialize FPU if present */
    la t0, 1f
    8000004a:	00000297          	auipc	t0,0x0
    8000004e:	09028293          	addi	t0,t0,144 # 800000da <_start+0xda>
    csrw mtvec, t0
    80000052:	30529073          	csrw	mtvec,t0

    fscsr zero
    80000056:	00301073          	fscsr	zero
    fmv.s.x f0,  zero
    8000005a:	f0000053          	fmv.w.x	ft0,zero
    fmv.s.x f1,  zero
    8000005e:	f00000d3          	fmv.w.x	ft1,zero
    fmv.s.x f2,  zero
    80000062:	f0000153          	fmv.w.x	ft2,zero
    fmv.s.x f3,  zero
    80000066:	f00001d3          	fmv.w.x	ft3,zero
    fmv.s.x f4,  zero
    8000006a:	f0000253          	fmv.w.x	ft4,zero
    fmv.s.x f5,  zero
    8000006e:	f00002d3          	fmv.w.x	ft5,zero
    fmv.s.x f6,  zero
    80000072:	f0000353          	fmv.w.x	ft6,zero
    fmv.s.x f7,  zero
    80000076:	f00003d3          	fmv.w.x	ft7,zero
    fmv.s.x f8,  zero
    8000007a:	f0000453          	fmv.w.x	fs0,zero
    fmv.s.x f9,  zero
    8000007e:	f00004d3          	fmv.w.x	fs1,zero
    fmv.s.x f10, zero
    80000082:	f0000553          	fmv.w.x	fa0,zero
    fmv.s.x f11, zero
    80000086:	f00005d3          	fmv.w.x	fa1,zero
    fmv.s.x f12, zero
    8000008a:	f0000653          	fmv.w.x	fa2,zero
    fmv.s.x f13, zero
    8000008e:	f00006d3          	fmv.w.x	fa3,zero
    fmv.s.x f14, zero
    80000092:	f0000753          	fmv.w.x	fa4,zero
    fmv.s.x f15, zero
    80000096:	f00007d3          	fmv.w.x	fa5,zero
    fmv.s.x f16, zero
    8000009a:	f0000853          	fmv.w.x	fa6,zero
    fmv.s.x f17, zero
    8000009e:	f00008d3          	fmv.w.x	fa7,zero
    fmv.s.x f18, zero
    800000a2:	f0000953          	fmv.w.x	fs2,zero
    fmv.s.x f19, zero
    800000a6:	f00009d3          	fmv.w.x	fs3,zero
    fmv.s.x f20, zero
    800000aa:	f0000a53          	fmv.w.x	fs4,zero
    fmv.s.x f21, zero
    800000ae:	f0000ad3          	fmv.w.x	fs5,zero
    fmv.s.x f22, zero
    800000b2:	f0000b53          	fmv.w.x	fs6,zero
    fmv.s.x f23, zero
    800000b6:	f0000bd3          	fmv.w.x	fs7,zero
    fmv.s.x f24, zero
    800000ba:	f0000c53          	fmv.w.x	fs8,zero
    fmv.s.x f25, zero
    800000be:	f0000cd3          	fmv.w.x	fs9,zero
    fmv.s.x f26, zero
    800000c2:	f0000d53          	fmv.w.x	fs10,zero
    fmv.s.x f27, zero
    800000c6:	f0000dd3          	fmv.w.x	fs11,zero
    fmv.s.x f28, zero
    800000ca:	f0000e53          	fmv.w.x	ft8,zero
    fmv.s.x f29, zero
    800000ce:	f0000ed3          	fmv.w.x	ft9,zero
    fmv.s.x f30, zero
    800000d2:	f0000f53          	fmv.w.x	ft10,zero
    fmv.s.x f31, zero
    800000d6:	f0000fd3          	fmv.w.x	ft11,zero

    /* Initialize global pointer; disable relaxation to avoid relaxing
       the address calculation to "addi gp, gp, 0" */
    .option push
    .option norelax
    la gp, __global_pointer$
    800000da:	00003197          	auipc	gp,0x3
    800000de:	c9e18193          	addi	gp,gp,-866 # 80002d78 <__global_pointer$>
    .option pop

    /* Initialize thread pointer */
    csrr s0, mhartid
    800000e2:	f1402473          	csrr	s0,mhartid
    lui t0, %hi(__stack_shift)
    addi t0, t0, %lo(__stack_shift)
    800000e6:	00f00293          	li	t0,15
    la tp, __stack_start
    800000ea:	00023217          	auipc	tp,0x23
    800000ee:	f1620213          	addi	tp,tp,-234 # 80023000 <__heap_end>
    sll t0, s0, t0
    800000f2:	005412b3          	sll	t0,s0,t0
    add tp, tp, t0
    800000f6:	9216                	add	tp,tp,t0

    /* Initialize stack pointer */
    lui t0, %hi(__stack_size)
    800000f8:	62a1                	lui	t0,0x8
    addi t0, t0, %lo(__stack_size)
    800000fa:	00028293          	mv	t0,t0
    add sp, tp, t0
    800000fe:	00520133          	add	sp,tp,t0

    /* Initialize trap vector */
    la t0, trap_entry
    80000102:	00000297          	auipc	t0,0x0
    80000106:	04628293          	addi	t0,t0,70 # 80000148 <trap_entry>
    csrw mtvec, t0
    8000010a:	30529073          	csrw	mtvec,t0

    /* Initialize TLS */
    call __init_tls
    8000010e:	2a1000ef          	jal	80000bae <__init_tls>

    /* Skip global initialization if not the designated boot hart */
    la t0, __boot_hart
    80000112:	00000293          	li	t0,0
    bne s0, t0, _start_secondary
    80000116:	00540463          	beq	s0,t0,8000011e <_start+0x11e>
    8000011a:	0fe0006f          	j	80000218 <_start_secondary>

    /* Zero BSS segment */
    la t0, __bss_start
    8000011e:	84018293          	addi	t0,gp,-1984 # 800025b8 <htif_lock>
    la t1, __bss_end
    80000122:	fb018313          	addi	t1,gp,-80 # 80002d28 <_end>
    bgeu t0, t1, 2f
    80000126:	0062f763          	bgeu	t0,t1,80000134 <_start+0x134>
1:
    SREG zero, (t0)
    8000012a:	0002b023          	sd	zero,0(t0)
    addi t0, t0, REGBYTES
    8000012e:	02a1                	addi	t0,t0,8
    bltu t0, t1, 1b
    80000130:	fe62ede3          	bltu	t0,t1,8000012a <_start+0x12a>
2:

    /* Call global constructors */
    la a0, __libc_fini_array
    80000134:	00001517          	auipc	a0,0x1
    80000138:	02a50513          	addi	a0,a0,42 # 8000115e <__libc_fini_array>
    call atexit
    8000013c:	2f3000ef          	jal	80000c2e <atexit>
    call __libc_init_array
    80000140:	7c1000ef          	jal	80001100 <__libc_init_array>

    /* Call main function */
    tail _start_main
    80000144:	a845                	j	800001f4 <_start_main>
    80000146:	0001                	nop

0000000080000148 <trap_entry>:
    .cfi_endproc


    .align 2
trap_entry:
    csrw mscratch, sp
    80000148:	34011073          	csrw	mscratch,sp
    addi sp, sp, -(32*REGBYTES)
    8000014c:	7111                	addi	sp,sp,-256

    /* Save trap frame */
    SREG x1, 1*REGBYTES(sp)
    8000014e:	e406                	sd	ra,8(sp)
    csrr x1, mscratch
    80000150:	340020f3          	csrr	ra,mscratch
    SREG x1, 2*REGBYTES(sp)
    80000154:	e806                	sd	ra,16(sp)
    SREG x3, 3*REGBYTES(sp)
    80000156:	ec0e                	sd	gp,24(sp)
    SREG x4, 4*REGBYTES(sp)
    80000158:	f012                	sd	tp,32(sp)
    SREG x5, 5*REGBYTES(sp)
    8000015a:	f416                	sd	t0,40(sp)
    SREG x6, 6*REGBYTES(sp)
    8000015c:	f81a                	sd	t1,48(sp)
    SREG x7, 7*REGBYTES(sp)
    8000015e:	fc1e                	sd	t2,56(sp)
    SREG x8, 8*REGBYTES(sp)
    80000160:	e0a2                	sd	s0,64(sp)
    SREG x9, 9*REGBYTES(sp)
    80000162:	e4a6                	sd	s1,72(sp)
    SREG x10, 10*REGBYTES(sp)
    80000164:	e8aa                	sd	a0,80(sp)
    SREG x11, 11*REGBYTES(sp)
    80000166:	ecae                	sd	a1,88(sp)
    SREG x12, 12*REGBYTES(sp)
    80000168:	f0b2                	sd	a2,96(sp)
    SREG x13, 13*REGBYTES(sp)
    8000016a:	f4b6                	sd	a3,104(sp)
    SREG x14, 14*REGBYTES(sp)
    8000016c:	f8ba                	sd	a4,112(sp)
    SREG x15, 15*REGBYTES(sp)
    8000016e:	fcbe                	sd	a5,120(sp)
    SREG x16, 16*REGBYTES(sp)
    80000170:	e142                	sd	a6,128(sp)
    SREG x17, 17*REGBYTES(sp)
    80000172:	e546                	sd	a7,136(sp)
    SREG x18, 18*REGBYTES(sp)
    80000174:	e94a                	sd	s2,144(sp)
    SREG x19, 19*REGBYTES(sp)
    80000176:	ed4e                	sd	s3,152(sp)
    SREG x20, 20*REGBYTES(sp)
    80000178:	f152                	sd	s4,160(sp)
    SREG x21, 21*REGBYTES(sp)
    8000017a:	f556                	sd	s5,168(sp)
    SREG x22, 22*REGBYTES(sp)
    8000017c:	f95a                	sd	s6,176(sp)
    SREG x23, 23*REGBYTES(sp)
    8000017e:	fd5e                	sd	s7,184(sp)
    SREG x24, 24*REGBYTES(sp)
    80000180:	e1e2                	sd	s8,192(sp)
    SREG x25, 25*REGBYTES(sp)
    80000182:	e5e6                	sd	s9,200(sp)
    SREG x26, 26*REGBYTES(sp)
    80000184:	e9ea                	sd	s10,208(sp)
    SREG x27, 27*REGBYTES(sp)
    80000186:	edee                	sd	s11,216(sp)
    SREG x28, 28*REGBYTES(sp)
    80000188:	f1f2                	sd	t3,224(sp)
    SREG x29, 29*REGBYTES(sp)
    8000018a:	f5f6                	sd	t4,232(sp)
    SREG x30, 30*REGBYTES(sp)
    8000018c:	f9fa                	sd	t5,240(sp)
    SREG x31, 31*REGBYTES(sp)
    8000018e:	fdfe                	sd	t6,248(sp)

    /* Invoke higher-level trap handler */
    csrr a0, mepc
    80000190:	34102573          	csrr	a0,mepc
    csrr a1, mcause
    80000194:	342025f3          	csrr	a1,mcause
    csrr a2, mtval
    80000198:	34302673          	csrr	a2,mtval
    mv a3, sp
    8000019c:	868a                	mv	a3,sp
    call handle_trap
    8000019e:	12f000ef          	jal	80000acc <handle_trap>
    csrw mepc, a0
    800001a2:	34151073          	csrw	mepc,a0

    /* Remain in M-mode after return */
    li t0, MSTATUS_MPP
    800001a6:	000022b7          	lui	t0,0x2
    800001aa:	8002829b          	addiw	t0,t0,-2048 # 1800 <__stack_align+0x17f0>
    csrs mstatus, t0
    800001ae:	3002a073          	csrs	mstatus,t0

    LREG x1, 1*REGBYTES(sp)
    800001b2:	60a2                	ld	ra,8(sp)
    LREG x3, 3*REGBYTES(sp)
    800001b4:	61e2                	ld	gp,24(sp)
    LREG x4, 4*REGBYTES(sp)
    800001b6:	7202                	ld	tp,32(sp)
    LREG x5, 5*REGBYTES(sp)
    800001b8:	72a2                	ld	t0,40(sp)
    LREG x6, 6*REGBYTES(sp)
    800001ba:	7342                	ld	t1,48(sp)
    LREG x7, 7*REGBYTES(sp)
    800001bc:	73e2                	ld	t2,56(sp)
    LREG x8, 8*REGBYTES(sp)
    800001be:	6406                	ld	s0,64(sp)
    LREG x9, 9*REGBYTES(sp)
    800001c0:	64a6                	ld	s1,72(sp)
    LREG x10, 10*REGBYTES(sp)
    800001c2:	6546                	ld	a0,80(sp)
    LREG x11, 11*REGBYTES(sp)
    800001c4:	65e6                	ld	a1,88(sp)
    LREG x12, 12*REGBYTES(sp)
    800001c6:	7606                	ld	a2,96(sp)
    LREG x13, 13*REGBYTES(sp)
    800001c8:	76a6                	ld	a3,104(sp)
    LREG x14, 14*REGBYTES(sp)
    800001ca:	7746                	ld	a4,112(sp)
    LREG x15, 15*REGBYTES(sp)
    800001cc:	77e6                	ld	a5,120(sp)
    LREG x16, 16*REGBYTES(sp)
    800001ce:	680a                	ld	a6,128(sp)
    LREG x17, 17*REGBYTES(sp)
    800001d0:	68aa                	ld	a7,136(sp)
    LREG x18, 18*REGBYTES(sp)
    800001d2:	694a                	ld	s2,144(sp)
    LREG x19, 19*REGBYTES(sp)
    800001d4:	69ea                	ld	s3,152(sp)
    LREG x20, 20*REGBYTES(sp)
    800001d6:	7a0a                	ld	s4,160(sp)
    LREG x21, 21*REGBYTES(sp)
    800001d8:	7aaa                	ld	s5,168(sp)
    LREG x22, 22*REGBYTES(sp)
    800001da:	7b4a                	ld	s6,176(sp)
    LREG x23, 23*REGBYTES(sp)
    800001dc:	7bea                	ld	s7,184(sp)
    LREG x24, 24*REGBYTES(sp)
    800001de:	6c0e                	ld	s8,192(sp)
    LREG x25, 25*REGBYTES(sp)
    800001e0:	6cae                	ld	s9,200(sp)
    LREG x26, 26*REGBYTES(sp)
    800001e2:	6d4e                	ld	s10,208(sp)
    LREG x27, 27*REGBYTES(sp)
    800001e4:	6dee                	ld	s11,216(sp)
    LREG x28, 28*REGBYTES(sp)
    800001e6:	7e0e                	ld	t3,224(sp)
    LREG x29, 29*REGBYTES(sp)
    800001e8:	7eae                	ld	t4,232(sp)
    LREG x30, 30*REGBYTES(sp)
    800001ea:	7f4e                	ld	t5,240(sp)
    LREG x31, 31*REGBYTES(sp)
    800001ec:	7fee                	ld	t6,248(sp)
    /* Restore sp last */
    LREG x2, 2*REGBYTES(sp)
    800001ee:	6142                	ld	sp,16(sp)

    mret
    800001f0:	30200073          	mret

00000000800001f4 <_start_main>:
    .endm

    .global _start_main
    .type _start_main, @function
_start_main:
    BARRIER_PASS __boot_sync
    800001f4:	52fd                	li	t0,-1
    800001f6:	0110000f          	fence	w,w
    800001fa:	c851a023          	sw	t0,-896(gp) # 800029f8 <__boot_sync>
    ENTER main
    800001fe:	4505                	li	a0,1
    80000200:	00001597          	auipc	a1,0x1
    80000204:	64858593          	addi	a1,a1,1608 # 80001848 <argv>
    80000208:	00002617          	auipc	a2,0x2
    8000020c:	37863603          	ld	a2,888(a2) # 80002580 <environ>
    80000210:	790000ef          	jal	800009a0 <main>
    80000214:	2250006f          	j	80000c38 <exit>

0000000080000218 <_start_secondary>:

    .global _start_secondary
    .type _start_secondary, @function
_start_secondary:
    /* Synchronize secondary harts */
    BARRIER_WAIT __boot_sync
    80000218:	c801a283          	lw	t0,-896(gp) # 800029f8 <__boot_sync>
    8000021c:	fe028ee3          	beqz	t0,80000218 <_start_secondary>
    80000220:	0220000f          	fence	r,r
    ENTER __main
    80000224:	4505                	li	a0,1
    80000226:	00001597          	auipc	a1,0x1
    8000022a:	62258593          	addi	a1,a1,1570 # 80001848 <argv>
    8000022e:	00002617          	auipc	a2,0x2
    80000232:	35263603          	ld	a2,850(a2) # 80002580 <environ>
    80000236:	70e000ef          	jal	80000944 <__main>
    8000023a:	1ff0006f          	j	80000c38 <exit>

000000008000023e <kputc>:
	_kputs(s);
	kputc('\r');
	kputc('\n');
}

void kprintf(const char *fmt, ...)
    8000023e:	7179                	addi	sp,sp,-48
    80000240:	f422                	sd	s0,40(sp)
    80000242:	1800                	addi	s0,sp,48
    80000244:	87aa                	mv	a5,a0
    80000246:	fcf40fa3          	sb	a5,-33(s0)
{
    8000024a:	640007b7          	lui	a5,0x64000
    8000024e:	fef43423          	sd	a5,-24(s0)
    va_list vl;
    bool is_format, is_long, is_char;
    char c;

    80000252:	fe843703          	ld	a4,-24(s0)
    80000256:	fdf44783          	lbu	a5,-33(s0)
    8000025a:	86be                	mv	a3,a5
    8000025c:	fe843783          	ld	a5,-24(s0)
    80000260:	40d727af          	amoor.w	a5,a3,(a4)
    80000264:	fef42223          	sw	a5,-28(s0)
    va_start(vl, fmt);
    is_format = false;
    is_long = false;
    is_char = false;
    80000268:	fe442783          	lw	a5,-28(s0)
    8000026c:	2781                	sext.w	a5,a5
    8000026e:	fe07c2e3          	bltz	a5,80000252 <kputc+0x14>

    while ((c = *fmt++) != '\0') {
        if (is_format) {
            switch (c) {
            case 'l':
    80000272:	0001                	nop
    80000274:	0001                	nop
    80000276:	7422                	ld	s0,40(sp)
    80000278:	6145                	addi	sp,sp,48
    8000027a:	8082                	ret

000000008000027c <_kputs>:
{
    8000027c:	7179                	addi	sp,sp,-48
    8000027e:	f406                	sd	ra,40(sp)
    80000280:	f022                	sd	s0,32(sp)
    80000282:	1800                	addi	s0,sp,48
    80000284:	fca43c23          	sd	a0,-40(s0)
	for (; (c = *s) != '\0'; s++)
    80000288:	a819                	j	8000029e <_kputs+0x22>
		kputc(c);
    8000028a:	fef44783          	lbu	a5,-17(s0)
    8000028e:	853e                	mv	a0,a5
    80000290:	fafff0ef          	jal	8000023e <kputc>
	for (; (c = *s) != '\0'; s++)
    80000294:	fd843783          	ld	a5,-40(s0)
    80000298:	0785                	addi	a5,a5,1 # 64000001 <__heap_size+0x63fe0001>
    8000029a:	fcf43c23          	sd	a5,-40(s0)
    8000029e:	fd843783          	ld	a5,-40(s0)
    800002a2:	0007c783          	lbu	a5,0(a5)
    800002a6:	fef407a3          	sb	a5,-17(s0)
    800002aa:	fef44783          	lbu	a5,-17(s0)
    800002ae:	0ff7f793          	zext.b	a5,a5
    800002b2:	ffe1                	bnez	a5,8000028a <_kputs+0xe>
}
    800002b4:	0001                	nop
    800002b6:	0001                	nop
    800002b8:	70a2                	ld	ra,40(sp)
    800002ba:	7402                	ld	s0,32(sp)
    800002bc:	6145                	addi	sp,sp,48
    800002be:	8082                	ret

00000000800002c0 <kputs>:
{
    800002c0:	1101                	addi	sp,sp,-32
    800002c2:	ec06                	sd	ra,24(sp)
    800002c4:	e822                	sd	s0,16(sp)
    800002c6:	1000                	addi	s0,sp,32
    800002c8:	fea43423          	sd	a0,-24(s0)
	_kputs(s);
    800002cc:	fe843503          	ld	a0,-24(s0)
    800002d0:	fadff0ef          	jal	8000027c <_kputs>
	kputc('\r');
    800002d4:	4535                	li	a0,13
    800002d6:	f69ff0ef          	jal	8000023e <kputc>
	kputc('\n');
    800002da:	4529                	li	a0,10
    800002dc:	f63ff0ef          	jal	8000023e <kputc>
}
    800002e0:	0001                	nop
    800002e2:	60e2                	ld	ra,24(sp)
    800002e4:	6442                	ld	s0,16(sp)
    800002e6:	6105                	addi	sp,sp,32
    800002e8:	8082                	ret

00000000800002ea <kprintf>:
{
    800002ea:	7155                	addi	sp,sp,-208
    800002ec:	e506                	sd	ra,136(sp)
    800002ee:	e122                	sd	s0,128(sp)
    800002f0:	0900                	addi	s0,sp,144
    800002f2:	f6a43c23          	sd	a0,-136(s0)
    800002f6:	e40c                	sd	a1,8(s0)
    800002f8:	e810                	sd	a2,16(s0)
    800002fa:	ec14                	sd	a3,24(s0)
    800002fc:	f018                	sd	a4,32(s0)
    800002fe:	f41c                	sd	a5,40(s0)
    80000300:	03043823          	sd	a6,48(s0)
    80000304:	03143c23          	sd	a7,56(s0)
    va_start(vl, fmt);
    80000308:	04040793          	addi	a5,s0,64
    8000030c:	f6f43823          	sd	a5,-144(s0)
    80000310:	f7043783          	ld	a5,-144(s0)
    80000314:	fc878793          	addi	a5,a5,-56
    80000318:	faf43423          	sd	a5,-88(s0)
    is_format = false;
    8000031c:	fe0407a3          	sb	zero,-17(s0)
    is_long = false;
    80000320:	fe040723          	sb	zero,-18(s0)
    is_char = false;
    80000324:	fe0406a3          	sb	zero,-19(s0)
    while ((c = *fmt++) != '\0') {
    80000328:	a4c9                	j	800005ea <kprintf+0x300>
        if (is_format) {
    8000032a:	fef44783          	lbu	a5,-17(s0)
    8000032e:	0ff7f793          	zext.b	a5,a5
    80000332:	28078b63          	beqz	a5,800005c8 <kprintf+0x2de>
            switch (c) {
    80000336:	fc744783          	lbu	a5,-57(s0)
    8000033a:	2781                	sext.w	a5,a5
    8000033c:	f9d7869b          	addiw	a3,a5,-99
    80000340:	0006871b          	sext.w	a4,a3
    80000344:	47d5                	li	a5,21
    80000346:	26e7ea63          	bltu	a5,a4,800005ba <kprintf+0x2d0>
    8000034a:	02069793          	slli	a5,a3,0x20
    8000034e:	9381                	srli	a5,a5,0x20
    80000350:	00279713          	slli	a4,a5,0x2
    80000354:	00001797          	auipc	a5,0x1
    80000358:	42478793          	addi	a5,a5,1060 # 80001778 <__tbss_end>
    8000035c:	97ba                	add	a5,a5,a4
    8000035e:	439c                	lw	a5,0(a5)
    80000360:	0007871b          	sext.w	a4,a5
    80000364:	00001797          	auipc	a5,0x1
    80000368:	41478793          	addi	a5,a5,1044 # 80001778 <__tbss_end>
    8000036c:	97ba                	add	a5,a5,a4
    8000036e:	8782                	jr	a5
                is_long = true;
    80000370:	4785                	li	a5,1
    80000372:	fef40723          	sb	a5,-18(s0)
                continue;
    80000376:	ac95                	j	800005ea <kprintf+0x300>
            case 'h':
                is_char = true;
    80000378:	4785                	li	a5,1
    8000037a:	fef406a3          	sb	a5,-19(s0)
                continue;
    8000037e:	a4b5                	j	800005ea <kprintf+0x300>
            case 'x': {
                unsigned long n;
                long i;
                if (is_long) {
    80000380:	fee44783          	lbu	a5,-18(s0)
    80000384:	0ff7f793          	zext.b	a5,a5
    80000388:	cf99                	beqz	a5,800003a6 <kprintf+0xbc>
                    n = va_arg(vl, unsigned long);
    8000038a:	fa843783          	ld	a5,-88(s0)
    8000038e:	00878713          	addi	a4,a5,8
    80000392:	fae43423          	sd	a4,-88(s0)
    80000396:	639c                	ld	a5,0(a5)
    80000398:	fef43023          	sd	a5,-32(s0)
                    i = (sizeof(unsigned long) << 3) - 4;
    8000039c:	03c00793          	li	a5,60
    800003a0:	fcf43c23          	sd	a5,-40(s0)
    800003a4:	a041                	j	80000424 <kprintf+0x13a>
                } else {
                    n = va_arg(vl, unsigned int);
    800003a6:	fa843783          	ld	a5,-88(s0)
    800003aa:	00878713          	addi	a4,a5,8
    800003ae:	fae43423          	sd	a4,-88(s0)
    800003b2:	439c                	lw	a5,0(a5)
    800003b4:	1782                	slli	a5,a5,0x20
    800003b6:	9381                	srli	a5,a5,0x20
    800003b8:	fef43023          	sd	a5,-32(s0)
                    i = is_char ? 4 : (sizeof(unsigned int) << 3) - 4;
    800003bc:	fed44783          	lbu	a5,-19(s0)
    800003c0:	0ff7f793          	zext.b	a5,a5
    800003c4:	c399                	beqz	a5,800003ca <kprintf+0xe0>
    800003c6:	4791                	li	a5,4
    800003c8:	a011                	j	800003cc <kprintf+0xe2>
    800003ca:	47f1                	li	a5,28
    800003cc:	fcf43c23          	sd	a5,-40(s0)
                }
                for (; i >= 0; i -= 4) {
    800003d0:	a891                	j	80000424 <kprintf+0x13a>
                    long d = (n >> i) & 0xF;
    800003d2:	fd843783          	ld	a5,-40(s0)
    800003d6:	2781                	sext.w	a5,a5
    800003d8:	873e                	mv	a4,a5
    800003da:	fe043783          	ld	a5,-32(s0)
    800003de:	00e7d7b3          	srl	a5,a5,a4
    800003e2:	8bbd                	andi	a5,a5,15
    800003e4:	faf43c23          	sd	a5,-72(s0)
                    kputc(d < 10 ? '0' + d : 'a' + d - 10);
    800003e8:	fb843703          	ld	a4,-72(s0)
    800003ec:	47a5                	li	a5,9
    800003ee:	00e7cb63          	blt	a5,a4,80000404 <kprintf+0x11a>
    800003f2:	fb843783          	ld	a5,-72(s0)
    800003f6:	0ff7f793          	zext.b	a5,a5
    800003fa:	0307879b          	addiw	a5,a5,48
    800003fe:	0ff7f793          	zext.b	a5,a5
    80000402:	a809                	j	80000414 <kprintf+0x12a>
    80000404:	fb843783          	ld	a5,-72(s0)
    80000408:	0ff7f793          	zext.b	a5,a5
    8000040c:	0577879b          	addiw	a5,a5,87
    80000410:	0ff7f793          	zext.b	a5,a5
    80000414:	853e                	mv	a0,a5
    80000416:	e29ff0ef          	jal	8000023e <kputc>
                for (; i >= 0; i -= 4) {
    8000041a:	fd843783          	ld	a5,-40(s0)
    8000041e:	17f1                	addi	a5,a5,-4
    80000420:	fcf43c23          	sd	a5,-40(s0)
    80000424:	fd843783          	ld	a5,-40(s0)
    80000428:	fa07d5e3          	bgez	a5,800003d2 <kprintf+0xe8>
                }
                break;
    8000042c:	a279                	j	800005ba <kprintf+0x2d0>
            }
            case 'd': {
                long num;
                if (is_long) {
    8000042e:	fee44783          	lbu	a5,-18(s0)
    80000432:	0ff7f793          	zext.b	a5,a5
    80000436:	cb99                	beqz	a5,8000044c <kprintf+0x162>
                    num = va_arg(vl, long);
    80000438:	fa843783          	ld	a5,-88(s0)
    8000043c:	00878713          	addi	a4,a5,8
    80000440:	fae43423          	sd	a4,-88(s0)
    80000444:	639c                	ld	a5,0(a5)
    80000446:	fcf43823          	sd	a5,-48(s0)
    8000044a:	a03d                	j	80000478 <kprintf+0x18e>
                } else {
                    num = va_arg(vl, int);
    8000044c:	fa843783          	ld	a5,-88(s0)
    80000450:	00878713          	addi	a4,a5,8
    80000454:	fae43423          	sd	a4,-88(s0)
    80000458:	439c                	lw	a5,0(a5)
    8000045a:	fcf43823          	sd	a5,-48(s0)
                    if (is_char) {
    8000045e:	fed44783          	lbu	a5,-19(s0)
    80000462:	0ff7f793          	zext.b	a5,a5
    80000466:	cb89                	beqz	a5,80000478 <kprintf+0x18e>
                        num = (short)num;
    80000468:	fd043783          	ld	a5,-48(s0)
    8000046c:	0107979b          	slliw	a5,a5,0x10
    80000470:	4107d79b          	sraiw	a5,a5,0x10
    80000474:	fcf43823          	sd	a5,-48(s0)
                    }
                }

                if (num < 0) {
    80000478:	fd043783          	ld	a5,-48(s0)
    8000047c:	0007dc63          	bgez	a5,80000494 <kprintf+0x1aa>
                    kputc('-');
    80000480:	02d00513          	li	a0,45
    80000484:	dbbff0ef          	jal	8000023e <kputc>
                    num = -num;
    80000488:	fd043783          	ld	a5,-48(s0)
    8000048c:	40f007b3          	neg	a5,a5
    80000490:	fcf43823          	sd	a5,-48(s0)
                }

                char buffer[32];
                int pos = 0;
    80000494:	fc042623          	sw	zero,-52(s0)
                do {
                    buffer[pos++] = '0' + (num % 10);
    80000498:	fd043703          	ld	a4,-48(s0)
    8000049c:	47a9                	li	a5,10
    8000049e:	02f767b3          	rem	a5,a4,a5
    800004a2:	0ff7f713          	zext.b	a4,a5
    800004a6:	fcc42783          	lw	a5,-52(s0)
    800004aa:	0017869b          	addiw	a3,a5,1
    800004ae:	fcd42623          	sw	a3,-52(s0)
    800004b2:	0307071b          	addiw	a4,a4,48
    800004b6:	0ff77713          	zext.b	a4,a4
    800004ba:	17c1                	addi	a5,a5,-16
    800004bc:	97a2                	add	a5,a5,s0
    800004be:	f8e78c23          	sb	a4,-104(a5)
                    num /= 10;
    800004c2:	fd043703          	ld	a4,-48(s0)
    800004c6:	47a9                	li	a5,10
    800004c8:	02f747b3          	div	a5,a4,a5
    800004cc:	fcf43823          	sd	a5,-48(s0)
                } while (num > 0 && pos < (int)sizeof(buffer));
    800004d0:	fd043783          	ld	a5,-48(s0)
    800004d4:	02f05863          	blez	a5,80000504 <kprintf+0x21a>
    800004d8:	fcc42783          	lw	a5,-52(s0)
    800004dc:	0007871b          	sext.w	a4,a5
    800004e0:	47fd                	li	a5,31
    800004e2:	fae7dbe3          	bge	a5,a4,80000498 <kprintf+0x1ae>

                while (pos > 0) {
    800004e6:	a839                	j	80000504 <kprintf+0x21a>
                    kputc(buffer[--pos]);
    800004e8:	fcc42783          	lw	a5,-52(s0)
    800004ec:	37fd                	addiw	a5,a5,-1
    800004ee:	fcf42623          	sw	a5,-52(s0)
    800004f2:	fcc42783          	lw	a5,-52(s0)
    800004f6:	17c1                	addi	a5,a5,-16
    800004f8:	97a2                	add	a5,a5,s0
    800004fa:	f987c783          	lbu	a5,-104(a5)
    800004fe:	853e                	mv	a0,a5
    80000500:	d3fff0ef          	jal	8000023e <kputc>
                while (pos > 0) {
    80000504:	fcc42783          	lw	a5,-52(s0)
    80000508:	2781                	sext.w	a5,a5
    8000050a:	fcf04fe3          	bgtz	a5,800004e8 <kprintf+0x1fe>
                }
                break;
    8000050e:	a075                	j	800005ba <kprintf+0x2d0>
            }
            case 's':
                _kputs(va_arg(vl, const char *));
    80000510:	fa843783          	ld	a5,-88(s0)
    80000514:	00878713          	addi	a4,a5,8
    80000518:	fae43423          	sd	a4,-88(s0)
    8000051c:	639c                	ld	a5,0(a5)
    8000051e:	853e                	mv	a0,a5
    80000520:	d5dff0ef          	jal	8000027c <_kputs>
                break;
    80000524:	a859                	j	800005ba <kprintf+0x2d0>
            case 'c':
                kputc(va_arg(vl, int));
    80000526:	fa843783          	ld	a5,-88(s0)
    8000052a:	00878713          	addi	a4,a5,8
    8000052e:	fae43423          	sd	a4,-88(s0)
    80000532:	439c                	lw	a5,0(a5)
    80000534:	0ff7f793          	zext.b	a5,a5
    80000538:	853e                	mv	a0,a5
    8000053a:	d05ff0ef          	jal	8000023e <kputc>
                break;
    8000053e:	a8b5                	j	800005ba <kprintf+0x2d0>
            case 'w':
                unsigned int n = va_arg(vl, unsigned int);
    80000540:	fa843783          	ld	a5,-88(s0)
    80000544:	00878713          	addi	a4,a5,8
    80000548:	fae43423          	sd	a4,-88(s0)
    8000054c:	439c                	lw	a5,0(a5)
    8000054e:	faf42a23          	sw	a5,-76(s0)
                for (int i = 28; i >= 0; i -= 4) {
    80000552:	47f1                	li	a5,28
    80000554:	fcf42423          	sw	a5,-56(s0)
    80000558:	a899                	j	800005ae <kprintf+0x2c4>
                    unsigned int d = (n >> i) & 0xF;
    8000055a:	fc842783          	lw	a5,-56(s0)
    8000055e:	fb442703          	lw	a4,-76(s0)
    80000562:	00f757bb          	srlw	a5,a4,a5
    80000566:	2781                	sext.w	a5,a5
    80000568:	8bbd                	andi	a5,a5,15
    8000056a:	faf42823          	sw	a5,-80(s0)
                    kputc(d < 10 ? '0' + d : 'a' + d - 10);
    8000056e:	fb042783          	lw	a5,-80(s0)
    80000572:	0007871b          	sext.w	a4,a5
    80000576:	47a5                	li	a5,9
    80000578:	00e7eb63          	bltu	a5,a4,8000058e <kprintf+0x2a4>
    8000057c:	fb042783          	lw	a5,-80(s0)
    80000580:	0ff7f793          	zext.b	a5,a5
    80000584:	0307879b          	addiw	a5,a5,48
    80000588:	0ff7f793          	zext.b	a5,a5
    8000058c:	a809                	j	8000059e <kprintf+0x2b4>
    8000058e:	fb042783          	lw	a5,-80(s0)
    80000592:	0ff7f793          	zext.b	a5,a5
    80000596:	0577879b          	addiw	a5,a5,87
    8000059a:	0ff7f793          	zext.b	a5,a5
    8000059e:	853e                	mv	a0,a5
    800005a0:	c9fff0ef          	jal	8000023e <kputc>
                for (int i = 28; i >= 0; i -= 4) {
    800005a4:	fc842783          	lw	a5,-56(s0)
    800005a8:	37f1                	addiw	a5,a5,-4
    800005aa:	fcf42423          	sw	a5,-56(s0)
    800005ae:	fc842783          	lw	a5,-56(s0)
    800005b2:	2781                	sext.w	a5,a5
    800005b4:	fa07d3e3          	bgez	a5,8000055a <kprintf+0x270>
                }
                break;
    800005b8:	0001                	nop
            }

            is_format = false;
    800005ba:	fe0407a3          	sb	zero,-17(s0)
            is_long   = false;
    800005be:	fe040723          	sb	zero,-18(s0)
            is_char   = false;
    800005c2:	fe0406a3          	sb	zero,-19(s0)
    800005c6:	a015                	j	800005ea <kprintf+0x300>
        } else if (c == '%') {
    800005c8:	fc744783          	lbu	a5,-57(s0)
    800005cc:	0ff7f713          	zext.b	a4,a5
    800005d0:	02500793          	li	a5,37
    800005d4:	00f71663          	bne	a4,a5,800005e0 <kprintf+0x2f6>
            is_format = true;
    800005d8:	4785                	li	a5,1
    800005da:	fef407a3          	sb	a5,-17(s0)
    800005de:	a031                	j	800005ea <kprintf+0x300>
        } else {
            kputc(c);
    800005e0:	fc744783          	lbu	a5,-57(s0)
    800005e4:	853e                	mv	a0,a5
    800005e6:	c59ff0ef          	jal	8000023e <kputc>
    while ((c = *fmt++) != '\0') {
    800005ea:	f7843783          	ld	a5,-136(s0)
    800005ee:	00178713          	addi	a4,a5,1
    800005f2:	f6e43c23          	sd	a4,-136(s0)
    800005f6:	0007c783          	lbu	a5,0(a5)
    800005fa:	fcf403a3          	sb	a5,-57(s0)
    800005fe:	fc744783          	lbu	a5,-57(s0)
    80000602:	0ff7f793          	zext.b	a5,a5
    80000606:	d20792e3          	bnez	a5,8000032a <kprintf+0x40>
        }
    }

    va_end(vl);
}
    8000060a:	0001                	nop
    8000060c:	0001                	nop
    8000060e:	60aa                	ld	ra,136(sp)
    80000610:	640a                	ld	s0,128(sp)
    80000612:	6169                	addi	sp,sp,208
    80000614:	8082                	ret

0000000080000616 <verify>:
#include <riscv-pk/encoding.h>
#include "platform.h"
#include "kprintf.h"
#include "dataset.h"
#include "util.h"

    80000616:	715d                	addi	sp,sp,-80
    80000618:	e4a2                	sd	s0,72(sp)
    8000061a:	0880                	addi	s0,sp,80
    8000061c:	87aa                	mv	a5,a0
    8000061e:	fcb43023          	sd	a1,-64(s0)
    80000622:	fac43c23          	sd	a2,-72(s0)
    80000626:	fcf42623          	sw	a5,-52(s0)
static uint32_t n_cores = 4;
static int results_data[ARRAY_SIZE];

    8000062a:	fe042623          	sw	zero,-20(s0)
    8000062e:	a841                	j	800006be <verify+0xa8>

void matmul(const int coreid, const int ncores, const int lda, const int A[], const int B[], int C[])
    80000630:	fec42783          	lw	a5,-20(s0)
    80000634:	078a                	slli	a5,a5,0x2
    80000636:	fc043703          	ld	a4,-64(s0)
    8000063a:	97ba                	add	a5,a5,a4
    8000063c:	439c                	lw	a5,0(a5)
    8000063e:	fef42423          	sw	a5,-24(s0)
    80000642:	fec42783          	lw	a5,-20(s0)
    80000646:	0785                	addi	a5,a5,1
    80000648:	078a                	slli	a5,a5,0x2
    8000064a:	fc043703          	ld	a4,-64(s0)
    8000064e:	97ba                	add	a5,a5,a4
    80000650:	439c                	lw	a5,0(a5)
    80000652:	fef42223          	sw	a5,-28(s0)
{
    80000656:	fec42783          	lw	a5,-20(s0)
    8000065a:	078a                	slli	a5,a5,0x2
    8000065c:	fb843703          	ld	a4,-72(s0)
    80000660:	97ba                	add	a5,a5,a4
    80000662:	439c                	lw	a5,0(a5)
    80000664:	fef42023          	sw	a5,-32(s0)
    80000668:	fec42783          	lw	a5,-20(s0)
    8000066c:	0785                	addi	a5,a5,1
    8000066e:	078a                	slli	a5,a5,0x2
    80000670:	fb843703          	ld	a4,-72(s0)
    80000674:	97ba                	add	a5,a5,a4
    80000676:	439c                	lw	a5,0(a5)
    80000678:	fcf42e23          	sw	a5,-36(s0)
  int i, j, k;
    8000067c:	fe842783          	lw	a5,-24(s0)
    80000680:	873e                	mv	a4,a5
    80000682:	fe042783          	lw	a5,-32(s0)
    80000686:	2701                	sext.w	a4,a4
    80000688:	2781                	sext.w	a5,a5
    8000068a:	00f70763          	beq	a4,a5,80000698 <verify+0x82>
    8000068e:	fec42783          	lw	a5,-20(s0)
    80000692:	2785                	addiw	a5,a5,1
    80000694:	2781                	sext.w	a5,a5
    80000696:	a059                	j	8000071c <verify+0x106>
  int block = lda / ncores;
    80000698:	fe442783          	lw	a5,-28(s0)
    8000069c:	873e                	mv	a4,a5
    8000069e:	fdc42783          	lw	a5,-36(s0)
    800006a2:	2701                	sext.w	a4,a4
    800006a4:	2781                	sext.w	a5,a5
    800006a6:	00f70763          	beq	a4,a5,800006b4 <verify+0x9e>
    800006aa:	fec42783          	lw	a5,-20(s0)
    800006ae:	2789                	addiw	a5,a5,2
    800006b0:	2781                	sext.w	a5,a5
    800006b2:	a0ad                	j	8000071c <verify+0x106>

    800006b4:	fec42783          	lw	a5,-20(s0)
    800006b8:	2789                	addiw	a5,a5,2
    800006ba:	fef42623          	sw	a5,-20(s0)
    800006be:	fcc42783          	lw	a5,-52(s0)
    800006c2:	01f7d71b          	srliw	a4,a5,0x1f
    800006c6:	9fb9                	addw	a5,a5,a4
    800006c8:	4017d79b          	sraiw	a5,a5,0x1
    800006cc:	2781                	sext.w	a5,a5
    800006ce:	0017979b          	slliw	a5,a5,0x1
    800006d2:	0007871b          	sext.w	a4,a5
    800006d6:	fec42783          	lw	a5,-20(s0)
    800006da:	2781                	sext.w	a5,a5
    800006dc:	f4e7cae3          	blt	a5,a4,80000630 <verify+0x1a>
  int start = block * coreid;

    800006e0:	fcc42783          	lw	a5,-52(s0)
    800006e4:	8b85                	andi	a5,a5,1
    800006e6:	2781                	sext.w	a5,a5
    800006e8:	cb8d                	beqz	a5,8000071a <verify+0x104>
    800006ea:	fcc42783          	lw	a5,-52(s0)
    800006ee:	078a                	slli	a5,a5,0x2
    800006f0:	17f1                	addi	a5,a5,-4
    800006f2:	fc043703          	ld	a4,-64(s0)
    800006f6:	97ba                	add	a5,a5,a4
    800006f8:	439c                	lw	a5,0(a5)
    800006fa:	0007869b          	sext.w	a3,a5
    800006fe:	fcc42783          	lw	a5,-52(s0)
    80000702:	078a                	slli	a5,a5,0x2
    80000704:	17f1                	addi	a5,a5,-4
    80000706:	fb843703          	ld	a4,-72(s0)
    8000070a:	97ba                	add	a5,a5,a4
    8000070c:	439c                	lw	a5,0(a5)
    8000070e:	8736                	mv	a4,a3
    80000710:	00f70563          	beq	a4,a5,8000071a <verify+0x104>
  for (i = 0; i < lda; i++) {
    80000714:	fcc42783          	lw	a5,-52(s0)
    80000718:	a011                	j	8000071c <verify+0x106>
    for (j = start; j < (start+block); j++) {
    8000071a:	4781                	li	a5,0
      int sum = 0;
    8000071c:	853e                	mv	a0,a5
    8000071e:	6426                	ld	s0,72(sp)
    80000720:	6161                	addi	sp,sp,80
    80000722:	8082                	ret

0000000080000724 <barrier>:
      for (k = 0; k < lda; k++)
        sum += A[j*lda + k] * B[k*lda + i]; // Row A x Col B
      C[i + j*lda] = sum;
    80000724:	1101                	addi	sp,sp,-32
    80000726:	ec22                	sd	s0,24(sp)
    80000728:	1000                	addi	s0,sp,32
    8000072a:	87aa                	mv	a5,a0
    8000072c:	fef42623          	sw	a5,-20(s0)
    }
  }
}


    80000730:	0ff0000f          	fence
void handle_msi(void) {
  uint32_t mhartid = read_csr(mhartid);
    80000734:	00022783          	lw	a5,0(tp) # 0 <__boot_hart>
    80000738:	0017b793          	seqz	a5,a5
    8000073c:	0ff7f793          	zext.b	a5,a5
    80000740:	0007871b          	sext.w	a4,a5
    80000744:	00e22023          	sw	a4,0(tp) # 0 <__boot_hart>
  // Do matrix multiplication
    80000748:	c7818793          	addi	a5,gp,-904 # 800029f0 <count.1>
    8000074c:	4705                	li	a4,1
    8000074e:	0f50000f          	fence	iorw,ow
    80000752:	04e7a6af          	amoadd.w.aq	a3,a4,(a5)
    80000756:	0006879b          	sext.w	a5,a3
    8000075a:	0007871b          	sext.w	a4,a5
    8000075e:	fec42783          	lw	a5,-20(s0)
    80000762:	37fd                	addiw	a5,a5,-1
    80000764:	2781                	sext.w	a5,a5
    80000766:	00f71c63          	bne	a4,a5,8000077e <barrier+0x5a>
  matmul(mhartid, n_cores, DIM_SIZE, input1_data, input2_data, results_data);
  barrier(n_cores);
    8000076a:	c7818793          	addi	a5,gp,-904 # 800029f0 <count.1>
    8000076e:	0007a023          	sw	zero,0(a5)
}
    80000772:	00022703          	lw	a4,0(tp) # 0 <__boot_hart>
    80000776:	c7c18793          	addi	a5,gp,-900 # 800029f4 <sense.0>
    8000077a:	c398                	sw	a4,0(a5)
    8000077c:	a819                	j	80000792 <barrier+0x6e>


    8000077e:	0001                	nop
    80000780:	c7c18793          	addi	a5,gp,-900 # 800029f4 <sense.0>
    80000784:	439c                	lw	a5,0(a5)
    80000786:	0007871b          	sext.w	a4,a5
    8000078a:	00022783          	lw	a5,0(tp) # 0 <__boot_hart>
    8000078e:	fef719e3          	bne	a4,a5,80000780 <barrier+0x5c>
void __main(void) {
  uint32_t mhartid = read_csr(mhartid);
  if (mhartid >= n_cores) while (1);
    80000792:	0ff0000f          	fence

    80000796:	0001                	nop
    80000798:	6462                	ld	s0,24(sp)
    8000079a:	6105                	addi	sp,sp,32
    8000079c:	8082                	ret

000000008000079e <matmul>:
{
    8000079e:	711d                	addi	sp,sp,-96
    800007a0:	eca2                	sd	s0,88(sp)
    800007a2:	1080                	addi	s0,sp,96
    800007a4:	fad43c23          	sd	a3,-72(s0)
    800007a8:	fae43823          	sd	a4,-80(s0)
    800007ac:	faf43423          	sd	a5,-88(s0)
    800007b0:	87aa                	mv	a5,a0
    800007b2:	fcf42623          	sw	a5,-52(s0)
    800007b6:	87ae                	mv	a5,a1
    800007b8:	fcf42423          	sw	a5,-56(s0)
    800007bc:	87b2                	mv	a5,a2
    800007be:	fcf42223          	sw	a5,-60(s0)
  int block = lda / ncores;
    800007c2:	fc442783          	lw	a5,-60(s0)
    800007c6:	873e                	mv	a4,a5
    800007c8:	fc842783          	lw	a5,-56(s0)
    800007cc:	02f747bb          	divw	a5,a4,a5
    800007d0:	fcf42e23          	sw	a5,-36(s0)
  int start = block * coreid;
    800007d4:	fdc42783          	lw	a5,-36(s0)
    800007d8:	873e                	mv	a4,a5
    800007da:	fcc42783          	lw	a5,-52(s0)
    800007de:	02f707bb          	mulw	a5,a4,a5
    800007e2:	fcf42c23          	sw	a5,-40(s0)
  for (i = 0; i < lda; i++) {
    800007e6:	fe042623          	sw	zero,-20(s0)
    800007ea:	a8e9                	j	800008c4 <matmul+0x126>
    for (j = start; j < (start+block); j++) {
    800007ec:	fd842783          	lw	a5,-40(s0)
    800007f0:	fef42423          	sw	a5,-24(s0)
    800007f4:	a075                	j	800008a0 <matmul+0x102>
      int sum = 0;
    800007f6:	fe042023          	sw	zero,-32(s0)
      for (k = 0; k < lda; k++)
    800007fa:	fe042223          	sw	zero,-28(s0)
    800007fe:	a085                	j	8000085e <matmul+0xc0>
        sum += A[j*lda + k] * B[k*lda + i]; // Row A x Col B
    80000800:	fe842783          	lw	a5,-24(s0)
    80000804:	873e                	mv	a4,a5
    80000806:	fc442783          	lw	a5,-60(s0)
    8000080a:	02f707bb          	mulw	a5,a4,a5
    8000080e:	2781                	sext.w	a5,a5
    80000810:	fe442703          	lw	a4,-28(s0)
    80000814:	9fb9                	addw	a5,a5,a4
    80000816:	2781                	sext.w	a5,a5
    80000818:	078a                	slli	a5,a5,0x2
    8000081a:	fb843703          	ld	a4,-72(s0)
    8000081e:	97ba                	add	a5,a5,a4
    80000820:	4398                	lw	a4,0(a5)
    80000822:	fe442783          	lw	a5,-28(s0)
    80000826:	86be                	mv	a3,a5
    80000828:	fc442783          	lw	a5,-60(s0)
    8000082c:	02f687bb          	mulw	a5,a3,a5
    80000830:	2781                	sext.w	a5,a5
    80000832:	fec42683          	lw	a3,-20(s0)
    80000836:	9fb5                	addw	a5,a5,a3
    80000838:	2781                	sext.w	a5,a5
    8000083a:	078a                	slli	a5,a5,0x2
    8000083c:	fb043683          	ld	a3,-80(s0)
    80000840:	97b6                	add	a5,a5,a3
    80000842:	439c                	lw	a5,0(a5)
    80000844:	02f707bb          	mulw	a5,a4,a5
    80000848:	2781                	sext.w	a5,a5
    8000084a:	fe042703          	lw	a4,-32(s0)
    8000084e:	9fb9                	addw	a5,a5,a4
    80000850:	fef42023          	sw	a5,-32(s0)
      for (k = 0; k < lda; k++)
    80000854:	fe442783          	lw	a5,-28(s0)
    80000858:	2785                	addiw	a5,a5,1
    8000085a:	fef42223          	sw	a5,-28(s0)
    8000085e:	fe442783          	lw	a5,-28(s0)
    80000862:	873e                	mv	a4,a5
    80000864:	fc442783          	lw	a5,-60(s0)
    80000868:	2701                	sext.w	a4,a4
    8000086a:	2781                	sext.w	a5,a5
    8000086c:	f8f74ae3          	blt	a4,a5,80000800 <matmul+0x62>
      C[i + j*lda] = sum;
    80000870:	fe842783          	lw	a5,-24(s0)
    80000874:	873e                	mv	a4,a5
    80000876:	fc442783          	lw	a5,-60(s0)
    8000087a:	02f707bb          	mulw	a5,a4,a5
    8000087e:	2781                	sext.w	a5,a5
    80000880:	fec42703          	lw	a4,-20(s0)
    80000884:	9fb9                	addw	a5,a5,a4
    80000886:	2781                	sext.w	a5,a5
    80000888:	078a                	slli	a5,a5,0x2
    8000088a:	fa843703          	ld	a4,-88(s0)
    8000088e:	97ba                	add	a5,a5,a4
    80000890:	fe042703          	lw	a4,-32(s0)
    80000894:	c398                	sw	a4,0(a5)
    for (j = start; j < (start+block); j++) {
    80000896:	fe842783          	lw	a5,-24(s0)
    8000089a:	2785                	addiw	a5,a5,1
    8000089c:	fef42423          	sw	a5,-24(s0)
    800008a0:	fd842783          	lw	a5,-40(s0)
    800008a4:	873e                	mv	a4,a5
    800008a6:	fdc42783          	lw	a5,-36(s0)
    800008aa:	9fb9                	addw	a5,a5,a4
    800008ac:	0007871b          	sext.w	a4,a5
    800008b0:	fe842783          	lw	a5,-24(s0)
    800008b4:	2781                	sext.w	a5,a5
    800008b6:	f4e7c0e3          	blt	a5,a4,800007f6 <matmul+0x58>
  for (i = 0; i < lda; i++) {
    800008ba:	fec42783          	lw	a5,-20(s0)
    800008be:	2785                	addiw	a5,a5,1
    800008c0:	fef42623          	sw	a5,-20(s0)
    800008c4:	fec42783          	lw	a5,-20(s0)
    800008c8:	873e                	mv	a4,a5
    800008ca:	fc442783          	lw	a5,-60(s0)
    800008ce:	2701                	sext.w	a4,a4
    800008d0:	2781                	sext.w	a5,a5
    800008d2:	f0f74de3          	blt	a4,a5,800007ec <matmul+0x4e>
}
    800008d6:	0001                	nop
    800008d8:	0001                	nop
    800008da:	6466                	ld	s0,88(sp)
    800008dc:	6125                	addi	sp,sp,96
    800008de:	8082                	ret

00000000800008e0 <handle_msi>:
void handle_msi(void) {
    800008e0:	1101                	addi	sp,sp,-32
    800008e2:	ec06                	sd	ra,24(sp)
    800008e4:	e822                	sd	s0,16(sp)
    800008e6:	1000                	addi	s0,sp,32
  uint32_t mhartid = read_csr(mhartid);
    800008e8:	f14027f3          	csrr	a5,mhartid
    800008ec:	fef43423          	sd	a5,-24(s0)
    800008f0:	fe843783          	ld	a5,-24(s0)
    800008f4:	fef42223          	sw	a5,-28(s0)
  matmul(mhartid, n_cores, DIM_SIZE, input1_data, input2_data, results_data);
    800008f8:	fe442503          	lw	a0,-28(s0)
    800008fc:	00002797          	auipc	a5,0x2
    80000900:	c7c78793          	addi	a5,a5,-900 # 80002578 <n_cores>
    80000904:	439c                	lw	a5,0(a5)
    80000906:	0007859b          	sext.w	a1,a5
    8000090a:	00002797          	auipc	a5,0x2
    8000090e:	ce678793          	addi	a5,a5,-794 # 800025f0 <results_data>
    80000912:	00001717          	auipc	a4,0x1
    80000916:	3be70713          	addi	a4,a4,958 # 80001cd0 <input2_data>
    8000091a:	00001697          	auipc	a3,0x1
    8000091e:	fb668693          	addi	a3,a3,-74 # 800018d0 <input1_data>
    80000922:	4641                	li	a2,16
    80000924:	e7bff0ef          	jal	8000079e <matmul>
  barrier(n_cores);
    80000928:	00002797          	auipc	a5,0x2
    8000092c:	c5078793          	addi	a5,a5,-944 # 80002578 <n_cores>
    80000930:	439c                	lw	a5,0(a5)
    80000932:	2781                	sext.w	a5,a5
    80000934:	853e                	mv	a0,a5
    80000936:	defff0ef          	jal	80000724 <barrier>
}
    8000093a:	0001                	nop
    8000093c:	60e2                	ld	ra,24(sp)
    8000093e:	6442                	ld	s0,16(sp)
    80000940:	6105                	addi	sp,sp,32
    80000942:	8082                	ret

0000000080000944 <__main>:
void __main(void) {
    80000944:	7179                	addi	sp,sp,-48
    80000946:	f422                	sd	s0,40(sp)
    80000948:	1800                	addi	s0,sp,48
  uint32_t mhartid = read_csr(mhartid);
    8000094a:	f14027f3          	csrr	a5,mhartid
    8000094e:	fef43423          	sd	a5,-24(s0)
    80000952:	fe843783          	ld	a5,-24(s0)
    80000956:	fef42223          	sw	a5,-28(s0)
  if (mhartid >= n_cores) while (1);
    8000095a:	00002797          	auipc	a5,0x2
    8000095e:	c1e78793          	addi	a5,a5,-994 # 80002578 <n_cores>
    80000962:	4398                	lw	a4,0(a5)
    80000964:	fe442783          	lw	a5,-28(s0)
    80000968:	2781                	sext.w	a5,a5
    8000096a:	00e7e463          	bltu	a5,a4,80000972 <__main+0x2e>
    8000096e:	0001                	nop
    80000970:	bffd                	j	8000096e <__main+0x2a>
  // enable msi
  write_csr(mie, read_csr(mie) | MIP_MSIP);
    80000972:	304027f3          	csrr	a5,mie
    80000976:	fcf43c23          	sd	a5,-40(s0)
    8000097a:	fd843783          	ld	a5,-40(s0)
    8000097e:	0087e793          	ori	a5,a5,8
    80000982:	30479073          	csrw	mie,a5
  // enable global interrupt
  write_csr(mstatus, read_csr(mstatus) | MSTATUS_MIE);
    80000986:	300027f3          	csrr	a5,mstatus
    8000098a:	fcf43823          	sd	a5,-48(s0)
    8000098e:	fd043783          	ld	a5,-48(s0)
    80000992:	0087e793          	ori	a5,a5,8
    80000996:	30079073          	csrw	mstatus,a5

  while (1) {
    __asm__ volatile ("wfi");  // wfi
    8000099a:	10500073          	wfi
    8000099e:	bff5                	j	8000099a <__main+0x56>

00000000800009a0 <main>:
  }
}


int main(void) {
    800009a0:	7139                	addi	sp,sp,-64
    800009a2:	fc06                	sd	ra,56(sp)
    800009a4:	f822                	sd	s0,48(sp)
    800009a6:	0080                	addi	s0,sp,64
  uint32_t mhartid = read_csr(mhartid);
    800009a8:	f14027f3          	csrr	a5,mhartid
    800009ac:	fef43423          	sd	a5,-24(s0)
    800009b0:	fe843783          	ld	a5,-24(s0)
    800009b4:	fef42223          	sw	a5,-28(s0)

  for (volatile int i = 0; i < 1000000; i++) { }
    800009b8:	fc042023          	sw	zero,-64(s0)
    800009bc:	a801                	j	800009cc <main+0x2c>
    800009be:	fc042783          	lw	a5,-64(s0)
    800009c2:	2781                	sext.w	a5,a5
    800009c4:	2785                	addiw	a5,a5,1
    800009c6:	2781                	sext.w	a5,a5
    800009c8:	fcf42023          	sw	a5,-64(s0)
    800009cc:	fc042783          	lw	a5,-64(s0)
    800009d0:	2781                	sext.w	a5,a5
    800009d2:	873e                	mv	a4,a5
    800009d4:	000f47b7          	lui	a5,0xf4
    800009d8:	23f78793          	addi	a5,a5,575 # f423f <__heap_size+0xd423f>
    800009dc:	fee7d1e3          	bge	a5,a4,800009be <main+0x1e>

  unsigned long _c = -read_csr(mcycle); // Start counter
    800009e0:	b00027f3          	csrr	a5,mcycle
    800009e4:	fcf43c23          	sd	a5,-40(s0)
    800009e8:	fd843783          	ld	a5,-40(s0)
    800009ec:	40f007b3          	neg	a5,a5
    800009f0:	fcf43823          	sd	a5,-48(s0)
//  unsigned long _i = -read_csr(minstret);
  // Call secondary harts
  CLINT_REG(CLINT_MSIP1) = CLINT_MSIPEN; // call hart 1
    800009f4:	020007b7          	lui	a5,0x2000
    800009f8:	0791                	addi	a5,a5,4 # 2000004 <__heap_size+0x1fe0004>
    800009fa:	4705                	li	a4,1
    800009fc:	c398                	sw	a4,0(a5)
  CLINT_REG(CLINT_MSIP2) = CLINT_MSIPEN; // call hart 2
    800009fe:	020007b7          	lui	a5,0x2000
    80000a02:	07a1                	addi	a5,a5,8 # 2000008 <__heap_size+0x1fe0008>
    80000a04:	4705                	li	a4,1
    80000a06:	c398                	sw	a4,0(a5)
  CLINT_REG(CLINT_MSIP3) = CLINT_MSIPEN; // call hart 3
    80000a08:	020007b7          	lui	a5,0x2000
    80000a0c:	07b1                	addi	a5,a5,12 # 200000c <__heap_size+0x1fe000c>
    80000a0e:	4705                	li	a4,1
    80000a10:	c398                	sw	a4,0(a5)
  // Do matrix multiplication
  matmul(mhartid, n_cores, DIM_SIZE, input1_data, input2_data, results_data);
    80000a12:	fe442503          	lw	a0,-28(s0)
    80000a16:	00002797          	auipc	a5,0x2
    80000a1a:	b6278793          	addi	a5,a5,-1182 # 80002578 <n_cores>
    80000a1e:	439c                	lw	a5,0(a5)
    80000a20:	0007859b          	sext.w	a1,a5
    80000a24:	00002797          	auipc	a5,0x2
    80000a28:	bcc78793          	addi	a5,a5,-1076 # 800025f0 <results_data>
    80000a2c:	00001717          	auipc	a4,0x1
    80000a30:	2a470713          	addi	a4,a4,676 # 80001cd0 <input2_data>
    80000a34:	00001697          	auipc	a3,0x1
    80000a38:	e9c68693          	addi	a3,a3,-356 # 800018d0 <input1_data>
    80000a3c:	4641                	li	a2,16
    80000a3e:	d61ff0ef          	jal	8000079e <matmul>
  barrier(n_cores);
    80000a42:	00002797          	auipc	a5,0x2
    80000a46:	b3678793          	addi	a5,a5,-1226 # 80002578 <n_cores>
    80000a4a:	439c                	lw	a5,0(a5)
    80000a4c:	2781                	sext.w	a5,a5
    80000a4e:	853e                	mv	a0,a5
    80000a50:	cd5ff0ef          	jal	80000724 <barrier>
  _c += read_csr(mcycle); // End counter
    80000a54:	b00027f3          	csrr	a5,mcycle
    80000a58:	fcf43423          	sd	a5,-56(s0)
    80000a5c:	fc843783          	ld	a5,-56(s0)
    80000a60:	fd043703          	ld	a4,-48(s0)
    80000a64:	97ba                	add	a5,a5,a4
    80000a66:	fcf43823          	sd	a5,-48(s0)
//  _i += read_csr(minstret);

  kprintf("\r\nDoing matrix multiplication in %d cycles.\r\n", _c);
    80000a6a:	fd043583          	ld	a1,-48(s0)
    80000a6e:	00001517          	auipc	a0,0x1
    80000a72:	d6250513          	addi	a0,a0,-670 # 800017d0 <__tbss_end+0x58>
    80000a76:	875ff0ef          	jal	800002ea <kprintf>
//  kprintf("\r\nDoing matrix multiplication in %d inst-ret.\r\n", _i);

  // Verify
  int res = verify(ARRAY_SIZE, results_data, verify_data);
    80000a7a:	00001617          	auipc	a2,0x1
    80000a7e:	65660613          	addi	a2,a2,1622 # 800020d0 <verify_data>
    80000a82:	00002597          	auipc	a1,0x2
    80000a86:	b6e58593          	addi	a1,a1,-1170 # 800025f0 <results_data>
    80000a8a:	10000513          	li	a0,256
    80000a8e:	b89ff0ef          	jal	80000616 <verify>
    80000a92:	87aa                	mv	a5,a0
    80000a94:	fcf42223          	sw	a5,-60(s0)
  if(!res)
    80000a98:	fc442783          	lw	a5,-60(s0)
    80000a9c:	2781                	sext.w	a5,a5
    80000a9e:	eb81                	bnez	a5,80000aae <main+0x10e>
    kprintf("Success !\r\n");
    80000aa0:	00001517          	auipc	a0,0x1
    80000aa4:	d6050513          	addi	a0,a0,-672 # 80001800 <__tbss_end+0x88>
    80000aa8:	843ff0ef          	jal	800002ea <kprintf>
    80000aac:	a811                	j	80000ac0 <main+0x120>
  else
    kprintf("Fail at %d !\r\n", res);
    80000aae:	fc442783          	lw	a5,-60(s0)
    80000ab2:	85be                	mv	a1,a5
    80000ab4:	00001517          	auipc	a0,0x1
    80000ab8:	d5c50513          	addi	a0,a0,-676 # 80001810 <__tbss_end+0x98>
    80000abc:	82fff0ef          	jal	800002ea <kprintf>

  return 0;
    80000ac0:	4781                	li	a5,0
}
    80000ac2:	853e                	mv	a0,a5
    80000ac4:	70e2                	ld	ra,56(sp)
    80000ac6:	7442                	ld	s0,48(sp)
    80000ac8:	6121                	addi	sp,sp,64
    80000aca:	8082                	ret

0000000080000acc <handle_trap>:
#define SOFT_INTERRUPT_TRAP 0x8000000000000003 // software interrupt trap

void _exit(int) __attribute__ ((noreturn));
void handle_msi();

uintptr_t handle_trap(uintptr_t epc, uintptr_t cause, uintptr_t tval, uintptr_t regs[32]) {
    80000acc:	715d                	addi	sp,sp,-80
    80000ace:	e486                	sd	ra,72(sp)
    80000ad0:	e0a2                	sd	s0,64(sp)
    80000ad2:	0880                	addi	s0,sp,80
    80000ad4:	fca43423          	sd	a0,-56(s0)
    80000ad8:	fcb43023          	sd	a1,-64(s0)
    80000adc:	fac43c23          	sd	a2,-72(s0)
    80000ae0:	fad43823          	sd	a3,-80(s0)
  if (cause == SOFT_INTERRUPT_TRAP) {
    80000ae4:	fc043703          	ld	a4,-64(s0)
    80000ae8:	57fd                	li	a5,-1
    80000aea:	17fe                	slli	a5,a5,0x3f
    80000aec:	078d                	addi	a5,a5,3
    80000aee:	02f71c63          	bne	a4,a5,80000b26 <handle_trap+0x5a>
    uint32_t mhartid = read_csr(mhartid);
    80000af2:	f14027f3          	csrr	a5,mhartid
    80000af6:	fcf43c23          	sd	a5,-40(s0)
    80000afa:	fd843783          	ld	a5,-40(s0)
    80000afe:	fcf42a23          	sw	a5,-44(s0)

    // clear the interrupt
    CLINT_REG(CLINT_MSIP_BASE + mhartid * 4) = CLINT_MSIPCLR;
    80000b02:	fd442783          	lw	a5,-44(s0)
    80000b06:	0027979b          	slliw	a5,a5,0x2
    80000b0a:	2781                	sext.w	a5,a5
    80000b0c:	02079713          	slli	a4,a5,0x20
    80000b10:	9301                	srli	a4,a4,0x20
    80000b12:	020007b7          	lui	a5,0x2000
    80000b16:	97ba                	add	a5,a5,a4
    80000b18:	0007a023          	sw	zero,0(a5) # 2000000 <__heap_size+0x1fe0000>
    // execute the interrupt handler
    handle_msi();
    80000b1c:	dc5ff0ef          	jal	800008e0 <handle_msi>

    return epc;
    80000b20:	fc843783          	ld	a5,-56(s0)
    80000b24:	a085                	j	80000b84 <handle_trap+0xb8>
  }

  int code = cause & ((1UL << ((sizeof(int)<<3)-1)) - 1);
    80000b26:	fc043783          	ld	a5,-64(s0)
    80000b2a:	0007871b          	sext.w	a4,a5
    80000b2e:	800007b7          	lui	a5,0x80000
    80000b32:	fff7c793          	not	a5,a5
    80000b36:	8ff9                	and	a5,a5,a4
    80000b38:	fef42623          	sw	a5,-20(s0)
  code = ((intptr_t)cause < 0) ? -code : code;
    80000b3c:	fc043783          	ld	a5,-64(s0)
    80000b40:	0007d863          	bgez	a5,80000b50 <handle_trap+0x84>
    80000b44:	fec42783          	lw	a5,-20(s0)
    80000b48:	40f007bb          	negw	a5,a5
    80000b4c:	2781                	sext.w	a5,a5
    80000b4e:	a019                	j	80000b54 <handle_trap+0x88>
    80000b50:	fec42783          	lw	a5,-20(s0)
    80000b54:	fef42623          	sw	a5,-20(s0)
  kprintf("Hart %d got trap: cause=%lx, epc=%lx\r\n",
          read_csr(mhartid), cause, epc);
    80000b58:	f14027f3          	csrr	a5,mhartid
    80000b5c:	fef43023          	sd	a5,-32(s0)
    80000b60:	fe043783          	ld	a5,-32(s0)
  kprintf("Hart %d got trap: cause=%lx, epc=%lx\r\n",
    80000b64:	fc843683          	ld	a3,-56(s0)
    80000b68:	fc043603          	ld	a2,-64(s0)
    80000b6c:	85be                	mv	a1,a5
    80000b6e:	00001517          	auipc	a0,0x1
    80000b72:	cb250513          	addi	a0,a0,-846 # 80001820 <__tbss_end+0xa8>
    80000b76:	f74ff0ef          	jal	800002ea <kprintf>

  // Default behavior for unhandled traps
  _exit(code);
    80000b7a:	fec42783          	lw	a5,-20(s0)
    80000b7e:	853e                	mv	a0,a5
    80000b80:	00e000ef          	jal	80000b8e <_exit>
  __builtin_unreachable(); // _exit doesn't return
    80000b84:	853e                	mv	a0,a5
    80000b86:	60a6                	ld	ra,72(sp)
    80000b88:	6406                	ld	s0,64(sp)
    80000b8a:	6161                	addi	sp,sp,80
    80000b8c:	8082                	ret

0000000080000b8e <_exit>:
#include "syscall.h"
#include "htif.h"

void __attribute__ ((noreturn)) _exit(int code)
{
    uint64_t cmd = HTIF_TOHOST(0, 0, (code << 1) | 0x1);
    80000b8e:	0015179b          	slliw	a5,a0,0x1
    80000b92:	0017e793          	ori	a5,a5,1
    80000b96:	2781                	sext.w	a5,a5
    80000b98:	07c2                	slli	a5,a5,0x10
    80000b9a:	83c1                	srli	a5,a5,0x10
    for (;;) {
        fromhost = 0;
    80000b9c:	00001717          	auipc	a4,0x1
    80000ba0:	d2073623          	sd	zero,-724(a4) # 800018c8 <fromhost>
        tohost = cmd;
    80000ba4:	00001717          	auipc	a4,0x1
    80000ba8:	d0f73e23          	sd	a5,-740(a4) # 800018c0 <tohost>
    80000bac:	bfc5                	j	80000b9c <_exit+0xe>

0000000080000bae <__init_tls>:
#include <string.h>

void __init_tls(void)
{
    80000bae:	1141                	addi	sp,sp,-16
    extern char __tdata_start[];
    extern char __tbss_offset[];
    extern char __tdata_size[];
    extern char __tbss_size[];

    memcpy(__thread_self, __tdata_start, (size_t)__tdata_size);
    80000bb0:	00000613          	li	a2,0
    80000bb4:	00001597          	auipc	a1,0x1
    80000bb8:	bbe58593          	addi	a1,a1,-1090 # 80001772 <__tdata_start>
    80000bbc:	8512                	mv	a0,tp
{
    80000bbe:	e022                	sd	s0,0(sp)
    80000bc0:	e406                	sd	ra,8(sp)
    memcpy(__thread_self, __tdata_start, (size_t)__tdata_size);
    80000bc2:	8412                	mv	s0,tp
    80000bc4:	5e0000ef          	jal	800011a4 <memcpy>
    memset(__thread_self + (size_t)__tbss_offset, 0, (size_t)__tbss_size);
    80000bc8:	00200513          	li	a0,2
    80000bcc:	9522                	add	a0,a0,s0
}
    80000bce:	6402                	ld	s0,0(sp)
    80000bd0:	60a2                	ld	ra,8(sp)
    memset(__thread_self + (size_t)__tbss_offset, 0, (size_t)__tbss_size);
    80000bd2:	00400613          	li	a2,4
    80000bd6:	4581                	li	a1,0
}
    80000bd8:	0141                	addi	sp,sp,16
    memset(__thread_self + (size_t)__tbss_offset, 0, (size_t)__tbss_size);
    80000bda:	ab6d                	j	80001194 <memset>

0000000080000bdc <htif_syscall>:
volatile uint64_t fromhost __attribute__ ((section (".htif")));

static spinlock_t htif_lock = SPINLOCK_INIT;

long htif_syscall(uint64_t a0, uint64_t a1, uint64_t a2, unsigned long n)
{
    80000bdc:	7139                	addi	sp,sp,-64
    volatile uint64_t buf[8];
    uint64_t sc;

    buf[0] = n;
    80000bde:	e036                	sd	a3,0(sp)
    buf[1] = a0;
    80000be0:	e42a                	sd	a0,8(sp)
    buf[2] = a1;
    80000be2:	e82e                	sd	a1,16(sp)
    buf[3] = a2;

    sc = HTIF_TOHOST(0, 0, (uintptr_t)&buf);
    80000be4:	57fd                	li	a5,-1
    buf[3] = a2;
    80000be6:	ec32                	sd	a2,24(sp)
    sc = HTIF_TOHOST(0, 0, (uintptr_t)&buf);
    80000be8:	83c1                	srli	a5,a5,0x10
    80000bea:	860a                	mv	a2,sp
    80000bec:	8e7d                	and	a2,a2,a5
    spin_lock(&htif_lock);
    80000bee:	84018713          	addi	a4,gp,-1984 # 800025b8 <htif_lock>

static inline long atomic_swap_acquire(atomic_t *p, atomic_t v)
{
    long n;
#ifdef __riscv_atomic
    __asm__ __volatile__ (
    80000bf2:	56fd                	li	a3,-1
    return *((volatile const atomic_t *)p);
    80000bf4:	431c                	lw	a5,0(a4)
    80000bf6:	2781                	sext.w	a5,a5

static inline void spin_lock(spinlock_t *lock)
{
    do {
#ifdef __riscv_atomic
        while (atomic_load(&lock->lock));
    80000bf8:	fff5                	bnez	a5,80000bf4 <htif_syscall+0x18>
    __asm__ __volatile__ (
    80000bfa:	0cd727af          	amoswap.w.aq	a5,a3,(a4)
#endif
    } while (atomic_swap_acquire(&lock->lock, -1));
    80000bfe:	fbfd                	bnez	a5,80000bf4 <htif_syscall+0x18>
static inline void wmb(void) { fence(w, w); }
    80000c00:	0110000f          	fence	w,w
    wmb();
    tohost = sc;
    80000c04:	00001697          	auipc	a3,0x1
    80000c08:	cbc68693          	addi	a3,a3,-836 # 800018c0 <tohost>
    80000c0c:	00001797          	auipc	a5,0x1
    80000c10:	cac7ba23          	sd	a2,-844(a5) # 800018c0 <tohost>
    while (fromhost == 0);
    80000c14:	669c                	ld	a5,8(a3)
    80000c16:	dffd                	beqz	a5,80000c14 <htif_syscall+0x38>
    fromhost = 0;
    80000c18:	00001797          	auipc	a5,0x1
    80000c1c:	ca07b823          	sd	zero,-848(a5) # 800018c8 <fromhost>
}

static inline void atomic_clear_release(atomic_t *p)
{
#ifdef __riscv_atomic
    __asm__ __volatile__ (
    80000c20:	0a07202f          	amoswap.w.rl	zero,zero,(a4)
static inline void rmb(void) { fence(r, r); }
    80000c24:	0220000f          	fence	r,r
    spin_unlock(&htif_lock);

    rmb();
    return buf[0];
    80000c28:	6502                	ld	a0,0(sp)
}
    80000c2a:	6121                	addi	sp,sp,64
    80000c2c:	8082                	ret

0000000080000c2e <atexit>:
    80000c2e:	85aa                	mv	a1,a0
    80000c30:	4681                	li	a3,0
    80000c32:	4601                	li	a2,0
    80000c34:	4501                	li	a0,0
    80000c36:	a351                	j	800011ba <__register_exitproc>

0000000080000c38 <exit>:
    80000c38:	1141                	addi	sp,sp,-16
    80000c3a:	e022                	sd	s0,0(sp)
    80000c3c:	e406                	sd	ra,8(sp)
    80000c3e:	00000797          	auipc	a5,0x0
    80000c42:	5f278793          	addi	a5,a5,1522 # 80001230 <__call_exitprocs>
    80000c46:	842a                	mv	s0,a0
    80000c48:	c781                	beqz	a5,80000c50 <exit+0x18>
    80000c4a:	4581                	li	a1,0
    80000c4c:	5e4000ef          	jal	80001230 <__call_exitprocs>
    80000c50:	8501b783          	ld	a5,-1968(gp) # 800025c8 <__stdio_exit_handler>
    80000c54:	c391                	beqz	a5,80000c58 <exit+0x20>
    80000c56:	9782                	jalr	a5
    80000c58:	8522                	mv	a0,s0
    80000c5a:	f35ff0ef          	jal	80000b8e <_exit>

0000000080000c5e <__fp_lock>:
    80000c5e:	4501                	li	a0,0
    80000c60:	8082                	ret

0000000080000c62 <std>:
    80000c62:	1141                	addi	sp,sp,-16
    80000c64:	e022                	sd	s0,0(sp)
    80000c66:	e406                	sd	ra,8(sp)
    80000c68:	842a                	mv	s0,a0
    80000c6a:	00b51823          	sh	a1,16(a0)
    80000c6e:	00c51923          	sh	a2,18(a0)
    80000c72:	00053023          	sd	zero,0(a0)
    80000c76:	00053423          	sd	zero,8(a0)
    80000c7a:	0a052623          	sw	zero,172(a0)
    80000c7e:	00053c23          	sd	zero,24(a0)
    80000c82:	02052023          	sw	zero,32(a0)
    80000c86:	02052423          	sw	zero,40(a0)
    80000c8a:	4621                	li	a2,8
    80000c8c:	4581                	li	a1,0
    80000c8e:	0a450513          	addi	a0,a0,164
    80000c92:	502000ef          	jal	80001194 <memset>
    80000c96:	00000797          	auipc	a5,0x0
    80000c9a:	22e78793          	addi	a5,a5,558 # 80000ec4 <__sread>
    80000c9e:	e03c                	sd	a5,64(s0)
    80000ca0:	00000797          	auipc	a5,0x0
    80000ca4:	25a78793          	addi	a5,a5,602 # 80000efa <__swrite>
    80000ca8:	e43c                	sd	a5,72(s0)
    80000caa:	00000797          	auipc	a5,0x0
    80000cae:	2a078793          	addi	a5,a5,672 # 80000f4a <__sseek>
    80000cb2:	e83c                	sd	a5,80(s0)
    80000cb4:	00000797          	auipc	a5,0x0
    80000cb8:	2ce78793          	addi	a5,a5,718 # 80000f82 <__sclose>
    80000cbc:	60a2                	ld	ra,8(sp)
    80000cbe:	fc00                	sd	s0,56(s0)
    80000cc0:	ec3c                	sd	a5,88(s0)
    80000cc2:	6402                	ld	s0,0(sp)
    80000cc4:	0141                	addi	sp,sp,16
    80000cc6:	8082                	ret

0000000080000cc8 <stdio_exit_handler>:
    80000cc8:	00002617          	auipc	a2,0x2
    80000ccc:	80860613          	addi	a2,a2,-2040 # 800024d0 <__sglue>
    80000cd0:	00001597          	auipc	a1,0x1
    80000cd4:	99658593          	addi	a1,a1,-1642 # 80001666 <_fflush_r>
    80000cd8:	00002517          	auipc	a0,0x2
    80000cdc:	81050513          	addi	a0,a0,-2032 # 800024e8 <_impure_data>
    80000ce0:	aaad                	j	80000e5a <_fwalk_sglue>

0000000080000ce2 <cleanup_stdio>:
    80000ce2:	650c                	ld	a1,8(a0)
    80000ce4:	1141                	addi	sp,sp,-16
    80000ce6:	e022                	sd	s0,0(sp)
    80000ce8:	e406                	sd	ra,8(sp)
    80000cea:	c8818793          	addi	a5,gp,-888 # 80002a00 <__sf>
    80000cee:	842a                	mv	s0,a0
    80000cf0:	00f58463          	beq	a1,a5,80000cf8 <cleanup_stdio+0x16>
    80000cf4:	173000ef          	jal	80001666 <_fflush_r>
    80000cf8:	680c                	ld	a1,16(s0)
    80000cfa:	d3818793          	addi	a5,gp,-712 # 80002ab0 <__sf+0xb0>
    80000cfe:	00f58563          	beq	a1,a5,80000d08 <cleanup_stdio+0x26>
    80000d02:	8522                	mv	a0,s0
    80000d04:	163000ef          	jal	80001666 <_fflush_r>
    80000d08:	6c0c                	ld	a1,24(s0)
    80000d0a:	de818793          	addi	a5,gp,-536 # 80002b60 <__sf+0x160>
    80000d0e:	00f58863          	beq	a1,a5,80000d1e <cleanup_stdio+0x3c>
    80000d12:	8522                	mv	a0,s0
    80000d14:	6402                	ld	s0,0(sp)
    80000d16:	60a2                	ld	ra,8(sp)
    80000d18:	0141                	addi	sp,sp,16
    80000d1a:	14d0006f          	j	80001666 <_fflush_r>
    80000d1e:	60a2                	ld	ra,8(sp)
    80000d20:	6402                	ld	s0,0(sp)
    80000d22:	0141                	addi	sp,sp,16
    80000d24:	8082                	ret

0000000080000d26 <global_stdio_init.part.0>:
    80000d26:	1141                	addi	sp,sp,-16
    80000d28:	00000797          	auipc	a5,0x0
    80000d2c:	fa078793          	addi	a5,a5,-96 # 80000cc8 <stdio_exit_handler>
    80000d30:	4601                	li	a2,0
    80000d32:	4591                	li	a1,4
    80000d34:	c8818513          	addi	a0,gp,-888 # 80002a00 <__sf>
    80000d38:	e406                	sd	ra,8(sp)
    80000d3a:	84f1b823          	sd	a5,-1968(gp) # 800025c8 <__stdio_exit_handler>
    80000d3e:	f25ff0ef          	jal	80000c62 <std>
    80000d42:	4605                	li	a2,1
    80000d44:	45a5                	li	a1,9
    80000d46:	d3818513          	addi	a0,gp,-712 # 80002ab0 <__sf+0xb0>
    80000d4a:	f19ff0ef          	jal	80000c62 <std>
    80000d4e:	60a2                	ld	ra,8(sp)
    80000d50:	4609                	li	a2,2
    80000d52:	45c9                	li	a1,18
    80000d54:	de818513          	addi	a0,gp,-536 # 80002b60 <__sf+0x160>
    80000d58:	0141                	addi	sp,sp,16
    80000d5a:	b721                	j	80000c62 <std>

0000000080000d5c <__fp_unlock>:
    80000d5c:	4501                	li	a0,0
    80000d5e:	8082                	ret

0000000080000d60 <__sfp>:
    80000d60:	1101                	addi	sp,sp,-32
    80000d62:	e04a                	sd	s2,0(sp)
    80000d64:	ec06                	sd	ra,24(sp)
    80000d66:	e822                	sd	s0,16(sp)
    80000d68:	e426                	sd	s1,8(sp)
    80000d6a:	8501b783          	ld	a5,-1968(gp) # 800025c8 <__stdio_exit_handler>
    80000d6e:	892a                	mv	s2,a0
    80000d70:	e399                	bnez	a5,80000d76 <__sfp+0x16>
    80000d72:	fb5ff0ef          	jal	80000d26 <global_stdio_init.part.0>
    80000d76:	00001497          	auipc	s1,0x1
    80000d7a:	75a48493          	addi	s1,s1,1882 # 800024d0 <__sglue>
    80000d7e:	6880                	ld	s0,16(s1)
    80000d80:	449c                	lw	a5,8(s1)
    80000d82:	37fd                	addiw	a5,a5,-1
    80000d84:	0207d163          	bgez	a5,80000da6 <__sfp+0x46>
    80000d88:	609c                	ld	a5,0(s1)
    80000d8a:	e7c1                	bnez	a5,80000e12 <__sfp+0xb2>
    80000d8c:	2d800593          	li	a1,728
    80000d90:	854a                	mv	a0,s2
    80000d92:	660000ef          	jal	800013f2 <_malloc_r>
    80000d96:	842a                	mv	s0,a0
    80000d98:	e12d                	bnez	a0,80000dfa <__sfp+0x9a>
    80000d9a:	0004b023          	sd	zero,0(s1)
    80000d9e:	47b1                	li	a5,12
    80000da0:	00f92023          	sw	a5,0(s2)
    80000da4:	a089                	j	80000de6 <__sfp+0x86>
    80000da6:	01041703          	lh	a4,16(s0)
    80000daa:	e729                	bnez	a4,80000df4 <__sfp+0x94>
    80000dac:	77c1                	lui	a5,0xffff0
    80000dae:	0785                	addi	a5,a5,1 # ffffffffffff0001 <__heap_end+0xffffffff7ffcd001>
    80000db0:	0a042623          	sw	zero,172(s0)
    80000db4:	00043023          	sd	zero,0(s0)
    80000db8:	00043423          	sd	zero,8(s0)
    80000dbc:	c81c                	sw	a5,16(s0)
    80000dbe:	00043c23          	sd	zero,24(s0)
    80000dc2:	02042023          	sw	zero,32(s0)
    80000dc6:	02042423          	sw	zero,40(s0)
    80000dca:	4621                	li	a2,8
    80000dcc:	4581                	li	a1,0
    80000dce:	0a440513          	addi	a0,s0,164
    80000dd2:	3c2000ef          	jal	80001194 <memset>
    80000dd6:	06043023          	sd	zero,96(s0)
    80000dda:	06042423          	sw	zero,104(s0)
    80000dde:	08043023          	sd	zero,128(s0)
    80000de2:	08042423          	sw	zero,136(s0)
    80000de6:	60e2                	ld	ra,24(sp)
    80000de8:	8522                	mv	a0,s0
    80000dea:	6442                	ld	s0,16(sp)
    80000dec:	64a2                	ld	s1,8(sp)
    80000dee:	6902                	ld	s2,0(sp)
    80000df0:	6105                	addi	sp,sp,32
    80000df2:	8082                	ret
    80000df4:	0b040413          	addi	s0,s0,176
    80000df8:	b769                	j	80000d82 <__sfp+0x22>
    80000dfa:	4791                	li	a5,4
    80000dfc:	00053023          	sd	zero,0(a0)
    80000e00:	c51c                	sw	a5,8(a0)
    80000e02:	0561                	addi	a0,a0,24
    80000e04:	e808                	sd	a0,16(s0)
    80000e06:	2c000613          	li	a2,704
    80000e0a:	4581                	li	a1,0
    80000e0c:	388000ef          	jal	80001194 <memset>
    80000e10:	e080                	sd	s0,0(s1)
    80000e12:	6084                	ld	s1,0(s1)
    80000e14:	b7ad                	j	80000d7e <__sfp+0x1e>

0000000080000e16 <__sinit>:
    80000e16:	613c                	ld	a5,64(a0)
    80000e18:	eb91                	bnez	a5,80000e2c <__sinit+0x16>
    80000e1a:	00000797          	auipc	a5,0x0
    80000e1e:	ec878793          	addi	a5,a5,-312 # 80000ce2 <cleanup_stdio>
    80000e22:	e13c                	sd	a5,64(a0)
    80000e24:	8501b783          	ld	a5,-1968(gp) # 800025c8 <__stdio_exit_handler>
    80000e28:	e391                	bnez	a5,80000e2c <__sinit+0x16>
    80000e2a:	bdf5                	j	80000d26 <global_stdio_init.part.0>
    80000e2c:	8082                	ret

0000000080000e2e <__sfp_lock_acquire>:
    80000e2e:	8082                	ret

0000000080000e30 <__sfp_lock_release>:
    80000e30:	8082                	ret

0000000080000e32 <__fp_lock_all>:
    80000e32:	00001617          	auipc	a2,0x1
    80000e36:	69e60613          	addi	a2,a2,1694 # 800024d0 <__sglue>
    80000e3a:	00000597          	auipc	a1,0x0
    80000e3e:	e2458593          	addi	a1,a1,-476 # 80000c5e <__fp_lock>
    80000e42:	4501                	li	a0,0
    80000e44:	a819                	j	80000e5a <_fwalk_sglue>

0000000080000e46 <__fp_unlock_all>:
    80000e46:	00001617          	auipc	a2,0x1
    80000e4a:	68a60613          	addi	a2,a2,1674 # 800024d0 <__sglue>
    80000e4e:	00000597          	auipc	a1,0x0
    80000e52:	f0e58593          	addi	a1,a1,-242 # 80000d5c <__fp_unlock>
    80000e56:	4501                	li	a0,0
    80000e58:	a009                	j	80000e5a <_fwalk_sglue>

0000000080000e5a <_fwalk_sglue>:
    80000e5a:	715d                	addi	sp,sp,-80
    80000e5c:	e0a2                	sd	s0,64(sp)
    80000e5e:	fc26                	sd	s1,56(sp)
    80000e60:	f44e                	sd	s3,40(sp)
    80000e62:	f052                	sd	s4,32(sp)
    80000e64:	e85a                	sd	s6,16(sp)
    80000e66:	e45e                	sd	s7,8(sp)
    80000e68:	e486                	sd	ra,72(sp)
    80000e6a:	f84a                	sd	s2,48(sp)
    80000e6c:	ec56                	sd	s5,24(sp)
    80000e6e:	89aa                	mv	s3,a0
    80000e70:	8a2e                	mv	s4,a1
    80000e72:	8432                	mv	s0,a2
    80000e74:	4481                	li	s1,0
    80000e76:	4b05                	li	s6,1
    80000e78:	5bfd                	li	s7,-1
    80000e7a:	01043903          	ld	s2,16(s0)
    80000e7e:	00842a83          	lw	s5,8(s0)
    80000e82:	3afd                	addiw	s5,s5,-1
    80000e84:	020ad063          	bgez	s5,80000ea4 <_fwalk_sglue+0x4a>
    80000e88:	6000                	ld	s0,0(s0)
    80000e8a:	f865                	bnez	s0,80000e7a <_fwalk_sglue+0x20>
    80000e8c:	60a6                	ld	ra,72(sp)
    80000e8e:	6406                	ld	s0,64(sp)
    80000e90:	7942                	ld	s2,48(sp)
    80000e92:	79a2                	ld	s3,40(sp)
    80000e94:	7a02                	ld	s4,32(sp)
    80000e96:	6ae2                	ld	s5,24(sp)
    80000e98:	6b42                	ld	s6,16(sp)
    80000e9a:	6ba2                	ld	s7,8(sp)
    80000e9c:	8526                	mv	a0,s1
    80000e9e:	74e2                	ld	s1,56(sp)
    80000ea0:	6161                	addi	sp,sp,80
    80000ea2:	8082                	ret
    80000ea4:	01095783          	lhu	a5,16(s2)
    80000ea8:	00fb7b63          	bgeu	s6,a5,80000ebe <_fwalk_sglue+0x64>
    80000eac:	01291783          	lh	a5,18(s2)
    80000eb0:	01778763          	beq	a5,s7,80000ebe <_fwalk_sglue+0x64>
    80000eb4:	85ca                	mv	a1,s2
    80000eb6:	854e                	mv	a0,s3
    80000eb8:	9a02                	jalr	s4
    80000eba:	8cc9                	or	s1,s1,a0
    80000ebc:	2481                	sext.w	s1,s1
    80000ebe:	0b090913          	addi	s2,s2,176
    80000ec2:	b7c1                	j	80000e82 <_fwalk_sglue+0x28>

0000000080000ec4 <__sread>:
    80000ec4:	1141                	addi	sp,sp,-16
    80000ec6:	e022                	sd	s0,0(sp)
    80000ec8:	842e                	mv	s0,a1
    80000eca:	01259583          	lh	a1,18(a1)
    80000ece:	e406                	sd	ra,8(sp)
    80000ed0:	1d8000ef          	jal	800010a8 <_read_r>
    80000ed4:	00054963          	bltz	a0,80000ee6 <__sread+0x22>
    80000ed8:	6c5c                	ld	a5,152(s0)
    80000eda:	97aa                	add	a5,a5,a0
    80000edc:	ec5c                	sd	a5,152(s0)
    80000ede:	60a2                	ld	ra,8(sp)
    80000ee0:	6402                	ld	s0,0(sp)
    80000ee2:	0141                	addi	sp,sp,16
    80000ee4:	8082                	ret
    80000ee6:	01045783          	lhu	a5,16(s0)
    80000eea:	777d                	lui	a4,0xfffff
    80000eec:	177d                	addi	a4,a4,-1 # ffffffffffffefff <__heap_end+0xffffffff7ffdbfff>
    80000eee:	8ff9                	and	a5,a5,a4
    80000ef0:	00f41823          	sh	a5,16(s0)
    80000ef4:	b7ed                	j	80000ede <__sread+0x1a>

0000000080000ef6 <__seofread>:
    80000ef6:	4501                	li	a0,0
    80000ef8:	8082                	ret

0000000080000efa <__swrite>:
    80000efa:	0105d783          	lhu	a5,16(a1)
    80000efe:	7179                	addi	sp,sp,-48
    80000f00:	f022                	sd	s0,32(sp)
    80000f02:	ec26                	sd	s1,24(sp)
    80000f04:	e84a                	sd	s2,16(sp)
    80000f06:	e44e                	sd	s3,8(sp)
    80000f08:	f406                	sd	ra,40(sp)
    80000f0a:	1007f793          	andi	a5,a5,256
    80000f0e:	84aa                	mv	s1,a0
    80000f10:	842e                	mv	s0,a1
    80000f12:	8932                	mv	s2,a2
    80000f14:	89b6                	mv	s3,a3
    80000f16:	c799                	beqz	a5,80000f24 <__swrite+0x2a>
    80000f18:	01259583          	lh	a1,18(a1)
    80000f1c:	4689                	li	a3,2
    80000f1e:	4601                	li	a2,0
    80000f20:	15c000ef          	jal	8000107c <_lseek_r>
    80000f24:	01045783          	lhu	a5,16(s0)
    80000f28:	777d                	lui	a4,0xfffff
    80000f2a:	177d                	addi	a4,a4,-1 # ffffffffffffefff <__heap_end+0xffffffff7ffdbfff>
    80000f2c:	8ff9                	and	a5,a5,a4
    80000f2e:	01241583          	lh	a1,18(s0)
    80000f32:	00f41823          	sh	a5,16(s0)
    80000f36:	7402                	ld	s0,32(sp)
    80000f38:	70a2                	ld	ra,40(sp)
    80000f3a:	86ce                	mv	a3,s3
    80000f3c:	864a                	mv	a2,s2
    80000f3e:	69a2                	ld	s3,8(sp)
    80000f40:	6942                	ld	s2,16(sp)
    80000f42:	8526                	mv	a0,s1
    80000f44:	64e2                	ld	s1,24(sp)
    80000f46:	6145                	addi	sp,sp,48
    80000f48:	a271                	j	800010d4 <_write_r>

0000000080000f4a <__sseek>:
    80000f4a:	1141                	addi	sp,sp,-16
    80000f4c:	e022                	sd	s0,0(sp)
    80000f4e:	842e                	mv	s0,a1
    80000f50:	01259583          	lh	a1,18(a1)
    80000f54:	e406                	sd	ra,8(sp)
    80000f56:	126000ef          	jal	8000107c <_lseek_r>
    80000f5a:	577d                	li	a4,-1
    80000f5c:	01045783          	lhu	a5,16(s0)
    80000f60:	00e51b63          	bne	a0,a4,80000f76 <__sseek+0x2c>
    80000f64:	777d                	lui	a4,0xfffff
    80000f66:	177d                	addi	a4,a4,-1 # ffffffffffffefff <__heap_end+0xffffffff7ffdbfff>
    80000f68:	8ff9                	and	a5,a5,a4
    80000f6a:	00f41823          	sh	a5,16(s0)
    80000f6e:	60a2                	ld	ra,8(sp)
    80000f70:	6402                	ld	s0,0(sp)
    80000f72:	0141                	addi	sp,sp,16
    80000f74:	8082                	ret
    80000f76:	6705                	lui	a4,0x1
    80000f78:	8fd9                	or	a5,a5,a4
    80000f7a:	00f41823          	sh	a5,16(s0)
    80000f7e:	ec48                	sd	a0,152(s0)
    80000f80:	b7fd                	j	80000f6e <__sseek+0x24>

0000000080000f82 <__sclose>:
    80000f82:	01259583          	lh	a1,18(a1)
    80000f86:	a009                	j	80000f88 <_close_r>

0000000080000f88 <_close_r>:
    80000f88:	1141                	addi	sp,sp,-16
    80000f8a:	e022                	sd	s0,0(sp)
    80000f8c:	842a                	mv	s0,a0
    80000f8e:	852e                	mv	a0,a1
    80000f90:	8401ac23          	sw	zero,-1960(gp) # 800025d0 <errno>
    80000f94:	e406                	sd	ra,8(sp)
    80000f96:	756000ef          	jal	800016ec <_close>
    80000f9a:	57fd                	li	a5,-1
    80000f9c:	00f51663          	bne	a0,a5,80000fa8 <_close_r+0x20>
    80000fa0:	8581a783          	lw	a5,-1960(gp) # 800025d0 <errno>
    80000fa4:	c391                	beqz	a5,80000fa8 <_close_r+0x20>
    80000fa6:	c01c                	sw	a5,0(s0)
    80000fa8:	60a2                	ld	ra,8(sp)
    80000faa:	6402                	ld	s0,0(sp)
    80000fac:	0141                	addi	sp,sp,16
    80000fae:	8082                	ret

0000000080000fb0 <_reclaim_reent>:
    80000fb0:	8101b783          	ld	a5,-2032(gp) # 80002588 <_impure_ptr>
    80000fb4:	0ca78363          	beq	a5,a0,8000107a <_reclaim_reent+0xca>
    80000fb8:	7d1c                	ld	a5,56(a0)
    80000fba:	7179                	addi	sp,sp,-48
    80000fbc:	f022                	sd	s0,32(sp)
    80000fbe:	f406                	sd	ra,40(sp)
    80000fc0:	ec26                	sd	s1,24(sp)
    80000fc2:	e84a                	sd	s2,16(sp)
    80000fc4:	e44e                	sd	s3,8(sp)
    80000fc6:	842a                	mv	s0,a0
    80000fc8:	cb8d                	beqz	a5,80000ffa <_reclaim_reent+0x4a>
    80000fca:	6f9c                	ld	a5,24(a5)
    80000fcc:	c38d                	beqz	a5,80000fee <_reclaim_reent+0x3e>
    80000fce:	4481                	li	s1,0
    80000fd0:	20000913          	li	s2,512
    80000fd4:	7c1c                	ld	a5,56(s0)
    80000fd6:	6f9c                	ld	a5,24(a5)
    80000fd8:	97a6                	add	a5,a5,s1
    80000fda:	638c                	ld	a1,0(a5)
    80000fdc:	e1c9                	bnez	a1,8000105e <_reclaim_reent+0xae>
    80000fde:	04a1                	addi	s1,s1,8
    80000fe0:	ff249ae3          	bne	s1,s2,80000fd4 <_reclaim_reent+0x24>
    80000fe4:	7c1c                	ld	a5,56(s0)
    80000fe6:	8522                	mv	a0,s0
    80000fe8:	6f8c                	ld	a1,24(a5)
    80000fea:	30e000ef          	jal	800012f8 <_free_r>
    80000fee:	7c1c                	ld	a5,56(s0)
    80000ff0:	638c                	ld	a1,0(a5)
    80000ff2:	c581                	beqz	a1,80000ffa <_reclaim_reent+0x4a>
    80000ff4:	8522                	mv	a0,s0
    80000ff6:	302000ef          	jal	800012f8 <_free_r>
    80000ffa:	740c                	ld	a1,40(s0)
    80000ffc:	c581                	beqz	a1,80001004 <_reclaim_reent+0x54>
    80000ffe:	8522                	mv	a0,s0
    80001000:	2f8000ef          	jal	800012f8 <_free_r>
    80001004:	7c0c                	ld	a1,56(s0)
    80001006:	c581                	beqz	a1,8000100e <_reclaim_reent+0x5e>
    80001008:	8522                	mv	a0,s0
    8000100a:	2ee000ef          	jal	800012f8 <_free_r>
    8000100e:	6c2c                	ld	a1,88(s0)
    80001010:	c581                	beqz	a1,80001018 <_reclaim_reent+0x68>
    80001012:	8522                	mv	a0,s0
    80001014:	2e4000ef          	jal	800012f8 <_free_r>
    80001018:	702c                	ld	a1,96(s0)
    8000101a:	c581                	beqz	a1,80001022 <_reclaim_reent+0x72>
    8000101c:	8522                	mv	a0,s0
    8000101e:	2da000ef          	jal	800012f8 <_free_r>
    80001022:	742c                	ld	a1,104(s0)
    80001024:	c581                	beqz	a1,8000102c <_reclaim_reent+0x7c>
    80001026:	8522                	mv	a0,s0
    80001028:	2d0000ef          	jal	800012f8 <_free_r>
    8000102c:	644c                	ld	a1,136(s0)
    8000102e:	c581                	beqz	a1,80001036 <_reclaim_reent+0x86>
    80001030:	8522                	mv	a0,s0
    80001032:	2c6000ef          	jal	800012f8 <_free_r>
    80001036:	604c                	ld	a1,128(s0)
    80001038:	c581                	beqz	a1,80001040 <_reclaim_reent+0x90>
    8000103a:	8522                	mv	a0,s0
    8000103c:	2bc000ef          	jal	800012f8 <_free_r>
    80001040:	682c                	ld	a1,80(s0)
    80001042:	c581                	beqz	a1,8000104a <_reclaim_reent+0x9a>
    80001044:	8522                	mv	a0,s0
    80001046:	2b2000ef          	jal	800012f8 <_free_r>
    8000104a:	603c                	ld	a5,64(s0)
    8000104c:	c385                	beqz	a5,8000106c <_reclaim_reent+0xbc>
    8000104e:	8522                	mv	a0,s0
    80001050:	7402                	ld	s0,32(sp)
    80001052:	70a2                	ld	ra,40(sp)
    80001054:	64e2                	ld	s1,24(sp)
    80001056:	6942                	ld	s2,16(sp)
    80001058:	69a2                	ld	s3,8(sp)
    8000105a:	6145                	addi	sp,sp,48
    8000105c:	8782                	jr	a5
    8000105e:	0005b983          	ld	s3,0(a1)
    80001062:	8522                	mv	a0,s0
    80001064:	294000ef          	jal	800012f8 <_free_r>
    80001068:	85ce                	mv	a1,s3
    8000106a:	bf8d                	j	80000fdc <_reclaim_reent+0x2c>
    8000106c:	70a2                	ld	ra,40(sp)
    8000106e:	7402                	ld	s0,32(sp)
    80001070:	64e2                	ld	s1,24(sp)
    80001072:	6942                	ld	s2,16(sp)
    80001074:	69a2                	ld	s3,8(sp)
    80001076:	6145                	addi	sp,sp,48
    80001078:	8082                	ret
    8000107a:	8082                	ret

000000008000107c <_lseek_r>:
    8000107c:	1141                	addi	sp,sp,-16
    8000107e:	e022                	sd	s0,0(sp)
    80001080:	842a                	mv	s0,a0
    80001082:	852e                	mv	a0,a1
    80001084:	85b2                	mv	a1,a2
    80001086:	8636                	mv	a2,a3
    80001088:	8401ac23          	sw	zero,-1960(gp) # 800025d0 <errno>
    8000108c:	e406                	sd	ra,8(sp)
    8000108e:	672000ef          	jal	80001700 <_lseek>
    80001092:	57fd                	li	a5,-1
    80001094:	00f51663          	bne	a0,a5,800010a0 <_lseek_r+0x24>
    80001098:	8581a783          	lw	a5,-1960(gp) # 800025d0 <errno>
    8000109c:	c391                	beqz	a5,800010a0 <_lseek_r+0x24>
    8000109e:	c01c                	sw	a5,0(s0)
    800010a0:	60a2                	ld	ra,8(sp)
    800010a2:	6402                	ld	s0,0(sp)
    800010a4:	0141                	addi	sp,sp,16
    800010a6:	8082                	ret

00000000800010a8 <_read_r>:
    800010a8:	1141                	addi	sp,sp,-16
    800010aa:	e022                	sd	s0,0(sp)
    800010ac:	842a                	mv	s0,a0
    800010ae:	852e                	mv	a0,a1
    800010b0:	85b2                	mv	a1,a2
    800010b2:	8636                	mv	a2,a3
    800010b4:	8401ac23          	sw	zero,-1960(gp) # 800025d0 <errno>
    800010b8:	e406                	sd	ra,8(sp)
    800010ba:	65a000ef          	jal	80001714 <_read>
    800010be:	57fd                	li	a5,-1
    800010c0:	00f51663          	bne	a0,a5,800010cc <_read_r+0x24>
    800010c4:	8581a783          	lw	a5,-1960(gp) # 800025d0 <errno>
    800010c8:	c391                	beqz	a5,800010cc <_read_r+0x24>
    800010ca:	c01c                	sw	a5,0(s0)
    800010cc:	60a2                	ld	ra,8(sp)
    800010ce:	6402                	ld	s0,0(sp)
    800010d0:	0141                	addi	sp,sp,16
    800010d2:	8082                	ret

00000000800010d4 <_write_r>:
    800010d4:	1141                	addi	sp,sp,-16
    800010d6:	e022                	sd	s0,0(sp)
    800010d8:	842a                	mv	s0,a0
    800010da:	852e                	mv	a0,a1
    800010dc:	85b2                	mv	a1,a2
    800010de:	8636                	mv	a2,a3
    800010e0:	8401ac23          	sw	zero,-1960(gp) # 800025d0 <errno>
    800010e4:	e406                	sd	ra,8(sp)
    800010e6:	67e000ef          	jal	80001764 <_write>
    800010ea:	57fd                	li	a5,-1
    800010ec:	00f51663          	bne	a0,a5,800010f8 <_write_r+0x24>
    800010f0:	8581a783          	lw	a5,-1960(gp) # 800025d0 <errno>
    800010f4:	c391                	beqz	a5,800010f8 <_write_r+0x24>
    800010f6:	c01c                	sw	a5,0(s0)
    800010f8:	60a2                	ld	ra,8(sp)
    800010fa:	6402                	ld	s0,0(sp)
    800010fc:	0141                	addi	sp,sp,16
    800010fe:	8082                	ret

0000000080001100 <__libc_init_array>:
    80001100:	1101                	addi	sp,sp,-32
    80001102:	e822                	sd	s0,16(sp)
    80001104:	e426                	sd	s1,8(sp)
    80001106:	00000417          	auipc	s0,0x0
    8000110a:	78a40413          	addi	s0,s0,1930 # 80001890 <__fini_array_end>
    8000110e:	00000497          	auipc	s1,0x0
    80001112:	78248493          	addi	s1,s1,1922 # 80001890 <__fini_array_end>
    80001116:	8c81                	sub	s1,s1,s0
    80001118:	e04a                	sd	s2,0(sp)
    8000111a:	ec06                	sd	ra,24(sp)
    8000111c:	848d                	srai	s1,s1,0x3
    8000111e:	4901                	li	s2,0
    80001120:	02991563          	bne	s2,s1,8000114a <__libc_init_array+0x4a>
    80001124:	00000417          	auipc	s0,0x0
    80001128:	76c40413          	addi	s0,s0,1900 # 80001890 <__fini_array_end>
    8000112c:	00000497          	auipc	s1,0x0
    80001130:	76448493          	addi	s1,s1,1892 # 80001890 <__fini_array_end>
    80001134:	8c81                	sub	s1,s1,s0
    80001136:	848d                	srai	s1,s1,0x3
    80001138:	4901                	li	s2,0
    8000113a:	00991d63          	bne	s2,s1,80001154 <__libc_init_array+0x54>
    8000113e:	60e2                	ld	ra,24(sp)
    80001140:	6442                	ld	s0,16(sp)
    80001142:	64a2                	ld	s1,8(sp)
    80001144:	6902                	ld	s2,0(sp)
    80001146:	6105                	addi	sp,sp,32
    80001148:	8082                	ret
    8000114a:	601c                	ld	a5,0(s0)
    8000114c:	0905                	addi	s2,s2,1
    8000114e:	0421                	addi	s0,s0,8
    80001150:	9782                	jalr	a5
    80001152:	b7f9                	j	80001120 <__libc_init_array+0x20>
    80001154:	601c                	ld	a5,0(s0)
    80001156:	0905                	addi	s2,s2,1
    80001158:	0421                	addi	s0,s0,8
    8000115a:	9782                	jalr	a5
    8000115c:	bff9                	j	8000113a <__libc_init_array+0x3a>

000000008000115e <__libc_fini_array>:
    8000115e:	1101                	addi	sp,sp,-32
    80001160:	e822                	sd	s0,16(sp)
    80001162:	e426                	sd	s1,8(sp)
    80001164:	00000417          	auipc	s0,0x0
    80001168:	72c40413          	addi	s0,s0,1836 # 80001890 <__fini_array_end>
    8000116c:	00000497          	auipc	s1,0x0
    80001170:	72448493          	addi	s1,s1,1828 # 80001890 <__fini_array_end>
    80001174:	8c05                	sub	s0,s0,s1
    80001176:	ec06                	sd	ra,24(sp)
    80001178:	840d                	srai	s0,s0,0x3
    8000117a:	e411                	bnez	s0,80001186 <__libc_fini_array+0x28>
    8000117c:	60e2                	ld	ra,24(sp)
    8000117e:	6442                	ld	s0,16(sp)
    80001180:	64a2                	ld	s1,8(sp)
    80001182:	6105                	addi	sp,sp,32
    80001184:	8082                	ret
    80001186:	147d                	addi	s0,s0,-1
    80001188:	00341793          	slli	a5,s0,0x3
    8000118c:	97a6                	add	a5,a5,s1
    8000118e:	639c                	ld	a5,0(a5)
    80001190:	9782                	jalr	a5
    80001192:	b7e5                	j	8000117a <__libc_fini_array+0x1c>

0000000080001194 <memset>:
    80001194:	832a                	mv	t1,a0
    80001196:	c611                	beqz	a2,800011a2 <memset+0xe>
    80001198:	00b30023          	sb	a1,0(t1)
    8000119c:	167d                	addi	a2,a2,-1
    8000119e:	0305                	addi	t1,t1,1
    800011a0:	fe65                	bnez	a2,80001198 <memset+0x4>
    800011a2:	8082                	ret

00000000800011a4 <memcpy>:
    800011a4:	832a                	mv	t1,a0
    800011a6:	ca09                	beqz	a2,800011b8 <memcpy+0x14>
    800011a8:	00058383          	lb	t2,0(a1)
    800011ac:	00730023          	sb	t2,0(t1)
    800011b0:	167d                	addi	a2,a2,-1
    800011b2:	0305                	addi	t1,t1,1
    800011b4:	0585                	addi	a1,a1,1
    800011b6:	fa6d                	bnez	a2,800011a8 <memcpy+0x4>
    800011b8:	8082                	ret

00000000800011ba <__register_exitproc>:
    800011ba:	88aa                	mv	a7,a0
    800011bc:	86018513          	addi	a0,gp,-1952 # 800025d8 <__atexit>
    800011c0:	6118                	ld	a4,0(a0)
    800011c2:	ef01                	bnez	a4,800011da <__register_exitproc+0x20>
    800011c4:	e9818793          	addi	a5,gp,-360 # 80002c10 <__atexit0>
    800011c8:	e11c                	sd	a5,0(a0)
    800011ca:	00000713          	li	a4,0
    800011ce:	c701                	beqz	a4,800011d6 <__register_exitproc+0x1c>
    800011d0:	6318                	ld	a4,0(a4)
    800011d2:	10e7b823          	sd	a4,272(a5)
    800011d6:	e9818713          	addi	a4,gp,-360 # 80002c10 <__atexit0>
    800011da:	471c                	lw	a5,8(a4)
    800011dc:	487d                	li	a6,31
    800011de:	557d                	li	a0,-1
    800011e0:	04f84763          	blt	a6,a5,8000122e <__register_exitproc+0x74>
    800011e4:	02088d63          	beqz	a7,8000121e <__register_exitproc+0x64>
    800011e8:	11073803          	ld	a6,272(a4) # 1110 <__stack_align+0x1100>
    800011ec:	04080163          	beqz	a6,8000122e <__register_exitproc+0x74>
    800011f0:	00379513          	slli	a0,a5,0x3
    800011f4:	9542                	add	a0,a0,a6
    800011f6:	e110                	sd	a2,0(a0)
    800011f8:	20082303          	lw	t1,512(a6)
    800011fc:	4605                	li	a2,1
    800011fe:	00f6163b          	sllw	a2,a2,a5
    80001202:	00c36333          	or	t1,t1,a2
    80001206:	20682023          	sw	t1,512(a6)
    8000120a:	10d53023          	sd	a3,256(a0)
    8000120e:	4689                	li	a3,2
    80001210:	00d89763          	bne	a7,a3,8000121e <__register_exitproc+0x64>
    80001214:	20482683          	lw	a3,516(a6)
    80001218:	8ed1                	or	a3,a3,a2
    8000121a:	20d82223          	sw	a3,516(a6)
    8000121e:	0017869b          	addiw	a3,a5,1
    80001222:	0789                	addi	a5,a5,2
    80001224:	078e                	slli	a5,a5,0x3
    80001226:	c714                	sw	a3,8(a4)
    80001228:	973e                	add	a4,a4,a5
    8000122a:	e30c                	sd	a1,0(a4)
    8000122c:	4501                	li	a0,0
    8000122e:	8082                	ret

0000000080001230 <__call_exitprocs>:
    80001230:	711d                	addi	sp,sp,-96
    80001232:	f852                	sd	s4,48(sp)
    80001234:	f456                	sd	s5,40(sp)
    80001236:	f05a                	sd	s6,32(sp)
    80001238:	ec5e                	sd	s7,24(sp)
    8000123a:	ec86                	sd	ra,88(sp)
    8000123c:	e8a2                	sd	s0,80(sp)
    8000123e:	e4a6                	sd	s1,72(sp)
    80001240:	e0ca                	sd	s2,64(sp)
    80001242:	fc4e                	sd	s3,56(sp)
    80001244:	e862                	sd	s8,16(sp)
    80001246:	e466                	sd	s9,8(sp)
    80001248:	8aaa                	mv	s5,a0
    8000124a:	8a2e                	mv	s4,a1
    8000124c:	86018b13          	addi	s6,gp,-1952 # 800025d8 <__atexit>
    80001250:	4b85                	li	s7,1
    80001252:	000b3483          	ld	s1,0(s6)
    80001256:	cc81                	beqz	s1,8000126e <__call_exitprocs+0x3e>
    80001258:	4480                	lw	s0,8(s1)
    8000125a:	1104b983          	ld	s3,272(s1)
    8000125e:	fff4091b          	addiw	s2,s0,-1
    80001262:	040e                	slli	s0,s0,0x3
    80001264:	00898cb3          	add	s9,s3,s0
    80001268:	9426                	add	s0,s0,s1
    8000126a:	00095f63          	bgez	s2,80001288 <__call_exitprocs+0x58>
    8000126e:	60e6                	ld	ra,88(sp)
    80001270:	6446                	ld	s0,80(sp)
    80001272:	64a6                	ld	s1,72(sp)
    80001274:	6906                	ld	s2,64(sp)
    80001276:	79e2                	ld	s3,56(sp)
    80001278:	7a42                	ld	s4,48(sp)
    8000127a:	7aa2                	ld	s5,40(sp)
    8000127c:	7b02                	ld	s6,32(sp)
    8000127e:	6be2                	ld	s7,24(sp)
    80001280:	6c42                	ld	s8,16(sp)
    80001282:	6ca2                	ld	s9,8(sp)
    80001284:	6125                	addi	sp,sp,96
    80001286:	8082                	ret
    80001288:	000a0c63          	beqz	s4,800012a0 <__call_exitprocs+0x70>
    8000128c:	00099663          	bnez	s3,80001298 <__call_exitprocs+0x68>
    80001290:	397d                	addiw	s2,s2,-1
    80001292:	1ce1                	addi	s9,s9,-8
    80001294:	1461                	addi	s0,s0,-8
    80001296:	bfd1                	j	8000126a <__call_exitprocs+0x3a>
    80001298:	0f8cb783          	ld	a5,248(s9)
    8000129c:	ff479ae3          	bne	a5,s4,80001290 <__call_exitprocs+0x60>
    800012a0:	449c                	lw	a5,8(s1)
    800012a2:	6418                	ld	a4,8(s0)
    800012a4:	37fd                	addiw	a5,a5,-1
    800012a6:	03279963          	bne	a5,s2,800012d8 <__call_exitprocs+0xa8>
    800012aa:	0124a423          	sw	s2,8(s1)
    800012ae:	d36d                	beqz	a4,80001290 <__call_exitprocs+0x60>
    800012b0:	0084ac03          	lw	s8,8(s1)
    800012b4:	00098963          	beqz	s3,800012c6 <__call_exitprocs+0x96>
    800012b8:	2009a783          	lw	a5,512(s3)
    800012bc:	012b96bb          	sllw	a3,s7,s2
    800012c0:	8ff5                	and	a5,a5,a3
    800012c2:	2781                	sext.w	a5,a5
    800012c4:	ef89                	bnez	a5,800012de <__call_exitprocs+0xae>
    800012c6:	9702                	jalr	a4
    800012c8:	4498                	lw	a4,8(s1)
    800012ca:	000b3783          	ld	a5,0(s6)
    800012ce:	f98712e3          	bne	a4,s8,80001252 <__call_exitprocs+0x22>
    800012d2:	faf48fe3          	beq	s1,a5,80001290 <__call_exitprocs+0x60>
    800012d6:	bfb5                	j	80001252 <__call_exitprocs+0x22>
    800012d8:	00043423          	sd	zero,8(s0)
    800012dc:	bfc9                	j	800012ae <__call_exitprocs+0x7e>
    800012de:	2049a783          	lw	a5,516(s3)
    800012e2:	ff8cb583          	ld	a1,-8(s9)
    800012e6:	8ff5                	and	a5,a5,a3
    800012e8:	2781                	sext.w	a5,a5
    800012ea:	e781                	bnez	a5,800012f2 <__call_exitprocs+0xc2>
    800012ec:	8556                	mv	a0,s5
    800012ee:	9702                	jalr	a4
    800012f0:	bfe1                	j	800012c8 <__call_exitprocs+0x98>
    800012f2:	852e                	mv	a0,a1
    800012f4:	9702                	jalr	a4
    800012f6:	bfc9                	j	800012c8 <__call_exitprocs+0x98>

00000000800012f8 <_free_r>:
    800012f8:	cdd9                	beqz	a1,80001396 <_free_r+0x9e>
    800012fa:	ff85b783          	ld	a5,-8(a1)
    800012fe:	1101                	addi	sp,sp,-32
    80001300:	e822                	sd	s0,16(sp)
    80001302:	ec06                	sd	ra,24(sp)
    80001304:	ff858413          	addi	s0,a1,-8
    80001308:	0007d363          	bgez	a5,8000130e <_free_r+0x16>
    8000130c:	943e                	add	s0,s0,a5
    8000130e:	e42a                	sd	a0,8(sp)
    80001310:	212000ef          	jal	80001522 <__malloc_lock>
    80001314:	87018713          	addi	a4,gp,-1936 # 800025e8 <__malloc_free_list>
    80001318:	631c                	ld	a5,0(a4)
    8000131a:	6522                	ld	a0,8(sp)
    8000131c:	eb81                	bnez	a5,8000132c <_free_r+0x34>
    8000131e:	00043423          	sd	zero,8(s0)
    80001322:	e300                	sd	s0,0(a4)
    80001324:	6442                	ld	s0,16(sp)
    80001326:	60e2                	ld	ra,24(sp)
    80001328:	6105                	addi	sp,sp,32
    8000132a:	aaed                	j	80001524 <__malloc_unlock>
    8000132c:	00f47d63          	bgeu	s0,a5,80001346 <_free_r+0x4e>
    80001330:	6010                	ld	a2,0(s0)
    80001332:	00c406b3          	add	a3,s0,a2
    80001336:	00d79663          	bne	a5,a3,80001342 <_free_r+0x4a>
    8000133a:	6394                	ld	a3,0(a5)
    8000133c:	679c                	ld	a5,8(a5)
    8000133e:	96b2                	add	a3,a3,a2
    80001340:	e014                	sd	a3,0(s0)
    80001342:	e41c                	sd	a5,8(s0)
    80001344:	bff9                	j	80001322 <_free_r+0x2a>
    80001346:	873e                	mv	a4,a5
    80001348:	679c                	ld	a5,8(a5)
    8000134a:	c399                	beqz	a5,80001350 <_free_r+0x58>
    8000134c:	fef47de3          	bgeu	s0,a5,80001346 <_free_r+0x4e>
    80001350:	6314                	ld	a3,0(a4)
    80001352:	00d70633          	add	a2,a4,a3
    80001356:	00861f63          	bne	a2,s0,80001374 <_free_r+0x7c>
    8000135a:	6010                	ld	a2,0(s0)
    8000135c:	96b2                	add	a3,a3,a2
    8000135e:	e314                	sd	a3,0(a4)
    80001360:	00d70633          	add	a2,a4,a3
    80001364:	fcc790e3          	bne	a5,a2,80001324 <_free_r+0x2c>
    80001368:	6390                	ld	a2,0(a5)
    8000136a:	679c                	ld	a5,8(a5)
    8000136c:	96b2                	add	a3,a3,a2
    8000136e:	e314                	sd	a3,0(a4)
    80001370:	e71c                	sd	a5,8(a4)
    80001372:	bf4d                	j	80001324 <_free_r+0x2c>
    80001374:	00c47563          	bgeu	s0,a2,8000137e <_free_r+0x86>
    80001378:	47b1                	li	a5,12
    8000137a:	c11c                	sw	a5,0(a0)
    8000137c:	b765                	j	80001324 <_free_r+0x2c>
    8000137e:	6010                	ld	a2,0(s0)
    80001380:	00c406b3          	add	a3,s0,a2
    80001384:	00d79663          	bne	a5,a3,80001390 <_free_r+0x98>
    80001388:	6394                	ld	a3,0(a5)
    8000138a:	679c                	ld	a5,8(a5)
    8000138c:	96b2                	add	a3,a3,a2
    8000138e:	e014                	sd	a3,0(s0)
    80001390:	e41c                	sd	a5,8(s0)
    80001392:	e700                	sd	s0,8(a4)
    80001394:	bf41                	j	80001324 <_free_r+0x2c>
    80001396:	8082                	ret

0000000080001398 <sbrk_aligned>:
    80001398:	1101                	addi	sp,sp,-32
    8000139a:	e04a                	sd	s2,0(sp)
    8000139c:	86818913          	addi	s2,gp,-1944 # 800025e0 <__malloc_sbrk_start>
    800013a0:	00093783          	ld	a5,0(s2)
    800013a4:	e822                	sd	s0,16(sp)
    800013a6:	e426                	sd	s1,8(sp)
    800013a8:	ec06                	sd	ra,24(sp)
    800013aa:	84aa                	mv	s1,a0
    800013ac:	842e                	mv	s0,a1
    800013ae:	e791                	bnez	a5,800013ba <sbrk_aligned+0x22>
    800013b0:	4581                	li	a1,0
    800013b2:	312000ef          	jal	800016c4 <_sbrk_r>
    800013b6:	00a93023          	sd	a0,0(s2)
    800013ba:	85a2                	mv	a1,s0
    800013bc:	8526                	mv	a0,s1
    800013be:	306000ef          	jal	800016c4 <_sbrk_r>
    800013c2:	597d                	li	s2,-1
    800013c4:	01251a63          	bne	a0,s2,800013d8 <sbrk_aligned+0x40>
    800013c8:	547d                	li	s0,-1
    800013ca:	60e2                	ld	ra,24(sp)
    800013cc:	8522                	mv	a0,s0
    800013ce:	6442                	ld	s0,16(sp)
    800013d0:	64a2                	ld	s1,8(sp)
    800013d2:	6902                	ld	s2,0(sp)
    800013d4:	6105                	addi	sp,sp,32
    800013d6:	8082                	ret
    800013d8:	00750413          	addi	s0,a0,7
    800013dc:	9861                	andi	s0,s0,-8
    800013de:	fe8506e3          	beq	a0,s0,800013ca <sbrk_aligned+0x32>
    800013e2:	40a405b3          	sub	a1,s0,a0
    800013e6:	8526                	mv	a0,s1
    800013e8:	2dc000ef          	jal	800016c4 <_sbrk_r>
    800013ec:	fd251fe3          	bne	a0,s2,800013ca <sbrk_aligned+0x32>
    800013f0:	bfe1                	j	800013c8 <sbrk_aligned+0x30>

00000000800013f2 <_malloc_r>:
    800013f2:	00758793          	addi	a5,a1,7
    800013f6:	7179                	addi	sp,sp,-48
    800013f8:	9be1                	andi	a5,a5,-8
    800013fa:	ec26                	sd	s1,24(sp)
    800013fc:	e84a                	sd	s2,16(sp)
    800013fe:	f406                	sd	ra,40(sp)
    80001400:	f022                	sd	s0,32(sp)
    80001402:	e44e                	sd	s3,8(sp)
    80001404:	e052                	sd	s4,0(sp)
    80001406:	07a1                	addi	a5,a5,8
    80001408:	4741                	li	a4,16
    8000140a:	892a                	mv	s2,a0
    8000140c:	44c1                	li	s1,16
    8000140e:	00e7e363          	bltu	a5,a4,80001414 <_malloc_r+0x22>
    80001412:	84be                	mv	s1,a5
    80001414:	80000737          	lui	a4,0x80000
    80001418:	fff74713          	not	a4,a4
    8000141c:	00f76463          	bltu	a4,a5,80001424 <_malloc_r+0x32>
    80001420:	00b4fe63          	bgeu	s1,a1,8000143c <_malloc_r+0x4a>
    80001424:	47b1                	li	a5,12
    80001426:	00f92023          	sw	a5,0(s2)
    8000142a:	4501                	li	a0,0
    8000142c:	70a2                	ld	ra,40(sp)
    8000142e:	7402                	ld	s0,32(sp)
    80001430:	64e2                	ld	s1,24(sp)
    80001432:	6942                	ld	s2,16(sp)
    80001434:	69a2                	ld	s3,8(sp)
    80001436:	6a02                	ld	s4,0(sp)
    80001438:	6145                	addi	sp,sp,48
    8000143a:	8082                	ret
    8000143c:	854a                	mv	a0,s2
    8000143e:	0e4000ef          	jal	80001522 <__malloc_lock>
    80001442:	87018993          	addi	s3,gp,-1936 # 800025e8 <__malloc_free_list>
    80001446:	0009b783          	ld	a5,0(s3)
    8000144a:	843e                	mv	s0,a5
    8000144c:	ec21                	bnez	s0,800014a4 <_malloc_r+0xb2>
    8000144e:	85a6                	mv	a1,s1
    80001450:	854a                	mv	a0,s2
    80001452:	f47ff0ef          	jal	80001398 <sbrk_aligned>
    80001456:	57fd                	li	a5,-1
    80001458:	842a                	mv	s0,a0
    8000145a:	0af51f63          	bne	a0,a5,80001518 <_malloc_r+0x126>
    8000145e:	0009b403          	ld	s0,0(s3)
    80001462:	87a2                	mv	a5,s0
    80001464:	efd1                	bnez	a5,80001500 <_malloc_r+0x10e>
    80001466:	c055                	beqz	s0,8000150a <_malloc_r+0x118>
    80001468:	00043a03          	ld	s4,0(s0)
    8000146c:	4581                	li	a1,0
    8000146e:	854a                	mv	a0,s2
    80001470:	9a22                	add	s4,s4,s0
    80001472:	252000ef          	jal	800016c4 <_sbrk_r>
    80001476:	08aa1a63          	bne	s4,a0,8000150a <_malloc_r+0x118>
    8000147a:	601c                	ld	a5,0(s0)
    8000147c:	854a                	mv	a0,s2
    8000147e:	8c9d                	sub	s1,s1,a5
    80001480:	85a6                	mv	a1,s1
    80001482:	f17ff0ef          	jal	80001398 <sbrk_aligned>
    80001486:	57fd                	li	a5,-1
    80001488:	08f50163          	beq	a0,a5,8000150a <_malloc_r+0x118>
    8000148c:	601c                	ld	a5,0(s0)
    8000148e:	97a6                	add	a5,a5,s1
    80001490:	e01c                	sd	a5,0(s0)
    80001492:	0009b783          	ld	a5,0(s3)
    80001496:	c3d9                	beqz	a5,8000151c <_malloc_r+0x12a>
    80001498:	6798                	ld	a4,8(a5)
    8000149a:	06871663          	bne	a4,s0,80001506 <_malloc_r+0x114>
    8000149e:	0007b423          	sd	zero,8(a5)
    800014a2:	a015                	j	800014c6 <_malloc_r+0xd4>
    800014a4:	6014                	ld	a3,0(s0)
    800014a6:	9e85                	subw	a3,a3,s1
    800014a8:	0406c963          	bltz	a3,800014fa <_malloc_r+0x108>
    800014ac:	473d                	li	a4,15
    800014ae:	02d75e63          	bge	a4,a3,800014ea <_malloc_r+0xf8>
    800014b2:	e004                	sd	s1,0(s0)
    800014b4:	00940733          	add	a4,s0,s1
    800014b8:	02879763          	bne	a5,s0,800014e6 <_malloc_r+0xf4>
    800014bc:	00e9b023          	sd	a4,0(s3)
    800014c0:	641c                	ld	a5,8(s0)
    800014c2:	e314                	sd	a3,0(a4)
    800014c4:	e71c                	sd	a5,8(a4)
    800014c6:	854a                	mv	a0,s2
    800014c8:	05c000ef          	jal	80001524 <__malloc_unlock>
    800014cc:	00f40513          	addi	a0,s0,15
    800014d0:	00840793          	addi	a5,s0,8
    800014d4:	9961                	andi	a0,a0,-8
    800014d6:	40f507bb          	subw	a5,a0,a5
    800014da:	dba9                	beqz	a5,8000142c <_malloc_r+0x3a>
    800014dc:	943e                	add	s0,s0,a5
    800014de:	40f007bb          	negw	a5,a5
    800014e2:	e01c                	sd	a5,0(s0)
    800014e4:	b7a1                	j	8000142c <_malloc_r+0x3a>
    800014e6:	e798                	sd	a4,8(a5)
    800014e8:	bfe1                	j	800014c0 <_malloc_r+0xce>
    800014ea:	6418                	ld	a4,8(s0)
    800014ec:	00879563          	bne	a5,s0,800014f6 <_malloc_r+0x104>
    800014f0:	00e9b023          	sd	a4,0(s3)
    800014f4:	bfc9                	j	800014c6 <_malloc_r+0xd4>
    800014f6:	e798                	sd	a4,8(a5)
    800014f8:	b7f9                	j	800014c6 <_malloc_r+0xd4>
    800014fa:	87a2                	mv	a5,s0
    800014fc:	6400                	ld	s0,8(s0)
    800014fe:	b7b9                	j	8000144c <_malloc_r+0x5a>
    80001500:	843e                	mv	s0,a5
    80001502:	679c                	ld	a5,8(a5)
    80001504:	b785                	j	80001464 <_malloc_r+0x72>
    80001506:	87ba                	mv	a5,a4
    80001508:	b779                	j	80001496 <_malloc_r+0xa4>
    8000150a:	47b1                	li	a5,12
    8000150c:	00f92023          	sw	a5,0(s2)
    80001510:	854a                	mv	a0,s2
    80001512:	012000ef          	jal	80001524 <__malloc_unlock>
    80001516:	bf11                	j	8000142a <_malloc_r+0x38>
    80001518:	e104                	sd	s1,0(a0)
    8000151a:	b775                	j	800014c6 <_malloc_r+0xd4>
    8000151c:	00003423          	sd	zero,8(zero) # 8 <__tcb_size+0x2>
    80001520:	9002                	ebreak

0000000080001522 <__malloc_lock>:
    80001522:	8082                	ret

0000000080001524 <__malloc_unlock>:
    80001524:	8082                	ret

0000000080001526 <__sflush_r>:
    80001526:	01059783          	lh	a5,16(a1)
    8000152a:	7179                	addi	sp,sp,-48
    8000152c:	f022                	sd	s0,32(sp)
    8000152e:	ec26                	sd	s1,24(sp)
    80001530:	f406                	sd	ra,40(sp)
    80001532:	e84a                	sd	s2,16(sp)
    80001534:	e44e                	sd	s3,8(sp)
    80001536:	0087f713          	andi	a4,a5,8
    8000153a:	84aa                	mv	s1,a0
    8000153c:	842e                	mv	s0,a1
    8000153e:	eb69                	bnez	a4,80001610 <__sflush_r+0xea>
    80001540:	4598                	lw	a4,8(a1)
    80001542:	00e04563          	bgtz	a4,8000154c <__sflush_r+0x26>
    80001546:	5db8                	lw	a4,120(a1)
    80001548:	0ae05b63          	blez	a4,800015fe <__sflush_r+0xd8>
    8000154c:	6838                	ld	a4,80(s0)
    8000154e:	cb45                	beqz	a4,800015fe <__sflush_r+0xd8>
    80001550:	0004a903          	lw	s2,0(s1)
    80001554:	03379693          	slli	a3,a5,0x33
    80001558:	0004a023          	sw	zero,0(s1)
    8000155c:	7c0c                	ld	a1,56(s0)
    8000155e:	0606de63          	bgez	a3,800015da <__sflush_r+0xb4>
    80001562:	6c50                	ld	a2,152(s0)
    80001564:	01045783          	lhu	a5,16(s0)
    80001568:	8b91                	andi	a5,a5,4
    8000156a:	c799                	beqz	a5,80001578 <__sflush_r+0x52>
    8000156c:	441c                	lw	a5,8(s0)
    8000156e:	8e1d                	sub	a2,a2,a5
    80001570:	703c                	ld	a5,96(s0)
    80001572:	c399                	beqz	a5,80001578 <__sflush_r+0x52>
    80001574:	5c3c                	lw	a5,120(s0)
    80001576:	8e1d                	sub	a2,a2,a5
    80001578:	683c                	ld	a5,80(s0)
    8000157a:	7c0c                	ld	a1,56(s0)
    8000157c:	4681                	li	a3,0
    8000157e:	8526                	mv	a0,s1
    80001580:	9782                	jalr	a5
    80001582:	577d                	li	a4,-1
    80001584:	01045783          	lhu	a5,16(s0)
    80001588:	00e51d63          	bne	a0,a4,800015a2 <__sflush_r+0x7c>
    8000158c:	4094                	lw	a3,0(s1)
    8000158e:	4775                	li	a4,29
    80001590:	06d76963          	bltu	a4,a3,80001602 <__sflush_r+0xdc>
    80001594:	20400737          	lui	a4,0x20400
    80001598:	0705                	addi	a4,a4,1 # 20400001 <__heap_size+0x203e0001>
    8000159a:	00d75733          	srl	a4,a4,a3
    8000159e:	8b05                	andi	a4,a4,1
    800015a0:	c32d                	beqz	a4,80001602 <__sflush_r+0xdc>
    800015a2:	6c18                	ld	a4,24(s0)
    800015a4:	00042423          	sw	zero,8(s0)
    800015a8:	e018                	sd	a4,0(s0)
    800015aa:	03379713          	slli	a4,a5,0x33
    800015ae:	00075863          	bgez	a4,800015be <__sflush_r+0x98>
    800015b2:	57fd                	li	a5,-1
    800015b4:	00f51463          	bne	a0,a5,800015bc <__sflush_r+0x96>
    800015b8:	409c                	lw	a5,0(s1)
    800015ba:	e391                	bnez	a5,800015be <__sflush_r+0x98>
    800015bc:	ec48                	sd	a0,152(s0)
    800015be:	702c                	ld	a1,96(s0)
    800015c0:	0124a023          	sw	s2,0(s1)
    800015c4:	cd8d                	beqz	a1,800015fe <__sflush_r+0xd8>
    800015c6:	07c40793          	addi	a5,s0,124
    800015ca:	00f58563          	beq	a1,a5,800015d4 <__sflush_r+0xae>
    800015ce:	8526                	mv	a0,s1
    800015d0:	d29ff0ef          	jal	800012f8 <_free_r>
    800015d4:	06043023          	sd	zero,96(s0)
    800015d8:	a01d                	j	800015fe <__sflush_r+0xd8>
    800015da:	4601                	li	a2,0
    800015dc:	4685                	li	a3,1
    800015de:	8526                	mv	a0,s1
    800015e0:	9702                	jalr	a4
    800015e2:	57fd                	li	a5,-1
    800015e4:	862a                	mv	a2,a0
    800015e6:	f6f51fe3          	bne	a0,a5,80001564 <__sflush_r+0x3e>
    800015ea:	409c                	lw	a5,0(s1)
    800015ec:	dfa5                	beqz	a5,80001564 <__sflush_r+0x3e>
    800015ee:	4775                	li	a4,29
    800015f0:	00e78563          	beq	a5,a4,800015fa <__sflush_r+0xd4>
    800015f4:	4759                	li	a4,22
    800015f6:	04e79663          	bne	a5,a4,80001642 <__sflush_r+0x11c>
    800015fa:	0124a023          	sw	s2,0(s1)
    800015fe:	4501                	li	a0,0
    80001600:	a881                	j	80001650 <__sflush_r+0x12a>
    80001602:	0407e793          	ori	a5,a5,64
    80001606:	0107979b          	slliw	a5,a5,0x10
    8000160a:	4107d79b          	sraiw	a5,a5,0x10
    8000160e:	a835                	j	8000164a <__sflush_r+0x124>
    80001610:	0185b983          	ld	s3,24(a1)
    80001614:	fe0985e3          	beqz	s3,800015fe <__sflush_r+0xd8>
    80001618:	0005b903          	ld	s2,0(a1)
    8000161c:	8b8d                	andi	a5,a5,3
    8000161e:	0135b023          	sd	s3,0(a1)
    80001622:	4139093b          	subw	s2,s2,s3
    80001626:	4701                	li	a4,0
    80001628:	e391                	bnez	a5,8000162c <__sflush_r+0x106>
    8000162a:	5198                	lw	a4,32(a1)
    8000162c:	c458                	sw	a4,12(s0)
    8000162e:	fd2058e3          	blez	s2,800015fe <__sflush_r+0xd8>
    80001632:	643c                	ld	a5,72(s0)
    80001634:	7c0c                	ld	a1,56(s0)
    80001636:	86ca                	mv	a3,s2
    80001638:	864e                	mv	a2,s3
    8000163a:	8526                	mv	a0,s1
    8000163c:	9782                	jalr	a5
    8000163e:	02a04063          	bgtz	a0,8000165e <__sflush_r+0x138>
    80001642:	01041783          	lh	a5,16(s0)
    80001646:	0407e793          	ori	a5,a5,64
    8000164a:	00f41823          	sh	a5,16(s0)
    8000164e:	557d                	li	a0,-1
    80001650:	70a2                	ld	ra,40(sp)
    80001652:	7402                	ld	s0,32(sp)
    80001654:	64e2                	ld	s1,24(sp)
    80001656:	6942                	ld	s2,16(sp)
    80001658:	69a2                	ld	s3,8(sp)
    8000165a:	6145                	addi	sp,sp,48
    8000165c:	8082                	ret
    8000165e:	99aa                	add	s3,s3,a0
    80001660:	40a9093b          	subw	s2,s2,a0
    80001664:	b7e9                	j	8000162e <__sflush_r+0x108>

0000000080001666 <_fflush_r>:
    80001666:	6d9c                	ld	a5,24(a1)
    80001668:	cb8d                	beqz	a5,8000169a <_fflush_r+0x34>
    8000166a:	1101                	addi	sp,sp,-32
    8000166c:	e822                	sd	s0,16(sp)
    8000166e:	ec06                	sd	ra,24(sp)
    80001670:	842a                	mv	s0,a0
    80001672:	c519                	beqz	a0,80001680 <_fflush_r+0x1a>
    80001674:	613c                	ld	a5,64(a0)
    80001676:	e789                	bnez	a5,80001680 <_fflush_r+0x1a>
    80001678:	e42e                	sd	a1,8(sp)
    8000167a:	f9cff0ef          	jal	80000e16 <__sinit>
    8000167e:	65a2                	ld	a1,8(sp)
    80001680:	01059783          	lh	a5,16(a1)
    80001684:	c791                	beqz	a5,80001690 <_fflush_r+0x2a>
    80001686:	8522                	mv	a0,s0
    80001688:	6442                	ld	s0,16(sp)
    8000168a:	60e2                	ld	ra,24(sp)
    8000168c:	6105                	addi	sp,sp,32
    8000168e:	bd61                	j	80001526 <__sflush_r>
    80001690:	60e2                	ld	ra,24(sp)
    80001692:	6442                	ld	s0,16(sp)
    80001694:	4501                	li	a0,0
    80001696:	6105                	addi	sp,sp,32
    80001698:	8082                	ret
    8000169a:	4501                	li	a0,0
    8000169c:	8082                	ret

000000008000169e <fflush>:
    8000169e:	85aa                	mv	a1,a0
    800016a0:	ed19                	bnez	a0,800016be <fflush+0x20>
    800016a2:	00001617          	auipc	a2,0x1
    800016a6:	e2e60613          	addi	a2,a2,-466 # 800024d0 <__sglue>
    800016aa:	00000597          	auipc	a1,0x0
    800016ae:	fbc58593          	addi	a1,a1,-68 # 80001666 <_fflush_r>
    800016b2:	00001517          	auipc	a0,0x1
    800016b6:	e3650513          	addi	a0,a0,-458 # 800024e8 <_impure_data>
    800016ba:	fa0ff06f          	j	80000e5a <_fwalk_sglue>
    800016be:	8101b503          	ld	a0,-2032(gp) # 80002588 <_impure_ptr>
    800016c2:	b755                	j	80001666 <_fflush_r>

00000000800016c4 <_sbrk_r>:
    800016c4:	1141                	addi	sp,sp,-16
    800016c6:	e022                	sd	s0,0(sp)
    800016c8:	842a                	mv	s0,a0
    800016ca:	852e                	mv	a0,a1
    800016cc:	8401ac23          	sw	zero,-1960(gp) # 800025d0 <errno>
    800016d0:	e406                	sd	ra,8(sp)
    800016d2:	058000ef          	jal	8000172a <_sbrk>
    800016d6:	57fd                	li	a5,-1
    800016d8:	00f51663          	bne	a0,a5,800016e4 <_sbrk_r+0x20>
    800016dc:	8581a783          	lw	a5,-1960(gp) # 800025d0 <errno>
    800016e0:	c391                	beqz	a5,800016e4 <_sbrk_r+0x20>
    800016e2:	c01c                	sw	a5,0(s0)
    800016e4:	60a2                	ld	ra,8(sp)
    800016e6:	6402                	ld	s0,0(sp)
    800016e8:	0141                	addi	sp,sp,16
    800016ea:	8082                	ret

00000000800016ec <_close>:
#include <errno.h>
#include "syscall.h"

int _close(int file)
{
    800016ec:	1141                	addi	sp,sp,-16
    800016ee:	e406                	sd	ra,8(sp)
    errno = EBADF;
    800016f0:	07c000ef          	jal	8000176c <__errno>
    return -1;
}
    800016f4:	60a2                	ld	ra,8(sp)
    errno = EBADF;
    800016f6:	47a5                	li	a5,9
    800016f8:	c11c                	sw	a5,0(a0)
}
    800016fa:	557d                	li	a0,-1
    800016fc:	0141                	addi	sp,sp,16
    800016fe:	8082                	ret

0000000080001700 <_lseek>:
#include <errno.h>
#include <sys/types.h>
#include "syscall.h"

off_t _lseek(int file, off_t ptr, int dir)
{
    80001700:	1141                	addi	sp,sp,-16
    80001702:	e406                	sd	ra,8(sp)
    errno = EBADF;
    80001704:	068000ef          	jal	8000176c <__errno>
    return -1;
}
    80001708:	60a2                	ld	ra,8(sp)
    errno = EBADF;
    8000170a:	47a5                	li	a5,9
    8000170c:	c11c                	sw	a5,0(a0)
}
    8000170e:	557d                	li	a0,-1
    80001710:	0141                	addi	sp,sp,16
    80001712:	8082                	ret

0000000080001714 <_read>:
#include <errno.h>
#include <sys/types.h>
#include "syscall.h"

ssize_t _read(int file, void *ptr, size_t len)
{
    80001714:	1141                	addi	sp,sp,-16
    80001716:	e406                	sd	ra,8(sp)
    errno = ENOSYS;
    80001718:	054000ef          	jal	8000176c <__errno>
    return -1;
}
    8000171c:	60a2                	ld	ra,8(sp)
    errno = ENOSYS;
    8000171e:	05800793          	li	a5,88
    80001722:	c11c                	sw	a5,0(a0)
}
    80001724:	557d                	li	a0,-1
    80001726:	0141                	addi	sp,sp,16
    80001728:	8082                	ret

000000008000172a <_sbrk>:
{
    extern char __heap_end[];
    char *newbrk;
    char *oldbrk;

    oldbrk = curbrk;
    8000172a:	82018793          	addi	a5,gp,-2016 # 80002598 <curbrk>
    8000172e:	639c                	ld	a5,0(a5)
    newbrk = oldbrk + incr;
    if (unlikely((newbrk < _end) || (newbrk >= __heap_end))) {
    80001730:	fb018713          	addi	a4,gp,-80 # 80002d28 <_end>
    newbrk = oldbrk + incr;
    80001734:	953e                	add	a0,a0,a5
    if (unlikely((newbrk < _end) || (newbrk >= __heap_end))) {
    80001736:	00e56c63          	bltu	a0,a4,8000174e <_sbrk+0x24>
    8000173a:	00022717          	auipc	a4,0x22
    8000173e:	8c670713          	addi	a4,a4,-1850 # 80023000 <__heap_end>
    80001742:	00e57663          	bgeu	a0,a4,8000174e <_sbrk+0x24>
        errno = ENOMEM;
        return (void *)(-1);
    }

    curbrk = newbrk;
    80001746:	82a1b023          	sd	a0,-2016(gp) # 80002598 <curbrk>
    return oldbrk;
}
    8000174a:	853e                	mv	a0,a5
    8000174c:	8082                	ret
{
    8000174e:	1141                	addi	sp,sp,-16
    80001750:	e406                	sd	ra,8(sp)
        errno = ENOMEM;
    80001752:	01a000ef          	jal	8000176c <__errno>
}
    80001756:	60a2                	ld	ra,8(sp)
        errno = ENOMEM;
    80001758:	47b1                	li	a5,12
    8000175a:	c11c                	sw	a5,0(a0)
        return (void *)(-1);
    8000175c:	57fd                	li	a5,-1
}
    8000175e:	853e                	mv	a0,a5
    80001760:	0141                	addi	sp,sp,16
    80001762:	8082                	ret

0000000080001764 <_write>:
#include <sys/types.h>
#include "syscall.h"

ssize_t _write(int fd, const void *ptr, size_t len)
{
    return SYSCALL3(SYS_write, fd, (uintptr_t)ptr, len);
    80001764:	04000693          	li	a3,64
    80001768:	c74ff06f          	j	80000bdc <htif_syscall>

000000008000176c <__errno>:
    8000176c:	8101b503          	ld	a0,-2032(gp) # 80002588 <_impure_ptr>
    80001770:	8082                	ret

Disassembly of section .htif:

00000000800018c0 <tohost>:
	...

00000000800018c8 <fromhost>:
	...
