
/home/thh/chipyard/demoriscv/software/MatMul/build/matmul.elf:     file format elf64-littleriscv


Disassembly of section .text:

0000000080000000 <_start>:
    .global _start
    .type _start, @function
_start:
    .cfi_startproc

    li x1, 0
    80000000:	4081                	li	ra,0
    li x2, 0
    80000002:	4101                	li	sp,0
    li x3, 0
    80000004:	4181                	li	gp,0
    li x4, 0
    80000006:	4201                	li	tp,0
    li x5, 0
    80000008:	4281                	li	t0,0
    li x6, 0
    8000000a:	4301                	li	t1,0
    li x7, 0
    8000000c:	4381                	li	t2,0
    li x8, 0
    8000000e:	4401                	li	s0,0
    li x9, 0
    80000010:	4481                	li	s1,0
    li x10, 0
    80000012:	4501                	li	a0,0
    li x11, 0
    80000014:	4581                	li	a1,0
    li x12, 0
    80000016:	4601                	li	a2,0
    li x13, 0
    80000018:	4681                	li	a3,0
    li x14, 0
    8000001a:	4701                	li	a4,0
    li x15, 0
    8000001c:	4781                	li	a5,0
    li x16, 0
    8000001e:	4801                	li	a6,0
    li x17, 0
    80000020:	4881                	li	a7,0
    li x18, 0
    80000022:	4901                	li	s2,0
    li x19, 0
    80000024:	4981                	li	s3,0
    li x20, 0
    80000026:	4a01                	li	s4,0
    li x21, 0
    80000028:	4a81                	li	s5,0
    li x22, 0
    8000002a:	4b01                	li	s6,0
    li x23, 0
    8000002c:	4b81                	li	s7,0
    li x24, 0
    8000002e:	4c01                	li	s8,0
    li x25, 0
    80000030:	4c81                	li	s9,0
    li x26, 0
    80000032:	4d01                	li	s10,0
    li x27, 0
    80000034:	4d81                	li	s11,0
    li x28, 0
    80000036:	4e01                	li	t3,0
    li x29, 0
    80000038:	4e81                	li	t4,0
    li x30, 0
    8000003a:	4f01                	li	t5,0
    li x31, 0
    8000003c:	4f81                	li	t6,0

    li t0, (MSTATUS_FS | MSTATUS_XS | MSTATUS_VS)
    8000003e:	0001e2b7          	lui	t0,0x1e
    80000042:	6002829b          	addiw	t0,t0,1536 # 1e600 <__stack_size+0x16600>
    csrs mstatus, t0
    80000046:	3002a073          	csrs	mstatus,t0

#ifdef __riscv_flen
    /* Initialize FPU if present */
    la t0, 1f
    8000004a:	00000297          	auipc	t0,0x0
    8000004e:	09028293          	addi	t0,t0,144 # 800000da <_start+0xda>
    csrw mtvec, t0
    80000052:	30529073          	csrw	mtvec,t0

    fscsr zero
    80000056:	00301073          	fscsr	zero
    fmv.s.x f0,  zero
    8000005a:	f0000053          	fmv.w.x	ft0,zero
    fmv.s.x f1,  zero
    8000005e:	f00000d3          	fmv.w.x	ft1,zero
    fmv.s.x f2,  zero
    80000062:	f0000153          	fmv.w.x	ft2,zero
    fmv.s.x f3,  zero
    80000066:	f00001d3          	fmv.w.x	ft3,zero
    fmv.s.x f4,  zero
    8000006a:	f0000253          	fmv.w.x	ft4,zero
    fmv.s.x f5,  zero
    8000006e:	f00002d3          	fmv.w.x	ft5,zero
    fmv.s.x f6,  zero
    80000072:	f0000353          	fmv.w.x	ft6,zero
    fmv.s.x f7,  zero
    80000076:	f00003d3          	fmv.w.x	ft7,zero
    fmv.s.x f8,  zero
    8000007a:	f0000453          	fmv.w.x	fs0,zero
    fmv.s.x f9,  zero
    8000007e:	f00004d3          	fmv.w.x	fs1,zero
    fmv.s.x f10, zero
    80000082:	f0000553          	fmv.w.x	fa0,zero
    fmv.s.x f11, zero
    80000086:	f00005d3          	fmv.w.x	fa1,zero
    fmv.s.x f12, zero
    8000008a:	f0000653          	fmv.w.x	fa2,zero
    fmv.s.x f13, zero
    8000008e:	f00006d3          	fmv.w.x	fa3,zero
    fmv.s.x f14, zero
    80000092:	f0000753          	fmv.w.x	fa4,zero
    fmv.s.x f15, zero
    80000096:	f00007d3          	fmv.w.x	fa5,zero
    fmv.s.x f16, zero
    8000009a:	f0000853          	fmv.w.x	fa6,zero
    fmv.s.x f17, zero
    8000009e:	f00008d3          	fmv.w.x	fa7,zero
    fmv.s.x f18, zero
    800000a2:	f0000953          	fmv.w.x	fs2,zero
    fmv.s.x f19, zero
    800000a6:	f00009d3          	fmv.w.x	fs3,zero
    fmv.s.x f20, zero
    800000aa:	f0000a53          	fmv.w.x	fs4,zero
    fmv.s.x f21, zero
    800000ae:	f0000ad3          	fmv.w.x	fs5,zero
    fmv.s.x f22, zero
    800000b2:	f0000b53          	fmv.w.x	fs6,zero
    fmv.s.x f23, zero
    800000b6:	f0000bd3          	fmv.w.x	fs7,zero
    fmv.s.x f24, zero
    800000ba:	f0000c53          	fmv.w.x	fs8,zero
    fmv.s.x f25, zero
    800000be:	f0000cd3          	fmv.w.x	fs9,zero
    fmv.s.x f26, zero
    800000c2:	f0000d53          	fmv.w.x	fs10,zero
    fmv.s.x f27, zero
    800000c6:	f0000dd3          	fmv.w.x	fs11,zero
    fmv.s.x f28, zero
    800000ca:	f0000e53          	fmv.w.x	ft8,zero
    fmv.s.x f29, zero
    800000ce:	f0000ed3          	fmv.w.x	ft9,zero
    fmv.s.x f30, zero
    800000d2:	f0000f53          	fmv.w.x	ft10,zero
    fmv.s.x f31, zero
    800000d6:	f0000fd3          	fmv.w.x	ft11,zero

    /* Initialize global pointer; disable relaxation to avoid relaxing
       the address calculation to "addi gp, gp, 0" */
    .option push
    .option norelax
    la gp, __global_pointer$
    800000da:	00003197          	auipc	gp,0x3
    800000de:	c9e18193          	addi	gp,gp,-866 # 80002d78 <__global_pointer$>
    .option pop

    /* Initialize thread pointer */
    csrr s0, mhartid
    800000e2:	f1402473          	csrr	s0,mhartid
    lui t0, %hi(__stack_shift)
    addi t0, t0, %lo(__stack_shift)
    800000e6:	00f00293          	li	t0,15
    la tp, __stack_start
    800000ea:	00023217          	auipc	tp,0x23
    800000ee:	f1620213          	addi	tp,tp,-234 # 80023000 <__heap_end>
    sll t0, s0, t0
    800000f2:	005412b3          	sll	t0,s0,t0
    add tp, tp, t0
    800000f6:	9216                	add	tp,tp,t0

    /* Initialize stack pointer */
    lui t0, %hi(__stack_size)
    800000f8:	62a1                	lui	t0,0x8
    addi t0, t0, %lo(__stack_size)
    800000fa:	00028293          	mv	t0,t0
    add sp, tp, t0
    800000fe:	00520133          	add	sp,tp,t0

    /* Initialize trap vector */
    la t0, trap_entry
    80000102:	00000297          	auipc	t0,0x0
    80000106:	04628293          	addi	t0,t0,70 # 80000148 <trap_entry>
    csrw mtvec, t0
    8000010a:	30529073          	csrw	mtvec,t0

    /* Initialize TLS */
    call __init_tls
    8000010e:	2a1000ef          	jal	80000bae <__init_tls>

    /* Skip global initialization if not the designated boot hart */
    la t0, __boot_hart
    80000112:	00000293          	li	t0,0
    bne s0, t0, _start_secondary
    80000116:	00540463          	beq	s0,t0,8000011e <_start+0x11e>
    8000011a:	0fe0006f          	j	80000218 <_start_secondary>

    /* Zero BSS segment */
    la t0, __bss_start
    8000011e:	84018293          	addi	t0,gp,-1984 # 800025b8 <htif_lock>
    la t1, __bss_end
    80000122:	fb018313          	addi	t1,gp,-80 # 80002d28 <_end>
    bgeu t0, t1, 2f
    80000126:	0062f763          	bgeu	t0,t1,80000134 <_start+0x134>
1:
    SREG zero, (t0)
    8000012a:	0002b023          	sd	zero,0(t0)
    addi t0, t0, REGBYTES
    8000012e:	02a1                	addi	t0,t0,8
    bltu t0, t1, 1b
    80000130:	fe62ede3          	bltu	t0,t1,8000012a <_start+0x12a>
2:

    /* Call global constructors */
    la a0, __libc_fini_array
    80000134:	00001517          	auipc	a0,0x1
    80000138:	02a50513          	addi	a0,a0,42 # 8000115e <__libc_fini_array>
    call atexit
    8000013c:	2f3000ef          	jal	80000c2e <atexit>
    call __libc_init_array
    80000140:	7c1000ef          	jal	80001100 <__libc_init_array>

    /* Call main function */
    tail _start_main
    80000144:	a845                	j	800001f4 <_start_main>
    80000146:	0001                	nop

0000000080000148 <trap_entry>:
    .cfi_endproc


    .align 2
trap_entry:
    csrw mscratch, sp
    80000148:	34011073          	csrw	mscratch,sp
    addi sp, sp, -(32*REGBYTES)
    8000014c:	7111                	addi	sp,sp,-256

    /* Save trap frame */
    SREG x1, 1*REGBYTES(sp)
    8000014e:	e406                	sd	ra,8(sp)
    csrr x1, mscratch
    80000150:	340020f3          	csrr	ra,mscratch
    SREG x1, 2*REGBYTES(sp)
    80000154:	e806                	sd	ra,16(sp)
    SREG x3, 3*REGBYTES(sp)
    80000156:	ec0e                	sd	gp,24(sp)
    SREG x4, 4*REGBYTES(sp)
    80000158:	f012                	sd	tp,32(sp)
    SREG x5, 5*REGBYTES(sp)
    8000015a:	f416                	sd	t0,40(sp)
    SREG x6, 6*REGBYTES(sp)
    8000015c:	f81a                	sd	t1,48(sp)
    SREG x7, 7*REGBYTES(sp)
    8000015e:	fc1e                	sd	t2,56(sp)
    SREG x8, 8*REGBYTES(sp)
    80000160:	e0a2                	sd	s0,64(sp)
    SREG x9, 9*REGBYTES(sp)
    80000162:	e4a6                	sd	s1,72(sp)
    SREG x10, 10*REGBYTES(sp)
    80000164:	e8aa                	sd	a0,80(sp)
    SREG x11, 11*REGBYTES(sp)
    80000166:	ecae                	sd	a1,88(sp)
    SREG x12, 12*REGBYTES(sp)
    80000168:	f0b2                	sd	a2,96(sp)
    SREG x13, 13*REGBYTES(sp)
    8000016a:	f4b6                	sd	a3,104(sp)
    SREG x14, 14*REGBYTES(sp)
    8000016c:	f8ba                	sd	a4,112(sp)
    SREG x15, 15*REGBYTES(sp)
    8000016e:	fcbe                	sd	a5,120(sp)
    SREG x16, 16*REGBYTES(sp)
    80000170:	e142                	sd	a6,128(sp)
    SREG x17, 17*REGBYTES(sp)
    80000172:	e546                	sd	a7,136(sp)
    SREG x18, 18*REGBYTES(sp)
    80000174:	e94a                	sd	s2,144(sp)
    SREG x19, 19*REGBYTES(sp)
    80000176:	ed4e                	sd	s3,152(sp)
    SREG x20, 20*REGBYTES(sp)
    80000178:	f152                	sd	s4,160(sp)
    SREG x21, 21*REGBYTES(sp)
    8000017a:	f556                	sd	s5,168(sp)
    SREG x22, 22*REGBYTES(sp)
    8000017c:	f95a                	sd	s6,176(sp)
    SREG x23, 23*REGBYTES(sp)
    8000017e:	fd5e                	sd	s7,184(sp)
    SREG x24, 24*REGBYTES(sp)
    80000180:	e1e2                	sd	s8,192(sp)
    SREG x25, 25*REGBYTES(sp)
    80000182:	e5e6                	sd	s9,200(sp)
    SREG x26, 26*REGBYTES(sp)
    80000184:	e9ea                	sd	s10,208(sp)
    SREG x27, 27*REGBYTES(sp)
    80000186:	edee                	sd	s11,216(sp)
    SREG x28, 28*REGBYTES(sp)
    80000188:	f1f2                	sd	t3,224(sp)
    SREG x29, 29*REGBYTES(sp)
    8000018a:	f5f6                	sd	t4,232(sp)
    SREG x30, 30*REGBYTES(sp)
    8000018c:	f9fa                	sd	t5,240(sp)
    SREG x31, 31*REGBYTES(sp)
    8000018e:	fdfe                	sd	t6,248(sp)

    /* Invoke higher-level trap handler */
    csrr a0, mepc
    80000190:	34102573          	csrr	a0,mepc
    csrr a1, mcause
    80000194:	342025f3          	csrr	a1,mcause
    csrr a2, mtval
    80000198:	34302673          	csrr	a2,mtval
    mv a3, sp
    8000019c:	868a                	mv	a3,sp
    call handle_trap
    8000019e:	12f000ef          	jal	80000acc <handle_trap>
    csrw mepc, a0
    800001a2:	34151073          	csrw	mepc,a0

    /* Remain in M-mode after return */
    li t0, MSTATUS_MPP
    800001a6:	000022b7          	lui	t0,0x2
    800001aa:	8002829b          	addiw	t0,t0,-2048 # 1800 <__stack_align+0x17f0>
    csrs mstatus, t0
    800001ae:	3002a073          	csrs	mstatus,t0

    LREG x1, 1*REGBYTES(sp)
    800001b2:	60a2                	ld	ra,8(sp)
    LREG x3, 3*REGBYTES(sp)
    800001b4:	61e2                	ld	gp,24(sp)
    LREG x4, 4*REGBYTES(sp)
    800001b6:	7202                	ld	tp,32(sp)
    LREG x5, 5*REGBYTES(sp)
    800001b8:	72a2                	ld	t0,40(sp)
    LREG x6, 6*REGBYTES(sp)
    800001ba:	7342                	ld	t1,48(sp)
    LREG x7, 7*REGBYTES(sp)
    800001bc:	73e2                	ld	t2,56(sp)
    LREG x8, 8*REGBYTES(sp)
    800001be:	6406                	ld	s0,64(sp)
    LREG x9, 9*REGBYTES(sp)
    800001c0:	64a6                	ld	s1,72(sp)
    LREG x10, 10*REGBYTES(sp)
    800001c2:	6546                	ld	a0,80(sp)
    LREG x11, 11*REGBYTES(sp)
    800001c4:	65e6                	ld	a1,88(sp)
    LREG x12, 12*REGBYTES(sp)
    800001c6:	7606                	ld	a2,96(sp)
    LREG x13, 13*REGBYTES(sp)
    800001c8:	76a6                	ld	a3,104(sp)
    LREG x14, 14*REGBYTES(sp)
    800001ca:	7746                	ld	a4,112(sp)
    LREG x15, 15*REGBYTES(sp)
    800001cc:	77e6                	ld	a5,120(sp)
    LREG x16, 16*REGBYTES(sp)
    800001ce:	680a                	ld	a6,128(sp)
    LREG x17, 17*REGBYTES(sp)
    800001d0:	68aa                	ld	a7,136(sp)
    LREG x18, 18*REGBYTES(sp)
    800001d2:	694a                	ld	s2,144(sp)
    LREG x19, 19*REGBYTES(sp)
    800001d4:	69ea                	ld	s3,152(sp)
    LREG x20, 20*REGBYTES(sp)
    800001d6:	7a0a                	ld	s4,160(sp)
    LREG x21, 21*REGBYTES(sp)
    800001d8:	7aaa                	ld	s5,168(sp)
    LREG x22, 22*REGBYTES(sp)
    800001da:	7b4a                	ld	s6,176(sp)
    LREG x23, 23*REGBYTES(sp)
    800001dc:	7bea                	ld	s7,184(sp)
    LREG x24, 24*REGBYTES(sp)
    800001de:	6c0e                	ld	s8,192(sp)
    LREG x25, 25*REGBYTES(sp)
    800001e0:	6cae                	ld	s9,200(sp)
    LREG x26, 26*REGBYTES(sp)
    800001e2:	6d4e                	ld	s10,208(sp)
    LREG x27, 27*REGBYTES(sp)
    800001e4:	6dee                	ld	s11,216(sp)
    LREG x28, 28*REGBYTES(sp)
    800001e6:	7e0e                	ld	t3,224(sp)
    LREG x29, 29*REGBYTES(sp)
    800001e8:	7eae                	ld	t4,232(sp)
    LREG x30, 30*REGBYTES(sp)
    800001ea:	7f4e                	ld	t5,240(sp)
    LREG x31, 31*REGBYTES(sp)
    800001ec:	7fee                	ld	t6,248(sp)
    /* Restore sp last */
    LREG x2, 2*REGBYTES(sp)
    800001ee:	6142                	ld	sp,16(sp)

    mret
    800001f0:	30200073          	mret

00000000800001f4 <_start_main>:
    .endm

    .global _start_main
    .type _start_main, @function
_start_main:
    BARRIER_PASS __boot_sync
    800001f4:	52fd                	li	t0,-1
    800001f6:	0110000f          	fence	w,w
    800001fa:	c851a023          	sw	t0,-896(gp) # 800029f8 <__boot_sync>
    ENTER main
    800001fe:	4505                	li	a0,1
    80000200:	00001597          	auipc	a1,0x1
    80000204:	64858593          	addi	a1,a1,1608 # 80001848 <argv>
    80000208:	00002617          	auipc	a2,0x2
    8000020c:	37863603          	ld	a2,888(a2) # 80002580 <environ>
    80000210:	790000ef          	jal	800009a0 <main>
    80000214:	2250006f          	j	80000c38 <exit>

0000000080000218 <_start_secondary>:

    .global _start_secondary
    .type _start_secondary, @function
_start_secondary:
    /* Synchronize secondary harts */
    BARRIER_WAIT __boot_sync
    80000218:	c801a283          	lw	t0,-896(gp) # 800029f8 <__boot_sync>
    8000021c:	fe028ee3          	beqz	t0,80000218 <_start_secondary>
    80000220:	0220000f          	fence	r,r
    ENTER __main
    80000224:	4505                	li	a0,1
    80000226:	00001597          	auipc	a1,0x1
    8000022a:	62258593          	addi	a1,a1,1570 # 80001848 <argv>
    8000022e:	00002617          	auipc	a2,0x2
    80000232:	35263603          	ld	a2,850(a2) # 80002580 <environ>
    80000236:	70e000ef          	jal	80000944 <__main>
    8000023a:	1ff0006f          	j	80000c38 <exit>

000000008000023e <kputc>:
	_kputs(s);
	kputc('\r');
	kputc('\n');
}

void kprintf(const char *fmt, ...)
    8000023e:	7179                	addi	sp,sp,-48
    80000240:	f422                	sd	s0,40(sp)
    80000242:	1800                	addi	s0,sp,48
    80000244:	87aa                	mv	a5,a0
    80000246:	fcf40fa3          	sb	a5,-33(s0)
{
    8000024a:	640007b7          	lui	a5,0x64000
    8000024e:	fef43423          	sd	a5,-24(s0)
    va_list vl;
    bool is_format, is_long, is_char;
    char c;

    80000252:	fe843703          	ld	a4,-24(s0)
    80000256:	fdf44783          	lbu	a5,-33(s0)
    8000025a:	86be                	mv	a3,a5
    8000025c:	fe843783          	ld	a5,-24(s0)
    80000260:	40d727af          	amoor.w	a5,a3,(a4)
    80000264:	fef42223          	sw	a5,-28(s0)
    va_start(vl, fmt);
    is_format = false;
    is_long = false;
    is_char = false;
    80000268:	fe442783          	lw	a5,-28(s0)
    8000026c:	2781                	sext.w	a5,a5
    8000026e:	fe07c2e3          	bltz	a5,80000252 <kputc+0x14>

    while ((c = *fmt++) != '\0') {
        if (is_format) {
            switch (c) {
            case 'l':
    80000272:	0001                	nop
    80000274:	0001                	nop
    80000276:	7422                	ld	s0,40(sp)
    80000278:	6145                	addi	sp,sp,48
    8000027a:	8082                	ret

000000008000027c <_kputs>:
{
    8000027c:	7179                	addi	sp,sp,-48
    8000027e:	f406                	sd	ra,40(sp)
    80000280:	f022                	sd	s0,32(sp)
    80000282:	1800                	addi	s0,sp,48
    80000284:	fca43c23          	sd	a0,-40(s0)
	for (; (c = *s) != '\0'; s++)
    80000288:	a819                	j	8000029e <_kputs+0x22>
		kputc(c);
    8000028a:	fef44783          	lbu	a5,-17(s0)
    8000028e:	853e                	mv	a0,a5
    80000290:	fafff0ef          	jal	8000023e <kputc>
	for (; (c = *s) != '\0'; s++)
    80000294:	fd843783          	ld	a5,-40(s0)
    80000298:	0785                	addi	a5,a5,1 # 64000001 <__heap_size+0x63fe0001>
    8000029a:	fcf43c23          	sd	a5,-40(s0)
    8000029e:	fd843783          	ld	a5,-40(s0)
    800002a2:	0007c783          	lbu	a5,0(a5)
    800002a6:	fef407a3          	sb	a5,-17(s0)
    800002aa:	fef44783          	lbu	a5,-17(s0)
    800002ae:	0ff7f793          	zext.b	a5,a5
    800002b2:	ffe1                	bnez	a5,8000028a <_kputs+0xe>
}
    800002b4:	0001                	nop
    800002b6:	0001                	nop
    800002b8:	70a2                	ld	ra,40(sp)
    800002ba:	7402                	ld	s0,32(sp)
    800002bc:	6145                	addi	sp,sp,48
    800002be:	8082                	ret

00000000800002c0 <kputs>:
{
    800002c0:	1101                	addi	sp,sp,-32
    800002c2:	ec06                	sd	ra,24(sp)
    800002c4:	e822                	sd	s0,16(sp)
    800002c6:	1000                	addi	s0,sp,32
    800002c8:	fea43423          	sd	a0,-24(s0)
	_kputs(s);
    800002cc:	fe843503          	ld	a0,-24(s0)
    800002d0:	fadff0ef          	jal	8000027c <_kputs>
	kputc('\r');
    800002d4:	4535                	li	a0,13
    800002d6:	f69ff0ef          	jal	8000023e <kputc>
	kputc('\n');
    800002da:	4529                	li	a0,10
    800002dc:	f63ff0ef          	jal	8000023e <kputc>
}
    800002e0:	0001                	nop
    800002e2:	60e2                	ld	ra,24(sp)
    800002e4:	6442                	ld	s0,16(sp)
    800002e6:	6105                	addi	sp,sp,32
    800002e8:	8082                	ret

00000000800002ea <kprintf>:
{
    800002ea:	7155                	addi	sp,sp,-208
    800002ec:	e506                	sd	ra,136(sp)
    800002ee:	e122                	sd	s0,128(sp)
    800002f0:	0900                	addi	s0,sp,144
    800002f2:	f6a43c23          	sd	a0,-136(s0)
    800002f6:	e40c                	sd	a1,8(s0)
    800002f8:	e810                	sd	a2,16(s0)
    800002fa:	ec14                	sd	a3,24(s0)
    800002fc:	f018                	sd	a4,32(s0)
    800002fe:	f41c                	sd	a5,40(s0)
    80000300:	03043823          	sd	a6,48(s0)
    80000304:	03143c23          	sd	a7,56(s0)
    va_start(vl, fmt);
    80000308:	04040793          	addi	a5,s0,64
    8000030c:	f6f43823          	sd	a5,-144(s0)
    80000310:	f7043783          	ld	a5,-144(s0)
    80000314:	fc878793          	addi	a5,a5,-56
    80000318:	faf43423          	sd	a5,-88(s0)
    is_format = false;
    8000031c:	fe0407a3          	sb	zero,-17(s0)
    is_long = false;
    80000320:	fe040723          	sb	zero,-18(s0)
    is_char = false;
    80000324:	fe0406a3          	sb	zero,-19(s0)
    while ((c = *fmt++) != '\0') {
    80000328:	a4c9                	j	800005ea <kprintf+0x300>
        if (is_format) {
    8000032a:	fef44783          	lbu	a5,-17(s0)
    8000032e:	0ff7f793          	zext.b	a5,a5
    80000332:	28078b63          	beqz	a5,800005c8 <kprintf+0x2de>
            switch (c) {
    80000336:	fc744783          	lbu	a5,-57(s0)
    8000033a:	2781                	sext.w	a5,a5
    8000033c:	f9d7869b          	addiw	a3,a5,-99
    80000340:	0006871b          	sext.w	a4,a3
    80000344:	47d5                	li	a5,21
    80000346:	26e7ea63          	bltu	a5,a4,800005ba <kprintf+0x2d0>
    8000034a:	02069793          	slli	a5,a3,0x20
    8000034e:	9381                	srli	a5,a5,0x20
    80000350:	00279713          	slli	a4,a5,0x2
    80000354:	00001797          	auipc	a5,0x1
    80000358:	42478793          	addi	a5,a5,1060 # 80001778 <__tbss_end>
    8000035c:	97ba                	add	a5,a5,a4
    8000035e:	439c                	lw	a5,0(a5)
    80000360:	0007871b          	sext.w	a4,a5
    80000364:	00001797          	auipc	a5,0x1
    80000368:	41478793          	addi	a5,a5,1044 # 80001778 <__tbss_end>
    8000036c:	97ba                	add	a5,a5,a4
    8000036e:	8782                	jr	a5
                is_long = true;
    80000370:	4785                	li	a5,1
    80000372:	fef40723          	sb	a5,-18(s0)
                continue;
    80000376:	ac95                	j	800005ea <kprintf+0x300>
            case 'h':
                is_char = true;
    80000378:	4785                	li	a5,1
    8000037a:	fef406a3          	sb	a5,-19(s0)
                continue;
    8000037e:	a4b5                	j	800005ea <kprintf+0x300>
            case 'x': {
                unsigned long n;
                long i;
                if (is_long) {
    80000380:	fee44783          	lbu	a5,-18(s0)
    80000384:	0ff7f793          	zext.b	a5,a5
    80000388:	cf99                	beqz	a5,800003a6 <kprintf+0xbc>
                    n = va_arg(vl, unsigned long);
    8000038a:	fa843783          	ld	a5,-88(s0)
    8000038e:	00878713          	addi	a4,a5,8
    80000392:	fae43423          	sd	a4,-88(s0)
    80000396:	639c                	ld	a5,0(a5)
    80000398:	fef43023          	sd	a5,-32(s0)
                    i = (sizeof(unsigned long) << 3) - 4;
    8000039c:	03c00793          	li	a5,60
    800003a0:	fcf43c23          	sd	a5,-40(s0)
    800003a4:	a041                	j	80000424 <kprintf+0x13a>
                } else {
                    n = va_arg(vl, unsigned int);
    800003a6:	fa843783          	ld	a5,-88(s0)
    800003aa:	00878713          	addi	a4,a5,8
    800003ae:	fae43423          	sd	a4,-88(s0)
    800003b2:	439c                	lw	a5,0(a5)
    800003b4:	1782                	slli	a5,a5,0x20
    800003b6:	9381                	srli	a5,a5,0x20
    800003b8:	fef43023          	sd	a5,-32(s0)
                    i = is_char ? 4 : (sizeof(unsigned int) << 3) - 4;
    800003bc:	fed44783          	lbu	a5,-19(s0)
    800003c0:	0ff7f793          	zext.b	a5,a5
    800003c4:	c399                	beqz	a5,800003ca <kprintf+0xe0>
    800003c6:	4791                	li	a5,4
    800003c8:	a011                	j	800003cc <kprintf+0xe2>
    800003ca:	47f1                	li	a5,28
    800003cc:	fcf43c23          	sd	a5,-40(s0)
                }
                for (; i >= 0; i -= 4) {
    800003d0:	a891                	j	80000424 <kprintf+0x13a>
                    long d = (n >> i) & 0xF;
    800003d2:	fd843783          	ld	a5,-40(s0)
    800003d6:	2781                	sext.w	a5,a5
    800003d8:	873e                	mv	a4,a5
    800003da:	fe043783          	ld	a5,-32(s0)
    800003de:	00e7d7b3          	srl	a5,a5,a4
    800003e2:	8bbd                	andi	a5,a5,15
    800003e4:	faf43c23          	sd	a5,-72(s0)
                    kputc(d < 10 ? '0' + d : 'a' + d - 10);
    800003e8:	fb843703          	ld	a4,-72(s0)
    800003ec:	47a5                	li	a5,9
    800003ee:	00e7cb63          	blt	a5,a4,80000404 <kprintf+0x11a>
    800003f2:	fb843783          	ld	a5,-72(s0)
    800003f6:	0ff7f793          	zext.b	a5,a5
    800003fa:	0307879b          	addiw	a5,a5,48
    800003fe:	0ff7f793          	zext.b	a5,a5
    80000402:	a809                	j	80000414 <kprintf+0x12a>
    80000404:	fb843783          	ld	a5,-72(s0)
    80000408:	0ff7f793          	zext.b	a5,a5
    8000040c:	0577879b          	addiw	a5,a5,87
    80000410:	0ff7f793          	zext.b	a5,a5
    80000414:	853e                	mv	a0,a5
    80000416:	e29ff0ef          	jal	8000023e <kputc>
                for (; i >= 0; i -= 4) {
    8000041a:	fd843783          	ld	a5,-40(s0)
    8000041e:	17f1                	addi	a5,a5,-4
    80000420:	fcf43c23          	sd	a5,-40(s0)
    80000424:	fd843783          	ld	a5,-40(s0)
    80000428:	fa07d5e3          	bgez	a5,800003d2 <kprintf+0xe8>
                }
                break;
    8000042c:	a279                	j	800005ba <kprintf+0x2d0>
            }
            case 'd': {
                long num;
                if (is_long) {
    8000042e:	fee44783          	lbu	a5,-18(s0)
    80000432:	0ff7f793          	zext.b	a5,a5
    80000436:	cb99                	beqz	a5,8000044c <kprintf+0x162>
                    num = va_arg(vl, long);
    80000438:	fa843783          	ld	a5,-88(s0)
    8000043c:	00878713          	addi	a4,a5,8
    80000440:	fae43423          	sd	a4,-88(s0)
    80000444:	639c                	ld	a5,0(a5)
    80000446:	fcf43823          	sd	a5,-48(s0)
    8000044a:	a03d                	j	80000478 <kprintf+0x18e>
                } else {
                    num = va_arg(vl, int);
    8000044c:	fa843783          	ld	a5,-88(s0)
    80000450:	00878713          	addi	a4,a5,8
    80000454:	fae43423          	sd	a4,-88(s0)
    80000458:	439c                	lw	a5,0(a5)
    8000045a:	fcf43823          	sd	a5,-48(s0)
                    if (is_char) {
    8000045e:	fed44783          	lbu	a5,-19(s0)
    80000462:	0ff7f793          	zext.b	a5,a5
    80000466:	cb89                	beqz	a5,80000478 <kprintf+0x18e>
                        num = (short)num;
    80000468:	fd043783          	ld	a5,-48(s0)
    8000046c:	0107979b          	slliw	a5,a5,0x10
    80000470:	4107d79b          	sraiw	a5,a5,0x10
    80000474:	fcf43823          	sd	a5,-48(s0)
                    }
                }

                if (num < 0) {
    80000478:	fd043783          	ld	a5,-48(s0)
    8000047c:	0007dc63          	bgez	a5,80000494 <kprintf+0x1aa>
                    kputc('-');
    80000480:	02d00513          	li	a0,45
    80000484:	dbbff0ef          	jal	8000023e <kputc>
                    num = -num;
    80000488:	fd043783          	ld	a5,-48(s0)
    8000048c:	40f007b3          	neg	a5,a5
    80000490:	fcf43823          	sd	a5,-48(s0)
                }

                char buffer[32];
                int pos = 0;
    80000494:	fc042623          	sw	zero,-52(s0)
                do {
                    buffer[pos++] = '0' + (num % 10);
    80000498:	fd043703          	ld	a4,-48(s0)
    8000049c:	47a9                	li	a5,10
    8000049e:	02f767b3          	rem	a5,a4,a5
    800004a2:	0ff7f713          	zext.b	a4,a5
    800004a6:	fcc42783          	lw	a5,-52(s0)
    800004aa:	0017869b          	addiw	a3,a5,1
    800004ae:	fcd42623          	sw	a3,-52(s0)
    800004b2:	0307071b          	addiw	a4,a4,48
    800004b6:	0ff77713          	zext.b	a4,a4
    800004ba:	17c1                	addi	a5,a5,-16
    800004bc:	97a2                	add	a5,a5,s0
    800004be:	f8e78c23          	sb	a4,-104(a5)
                    num /= 10;
    800004c2:	fd043703          	ld	a4,-48(s0)
    800004c6:	47a9                	li	a5,10
    800004c8:	02f747b3          	div	a5,a4,a5
    800004cc:	fcf43823          	sd	a5,-48(s0)
                } while (num > 0 && pos < (int)sizeof(buffer));
    800004d0:	fd043783          	ld	a5,-48(s0)
    800004d4:	02f05863          	blez	a5,80000504 <kprintf+0x21a>
    800004d8:	fcc42783          	lw	a5,-52(s0)
    800004dc:	0007871b          	sext.w	a4,a5
    800004e0:	47fd                	li	a5,31
    800004e2:	fae7dbe3          	bge	a5,a4,80000498 <kprintf+0x1ae>

                while (pos > 0) {
    800004e6:	a839                	j	80000504 <kprintf+0x21a>
                    kputc(buffer[--pos]);
    800004e8:	fcc42783          	lw	a5,-52(s0)
    800004ec:	37fd                	addiw	a5,a5,-1
    800004ee:	fcf42623          	sw	a5,-52(s0)
    800004f2:	fcc42783          	lw	a5,-52(s0)
    800004f6:	17c1                	addi	a5,a5,-16
    800004f8:	97a2                	add	a5,a5,s0
    800004fa:	f987c783          	lbu	a5,-104(a5)
    800004fe:	853e                	mv	a0,a5
    80000500:	d3fff0ef          	jal	8000023e <kputc>
                while (pos > 0) {
    80000504:	fcc42783          	lw	a5,-52(s0)
    80000508:	2781                	sext.w	a5,a5
    8000050a:	fcf04fe3          	bgtz	a5,800004e8 <kprintf+0x1fe>
                }
                break;
    8000050e:	a075                	j	800005ba <kprintf+0x2d0>
            }
            case 's':
                _kputs(va_arg(vl, const char *));
    80000510:	fa843783          	ld	a5,-88(s0)
    80000514:	00878713          	addi	a4,a5,8
    80000518:	fae43423          	sd	a4,-88(s0)
    8000051c:	639c                	ld	a5,0(a5)
    8000051e:	853e                	mv	a0,a5
    80000520:	d5dff0ef          	jal	8000027c <_kputs>
                break;
    80000524:	a859                	j	800005ba <kprintf+0x2d0>
            case 'c':
                kputc(va_arg(vl, int));
    80000526:	fa843783          	ld	a5,-88(s0)
    8000052a:	00878713          	addi	a4,a5,8
    8000052e:	fae43423          	sd	a4,-88(s0)
    80000532:	439c                	lw	a5,0(a5)
    80000534:	0ff7f793          	zext.b	a5,a5
    80000538:	853e                	mv	a0,a5
    8000053a:	d05ff0ef          	jal	8000023e <kputc>
                break;
    8000053e:	a8b5                	j	800005ba <kprintf+0x2d0>
            case 'w':
                unsigned int n = va_arg(vl, unsigned int);
    80000540:	fa843783          	ld	a5,-88(s0)
    80000544:	00878713          	addi	a4,a5,8
    80000548:	fae43423          	sd	a4,-88(s0)
    8000054c:	439c                	lw	a5,0(a5)
    8000054e:	faf42a23          	sw	a5,-76(s0)
                for (int i = 28; i >= 0; i -= 4) {
    80000552:	47f1                	li	a5,28
    80000554:	fcf42423          	sw	a5,-56(s0)
    80000558:	a899                	j	800005ae <kprintf+0x2c4>
                    unsigned int d = (n >> i) & 0xF;
    8000055a:	fc842783          	lw	a5,-56(s0)
    8000055e:	fb442703          	lw	a4,-76(s0)
    80000562:	00f757bb          	srlw	a5,a4,a5
    80000566:	2781                	sext.w	a5,a5
    80000568:	8bbd                	andi	a5,a5,15
    8000056a:	faf42823          	sw	a5,-80(s0)
                    kputc(d < 10 ? '0' + d : 'a' + d - 10);
    8000056e:	fb042783          	lw	a5,-80(s0)
    80000572:	0007871b          	sext.w	a4,a5
    80000576:	47a5                	li	a5,9
    80000578:	00e7eb63          	bltu	a5,a4,8000058e <kprintf+0x2a4>
    8000057c:	fb042783          	lw	a5,-80(s0)
    80000580:	0ff7f793          	zext.b	a5,a5
    80000584:	0307879b          	addiw	a5,a5,48
    80000588:	0ff7f793          	zext.b	a5,a5
    8000058c:	a809                	j	8000059e <kprintf+0x2b4>
    8000058e:	fb042783          	lw	a5,-80(s0)
    80000592:	0ff7f793          	zext.b	a5,a5
    80000596:	0577879b          	addiw	a5,a5,87
    8000059a:	0ff7f793          	zext.b	a5,a5
    8000059e:	853e                	mv	a0,a5
    800005a0:	c9fff0ef          	jal	8000023e <kputc>
                for (int i = 28; i >= 0; i -= 4) {
    800005a4:	fc842783          	lw	a5,-56(s0)
    800005a8:	37f1                	addiw	a5,a5,-4
    800005aa:	fcf42423          	sw	a5,-56(s0)
    800005ae:	fc842783          	lw	a5,-56(s0)
    800005b2:	2781                	sext.w	a5,a5
    800005b4:	fa07d3e3          	bgez	a5,8000055a <kprintf+0x270>
                }
                break;
    800005b8:	0001                	nop
            }

            is_format = false;
    800005ba:	fe0407a3          	sb	zero,-17(s0)
            is_long   = false;
    800005be:	fe040723          	sb	zero,-18(s0)
            is_char   = false;
    800005c2:	fe0406a3          	sb	zero,-19(s0)
    800005c6:	a015                	j	800005ea <kprintf+0x300>
        } else if (c == '%') {
    800005c8:	fc744783          	lbu	a5,-57(s0)
    800005cc:	0ff7f713          	zext.b	a4,a5
    800005d0:	02500793          	li	a5,37
    800005d4:	00f71663          	bne	a4,a5,800005e0 <kprintf+0x2f6>
            is_format = true;
    800005d8:	4785                	li	a5,1
    800005da:	fef407a3          	sb	a5,-17(s0)
    800005de:	a031                	j	800005ea <kprintf+0x300>
        } else {
            kputc(c);
    800005e0:	fc744783          	lbu	a5,-57(s0)
    800005e4:	853e                	mv	a0,a5
    800005e6:	c59ff0ef          	jal	8000023e <kputc>
    while ((c = *fmt++) != '\0') {
    800005ea:	f7843783          	ld	a5,-136(s0)
    800005ee:	00178713          	addi	a4,a5,1
    800005f2:	f6e43c23          	sd	a4,-136(s0)
    800005f6:	0007c783          	lbu	a5,0(a5)
    800005fa:	fcf403a3          	sb	a5,-57(s0)
    800005fe:	fc744783          	lbu	a5,-57(s0)
    80000602:	0ff7f793          	zext.b	a5,a5
    80000606:	d20792e3          	bnez	a5,8000032a <kprintf+0x40>
        }
    }

    va_end(vl);
}
    8000060a:	0001                	nop
    8000060c:	0001                	nop
    8000060e:	60aa                	ld	ra,136(sp)
    80000610:	640a                	ld	s0,128(sp)
    80000612:	6169                	addi	sp,sp,208
    80000614:	8082                	ret

0000000080000616 <verify>:
#include <riscv-pk/encoding.h>
#include "platform.h"
#include "kprintf.h"
#include "dataset.h"
#include "util.h"

    80000616:	715d                	addi	sp,sp,-80
    80000618:	e4a2                	sd	s0,72(sp)
    8000061a:	0880                	addi	s0,sp,80
    8000061c:	87aa                	mv	a5,a0
    8000061e:	fcb43023          	sd	a1,-64(s0)
    80000622:	fac43c23          	sd	a2,-72(s0)
    80000626:	fcf42623          	sw	a5,-52(s0)
static uint32_t n_cores = 4;
static int results_data[ARRAY_SIZE];

    8000062a:	fe042623          	sw	zero,-20(s0)
    8000062e:	a841                	j	800006be <verify+0xa8>

void matmul(const int coreid, const int ncores, const int lda, const int A[], const int B[], int C[])
    80000630:	fec42783          	lw	a5,-20(s0)
    80000634:	078a                	slli	a5,a5,0x2
    80000636:	fc043703          	ld	a4,-64(s0)
    8000063a:	97ba                	add	a5,a5,a4
    8000063c:	439c                	lw	a5,0(a5)
    8000063e:	fef42423          	sw	a5,-24(s0)
    80000642:	fec42783          	lw	a5,-20(s0)
    80000646:	0785                	addi	a5,a5,1
    80000648:	078a                	slli	a5,a5,0x2
    8000064a:	fc043703          	ld	a4,-64(s0)
    8000064e:	97ba                	add	a5,a5,a4
    80000650:	439c                	lw	a5,0(a5)
    80000652:	fef42223          	sw	a5,-28(s0)
{
    80000656:	fec42783          	lw	a5,-20(s0)
    8000065a:	078a                	slli	a5,a5,0x2
    8000065c:	fb843703          	ld	a4,-72(s0)
    80000660:	97ba                	add	a5,a5,a4
    80000662:	439c                	lw	a5,0(a5)
    80000664:	fef42023          	sw	a5,-32(s0)
    80000668:	fec42783          	lw	a5,-20(s0)
    8000066c:	0785                	addi	a5,a5,1
    8000066e:	078a                	slli	a5,a5,0x2
    80000670:	fb843703          	ld	a4,-72(s0)
    80000674:	97ba                	add	a5,a5,a4
    80000676:	439c                	lw	a5,0(a5)
    80000678:	fcf42e23          	sw	a5,-36(s0)
  int i, j, k;
    8000067c:	fe842783          	lw	a5,-24(s0)
    80000680:	873e                	mv	a4,a5
    80000682:	fe042783          	lw	a5,-32(s0)
    80000686:	2701                	sext.w	a4,a4
    80000688:	2781                	sext.w	a5,a5
    8000068a:	00f70763          	beq	a4,a5,80000698 <verify+0x82>
    8000068e:	fec42783          	lw	a5,-20(s0)
    80000692:	2785                	addiw	a5,a5,1
    80000694:	2781                	sext.w	a5,a5
    80000696:	a059                	j	8000071c <verify+0x106>
  int block = lda / ncores;
    80000698:	fe442783          	lw	a5,-28(s0)
    8000069c:	873e                	mv	a4,a5
    8000069e:	fdc42783          	lw	a5,-36(s0)
    800006a2:	2701                	sext.w	a4,a4
    800006a4:	2781                	sext.w	a5,a5
    800006a6:	00f70763          	beq	a4,a5,800006b4 <verify+0x9e>
    800006aa:	fec42783          	lw	a5,-20(s0)
    800006ae:	2789                	addiw	a5,a5,2
    800006b0:	2781                	sext.w	a5,a5
    800006b2:	a0ad                	j	8000071c <verify+0x106>

    800006b4:	fec42783          	lw	a5,-20(s0)
    800006b8:	2789                	addiw	a5,a5,2
    800006ba:	fef42623          	sw	a5,-20(s0)
    800006be:	fcc42783          	lw	a5,-52(s0)
    800006c2:	01f7d71b          	srliw	a4,a5,0x1f
    800006c6:	9fb9                	addw	a5,a5,a4
    800006c8:	4017d79b          	sraiw	a5,a5,0x1
    800006cc:	2781                	sext.w	a5,a5
    800006ce:	0017979b          	slliw	a5,a5,0x1
    800006d2:	0007871b          	sext.w	a4,a5
    800006d6:	fec42783          	lw	a5,-20(s0)
    800006da:	2781                	sext.w	a5,a5
    800006dc:	f4e7cae3          	blt	a5,a4,80000630 <verify+0x1a>
  int start = block * coreid;

    800006e0:	fcc42783          	lw	a5,-52(s0)
    800006e4:	8b85                	andi	a5,a5,1
    800006e6:	2781                	sext.w	a5,a5
    800006e8:	cb8d                	beqz	a5,8000071a <verify+0x104>
    800006ea:	fcc42783          	lw	a5,-52(s0)
    800006ee:	078a                	slli	a5,a5,0x2
    800006f0:	17f1                	addi	a5,a5,-4
    800006f2:	fc043703          	ld	a4,-64(s0)
    800006f6:	97ba                	add	a5,a5,a4
    800006f8:	439c                	lw	a5,0(a5)
    800006fa:	0007869b          	sext.w	a3,a5
    800006fe:	fcc42783          	lw	a5,-52(s0)
    80000702:	078a                	slli	a5,a5,0x2
    80000704:	17f1                	addi	a5,a5,-4
    80000706:	fb843703          	ld	a4,-72(s0)
    8000070a:	97ba                	add	a5,a5,a4
    8000070c:	439c                	lw	a5,0(a5)
    8000070e:	8736                	mv	a4,a3
    80000710:	00f70563          	beq	a4,a5,8000071a <verify+0x104>
  for (i = 0; i < lda; i++) {
    80000714:	fcc42783          	lw	a5,-52(s0)
    80000718:	a011                	j	8000071c <verify+0x106>
    for (j = start; j < (start+block); j++) {
    8000071a:	4781                	li	a5,0
      int sum = 0;
    8000071c:	853e                	mv	a0,a5
    8000071e:	6426                	ld	s0,72(sp)
    80000720:	6161                	addi	sp,sp,80
    80000722:	8082                	ret

0000000080000724 <barrier>:
      for (k = 0; k < lda; k++)
        sum += A[j*lda + k] * B[k*lda + i]; // Row A x Col B
      C[i + j*lda] = sum;
    80000724:	1101                	addi	sp,sp,-32
    80000726:	ec22                	sd	s0,24(sp)
    80000728:	1000                	addi	s0,sp,32
    8000072a:	87aa                	mv	a5,a0
    8000072c:	fef42623          	sw	a5,-20(s0)
    }
  }
}


    80000730:	0ff0000f          	fence
void handle_msi(void) {
  uint32_t mhartid = read_csr(mhartid);
    80000734:	00022783          	lw	a5,0(tp) # 0 <__boot_hart>
    80000738:	0017b793          	seqz	a5,a5
    8000073c:	0ff7f793          	zext.b	a5,a5
    80000740:	0007871b          	sext.w	a4,a5
    80000744:	00e22023          	sw	a4,0(tp) # 0 <__boot_hart>
  // Do matrix multiplication
    80000748:	c7818793          	addi	a5,gp,-904 # 800029f0 <count.1>
    8000074c:	4705                	li	a4,1
    8000074e:	0f50000f          	fence	iorw,ow
    80000752:	04e7a6af          	amoadd.w.aq	a3,a4,(a5)
    80000756:	0006879b          	sext.w	a5,a3
    8000075a:	0007871b          	sext.w	a4,a5
    8000075e:	fec42783          	lw	a5,-20(s0)
    80000762:	37fd                	addiw	a5,a5,-1
    80000764:	2781                	sext.w	a5,a5
    80000766:	00f71c63          	bne	a4,a5,8000077e <barrier+0x5a>
  matmul(mhartid, n_cores, DIM_SIZE, input1_data, input2_data, results_data);
  barrier(n_cores);
    8000076a:	c7818793          	addi	a5,gp,-904 # 800029f0 <count.1>
    8000076e:	0007a023          	sw	zero,0(a5)
}
    80000772:	00022703          	lw	a4,0(tp) # 0 <__boot_hart>
    80000776:	c7c18793          	addi	a5,gp,-900 # 800029f4 <sense.0>
    8000077a:	c398                	sw	a4,0(a5)
    8000077c:	a819                	j	80000792 <barrier+0x6e>


    8000077e:	0001                	nop
    80000780:	c7c18793          	addi	a5,gp,-900 # 800029f4 <sense.0>
    80000784:	439c                	lw	a5,0(a5)
    80000786:	0007871b          	sext.w	a4,a5
    8000078a:	00022783          	lw	a5,0(tp) # 0 <__boot_hart>
    8000078e:	fef719e3          	bne	a4,a5,80000780 <barrier+0x5c>
void __main(void) {
  uint32_t mhartid = read_csr(mhartid);
  if (mhartid >= n_cores) while (1);
    80000792:	0ff0000f          	fence

    80000796:	0001                	nop
    80000798:	6462                	ld	s0,24(sp)
    8000079a:	6105                	addi	sp,sp,32
    8000079c:	8082                	ret

000000008000079e <matmul>:
{
    8000079e:	711d                	addi	sp,sp,-96
    800007a0:	eca2                	sd	s0,88(sp)
    800007a2:	1080                	addi	s0,sp,96
    800007a4:	fad43c23          	sd	a3,-72(s0)
    800007a8:	fae43823          	sd	a4,-80(s0)
    800007ac:	faf43423          	sd	a5,-88(s0)
    800007b0:	87aa                	mv	a5,a0
    800007b2:	fcf42623          	sw	a5,-52(s0)
    800007b6:	87ae                	mv	a5,a1
    800007b8:	fcf42423          	sw	a5,-56(s0)
    800007bc:	87b2                	mv	a5,a2
    800007be:	fcf42223          	sw	a5,-60(s0)
  int block = lda / ncores;
    800007c2:	fc442783          	lw	a5,-60(s0)
    800007c6:	873e                	mv	a4,a5
    800007c8:	fc842783          	lw	a5,-56(s0)
    800007cc:	02f747bb          	divw	a5,a4,a5
    800007d0:	fcf42e23          	sw	a5,-36(s0)
  int start = block * coreid;
    800007d4:	fdc42783          	lw	a5,-36(s0)
    800007d8:	873e                	mv	a4,a5
    800007da:	fcc42783          	lw	a5,-52(s0)
    800007de:	02f707bb          	mulw	a5,a4,a5
    800007e2:	fcf42c23          	sw	a5,-40(s0)
  for (i = 0; i < lda; i++) {
    800007e6:	fe042623          	sw	zero,-20(s0)
    800007ea:	a8e9                	j	800008c4 <matmul+0x126>
    for (j = start; j < (start+block); j++) {
    800007ec:	fd842783          	lw	a5,-40(s0)
    800007f0:	fef42423          	sw	a5,-24(s0)
    800007f4:	a075                	j	800008a0 <matmul+0x102>
      int sum = 0;
    800007f6:	fe042023          	sw	zero,-32(s0)
      for (k = 0; k < lda; k++)
    800007fa:	fe042223          	sw	zero,-28(s0)
    800007fe:	a085                	j	8000085e <matmul+0xc0>
        sum += A[j*lda + k] * B[k*lda + i]; // Row A x Col B
    80000800:	fe842783          	lw	a5,-24(s0)
    80000804:	873e                	mv	a4,a5
    80000806:	fc442783          	lw	a5,-60(s0)
    8000080a:	02f707bb          	mulw	a5,a4,a5
    8000080e:	2781                	sext.w	a5,a5
    80000810:	fe442703          	lw	a4,-28(s0)
    80000814:	9fb9                	addw	a5,a5,a4
    80000816:	2781                	sext.w	a5,a5
    80000818:	078a                	slli	a5,a5,0x2
    8000081a:	fb843703          	ld	a4,-72(s0)
    8000081e:	97ba                	add	a5,a5,a4
    80000820:	4398                	lw	a4,0(a5)
    80000822:	fe442783          	lw	a5,-28(s0)
    80000826:	86be                	mv	a3,a5
    80000828:	fc442783          	lw	a5,-60(s0)
    8000082c:	02f687bb          	mulw	a5,a3,a5
    80000830:	2781                	sext.w	a5,a5
    80000832:	fec42683          	lw	a3,-20(s0)
    80000836:	9fb5                	addw	a5,a5,a3
    80000838:	2781                	sext.w	a5,a5
    8000083a:	078a                	slli	a5,a5,0x2
    8000083c:	fb043683          	ld	a3,-80(s0)
    80000840:	97b6                	add	a5,a5,a3
    80000842:	439c                	lw	a5,0(a5)
    80000844:	02f707bb          	mulw	a5,a4,a5
    80000848:	2781                	sext.w	a5,a5
    8000084a:	fe042703          	lw	a4,-32(s0)
    8000084e:	9fb9                	addw	a5,a5,a4
    80000850:	fef42023          	sw	a5,-32(s0)
      for (k = 0; k < lda; k++)
    80000854:	fe442783          	lw	a5,-28(s0)
    80000858:	2785                	addiw	a5,a5,1
    8000085a:	fef42223          	sw	a5,-28(s0)
    8000085e:	fe442783          	lw	a5,-28(s0)
    80000862:	873e                	mv	a4,a5
    80000864:	fc442783          	lw	a5,-60(s0)
    80000868:	2701                	sext.w	a4,a4
    8000086a:	2781                	sext.w	a5,a5
    8000086c:	f8f74ae3          	blt	a4,a5,80000800 <matmul+0x62>
      C[i + j*lda] = sum;
    80000870:	fe842783          	lw	a5,-24(s0)
    80000874:	873e                	mv	a4,a5
    80000876:	fc442783          	lw	a5,-60(s0)
    8000087a:	02f707bb          	mulw	a5,a4,a5
    8000087e:	2781                	sext.w	a5,a5
    80000880:	fec42703          	lw	a4,-20(s0)
    80000884:	9fb9                	addw	a5,a5,a4
    80000886:	2781                	sext.w	a5,a5
    80000888:	078a                	slli	a5,a5,0x2
    8000088a:	fa843703          	ld	a4,-88(s0)
    8000088e:	97ba                	add	a5,a5,a4
    80000890:	fe042703          	lw	a4,-32(s0)
    80000894:	c398                	sw	a4,0(a5)
    for (j = start; j < (start+block); j++) {
    80000896:	fe842783          	lw	a5,-24(s0)
    8000089a:	2785                	addiw	a5,a5,1
    8000089c:	fef42423          	sw	a5,-24(s0)
    800008a0:	fd842783          	lw	a5,-40(s0)
    800008a4:	873e                	mv	a4,a5
    800008a6:	fdc42783          	lw	a5,-36(s0)
    800008aa:	9fb9                	addw	a5,a5,a4
    800008ac:	0007871b          	sext.w	a4,a5
    800008b0:	fe842783          	lw	a5,-24(s0)
    800008b4:	2781                	sext.w	a5,a5
    800008b6:	f4e7c0e3          	blt	a5,a4,800007f6 <matmul+0x58>
  for (i = 0; i < lda; i++) {
    800008ba:	fec42783          	lw	a5,-20(s0)
    800008be:	2785                	addiw	a5,a5,1
    800008c0:	fef42623          	sw	a5,-20(s0)
    800008c4:	fec42783          	lw	a5,-20(s0)
    800008c8:	873e                	mv	a4,a5
    800008ca:	fc442783          	lw	a5,-60(s0)
    800008ce:	2701                	sext.w	a4,a4
    800008d0:	2781                	sext.w	a5,a5
    800008d2:	f0f74de3          	blt	a4,a5,800007ec <matmul+0x4e>
}
    800008d6:	0001                	nop
    800008d8:	0001                	nop
    800008da:	6466                	ld	s0,88(sp)
    800008dc:	6125                	addi	sp,sp,96
    800008de:	8082                	ret

00000000800008e0 <handle_msi>:
void handle_msi(void) {
    800008e0:	1101                	addi	sp,sp,-32
    800008e2:	ec06                	sd	ra,24(sp)
    800008e4:	e822                	sd	s0,16(sp)
    800008e6:	1000                	addi	s0,sp,32
  uint32_t mhartid = read_csr(mhartid);
    800008e8:	f14027f3          	csrr	a5,mhartid
    800008ec:	fef43423          	sd	a5,-24(s0)
    800008f0:	fe843783          	ld	a5,-24(s0)
    800008f4:	fef42223          	sw	a5,-28(s0)
  matmul(mhartid, n_cores, DIM_SIZE, input1_data, input2_data, results_data);
    800008f8:	fe442503          	lw	a0,-28(s0)
    800008fc:	00002797          	auipc	a5,0x2
    80000900:	c7c78793          	addi	a5,a5,-900 # 80002578 <n_cores>
    80000904:	439c                	lw	a5,0(a5)
    80000906:	0007859b          	sext.w	a1,a5
    8000090a:	00002797          	auipc	a5,0x2
    8000090e:	ce678793          	addi	a5,a5,-794 # 800025f0 <results_data>
    80000912:	00001717          	auipc	a4,0x1
    80000916:	3be70713          	addi	a4,a4,958 # 80001cd0 <input2_data>
    8000091a:	00001697          	auipc	a3,0x1
    8000091e:	fb668693          	addi	a3,a3,-74 # 800018d0 <input1_data>
    80000922:	4641                	li	a2,16
    80000924:	e7bff0ef          	jal	8000079e <matmul>
  barrier(n_cores);
    80000928:	00002797          	auipc	a5,0x2
    8000092c:	c5078793          	addi	a5,a5,-944 # 80002578 <n_cores>
    80000930:	439c                	lw	a5,0(a5)
    80000932:	2781                	sext.w	a5,a5
    80000934:	853e                	mv	a0,a5
    80000936:	defff0ef          	jal	80000724 <barrier>
}
    8000093a:	0001                	nop
    8000093c:	60e2                	ld	ra,24(sp)
    8000093e:	6442                	ld	s0,16(sp)
    80000940:	6105                	addi	sp,sp,32
    80000942:	8082                	ret

0000000080000944 <__main>:
void __main(void) {
    80000944:	7179                	addi	sp,sp,-48
    80000946:	f422                	sd	s0,40(sp)
    80000948:	1800                	addi	s0,sp,48
  uint32_t mhartid = read_csr(mhartid);
    8000094a:	f14027f3          	csrr	a5,mhartid
    8000094e:	fef43423          	sd	a5,-24(s0)
    80000952:	fe843783          	ld	a5,-24(s0)
    80000956:	fef42223          	sw	a5,-28(s0)
  if (mhartid >= n_cores) while (1);
    8000095a:	00002797          	auipc	a5,0x2
    8000095e:	c1e78793          	addi	a5,a5,-994 # 80002578 <n_cores>
    80000962:	4398                	lw	a4,0(a5)
    80000964:	fe442783          	lw	a5,-28(s0)
    80000968:	2781                	sext.w	a5,a5
    8000096a:	00e7e463          	bltu	a5,a4,80000972 <__main+0x2e>
    8000096e:	0001                	nop
    80000970:	bffd                	j	8000096e <__main+0x2a>
  // enable msi
  write_csr(mie, read_csr(mie) | MIP_MSIP);
    80000972:	304027f3          	csrr	a5,mie
    80000976:	fcf43c23          	sd	a5,-40(s0)
    8000097a:	fd843783          	ld	a5,-40(s0)
    8000097e:	0087e793          	ori	a5,a5,8
    80000982:	30479073          	csrw	mie,a5
  // enable global interrupt
  write_csr(mstatus, read_csr(mstatus) | MSTATUS_MIE);
    80000986:	300027f3          	csrr	a5,mstatus
    8000098a:	fcf43823          	sd	a5,-48(s0)
    8000098e:	fd043783          	ld	a5,-48(s0)
    80000992:	0087e793          	ori	a5,a5,8
    80000996:	30079073          	csrw	mstatus,a5

  while (1) {
    __asm__ volatile ("wfi");  // wfi
    8000099a:	10500073          	wfi
    8000099e:	bff5                	j	8000099a <__main+0x56>

00000000800009a0 <main>:
  }
}


int main(void) {
    800009a0:	7139                	addi	sp,sp,-64
    800009a2:	fc06                	sd	ra,56(sp)
    800009a4:	f822                	sd	s0,48(sp)
    800009a6:	0080                	addi	s0,sp,64
  uint32_t mhartid = read_csr(mhartid);
    800009a8:	f14027f3          	csrr	a5,mhartid
    800009ac:	fef43423          	sd	a5,-24(s0)
    800009b0:	fe843783          	ld	a5,-24(s0)
    800009b4:	fef42223          	sw	a5,-28(s0)

  for (volatile int i = 0; i < 1000000; i++) { }
    800009b8:	fc042023          	sw	zero,-64(s0)
    800009bc:	a801                	j	800009cc <main+0x2c>
    800009be:	fc042783          	lw	a5,-64(s0)
    800009c2:	2781                	sext.w	a5,a5
    800009c4:	2785                	addiw	a5,a5,1
    800009c6:	2781                	sext.w	a5,a5
    800009c8:	fcf42023          	sw	a5,-64(s0)
    800009cc:	fc042783          	lw	a5,-64(s0)
    800009d0:	2781                	sext.w	a5,a5
    800009d2:	873e                	mv	a4,a5
    800009d4:	000f47b7          	lui	a5,0xf4
    800009d8:	23f78793          	addi	a5,a5,575 # f423f <__heap_size+0xd423f>
    800009dc:	fee7d1e3          	bge	a5,a4,800009be <main+0x1e>

  unsigned long _c = -read_csr(mcycle); // Start counter
    800009e0:	b00027f3          	csrr	a5,mcycle
    800009e4:	fcf43c23          	sd	a5,-40(s0)
    800009e8:	fd843783          	ld	a5,-40(s0)
    800009ec:	40f007b3          	neg	a5,a5
    800009f0:	fcf43823          	sd	a5,-48(s0)
//  unsigned long _i = -read_csr(minstret);
  // Call secondary harts
  CLINT_REG(CLINT_MSIP1) = CLINT_MSIPEN; // call hart 1
    800009f4:	020007b7          	lui	a5,0x2000
    800009f8:	0791                	addi	a5,a5,4 # 2000004 <__heap_size+0x1fe0004>
    800009fa:	4705                	li	a4,1
    800009fc:	c398                	sw	a4,0(a5)
  CLINT_REG(CLINT_MSIP2) = CLINT_MSIPEN; // call hart 2
    800009fe:	020007b7          	lui	a5,0x2000
    80000a02:	07a1                	addi	a5,a5,8 # 2000008 <__heap_size+0x1fe0008>
    80000a04:	4705                	li	a4,1
    80000a06:	c398                	sw	a4,0(a5)
  CLINT_REG(CLINT_MSIP3) = CLINT_MSIPEN; // call hart 3
    80000a08:	020007b7          	lui	a5,0x2000
    80000a0c:	07b1                	addi	a5,a5,12 # 200000c <__heap_size+0x1fe000c>
    80000a0e:	4705                	li	a4,1
    80000a10:	c398                	sw	a4,0(a5)
  // Do matrix multiplication
  matmul(mhartid, n_cores, DIM_SIZE, input1_data, input2_data, results_data);
    80000a12:	fe442503          	lw	a0,-28(s0)
    80000a16:	00002797          	auipc	a5,0x2
    80000a1a:	b6278793          	addi	a5,a5,-1182 # 80002578 <n_cores>
    80000a1e:	439c                	lw	a5,0(a5)
    80000a20:	0007859b          	sext.w	a1,a5
    80000a24:	00002797          	auipc	a5,0x2
    80000a28:	bcc78793          	addi	a5,a5,-1076 # 800025f0 <results_data>
    80000a2c:	00001717          	auipc	a4,0x1
    80000a30:	2a470713          	addi	a4,a4,676 # 80001cd0 <input2_data>
    80000a34:	00001697          	auipc	a3,0x1
    80000a38:	e9c68693          	addi	a3,a3,-356 # 800018d0 <input1_data>
    80000a3c:	4641                	li	a2,16
    80000a3e:	d61ff0ef          	jal	8000079e <matmul>
  barrier(n_cores);
    80000a42:	00002797          	auipc	a5,0x2
    80000a46:	b3678793          	addi	a5,a5,-1226 # 80002578 <n_cores>
    80000a4a:	439c                	lw	a5,0(a5)
    80000a4c:	2781                	sext.w	a5,a5
    80000a4e:	853e                	mv	a0,a5
    80000a50:	cd5ff0ef          	jal	80000724 <barrier>
  _c += read_csr(mcycle); // End counter
    80000a54:	b00027f3          	csrr	a5,mcycle
    80000a58:	fcf43423          	sd	a5,-56(s0)
    80000a5c:	fc843783          	ld	a5,-56(s0)
    80000a60:	fd043703          	ld	a4,-48(s0)
    80000a64:	97ba                	add	a5,a5,a4
    80000a66:	fcf43823          	sd	a5,-48(s0)
//  _i += read_csr(minstret);

  kprintf("\r\nDoing matrix multiplication in %d cycles.\r\n", _c);
    80000a6a:	fd043583          	ld	a1,-48(s0)
    80000a6e:	00001517          	auipc	a0,0x1
    80000a72:	d6250513          	addi	a0,a0,-670 # 800017d0 <__tbss_end+0x58>
    80000a76:	875ff0ef          	jal	800002ea <kprintf>
//  kprintf("\r\nDoing matrix multiplication in %d inst-ret.\r\n", _i);

  // Verify
  int res = verify(ARRAY_SIZE, results_data, verify_data);
    80000a7a:	00001617          	auipc	a2,0x1
    80000a7e:	65660613          	addi	a2,a2,1622 # 800020d0 <verify_data>
    80000a82:	00002597          	auipc	a1,0x2
    80000a86:	b6e58593          	addi	a1,a1,-1170 # 800025f0 <results_data>
    80000a8a:	10000513          	li	a0,256
    80000a8e:	b89ff0ef          	jal	80000616 <verify>
    80000a92:	87aa                	mv	a5,a0
    80000a94:	fcf42223          	sw	a5,-60(s0)
  if(!res)
    80000a98:	fc442783          	lw	a5,-60(s0)
    80000a9c:	2781                	sext.w	a5,a5
    80000a9e:	eb81                	bnez	a5,80000aae <main+0x10e>
    kprintf("Success !\r\n");
    80000aa0:	00001517          	auipc	a0,0x1
    80000aa4:	d6050513          	addi	a0,a0,-672 # 80001800 <__tbss_end+0x88>
    80000aa8:	843ff0ef          	jal	800002ea <kprintf>
    80000aac:	a811                	j	80000ac0 <main+0x120>
  else
    kprintf("Fail at %d !\r\n", res);
    80000aae:	fc442783          	lw	a5,-60(s0)
    80000ab2:	85be                	mv	a1,a5
    80000ab4:	00001517          	auipc	a0,0x1
    80000ab8:	d5c50513          	addi	a0,a0,-676 # 80001810 <__tbss_end+0x98>
    80000abc:	82fff0ef          	jal	800002ea <kprintf>

  return 0;
    80000ac0:	4781                	li	a5,0
}
    80000ac2:	853e                	mv	a0,a5
    80000ac4:	70e2                	ld	ra,56(sp)
    80000ac6:	7442                	ld	s0,48(sp)
    80000ac8:	6121                	addi	sp,sp,64
    80000aca:	8082                	ret

0000000080000acc <handle_trap>:
#define SOFT_INTERRUPT_TRAP 0x8000000000000003 // software interrupt trap

void _exit(int) __attribute__ ((noreturn));
void handle_msi();

uintptr_t handle_trap(uintptr_t epc, uintptr_t cause, uintptr_t tval, uintptr_t regs[32]) {
    80000acc:	715d                	addi	sp,sp,-80
    80000ace:	e486                	sd	ra,72(sp)
    80000ad0:	e0a2                	sd	s0,64(sp)
    80000ad2:	0880                	addi	s0,sp,80
    80000ad4:	fca43423          	sd	a0,-56(s0)
    80000ad8:	fcb43023          	sd	a1,-64(s0)
    80000adc:	fac43c23          	sd	a2,-72(s0)
    80000ae0:	fad43823          	sd	a3,-80(s0)
  if (cause == SOFT_INTERRUPT_TRAP) {
    80000ae4:	fc043703          	ld	a4,-64(s0)
    80000ae8:	57fd                	li	a5,-1
    80000aea:	17fe                	slli	a5,a5,0x3f
    80000aec:	078d                	addi	a5,a5,3
    80000aee:	02f71c63          	bne	a4,a5,80000b26 <handle_trap+0x5a>
    uint32_t mhartid = read_csr(mhartid);
    80000af2:	f14027f3          	csrr	a5,mhartid
    80000af6:	fcf43c23          	sd	a5,-40(s0)
    80000afa:	fd843783          	ld	a5,-40(s0)
    80000afe:	fcf42a23          	sw	a5,-44(s0)

    // clear the interrupt
    CLINT_REG(CLINT_MSIP_BASE + mhartid * 4) = CLINT_MSIPCLR;
    80000b02:	fd442783          	lw	a5,-44(s0)
    80000b06:	0027979b          	slliw	a5,a5,0x2
    80000b0a:	2781                	sext.w	a5,a5
    80000b0c:	02079713          	slli	a4,a5,0x20
    80000b10:	9301                	srli	a4,a4,0x20
    80000b12:	020007b7          	lui	a5,0x2000
    80000b16:	97ba                	add	a5,a5,a4
    80000b18:	0007a023          	sw	zero,0(a5) # 2000000 <__heap_size+0x1fe0000>
    // execute the interrupt handler
    handle_msi();
    80000b1c:	dc5ff0ef          	jal	800008e0 <handle_msi>

    return epc;
    80000b20:	fc843783          	ld	a5,-56(s0)
    80000b24:	a085                	j	80000b84 <handle_trap+0xb8>
  }

  int code = cause & ((1UL << ((sizeof(int)<<3)-1)) - 1);
    80000b26:	fc043783          	ld	a5,-64(s0)
    80000b2a:	0007871b          	sext.w	a4,a5
    80000b2e:	800007b7          	lui	a5,0x80000
    80000b32:	fff7c793          	not	a5,a5
    80000b36:	8ff9                	and	a5,a5,a4
    80000b38:	fef42623          	sw	a5,-20(s0)
  code = ((intptr_t)cause < 0) ? -code : code;
    80000b3c:	fc043783          	ld	a5,-64(s0)
    80000b40:	0007d863          	bgez	a5,80000b50 <handle_trap+0x84>
    80000b44:	fec42783          	lw	a5,-20(s0)
    80000b48:	40f007bb          	negw	a5,a5
    80000b4c:	2781                	sext.w	a5,a5
    80000b4e:	a019                	j	80000b54 <handle_trap+0x88>
    80000b50:	fec42783          	lw	a5,-20(s0)
    80000b54:	fef42623          	sw	a5,-20(s0)
  kprintf("Hart %d got trap: cause=%lx, epc=%lx\r\n",
          read_csr(mhartid), cause, epc);
    80000b58:	f14027f3          	csrr	a5,mhartid
    80000b5c:	fef43023          	sd	a5,-32(s0)
    80000b60:	fe043783          	ld	a5,-32(s0)
  kprintf("Hart %d got trap: cause=%lx, epc=%lx\r\n",
    80000b64:	fc843683          	ld	a3,-56(s0)
    80000b68:	fc043603          	ld	a2,-64(s0)
    80000b6c:	85be                	mv	a1,a5
    80000b6e:	00001517          	auipc	a0,0x1
    80000b72:	cb250513          	addi	a0,a0,-846 # 80001820 <__tbss_end+0xa8>
    80000b76:	f74ff0ef          	jal	800002ea <kprintf>

  // Default behavior for unhandled traps
  _exit(code);
    80000b7a:	fec42783          	lw	a5,-20(s0)
    80000b7e:	853e                	mv	a0,a5
    80000b80:	00e000ef          	jal	80000b8e <_exit>
  __builtin_unreachable(); // _exit doesn't return
    80000b84:	853e                	mv	a0,a5
    80000b86:	60a6                	ld	ra,72(sp)
    80000b88:	6406                	ld	s0,64(sp)
    80000b8a:	6161                	addi	sp,sp,80
    80000b8c:	8082                	ret

0000000080000b8e <_exit>:
#include "syscall.h"
#include "htif.h"

void __attribute__ ((noreturn)) _exit(int code)
{
    uint64_t cmd = HTIF_TOHOST(0, 0, (code << 1) | 0x1);
    80000b8e:	0015179b          	slliw	a5,a0,0x1
    80000b92:	0017e793          	ori	a5,a5,1
    80000b96:	2781                	sext.w	a5,a5
    80000b98:	07c2                	slli	a5,a5,0x10
    80000b9a:	83c1                	srli	a5,a5,0x10
    for (;;) {
        fromhost = 0;
    80000b9c:	00001717          	auipc	a4,0x1
    80000ba0:	d2073623          	sd	zero,-724(a4) # 800018c8 <fromhost>
        tohost = cmd;
    80000ba4:	00001717          	auipc	a4,0x1
    80000ba8:	d0f73e23          	sd	a5,-740(a4) # 800018c0 <tohost>
    80000bac:	bfc5                	j	80000b9c <_exit+0xe>

0000000080000bae <__init_tls>:
#include <string.h>

void __init_tls(void)
{
    80000bae:	1141                	addi	sp,sp,-16
    extern char __tdata_start[];
    extern char __tbss_offset[];
    extern char __tdata_size[];
    extern char __tbss_size[];

    memcpy(__thread_self, __tdata_start, (size_t)__tdata_size);
    80000bb0:	00000613          	li	a2,0
    80000bb4:	00001597          	auipc	a1,0x1
    80000bb8:	bbe58593          	addi	a1,a1,-1090 # 80001772 <__tdata_start>
    80000bbc:	8512                	mv	a0,tp
{
    80000bbe:	e022                	sd	s0,0(sp)
    80000bc0:	e406                	sd	ra,8(sp)
    memcpy(__thread_self, __tdata_start, (size_t)__tdata_size);
    80000bc2:	8412                	mv	s0,tp
    80000bc4:	5e0000ef          	jal	800011a4 <memcpy>
    memset(__thread_self + (size_t)__tbss_offset, 0, (size_t)__tbss_size);
    80000bc8:	00200513          	li	a0,2
    80000bcc:	9522                	add	a0,a0,s0
}
    80000bce:	6402                	ld	s0,0(sp)
    80000bd0:	60a2                	ld	ra,8(sp)
    memset(__thread_self + (size_t)__tbss_offset, 0, (size_t)__tbss_size);
    80000bd2:	00400613          	li	a2,4
    80000bd6:	4581                	li	a1,0
}
    80000bd8:	0141                	addi	sp,sp,16
    memset(__thread_self + (size_t)__tbss_offset, 0, (size_t)__tbss_size);
    80000bda:	ab6d                	j	80001194 <memset>

0000000080000bdc <htif_syscall>:
volatile uint64_t fromhost __attribute__ ((section (".htif")));

static spinlock_t htif_lock = SPINLOCK_INIT;

long htif_syscall(uint64_t a0, uint64_t a1, uint64_t a2, unsigned long n)
{
    80000bdc:	7139                	addi	sp,sp,-64
    volatile uint64_t buf[8];
    uint64_t sc;

    buf[0] = n;
    80000bde:	e036                	sd	a3,0(sp)
    buf[1] = a0;
    80000be0:	e42a                	sd	a0,8(sp)
    buf[2] = a1;
    80000be2:	e82e                	sd	a1,16(sp)
    buf[3] = a2;

    sc = HTIF_TOHOST(0, 0, (uintptr_t)&buf);
    80000be4:	57fd                	li	a5,-1
    buf[3] = a2;
    80000be6:	ec32                	sd	a2,24(sp)
    sc = HTIF_TOHOST(0, 0, (uintptr_t)&buf);
    80000be8:	83c1                	srli	a5,a5,0x10
    80000bea:	860a                	mv	a2,sp
    80000bec:	8e7d                	and	a2,a2,a5
    spin_lock(&htif_lock);
    80000bee:	84018713          	addi	a4,gp,-1984 # 800025b8 <htif_lock>

static inline long atomic_swap_acquire(atomic_t *p, atomic_t v)
{
    long n;
#ifdef __riscv_atomic
    __asm__ __volatile__ (
    80000bf2:	56fd                	li	a3,-1
    return *((volatile const atomic_t *)p);
    80000bf4:	431c                	lw	a5,0(a4)
    80000bf6:	2781                	sext.w	a5,a5

static inline void spin_lock(spinlock_t *lock)
{
    do {
#ifdef __riscv_atomic
        while (atomic_load(&lock->lock));
    80000bf8:	fff5                	bnez	a5,80000bf4 <htif_syscall+0x18>
    __asm__ __volatile__ (
    80000bfa:	0cd727af          	amoswap.w.aq	a5,a3,(a4)
#endif
    } while (atomic_swap_acquire(&lock->lock, -1));
    80000bfe:	fbfd                	bnez	a5,80000bf4 <htif_syscall+0x18>
static inline void wmb(void) { fence(w, w); }
    80000c00:	0110000f          	fence	w,w
    wmb();
    tohost = sc;
    80000c04:	00001697          	auipc	a3,0x1
    80000c08:	cbc68693          	addi	a3,a3,-836 # 800018c0 <tohost>
    80000c0c:	00001797          	auipc	a5,0x1
    80000c10:	cac7ba23          	sd	a2,-844(a5) # 800018c0 <tohost>
    while (fromhost == 0);
    80000c14:	669c                	ld	a5,8(a3)
    80000c16:	dffd                	beqz	a5,80000c14 <htif_syscall+0x38>
    fromhost = 0;
    80000c18:	00001797          	auipc	a5,0x1
    80000c1c:	ca07b823          	sd	zero,-848(a5) # 800018c8 <fromhost>
}

static inline void atomic_clear_release(atomic_t *p)
{
#ifdef __riscv_atomic
    __asm__ __volatile__ (
    80000c20:	0a07202f          	amoswap.w.rl	zero,zero,(a4)
static inline void rmb(void) { fence(r, r); }
    80000c24:	0220000f          	fence	r,r
    spin_unlock(&htif_lock);

    rmb();
    return buf[0];
    80000c28:	6502                	ld	a0,0(sp)
}
    80000c2a:	6121                	addi	sp,sp,64
    80000c2c:	8082                	ret

0000000080000c2e <atexit>:
    80000c2e:	85aa                	mv	a1,a0
    80000c30:	4681                	li	a3,0
    80000c32:	4601                	li	a2,0
    80000c34:	4501                	li	a0,0
    80000c36:	a351                	j	800011ba <__register_exitproc>

0000000080000c38 <exit>:
    80000c38:	1141                	addi	sp,sp,-16
    80000c3a:	e022                	sd	s0,0(sp)
    80000c3c:	e406                	sd	ra,8(sp)
    80000c3e:	00000797          	auipc	a5,0x0
    80000c42:	5f278793          	addi	a5,a5,1522 # 80001230 <__call_exitprocs>
    80000c46:	842a                	mv	s0,a0
    80000c48:	c781                	beqz	a5,80000c50 <exit+0x18>
    80000c4a:	4581                	li	a1,0
    80000c4c:	5e4000ef          	jal	80001230 <__call_exitprocs>
    80000c50:	8501b783          	ld	a5,-1968(gp) # 800025c8 <__stdio_exit_handler>
    80000c54:	c391                	beqz	a5,80000c58 <exit+0x20>
    80000c56:	9782                	jalr	a5
    80000c58:	8522                	mv	a0,s0
    80000c5a:	f35ff0ef          	jal	80000b8e <_exit>

0000000080000c5e <__fp_lock>:
    80000c5e:	4501                	li	a0,0
    80000c60:	8082                	ret

0000000080000c62 <std>:
    80000c62:	1141                	addi	sp,sp,-16
    80000c64:	e022                	sd	s0,0(sp)
    80000c66:	e406                	sd	ra,8(sp)
    80000c68:	842a                	mv	s0,a0
    80000c6a:	00b51823          	sh	a1,16(a0)
    80000c6e:	00c51923          	sh	a2,18(a0)
    80000c72:	00053023          	sd	zero,0(a0)
    80000c76:	00053423          	sd	zero,8(a0)
    80000c7a:	0a052623          	sw	zero,172(a0)
    80000c7e:	00053c23          	sd	zero,24(a0)
    80000c82:	02052023          	sw	zero,32(a0)
    80000c86:	02052423          	sw	zero,40(a0)
    80000c8a:	4621                	li	a2,8
    80000c8c:	4581                	li	a1,0
    80000c8e:	0a450513          	addi	a0,a0,164
    80000c92:	502000ef          	jal	80001194 <memset>
    80000c96:	00000797          	auipc	a5,0x0
    80000c9a:	22e78793          	addi	a5,a5,558 # 80000ec4 <__sread>
    80000c9e:	e03c                	sd	a5,64(s0)
    80000ca0:	00000797          	auipc	a5,0x0
    80000ca4:	25a78793          	addi	a5,a5,602 # 80000efa <__swrite>
    80000ca8:	e43c                	sd	a5,72(s0)
    80000caa:	00000797          	auipc	a5,0x0
    80000cae:	2a078793          	addi	a5,a5,672 # 80000f4a <__sseek>
    80000cb2:	e83c                	sd	a5,80(s0)
    80000cb4:	00000797          	auipc	a5,0x0
    80000cb8:	2ce78793          	addi	a5,a5,718 # 80000f82 <__sclose>
    80000cbc:	60a2                	ld	ra,8(sp)
    80000cbe:	fc00                	sd	s0,56(s0)
    80000cc0:	ec3c                	sd	a5,88(s0)
    80000cc2:	6402                	ld	s0,0(sp)
    80000cc4:	0141                	addi	sp,sp,16
    80000cc6:	8082                	ret

0000000080000cc8 <stdio_exit_handler>:
    80000cc8:	00002617          	auipc	a2,0x2
    80000ccc:	80860613          	addi	a2,a2,-2040 # 800024d0 <__sglue>
    80000cd0:	00001597          	auipc	a1,0x1
    80000cd4:	99658593          	addi	a1,a1,-1642 # 80001666 <_fflush_r>
    80000cd8:	00002517          	auipc	a0,0x2
    80000cdc:	81050513          	addi	a0,a0,-2032 # 800024e8 <_impure_data>
    80000ce0:	aaad                	j	80000e5a <_fwalk_sglue>

0000000080000ce2 <cleanup_stdio>:
    80000ce2:	650c                	ld	a1,8(a0)
    80000ce4:	1141                	addi	sp,sp,-16
    80000ce6:	e022                	sd	s0,0(sp)
    80000ce8:	e406                	sd	ra,8(sp)
    80000cea:	c8818793          	addi	a5,gp,-888 # 80002a00 <__sf>
    80000cee:	842a                	mv	s0,a0
    80000cf0:	00f58463          	beq	a1,a5,80000cf8 <cleanup_stdio+0x16>
    80000cf4:	173000ef          	jal	80001666 <_fflush_r>
    80000cf8:	680c                	ld	a1,16(s0)
    80000cfa:	d3818793          	addi	a5,gp,-712 # 80002ab0 <__sf+0xb0>
    80000cfe:	00f58563          	beq	a1,a5,80000d08 <cleanup_stdio+0x26>
    80000d02:	8522                	mv	a0,s0
    80000d04:	163000ef          	jal	80001666 <_fflush_r>
    80000d08:	6c0c                	ld	a1,24(s0)
    80000d0a:	de818793          	addi	a5,gp,-536 # 80002b60 <__sf+0x160>
    80000d0e:	00f58863          	beq	a1,a5,80000d1e <cleanup_stdio+0x3c>
    80000d12:	8522                	mv	a0,s0
    80000d14:	6402                	ld	s0,0(sp)
    80000d16:	60a2                	ld	ra,8(sp)
    80000d18:	0141                	addi	sp,sp,16
    80000d1a:	14d0006f          	j	80001666 <_fflush_r>
    80000d1e:	60a2                	ld	ra,8(sp)
    80000d20:	6402                	ld	s0,0(sp)
    80000d22:	0141                	addi	sp,sp,16
    80000d24:	8082                	ret

0000000080000d26 <global_stdio_init.part.0>:
    80000d26:	1141                	addi	sp,sp,-16
    80000d28:	00000797          	auipc	a5,0x0
    80000d2c:	fa078793          	addi	a5,a5,-96 # 80000cc8 <stdio_exit_handler>
    80000d30:	4601                	li	a2,0
    80000d32:	4591                	li	a1,4
    80000d34:	c8818513          	addi	a0,gp,-888 # 80002a00 <__sf>
    80000d38:	e406                	sd	ra,8(sp)
    80000d3a:	84f1b823          	sd	a5,-1968(gp) # 800025c8 <__stdio_exit_handler>
    80000d3e:	f25ff0ef          	jal	80000c62 <std>
    80000d42:	4605                	li	a2,1
    80000d44:	45a5                	li	a1,9
    80000d46:	d3818513          	addi	a0,gp,-712 # 80002ab0 <__sf+0xb0>
    80000d4a:	f19ff0ef          	jal	80000c62 <std>
    80000d4e:	60a2                	ld	ra,8(sp)
    80000d50:	4609                	li	a2,2
    80000d52:	45c9                	li	a1,18
    80000d54:	de818513          	addi	a0,gp,-536 # 80002b60 <__sf+0x160>
    80000d58:	0141                	addi	sp,sp,16
    80000d5a:	b721                	j	80000c62 <std>

0000000080000d5c <__fp_unlock>:
    80000d5c:	4501                	li	a0,0
    80000d5e:	8082                	ret

0000000080000d60 <__sfp>:
    80000d60:	1101                	addi	sp,sp,-32
    80000d62:	e04a                	sd	s2,0(sp)
    80000d64:	ec06                	sd	ra,24(sp)
    80000d66:	e822                	sd	s0,16(sp)
    80000d68:	e426                	sd	s1,8(sp)
    80000d6a:	8501b783          	ld	a5,-1968(gp) # 800025c8 <__stdio_exit_handler>
    80000d6e:	892a                	mv	s2,a0
    80000d70:	e399                	bnez	a5,80000d76 <__sfp+0x16>
    80000d72:	fb5ff0ef          	jal	80000d26 <global_stdio_init.part.0>
    80000d76:	00001497          	auipc	s1,0x1
    80000d7a:	75a48493          	addi	s1,s1,1882 # 800024d0 <__sglue>
    80000d7e:	6880                	ld	s0,16(s1)
    80000d80:	449c                	lw	a5,8(s1)
    80000d82:	37fd                	addiw	a5,a5,-1
    80000d84:	0207d163          	bgez	a5,80000da6 <__sfp+0x46>
    80000d88:	609c                	ld	a5,0(s1)
    80000d8a:	e7c1                	bnez	a5,80000e12 <__sfp+0xb2>
    80000d8c:	2d800593          	li	a1,728
    80000d90:	854a                	mv	a0,s2
    80000d92:	660000ef          	jal	800013f2 <_malloc_r>
    80000d96:	842a                	mv	s0,a0
    80000d98:	e12d                	bnez	a0,80000dfa <__sfp+0x9a>
    80000d9a:	0004b023          	sd	zero,0(s1)
    80000d9e:	47b1                	li	a5,12
    80000da0:	00f92023          	sw	a5,0(s2)
    80000da4:	a089                	j	80000de6 <__sfp+0x86>
    80000da6:	01041703          	lh	a4,16(s0)
    80000daa:	e729                	bnez	a4,80000df4 <__sfp+0x94>
    80000dac:	77c1                	lui	a5,0xffff0
    80000dae:	0785                	addi	a5,a5,1 # ffffffffffff0001 <__heap_end+0xffffffff7ffcd001>
    80000db0:	0a042623          	sw	zero,172(s0)
    80000db4:	00043023          	sd	zero,0(s0)
    80000db8:	00043423          	sd	zero,8(s0)
    80000dbc:	c81c                	sw	a5,16(s0)
    80000dbe:	00043c23          	sd	zero,24(s0)
    80000dc2:	02042023          	sw	zero,32(s0)
    80000dc6:	02042423          	sw	zero,40(s0)
    80000dca:	4621                	li	a2,8
    80000dcc:	4581                	li	a1,0
    80000dce:	0a440513          	addi	a0,s0,164
    80000dd2:	3c2000ef          	jal	80001194 <memset>
    80000dd6:	06043023          	sd	zero,96(s0)
    80000dda:	06042423          	sw	zero,104(s0)
    80000dde:	08043023          	sd	zero,128(s0)
    80000de2:	08042423          	sw	zero,136(s0)
    80000de6:	60e2                	ld	ra,24(sp)
    80000de8:	8522                	mv	a0,s0
    80000dea:	6442                	ld	s0,16(sp)
    80000dec:	64a2                	ld	s1,8(sp)
    80000dee:	6902                	ld	s2,0(sp)
    80000df0:	6105                	addi	sp,sp,32
    80000df2:	8082                	ret
    80000df4:	0b040413          	addi	s0,s0,176
    80000df8:	b769                	j	80000d82 <__sfp+0x22>
    80000dfa:	4791                	li	a5,4
    80000dfc:	00053023          	sd	zero,0(a0)
    80000e00:	c51c                	sw	a5,8(a0)
    80000e02:	0561                	addi	a0,a0,24
    80000e04:	e808                	sd	a0,16(s0)
    80000e06:	2c000613          	li	a2,704
    80000e0a:	4581                	li	a1,0
    80000e0c:	388000ef          	jal	80001194 <memset>
    80000e10:	e080                	sd	s0,0(s1)
    80000e12:	6084                	ld	s1,0(s1)
    80000e14:	b7ad                	j	80000d7e <__sfp+0x1e>

0000000080000e16 <__sinit>:
    80000e16:	613c                	ld	a5,64(a0)
    80000e18:	eb91                	bnez	a5,80000e2c <__sinit+0x16>
    80000e1a:	00000797          	auipc	a5,0x0
    80000e1e:	ec878793          	addi	a5,a5,-312 # 80000ce2 <cleanup_stdio>
    80000e22:	e13c                	sd	a5,64(a0)
    80000e24:	8501b783          	ld	a5,-1968(gp) # 800025c8 <__stdio_exit_handler>
    80000e28:	e391                	bnez	a5,80000e2c <__sinit+0x16>
    80000e2a:	bdf5                	j	80000d26 <global_stdio_init.part.0>
    80000e2c:	8082                	ret

0000000080000e2e <__sfp_lock_acquire>:
    80000e2e:	8082                	ret

0000000080000e30 <__sfp_lock_release>:
    80000e30:	8082                	ret

0000000080000e32 <__fp_lock_all>:
    80000e32:	00001617          	auipc	a2,0x1
    80000e36:	69e60613          	addi	a2,a2,1694 # 800024d0 <__sglue>
    80000e3a:	00000597          	auipc	a1,0x0
    80000e3e:	e2458593          	addi	a1,a1,-476 # 80000c5e <__fp_lock>
    80000e42:	4501                	li	a0,0
    80000e44:	a819                	j	80000e5a <_fwalk_sglue>

0000000080000e46 <__fp_unlock_all>:
    80000e46:	00001617          	auipc	a2,0x1
    80000e4a:	68a60613          	addi	a2,a2,1674 # 800024d0 <__sglue>
    80000e4e:	00000597          	auipc	a1,0x0
    80000e52:	f0e58593          	addi	a1,a1,-242 # 80000d5c <__fp_unlock>
    80000e56:	4501                	li	a0,0
    80000e58:	a009                	j	80000e5a <_fwalk_sglue>

0000000080000e5a <_fwalk_sglue>:
    80000e5a:	715d                	addi	sp,sp,-80
    80000e5c:	e0a2                	sd	s0,64(sp)
    80000e5e:	fc26                	sd	s1,56(sp)
    80000e60:	f44e                	sd	s3,40(sp)
    80000e62:	f052                	sd	s4,32(sp)
    80000e64:	e85a                	sd	s6,16(sp)
    80000e66:	e45e                	sd	s7,8(sp)
    80000e68:	e486                	sd	ra,72(sp)
    80000e6a:	f84a                	sd	s2,48(sp)
    80000e6c:	ec56                	sd	s5,24(sp)
    80000e6e:	89aa                	mv	s3,a0
    80000e70:	8a2e                	mv	s4,a1
    80000e72:	8432                	mv	s0,a2
    80000e74:	4481                	li	s1,0
    80000e76:	4b05                	li	s6,1
    80000e78:	5bfd                	li	s7,-1
    80000e7a:	01043903          	ld	s2,16(s0)
    80000e7e:	00842a83          	lw	s5,8(s0)
    80000e82:	3afd                	addiw	s5,s5,-1
    80000e84:	020ad063          	bgez	s5,80000ea4 <_fwalk_sglue+0x4a>
    80000e88:	6000                	ld	s0,0(s0)
    80000e8a:	f865                	bnez	s0,80000e7a <_fwalk_sglue+0x20>
    80000e8c:	60a6                	ld	ra,72(sp)
    80000e8e:	6406                	ld	s0,64(sp)
    80000e90:	7942                	ld	s2,48(sp)
    80000e92:	79a2                	ld	s3,40(sp)
    80000e94:	7a02                	ld	s4,32(sp)
    80000e96:	6ae2                	ld	s5,24(sp)
    80000e98:	6b42                	ld	s6,16(sp)
    80000e9a:	6ba2                	ld	s7,8(sp)
    80000e9c:	8526                	mv	a0,s1
    80000e9e:	74e2                	ld	s1,56(sp)
    80000ea0:	6161                	addi	sp,sp,80
    80000ea2:	8082                	ret
    80000ea4:	01095783          	lhu	a5,16(s2)
    80000ea8:	00fb7b63          	bgeu	s6,a5,80000ebe <_fwalk_sglue+0x64>
    80000eac:	01291783          	lh	a5,18(s2)
    80000eb0:	01778763          	beq	a5,s7,80000ebe <_fwalk_sglue+0x64>
    80000eb4:	85ca                	mv	a1,s2
    80000eb6:	854e                	mv	a0,s3
    80000eb8:	9a02                	jalr	s4
    80000eba:	8cc9                	or	s1,s1,a0
    80000ebc:	2481                	sext.w	s1,s1
    80000ebe:	0b090913          	addi	s2,s2,176
    80000ec2:	b7c1                	j	80000e82 <_fwalk_sglue+0x28>

0000000080000ec4 <__sread>:
    80000ec4:	1141                	addi	sp,sp,-16
    80000ec6:	e022                	sd	s0,0(sp)
    80000ec8:	842e                	mv	s0,a1
    80000eca:	01259583          	lh	a1,18(a1)
    80000ece:	e406                	sd	ra,8(sp)
    80000ed0:	1d8000ef          	jal	800010a8 <_read_r>
    80000ed4:	00054963          	bltz	a0,80000ee6 <__sread+0x22>
    80000ed8:	6c5c                	ld	a5,152(s0)
    80000eda:	97aa                	add	a5,a5,a0
    80000edc:	ec5c                	sd	a5,152(s0)
    80000ede:	60a2                	ld	ra,8(sp)
    80000ee0:	6402                	ld	s0,0(sp)
    80000ee2:	0141                	addi	sp,sp,16
    80000ee4:	8082                	ret
    80000ee6:	01045783          	lhu	a5,16(s0)
    80000eea:	777d                	lui	a4,0xfffff
    80000eec:	177d                	addi	a4,a4,-1 # ffffffffffffefff <__heap_end+0xffffffff7ffdbfff>
    80000eee:	8ff9                	and	a5,a5,a4
    80000ef0:	00f41823          	sh	a5,16(s0)
    80000ef4:	b7ed                	j	80000ede <__sread+0x1a>

0000000080000ef6 <__seofread>:
    80000ef6:	4501                	li	a0,0
    80000ef8:	8082                	ret

0000000080000efa <__swrite>:
    80000efa:	0105d783          	lhu	a5,16(a1)
    80000efe:	7179                	addi	sp,sp,-48
    80000f00:	f022                	sd	s0,32(sp)
    80000f02:	ec26                	sd	s1,24(sp)
    80000f04:	e84a                	sd	s2,16(sp)
    80000f06:	e44e                	sd	s3,8(sp)
    80000f08:	f406                	sd	ra,40(sp)
    80000f0a:	1007f793          	andi	a5,a5,256
    80000f0e:	84aa                	mv	s1,a0
    80000f10:	842e                	mv	s0,a1
    80000f12:	8932                	mv	s2,a2
    80000f14:	89b6                	mv	s3,a3
    80000f16:	c799                	beqz	a5,80000f24 <__swrite+0x2a>
    80000f18:	01259583          	lh	a1,18(a1)
    80000f1c:	4689                	li	a3,2
    80000f1e:	4601                	li	a2,0
    80000f20:	15c000ef          	jal	8000107c <_lseek_r>
    80000f24:	01045783          	lhu	a5,16(s0)
    80000f28:	777d                	lui	a4,0xfffff
    80000f2a:	177d                	addi	a4,a4,-1 # ffffffffffffefff <__heap_end+0xffffffff7ffdbfff>
    80000f2c:	8ff9                	and	a5,a5,a4
    80000f2e:	01241583          	lh	a1,18(s0)
    80000f32:	00f41823          	sh	a5,16(s0)
    80000f36:	7402                	ld	s0,32(sp)
    80000f38:	70a2                	ld	ra,40(sp)
    80000f3a:	86ce                	mv	a3,s3
    80000f3c:	864a                	mv	a2,s2
    80000f3e:	69a2                	ld	s3,8(sp)
    80000f40:	6942                	ld	s2,16(sp)
    80000f42:	8526                	mv	a0,s1
    80000f44:	64e2                	ld	s1,24(sp)
    80000f46:	6145                	addi	sp,sp,48
    80000f48:	a271                	j	800010d4 <_write_r>

0000000080000f4a <__sseek>:
    80000f4a:	1141                	addi	sp,sp,-16
    80000f4c:	e022                	sd	s0,0(sp)
    80000f4e:	842e                	mv	s0,a1
    80000f50:	01259583          	lh	a1,18(a1)
    80000f54:	e406                	sd	ra,8(sp)
    80000f56:	126000ef          	jal	8000107c <_lseek_r>
    80000f5a:	577d                	li	a4,-1
    80000f5c:	01045783          	lhu	a5,16(s0)
    80000f60:	00e51b63          	bne	a0,a4,80000f76 <__sseek+0x2c>
    80000f64:	777d                	lui	a4,0xfffff
    80000f66:	177d                	addi	a4,a4,-1 # ffffffffffffefff <__heap_end+0xffffffff7ffdbfff>
    80000f68:	8ff9                	and	a5,a5,a4
    80000f6a:	00f41823          	sh	a5,16(s0)
    80000f6e:	60a2                	ld	ra,8(sp)
    80000f70:	6402                	ld	s0,0(sp)
    80000f72:	0141                	addi	sp,sp,16
    80000f74:	8082                	ret
    80000f76:	6705                	lui	a4,0x1
    80000f78:	8fd9                	or	a5,a5,a4
    80000f7a:	00f41823          	sh	a5,16(s0)
    80000f7e:	ec48                	sd	a0,152(s0)
    80000f80:	b7fd                	j	80000f6e <__sseek+0x24>

0000000080000f82 <__sclose>:
    80000f82:	01259583          	lh	a1,18(a1)
    80000f86:	a009                	j	80000f88 <_close_r>

0000000080000f88 <_close_r>:
    80000f88:	1141                	addi	sp,sp,-16
    80000f8a:	e022                	sd	s0,0(sp)
    80000f8c:	842a                	mv	s0,a0
    80000f8e:	852e                	mv	a0,a1
    80000f90:	8401ac23          	sw	zero,-1960(gp) # 800025d0 <errno>
    80000f94:	e406                	sd	ra,8(sp)
    80000f96:	756000ef          	jal	800016ec <_close>
    80000f9a:	57fd                	li	a5,-1
    80000f9c:	00f51663          	bne	a0,a5,80000fa8 <_close_r+0x20>
    80000fa0:	8581a783          	lw	a5,-1960(gp) # 800025d0 <errno>
    80000fa4:	c391                	beqz	a5,80000fa8 <_close_r+0x20>
    80000fa6:	c01c                	sw	a5,0(s0)
    80000fa8:	60a2                	ld	ra,8(sp)
    80000faa:	6402                	ld	s0,0(sp)
    80000fac:	0141                	addi	sp,sp,16
    80000fae:	8082                	ret

0000000080000fb0 <_reclaim_reent>:
    80000fb0:	8101b783          	ld	a5,-2032(gp) # 80002588 <_impure_ptr>
    80000fb4:	0ca78363          	beq	a5,a0,8000107a <_reclaim_reent+0xca>
    80000fb8:	7d1c                	ld	a5,56(a0)
    80000fba:	7179                	addi	sp,sp,-48
    80000fbc:	f022                	sd	s0,32(sp)
    80000fbe:	f406                	sd	ra,40(sp)
    80000fc0:	ec26                	sd	s1,24(sp)
    80000fc2:	e84a                	sd	s2,16(sp)
    80000fc4:	e44e                	sd	s3,8(sp)
    80000fc6:	842a                	mv	s0,a0
    80000fc8:	cb8d                	beqz	a5,80000ffa <_reclaim_reent+0x4a>
    80000fca:	6f9c                	ld	a5,24(a5)
    80000fcc:	c38d                	beqz	a5,80000fee <_reclaim_reent+0x3e>
    80000fce:	4481                	li	s1,0
    80000fd0:	20000913          	li	s2,512
    80000fd4:	7c1c                	ld	a5,56(s0)
    80000fd6:	6f9c                	ld	a5,24(a5)
    80000fd8:	97a6                	add	a5,a5,s1
    80000fda:	638c                	ld	a1,0(a5)
    80000fdc:	e1c9                	bnez	a1,8000105e <_reclaim_reent+0xae>
    80000fde:	04a1                	addi	s1,s1,8
    80000fe0:	ff249ae3          	bne	s1,s2,80000fd4 <_reclaim_reent+0x24>
    80000fe4:	7c1c                	ld	a5,56(s0)
    80000fe6:	8522                	mv	a0,s0
    80000fe8:	6f8c                	ld	a1,24(a5)
    80000fea:	30e000ef          	jal	800012f8 <_free_r>
    80000fee:	7c1c                	ld	a5,56(s0)
    80000ff0:	638c                	ld	a1,0(a5)
    80000ff2:	c581                	beqz	a1,80000ffa <_reclaim_reent+0x4a>
    80000ff4:	8522                	mv	a0,s0
    80000ff6:	302000ef          	jal	800012f8 <_free_r>
    80000ffa:	740c                	ld	a1,40(s0)
    80000ffc:	c581                	beqz	a1,80001004 <_reclaim_reent+0x54>
    80000ffe:	8522                	mv	a0,s0
    80001000:	2f8000ef          	jal	800012f8 <_free_r>
    80001004:	7c0c                	ld	a1,56(s0)
    80001006:	c581                	beqz	a1,8000100e <_reclaim_reent+0x5e>
    80001008:	8522                	mv	a0,s0
    8000100a:	2ee000ef          	jal	800012f8 <_free_r>
    8000100e:	6c2c                	ld	a1,88(s0)
    80001010:	c581                	beqz	a1,80001018 <_reclaim_reent+0x68>
    80001012:	8522                	mv	a0,s0
    80001014:	2e4000ef          	jal	800012f8 <_free_r>
    80001018:	702c                	ld	a1,96(s0)
    8000101a:	c581                	beqz	a1,80001022 <_reclaim_reent+0x72>
    8000101c:	8522                	mv	a0,s0
    8000101e:	2da000ef          	jal	800012f8 <_free_r>
    80001022:	742c                	ld	a1,104(s0)
    80001024:	c581                	beqz	a1,8000102c <_reclaim_reent+0x7c>
    80001026:	8522                	mv	a0,s0
    80001028:	2d0000ef          	jal	800012f8 <_free_r>
    8000102c:	644c                	ld	a1,136(s0)
    8000102e:	c581                	beqz	a1,80001036 <_reclaim_reent+0x86>
    80001030:	8522                	mv	a0,s0
    80001032:	2c6000ef          	jal	800012f8 <_free_r>
    80001036:	604c                	ld	a1,128(s0)
    80001038:	c581                	beqz	a1,80001040 <_reclaim_reent+0x90>
    8000103a:	8522                	mv	a0,s0
    8000103c:	2bc000ef          	jal	800012f8 <_free_r>
    80001040:	682c                	ld	a1,80(s0)
    80001042:	c581                	beqz	a1,8000104a <_reclaim_reent+0x9a>
    80001044:	8522                	mv	a0,s0
    80001046:	2b2000ef          	jal	800012f8 <_free_r>
    8000104a:	603c                	ld	a5,64(s0)
    8000104c:	c385                	beqz	a5,8000106c <_reclaim_reent+0xbc>
    8000104e:	8522                	mv	a0,s0
    80001050:	7402                	ld	s0,32(sp)
    80001052:	70a2                	ld	ra,40(sp)
    80001054:	64e2                	ld	s1,24(sp)
    80001056:	6942                	ld	s2,16(sp)
    80001058:	69a2                	ld	s3,8(sp)
    8000105a:	6145                	addi	sp,sp,48
    8000105c:	8782                	jr	a5
    8000105e:	0005b983          	ld	s3,0(a1)
    80001062:	8522                	mv	a0,s0
    80001064:	294000ef          	jal	800012f8 <_free_r>
    80001068:	85ce                	mv	a1,s3
    8000106a:	bf8d                	j	80000fdc <_reclaim_reent+0x2c>
    8000106c:	70a2                	ld	ra,40(sp)
    8000106e:	7402                	ld	s0,32(sp)
    80001070:	64e2                	ld	s1,24(sp)
    80001072:	6942                	ld	s2,16(sp)
    80001074:	69a2                	ld	s3,8(sp)
    80001076:	6145                	addi	sp,sp,48
    80001078:	8082                	ret
    8000107a:	8082                	ret

000000008000107c <_lseek_r>:
    8000107c:	1141                	addi	sp,sp,-16
    8000107e:	e022                	sd	s0,0(sp)
    80001080:	842a                	mv	s0,a0
    80001082:	852e                	mv	a0,a1
    80001084:	85b2                	mv	a1,a2
    80001086:	8636                	mv	a2,a3
    80001088:	8401ac23          	sw	zero,-1960(gp) # 800025d0 <errno>
    8000108c:	e406                	sd	ra,8(sp)
    8000108e:	672000ef          	jal	80001700 <_lseek>
    80001092:	57fd                	li	a5,-1
    80001094:	00f51663          	bne	a0,a5,800010a0 <_lseek_r+0x24>
    80001098:	8581a783          	lw	a5,-1960(gp) # 800025d0 <errno>
    8000109c:	c391                	beqz	a5,800010a0 <_lseek_r+0x24>
    8000109e:	c01c                	sw	a5,0(s0)
    800010a0:	60a2                	ld	ra,8(sp)
    800010a2:	6402                	ld	s0,0(sp)
    800010a4:	0141                	addi	sp,sp,16
    800010a6:	8082                	ret

00000000800010a8 <_read_r>:
    800010a8:	1141                	addi	sp,sp,-16
    800010aa:	e022                	sd	s0,0(sp)
    800010ac:	842a                	mv	s0,a0
    800010ae:	852e                	mv	a0,a1
    800010b0:	85b2                	mv	a1,a2
    800010b2:	8636                	mv	a2,a3
    800010b4:	8401ac23          	sw	zero,-1960(gp) # 800025d0 <errno>
    800010b8:	e406                	sd	ra,8(sp)
    800010ba:	65a000ef          	jal	80001714 <_read>
    800010be:	57fd                	li	a5,-1
    800010c0:	00f51663          	bne	a0,a5,800010cc <_read_r+0x24>
    800010c4:	8581a783          	lw	a5,-1960(gp) # 800025d0 <errno>
    800010c8:	c391                	beqz	a5,800010cc <_read_r+0x24>
    800010ca:	c01c                	sw	a5,0(s0)
    800010cc:	60a2                	ld	ra,8(sp)
    800010ce:	6402                	ld	s0,0(sp)
    800010d0:	0141                	addi	sp,sp,16
    800010d2:	8082                	ret

00000000800010d4 <_write_r>:
    800010d4:	1141                	addi	sp,sp,-16
    800010d6:	e022                	sd	s0,0(sp)
    800010d8:	842a                	mv	s0,a0
    800010da:	852e                	mv	a0,a1
    800010dc:	85b2                	mv	a1,a2
    800010de:	8636                	mv	a2,a3
    800010e0:	8401ac23          	sw	zero,-1960(gp) # 800025d0 <errno>
    800010e4:	e406                	sd	ra,8(sp)
    800010e6:	67e000ef          	jal	80001764 <_write>
    800010ea:	57fd                	li	a5,-1
    800010ec:	00f51663          	bne	a0,a5,800010f8 <_write_r+0x24>
    800010f0:	8581a783          	lw	a5,-1960(gp) # 800025d0 <errno>
    800010f4:	c391                	beqz	a5,800010f8 <_write_r+0x24>
    800010f6:	c01c                	sw	a5,0(s0)
    800010f8:	60a2                	ld	ra,8(sp)
    800010fa:	6402                	ld	s0,0(sp)
    800010fc:	0141                	addi	sp,sp,16
    800010fe:	8082                	ret

0000000080001100 <__libc_init_array>:
    80001100:	1101                	addi	sp,sp,-32
    80001102:	e822                	sd	s0,16(sp)
    80001104:	e426                	sd	s1,8(sp)
    80001106:	00000417          	auipc	s0,0x0
    8000110a:	78a40413          	addi	s0,s0,1930 # 80001890 <__fini_array_end>
    8000110e:	00000497          	auipc	s1,0x0
    80001112:	78248493          	addi	s1,s1,1922 # 80001890 <__fini_array_end>
    80001116:	8c81                	sub	s1,s1,s0
    80001118:	e04a                	sd	s2,0(sp)
    8000111a:	ec06                	sd	ra,24(sp)
    8000111c:	848d                	srai	s1,s1,0x3
    8000111e:	4901                	li	s2,0
    80001120:	02991563          	bne	s2,s1,8000114a <__libc_init_array+0x4a>
    80001124:	00000417          	auipc	s0,0x0
    80001128:	76c40413          	addi	s0,s0,1900 # 80001890 <__fini_array_end>
    8000112c:	00000497          	auipc	s1,0x0
    80001130:	76448493          	addi	s1,s1,1892 # 80001890 <__fini_array_end>
    80001134:	8c81                	sub	s1,s1,s0
    80001136:	848d                	srai	s1,s1,0x3
    80001138:	4901                	li	s2,0
    8000113a:	00991d63          	bne	s2,s1,80001154 <__libc_init_array+0x54>
    8000113e:	60e2                	ld	ra,24(sp)
    80001140:	6442                	ld	s0,16(sp)
    80001142:	64a2                	ld	s1,8(sp)
    80001144:	6902                	ld	s2,0(sp)
    80001146:	6105                	addi	sp,sp,32
    80001148:	8082                	ret
    8000114a:	601c                	ld	a5,0(s0)
    8000114c:	0905                	addi	s2,s2,1
    8000114e:	0421                	addi	s0,s0,8
    80001150:	9782                	jalr	a5
    80001152:	b7f9                	j	80001120 <__libc_init_array+0x20>
    80001154:	601c                	ld	a5,0(s0)
    80001156:	0905                	addi	s2,s2,1
    80001158:	0421                	addi	s0,s0,8
    8000115a:	9782                	jalr	a5
    8000115c:	bff9                	j	8000113a <__libc_init_array+0x3a>

000000008000115e <__libc_fini_array>:
    8000115e:	1101                	addi	sp,sp,-32
    80001160:	e822                	sd	s0,16(sp)
    80001162:	e426                	sd	s1,8(sp)
    80001164:	00000417          	auipc	s0,0x0
    80001168:	72c40413          	addi	s0,s0,1836 # 80001890 <__fini_array_end>
    8000116c:	00000497          	auipc	s1,0x0
    80001170:	72448493          	addi	s1,s1,1828 # 80001890 <__fini_array_end>
    80001174:	8c05                	sub	s0,s0,s1
    80001176:	ec06                	sd	ra,24(sp)
    80001178:	840d                	srai	s0,s0,0x3
    8000117a:	e411                	bnez	s0,80001186 <__libc_fini_array+0x28>
    8000117c:	60e2                	ld	ra,24(sp)
    8000117e:	6442                	ld	s0,16(sp)
    80001180:	64a2                	ld	s1,8(sp)
    80001182:	6105                	addi	sp,sp,32
    80001184:	8082                	ret
    80001186:	147d                	addi	s0,s0,-1
    80001188:	00341793          	slli	a5,s0,0x3
    8000118c:	97a6                	add	a5,a5,s1
    8000118e:	639c                	ld	a5,0(a5)
    80001190:	9782                	jalr	a5
    80001192:	b7e5                	j	8000117a <__libc_fini_array+0x1c>

0000000080001194 <memset>:
    80001194:	832a                	mv	t1,a0
    80001196:	c611                	beqz	a2,800011a2 <memset+0xe>
    80001198:	00b30023          	sb	a1,0(t1)
    8000119c:	167d                	addi	a2,a2,-1
    8000119e:	0305                	addi	t1,t1,1
    800011a0:	fe65                	bnez	a2,80001198 <memset+0x4>
    800011a2:	8082                	ret

00000000800011a4 <memcpy>:
    800011a4:	832a                	mv	t1,a0
    800011a6:	ca09                	beqz	a2,800011b8 <memcpy+0x14>
    800011a8:	00058383          	lb	t2,0(a1)
    800011ac:	00730023          	sb	t2,0(t1)
    800011b0:	167d                	addi	a2,a2,-1
    800011b2:	0305                	addi	t1,t1,1
    800011b4:	0585                	addi	a1,a1,1
    800011b6:	fa6d                	bnez	a2,800011a8 <memcpy+0x4>
    800011b8:	8082                	ret

00000000800011ba <__register_exitproc>:
    800011ba:	88aa                	mv	a7,a0
    800011bc:	86018513          	addi	a0,gp,-1952 # 800025d8 <__atexit>
    800011c0:	6118                	ld	a4,0(a0)
    800011c2:	ef01                	bnez	a4,800011da <__register_exitproc+0x20>
    800011c4:	e9818793          	addi	a5,gp,-360 # 80002c10 <__atexit0>
    800011c8:	e11c                	sd	a5,0(a0)
    800011ca:	00000713          	li	a4,0
    800011ce:	c701                	beqz	a4,800011d6 <__register_exitproc+0x1c>
    800011d0:	6318                	ld	a4,0(a4)
    800011d2:	10e7b823          	sd	a4,272(a5)
    800011d6:	e9818713          	addi	a4,gp,-360 # 80002c10 <__atexit0>
    800011da:	471c                	lw	a5,8(a4)
    800011dc:	487d                	li	a6,31
    800011de:	557d                	li	a0,-1
    800011e0:	04f84763          	blt	a6,a5,8000122e <__register_exitproc+0x74>
    800011e4:	02088d63          	beqz	a7,8000121e <__register_exitproc+0x64>
    800011e8:	11073803          	ld	a6,272(a4) # 1110 <__stack_align+0x1100>
    800011ec:	04080163          	beqz	a6,8000122e <__register_exitproc+0x74>
    800011f0:	00379513          	slli	a0,a5,0x3
    800011f4:	9542                	add	a0,a0,a6
    800011f6:	e110                	sd	a2,0(a0)
    800011f8:	20082303          	lw	t1,512(a6)
    800011fc:	4605                	li	a2,1
    800011fe:	00f6163b          	sllw	a2,a2,a5
    80001202:	00c36333          	or	t1,t1,a2
    80001206:	20682023          	sw	t1,512(a6)
    8000120a:	10d53023          	sd	a3,256(a0)
    8000120e:	4689                	li	a3,2
    80001210:	00d89763          	bne	a7,a3,8000121e <__register_exitproc+0x64>
    80001214:	20482683          	lw	a3,516(a6)
    80001218:	8ed1                	or	a3,a3,a2
    8000121a:	20d82223          	sw	a3,516(a6)
    8000121e:	0017869b          	addiw	a3,a5,1
    80001222:	0789                	addi	a5,a5,2
    80001224:	078e                	slli	a5,a5,0x3
    80001226:	c714                	sw	a3,8(a4)
    80001228:	973e                	add	a4,a4,a5
    8000122a:	e30c                	sd	a1,0(a4)
    8000122c:	4501                	li	a0,0
    8000122e:	8082                	ret

0000000080001230 <__call_exitprocs>:
    80001230:	711d                	addi	sp,sp,-96
    80001232:	f852                	sd	s4,48(sp)
    80001234:	f456                	sd	s5,40(sp)
    80001236:	f05a                	sd	s6,32(sp)
    80001238:	ec5e                	sd	s7,24(sp)
    8000123a:	ec86                	sd	ra,88(sp)
    8000123c:	e8a2                	sd	s0,80(sp)
    8000123e:	e4a6                	sd	s1,72(sp)
    80001240:	e0ca                	sd	s2,64(sp)
    80001242:	fc4e                	sd	s3,56(sp)
    80001244:	e862                	sd	s8,16(sp)
    80001246:	e466                	sd	s9,8(sp)
    80001248:	8aaa                	mv	s5,a0
    8000124a:	8a2e                	mv	s4,a1
    8000124c:	86018b13          	addi	s6,gp,-1952 # 800025d8 <__atexit>
    80001250:	4b85                	li	s7,1
    80001252:	000b3483          	ld	s1,0(s6)
    80001256:	cc81                	beqz	s1,8000126e <__call_exitprocs+0x3e>
    80001258:	4480                	lw	s0,8(s1)
    8000125a:	1104b983          	ld	s3,272(s1)
    8000125e:	fff4091b          	addiw	s2,s0,-1
    80001262:	040e                	slli	s0,s0,0x3
    80001264:	00898cb3          	add	s9,s3,s0
    80001268:	9426                	add	s0,s0,s1
    8000126a:	00095f63          	bgez	s2,80001288 <__call_exitprocs+0x58>
    8000126e:	60e6                	ld	ra,88(sp)
    80001270:	6446                	ld	s0,80(sp)
    80001272:	64a6                	ld	s1,72(sp)
    80001274:	6906                	ld	s2,64(sp)
    80001276:	79e2                	ld	s3,56(sp)
    80001278:	7a42                	ld	s4,48(sp)
    8000127a:	7aa2                	ld	s5,40(sp)
    8000127c:	7b02                	ld	s6,32(sp)
    8000127e:	6be2                	ld	s7,24(sp)
    80001280:	6c42                	ld	s8,16(sp)
    80001282:	6ca2                	ld	s9,8(sp)
    80001284:	6125                	addi	sp,sp,96
    80001286:	8082                	ret
    80001288:	000a0c63          	beqz	s4,800012a0 <__call_exitprocs+0x70>
    8000128c:	00099663          	bnez	s3,80001298 <__call_exitprocs+0x68>
    80001290:	397d                	addiw	s2,s2,-1
    80001292:	1ce1                	addi	s9,s9,-8
    80001294:	1461                	addi	s0,s0,-8
    80001296:	bfd1                	j	8000126a <__call_exitprocs+0x3a>
    80001298:	0f8cb783          	ld	a5,248(s9)
    8000129c:	ff479ae3          	bne	a5,s4,80001290 <__call_exitprocs+0x60>
    800012a0:	449c                	lw	a5,8(s1)
    800012a2:	6418                	ld	a4,8(s0)
    800012a4:	37fd                	addiw	a5,a5,-1
    800012a6:	03279963          	bne	a5,s2,800012d8 <__call_exitprocs+0xa8>
    800012aa:	0124a423          	sw	s2,8(s1)
    800012ae:	d36d                	beqz	a4,80001290 <__call_exitprocs+0x60>
    800012b0:	0084ac03          	lw	s8,8(s1)
    800012b4:	00098963          	beqz	s3,800012c6 <__call_exitprocs+0x96>
    800012b8:	2009a783          	lw	a5,512(s3)
    800012bc:	012b96bb          	sllw	a3,s7,s2
    800012c0:	8ff5                	and	a5,a5,a3
    800012c2:	2781                	sext.w	a5,a5
    800012c4:	ef89                	bnez	a5,800012de <__call_exitprocs+0xae>
    800012c6:	9702                	jalr	a4
    800012c8:	4498                	lw	a4,8(s1)
    800012ca:	000b3783          	ld	a5,0(s6)
    800012ce:	f98712e3          	bne	a4,s8,80001252 <__call_exitprocs+0x22>
    800012d2:	faf48fe3          	beq	s1,a5,80001290 <__call_exitprocs+0x60>
    800012d6:	bfb5                	j	80001252 <__call_exitprocs+0x22>
    800012d8:	00043423          	sd	zero,8(s0)
    800012dc:	bfc9                	j	800012ae <__call_exitprocs+0x7e>
    800012de:	2049a783          	lw	a5,516(s3)
    800012e2:	ff8cb583          	ld	a1,-8(s9)
    800012e6:	8ff5                	and	a5,a5,a3
    800012e8:	2781                	sext.w	a5,a5
    800012ea:	e781                	bnez	a5,800012f2 <__call_exitprocs+0xc2>
    800012ec:	8556                	mv	a0,s5
    800012ee:	9702                	jalr	a4
    800012f0:	bfe1                	j	800012c8 <__call_exitprocs+0x98>
    800012f2:	852e                	mv	a0,a1
    800012f4:	9702                	jalr	a4
    800012f6:	bfc9                	j	800012c8 <__call_exitprocs+0x98>

00000000800012f8 <_free_r>:
    800012f8:	cdd9                	beqz	a1,80001396 <_free_r+0x9e>
    800012fa:	ff85b783          	ld	a5,-8(a1)
    800012fe:	1101                	addi	sp,sp,-32
    80001300:	e822                	sd	s0,16(sp)
    80001302:	ec06                	sd	ra,24(sp)
    80001304:	ff858413          	addi	s0,a1,-8
    80001308:	0007d363          	bgez	a5,8000130e <_free_r+0x16>
    8000130c:	943e                	add	s0,s0,a5
    8000130e:	e42a                	sd	a0,8(sp)
    80001310:	212000ef          	jal	80001522 <__malloc_lock>
    80001314:	87018713          	addi	a4,gp,-1936 # 800025e8 <__malloc_free_list>
    80001318:	631c                	ld	a5,0(a4)
    8000131a:	6522                	ld	a0,8(sp)
    8000131c:	eb81                	bnez	a5,8000132c <_free_r+0x34>
    8000131e:	00043423          	sd	zero,8(s0)
    80001322:	e300                	sd	s0,0(a4)
    80001324:	6442                	ld	s0,16(sp)
    80001326:	60e2                	ld	ra,24(sp)
    80001328:	6105                	addi	sp,sp,32
    8000132a:	aaed                	j	80001524 <__malloc_unlock>
    8000132c:	00f47d63          	bgeu	s0,a5,80001346 <_free_r+0x4e>
    80001330:	6010                	ld	a2,0(s0)
    80001332:	00c406b3          	add	a3,s0,a2
    80001336:	00d79663          	bne	a5,a3,80001342 <_free_r+0x4a>
    8000133a:	6394                	ld	a3,0(a5)
    8000133c:	679c                	ld	a5,8(a5)
    8000133e:	96b2                	add	a3,a3,a2
    80001340:	e014                	sd	a3,0(s0)
    80001342:	e41c                	sd	a5,8(s0)
    80001344:	bff9                	j	80001322 <_free_r+0x2a>
    80001346:	873e                	mv	a4,a5
    80001348:	679c                	ld	a5,8(a5)
    8000134a:	c399                	beqz	a5,80001350 <_free_r+0x58>
    8000134c:	fef47de3          	bgeu	s0,a5,80001346 <_free_r+0x4e>
    80001350:	6314                	ld	a3,0(a4)
    80001352:	00d70633          	add	a2,a4,a3
    80001356:	00861f63          	bne	a2,s0,80001374 <_free_r+0x7c>
    8000135a:	6010                	ld	a2,0(s0)
    8000135c:	96b2                	add	a3,a3,a2
    8000135e:	e314                	sd	a3,0(a4)
    80001360:	00d70633          	add	a2,a4,a3
    80001364:	fcc790e3          	bne	a5,a2,80001324 <_free_r+0x2c>
    80001368:	6390                	ld	a2,0(a5)
    8000136a:	679c                	ld	a5,8(a5)
    8000136c:	96b2                	add	a3,a3,a2
    8000136e:	e314                	sd	a3,0(a4)
    80001370:	e71c                	sd	a5,8(a4)
    80001372:	bf4d                	j	80001324 <_free_r+0x2c>
    80001374:	00c47563          	bgeu	s0,a2,8000137e <_free_r+0x86>
    80001378:	47b1                	li	a5,12
    8000137a:	c11c                	sw	a5,0(a0)
    8000137c:	b765                	j	80001324 <_free_r+0x2c>
    8000137e:	6010                	ld	a2,0(s0)
    80001380:	00c406b3          	add	a3,s0,a2
    80001384:	00d79663          	bne	a5,a3,80001390 <_free_r+0x98>
    80001388:	6394                	ld	a3,0(a5)
    8000138a:	679c                	ld	a5,8(a5)
    8000138c:	96b2                	add	a3,a3,a2
    8000138e:	e014                	sd	a3,0(s0)
    80001390:	e41c                	sd	a5,8(s0)
    80001392:	e700                	sd	s0,8(a4)
    80001394:	bf41                	j	80001324 <_free_r+0x2c>
    80001396:	8082                	ret

0000000080001398 <sbrk_aligned>:
    80001398:	1101                	addi	sp,sp,-32
    8000139a:	e04a                	sd	s2,0(sp)
    8000139c:	86818913          	addi	s2,gp,-1944 # 800025e0 <__malloc_sbrk_start>
    800013a0:	00093783          	ld	a5,0(s2)
    800013a4:	e822                	sd	s0,16(sp)
    800013a6:	e426                	sd	s1,8(sp)
    800013a8:	ec06                	sd	ra,24(sp)
    800013aa:	84aa                	mv	s1,a0
    800013ac:	842e                	mv	s0,a1
    800013ae:	e791                	bnez	a5,800013ba <sbrk_aligned+0x22>
    800013b0:	4581                	li	a1,0
    800013b2:	312000ef          	jal	800016c4 <_sbrk_r>
    800013b6:	00a93023          	sd	a0,0(s2)
    800013ba:	85a2                	mv	a1,s0
    800013bc:	8526                	mv	a0,s1
    800013be:	306000ef          	jal	800016c4 <_sbrk_r>
    800013c2:	597d                	li	s2,-1
    800013c4:	01251a63          	bne	a0,s2,800013d8 <sbrk_aligned+0x40>
    800013c8:	547d                	li	s0,-1
    800013ca:	60e2                	ld	ra,24(sp)
    800013cc:	8522                	mv	a0,s0
    800013ce:	6442                	ld	s0,16(sp)
    800013d0:	64a2                	ld	s1,8(sp)
    800013d2:	6902                	ld	s2,0(sp)
    800013d4:	6105                	addi	sp,sp,32
    800013d6:	8082                	ret
    800013d8:	00750413          	addi	s0,a0,7
    800013dc:	9861                	andi	s0,s0,-8
    800013de:	fe8506e3          	beq	a0,s0,800013ca <sbrk_aligned+0x32>
    800013e2:	40a405b3          	sub	a1,s0,a0
    800013e6:	8526                	mv	a0,s1
    800013e8:	2dc000ef          	jal	800016c4 <_sbrk_r>
    800013ec:	fd251fe3          	bne	a0,s2,800013ca <sbrk_aligned+0x32>
    800013f0:	bfe1                	j	800013c8 <sbrk_aligned+0x30>

00000000800013f2 <_malloc_r>:
    800013f2:	00758793          	addi	a5,a1,7
    800013f6:	7179                	addi	sp,sp,-48
    800013f8:	9be1                	andi	a5,a5,-8
    800013fa:	ec26                	sd	s1,24(sp)
    800013fc:	e84a                	sd	s2,16(sp)
    800013fe:	f406                	sd	ra,40(sp)
    80001400:	f022                	sd	s0,32(sp)
    80001402:	e44e                	sd	s3,8(sp)
    80001404:	e052                	sd	s4,0(sp)
    80001406:	07a1                	addi	a5,a5,8
    80001408:	4741                	li	a4,16
    8000140a:	892a                	mv	s2,a0
    8000140c:	44c1                	li	s1,16
    8000140e:	00e7e363          	bltu	a5,a4,80001414 <_malloc_r+0x22>
    80001412:	84be                	mv	s1,a5
    80001414:	80000737          	lui	a4,0x80000
    80001418:	fff74713          	not	a4,a4
    8000141c:	00f76463          	bltu	a4,a5,80001424 <_malloc_r+0x32>
    80001420:	00b4fe63          	bgeu	s1,a1,8000143c <_malloc_r+0x4a>
    80001424:	47b1                	li	a5,12
    80001426:	00f92023          	sw	a5,0(s2)
    8000142a:	4501                	li	a0,0
    8000142c:	70a2                	ld	ra,40(sp)
    8000142e:	7402                	ld	s0,32(sp)
    80001430:	64e2                	ld	s1,24(sp)
    80001432:	6942                	ld	s2,16(sp)
    80001434:	69a2                	ld	s3,8(sp)
    80001436:	6a02                	ld	s4,0(sp)
    80001438:	6145                	addi	sp,sp,48
    8000143a:	8082                	ret
    8000143c:	854a                	mv	a0,s2
    8000143e:	0e4000ef          	jal	80001522 <__malloc_lock>
    80001442:	87018993          	addi	s3,gp,-1936 # 800025e8 <__malloc_free_list>
    80001446:	0009b783          	ld	a5,0(s3)
    8000144a:	843e                	mv	s0,a5
    8000144c:	ec21                	bnez	s0,800014a4 <_malloc_r+0xb2>
    8000144e:	85a6                	mv	a1,s1
    80001450:	854a                	mv	a0,s2
    80001452:	f47ff0ef          	jal	80001398 <sbrk_aligned>
    80001456:	57fd                	li	a5,-1
    80001458:	842a                	mv	s0,a0
    8000145a:	0af51f63          	bne	a0,a5,80001518 <_malloc_r+0x126>
    8000145e:	0009b403          	ld	s0,0(s3)
    80001462:	87a2                	mv	a5,s0
    80001464:	efd1                	bnez	a5,80001500 <_malloc_r+0x10e>
    80001466:	c055                	beqz	s0,8000150a <_malloc_r+0x118>
    80001468:	00043a03          	ld	s4,0(s0)
    8000146c:	4581                	li	a1,0
    8000146e:	854a                	mv	a0,s2
    80001470:	9a22                	add	s4,s4,s0
    80001472:	252000ef          	jal	800016c4 <_sbrk_r>
    80001476:	08aa1a63          	bne	s4,a0,8000150a <_malloc_r+0x118>
    8000147a:	601c                	ld	a5,0(s0)
    8000147c:	854a                	mv	a0,s2
    8000147e:	8c9d                	sub	s1,s1,a5
    80001480:	85a6                	mv	a1,s1
    80001482:	f17ff0ef          	jal	80001398 <sbrk_aligned>
    80001486:	57fd                	li	a5,-1
    80001488:	08f50163          	beq	a0,a5,8000150a <_malloc_r+0x118>
    8000148c:	601c                	ld	a5,0(s0)
    8000148e:	97a6                	add	a5,a5,s1
    80001490:	e01c                	sd	a5,0(s0)
    80001492:	0009b783          	ld	a5,0(s3)
    80001496:	c3d9                	beqz	a5,8000151c <_malloc_r+0x12a>
    80001498:	6798                	ld	a4,8(a5)
    8000149a:	06871663          	bne	a4,s0,80001506 <_malloc_r+0x114>
    8000149e:	0007b423          	sd	zero,8(a5)
    800014a2:	a015                	j	800014c6 <_malloc_r+0xd4>
    800014a4:	6014                	ld	a3,0(s0)
    800014a6:	9e85                	subw	a3,a3,s1
    800014a8:	0406c963          	bltz	a3,800014fa <_malloc_r+0x108>
    800014ac:	473d                	li	a4,15
    800014ae:	02d75e63          	bge	a4,a3,800014ea <_malloc_r+0xf8>
    800014b2:	e004                	sd	s1,0(s0)
    800014b4:	00940733          	add	a4,s0,s1
    800014b8:	02879763          	bne	a5,s0,800014e6 <_malloc_r+0xf4>
    800014bc:	00e9b023          	sd	a4,0(s3)
    800014c0:	641c                	ld	a5,8(s0)
    800014c2:	e314                	sd	a3,0(a4)
    800014c4:	e71c                	sd	a5,8(a4)
    800014c6:	854a                	mv	a0,s2
    800014c8:	05c000ef          	jal	80001524 <__malloc_unlock>
    800014cc:	00f40513          	addi	a0,s0,15
    800014d0:	00840793          	addi	a5,s0,8
    800014d4:	9961                	andi	a0,a0,-8
    800014d6:	40f507bb          	subw	a5,a0,a5
    800014da:	dba9                	beqz	a5,8000142c <_malloc_r+0x3a>
    800014dc:	943e                	add	s0,s0,a5
    800014de:	40f007bb          	negw	a5,a5
    800014e2:	e01c                	sd	a5,0(s0)
    800014e4:	b7a1                	j	8000142c <_malloc_r+0x3a>
    800014e6:	e798                	sd	a4,8(a5)
    800014e8:	bfe1                	j	800014c0 <_malloc_r+0xce>
    800014ea:	6418                	ld	a4,8(s0)
    800014ec:	00879563          	bne	a5,s0,800014f6 <_malloc_r+0x104>
    800014f0:	00e9b023          	sd	a4,0(s3)
    800014f4:	bfc9                	j	800014c6 <_malloc_r+0xd4>
    800014f6:	e798                	sd	a4,8(a5)
    800014f8:	b7f9                	j	800014c6 <_malloc_r+0xd4>
    800014fa:	87a2                	mv	a5,s0
    800014fc:	6400                	ld	s0,8(s0)
    800014fe:	b7b9                	j	8000144c <_malloc_r+0x5a>
    80001500:	843e                	mv	s0,a5
    80001502:	679c                	ld	a5,8(a5)
    80001504:	b785                	j	80001464 <_malloc_r+0x72>
    80001506:	87ba                	mv	a5,a4
    80001508:	b779                	j	80001496 <_malloc_r+0xa4>
    8000150a:	47b1                	li	a5,12
    8000150c:	00f92023          	sw	a5,0(s2)
    80001510:	854a                	mv	a0,s2
    80001512:	012000ef          	jal	80001524 <__malloc_unlock>
    80001516:	bf11                	j	8000142a <_malloc_r+0x38>
    80001518:	e104                	sd	s1,0(a0)
    8000151a:	b775                	j	800014c6 <_malloc_r+0xd4>
    8000151c:	00003423          	sd	zero,8(zero) # 8 <__tcb_size+0x2>
    80001520:	9002                	ebreak

0000000080001522 <__malloc_lock>:
    80001522:	8082                	ret

0000000080001524 <__malloc_unlock>:
    80001524:	8082                	ret

0000000080001526 <__sflush_r>:
    80001526:	01059783          	lh	a5,16(a1)
    8000152a:	7179                	addi	sp,sp,-48
    8000152c:	f022                	sd	s0,32(sp)
    8000152e:	ec26                	sd	s1,24(sp)
    80001530:	f406                	sd	ra,40(sp)
    80001532:	e84a                	sd	s2,16(sp)
    80001534:	e44e                	sd	s3,8(sp)
    80001536:	0087f713          	andi	a4,a5,8
    8000153a:	84aa                	mv	s1,a0
    8000153c:	842e                	mv	s0,a1
    8000153e:	eb69                	bnez	a4,80001610 <__sflush_r+0xea>
    80001540:	4598                	lw	a4,8(a1)
    80001542:	00e04563          	bgtz	a4,8000154c <__sflush_r+0x26>
    80001546:	5db8                	lw	a4,120(a1)
    80001548:	0ae05b63          	blez	a4,800015fe <__sflush_r+0xd8>
    8000154c:	6838                	ld	a4,80(s0)
    8000154e:	cb45                	beqz	a4,800015fe <__sflush_r+0xd8>
    80001550:	0004a903          	lw	s2,0(s1)
    80001554:	03379693          	slli	a3,a5,0x33
    80001558:	0004a023          	sw	zero,0(s1)
    8000155c:	7c0c                	ld	a1,56(s0)
    8000155e:	0606de63          	bgez	a3,800015da <__sflush_r+0xb4>
    80001562:	6c50                	ld	a2,152(s0)
    80001564:	01045783          	lhu	a5,16(s0)
    80001568:	8b91                	andi	a5,a5,4
    8000156a:	c799                	beqz	a5,80001578 <__sflush_r+0x52>
    8000156c:	441c                	lw	a5,8(s0)
    8000156e:	8e1d                	sub	a2,a2,a5
    80001570:	703c                	ld	a5,96(s0)
    80001572:	c399                	beqz	a5,80001578 <__sflush_r+0x52>
    80001574:	5c3c                	lw	a5,120(s0)
    80001576:	8e1d                	sub	a2,a2,a5
    80001578:	683c                	ld	a5,80(s0)
    8000157a:	7c0c                	ld	a1,56(s0)
    8000157c:	4681                	li	a3,0
    8000157e:	8526                	mv	a0,s1
    80001580:	9782                	jalr	a5
    80001582:	577d                	li	a4,-1
    80001584:	01045783          	lhu	a5,16(s0)
    80001588:	00e51d63          	bne	a0,a4,800015a2 <__sflush_r+0x7c>
    8000158c:	4094                	lw	a3,0(s1)
    8000158e:	4775                	li	a4,29
    80001590:	06d76963          	bltu	a4,a3,80001602 <__sflush_r+0xdc>
    80001594:	20400737          	lui	a4,0x20400
    80001598:	0705                	addi	a4,a4,1 # 20400001 <__heap_size+0x203e0001>
    8000159a:	00d75733          	srl	a4,a4,a3
    8000159e:	8b05                	andi	a4,a4,1
    800015a0:	c32d                	beqz	a4,80001602 <__sflush_r+0xdc>
    800015a2:	6c18                	ld	a4,24(s0)
    800015a4:	00042423          	sw	zero,8(s0)
    800015a8:	e018                	sd	a4,0(s0)
    800015aa:	03379713          	slli	a4,a5,0x33
    800015ae:	00075863          	bgez	a4,800015be <__sflush_r+0x98>
    800015b2:	57fd                	li	a5,-1
    800015b4:	00f51463          	bne	a0,a5,800015bc <__sflush_r+0x96>
    800015b8:	409c                	lw	a5,0(s1)
    800015ba:	e391                	bnez	a5,800015be <__sflush_r+0x98>
    800015bc:	ec48                	sd	a0,152(s0)
    800015be:	702c                	ld	a1,96(s0)
    800015c0:	0124a023          	sw	s2,0(s1)
    800015c4:	cd8d                	beqz	a1,800015fe <__sflush_r+0xd8>
    800015c6:	07c40793          	addi	a5,s0,124
    800015ca:	00f58563          	beq	a1,a5,800015d4 <__sflush_r+0xae>
    800015ce:	8526                	mv	a0,s1
    800015d0:	d29ff0ef          	jal	800012f8 <_free_r>
    800015d4:	06043023          	sd	zero,96(s0)
    800015d8:	a01d                	j	800015fe <__sflush_r+0xd8>
    800015da:	4601                	li	a2,0
    800015dc:	4685                	li	a3,1
    800015de:	8526                	mv	a0,s1
    800015e0:	9702                	jalr	a4
    800015e2:	57fd                	li	a5,-1
    800015e4:	862a                	mv	a2,a0
    800015e6:	f6f51fe3          	bne	a0,a5,80001564 <__sflush_r+0x3e>
    800015ea:	409c                	lw	a5,0(s1)
    800015ec:	dfa5                	beqz	a5,80001564 <__sflush_r+0x3e>
    800015ee:	4775                	li	a4,29
    800015f0:	00e78563          	beq	a5,a4,800015fa <__sflush_r+0xd4>
    800015f4:	4759                	li	a4,22
    800015f6:	04e79663          	bne	a5,a4,80001642 <__sflush_r+0x11c>
    800015fa:	0124a023          	sw	s2,0(s1)
    800015fe:	4501                	li	a0,0
    80001600:	a881                	j	80001650 <__sflush_r+0x12a>
    80001602:	0407e793          	ori	a5,a5,64
    80001606:	0107979b          	slliw	a5,a5,0x10
    8000160a:	4107d79b          	sraiw	a5,a5,0x10
    8000160e:	a835                	j	8000164a <__sflush_r+0x124>
    80001610:	0185b983          	ld	s3,24(a1)
    80001614:	fe0985e3          	beqz	s3,800015fe <__sflush_r+0xd8>
    80001618:	0005b903          	ld	s2,0(a1)
    8000161c:	8b8d                	andi	a5,a5,3
    8000161e:	0135b023          	sd	s3,0(a1)
    80001622:	4139093b          	subw	s2,s2,s3
    80001626:	4701                	li	a4,0
    80001628:	e391                	bnez	a5,8000162c <__sflush_r+0x106>
    8000162a:	5198                	lw	a4,32(a1)
    8000162c:	c458                	sw	a4,12(s0)
    8000162e:	fd2058e3          	blez	s2,800015fe <__sflush_r+0xd8>
    80001632:	643c                	ld	a5,72(s0)
    80001634:	7c0c                	ld	a1,56(s0)
    80001636:	86ca                	mv	a3,s2
    80001638:	864e                	mv	a2,s3
    8000163a:	8526                	mv	a0,s1
    8000163c:	9782                	jalr	a5
    8000163e:	02a04063          	bgtz	a0,8000165e <__sflush_r+0x138>
    80001642:	01041783          	lh	a5,16(s0)
    80001646:	0407e793          	ori	a5,a5,64
    8000164a:	00f41823          	sh	a5,16(s0)
    8000164e:	557d                	li	a0,-1
    80001650:	70a2                	ld	ra,40(sp)
    80001652:	7402                	ld	s0,32(sp)
    80001654:	64e2                	ld	s1,24(sp)
    80001656:	6942                	ld	s2,16(sp)
    80001658:	69a2                	ld	s3,8(sp)
    8000165a:	6145                	addi	sp,sp,48
    8000165c:	8082                	ret
    8000165e:	99aa                	add	s3,s3,a0
    80001660:	40a9093b          	subw	s2,s2,a0
    80001664:	b7e9                	j	8000162e <__sflush_r+0x108>

0000000080001666 <_fflush_r>:
    80001666:	6d9c                	ld	a5,24(a1)
    80001668:	cb8d                	beqz	a5,8000169a <_fflush_r+0x34>
    8000166a:	1101                	addi	sp,sp,-32
    8000166c:	e822                	sd	s0,16(sp)
    8000166e:	ec06                	sd	ra,24(sp)
    80001670:	842a                	mv	s0,a0
    80001672:	c519                	beqz	a0,80001680 <_fflush_r+0x1a>
    80001674:	613c                	ld	a5,64(a0)
    80001676:	e789                	bnez	a5,80001680 <_fflush_r+0x1a>
    80001678:	e42e                	sd	a1,8(sp)
    8000167a:	f9cff0ef          	jal	80000e16 <__sinit>
    8000167e:	65a2                	ld	a1,8(sp)
    80001680:	01059783          	lh	a5,16(a1)
    80001684:	c791                	beqz	a5,80001690 <_fflush_r+0x2a>
    80001686:	8522                	mv	a0,s0
    80001688:	6442                	ld	s0,16(sp)
    8000168a:	60e2                	ld	ra,24(sp)
    8000168c:	6105                	addi	sp,sp,32
    8000168e:	bd61                	j	80001526 <__sflush_r>
    80001690:	60e2                	ld	ra,24(sp)
    80001692:	6442                	ld	s0,16(sp)
    80001694:	4501                	li	a0,0
    80001696:	6105                	addi	sp,sp,32
    80001698:	8082                	ret
    8000169a:	4501                	li	a0,0
    8000169c:	8082                	ret

000000008000169e <fflush>:
    8000169e:	85aa                	mv	a1,a0
    800016a0:	ed19                	bnez	a0,800016be <fflush+0x20>
    800016a2:	00001617          	auipc	a2,0x1
    800016a6:	e2e60613          	addi	a2,a2,-466 # 800024d0 <__sglue>
    800016aa:	00000597          	auipc	a1,0x0
    800016ae:	fbc58593          	addi	a1,a1,-68 # 80001666 <_fflush_r>
    800016b2:	00001517          	auipc	a0,0x1
    800016b6:	e3650513          	addi	a0,a0,-458 # 800024e8 <_impure_data>
    800016ba:	fa0ff06f          	j	80000e5a <_fwalk_sglue>
    800016be:	8101b503          	ld	a0,-2032(gp) # 80002588 <_impure_ptr>
    800016c2:	b755                	j	80001666 <_fflush_r>

00000000800016c4 <_sbrk_r>:
    800016c4:	1141                	addi	sp,sp,-16
    800016c6:	e022                	sd	s0,0(sp)
    800016c8:	842a                	mv	s0,a0
    800016ca:	852e                	mv	a0,a1
    800016cc:	8401ac23          	sw	zero,-1960(gp) # 800025d0 <errno>
    800016d0:	e406                	sd	ra,8(sp)
    800016d2:	058000ef          	jal	8000172a <_sbrk>
    800016d6:	57fd                	li	a5,-1
    800016d8:	00f51663          	bne	a0,a5,800016e4 <_sbrk_r+0x20>
    800016dc:	8581a783          	lw	a5,-1960(gp) # 800025d0 <errno>
    800016e0:	c391                	beqz	a5,800016e4 <_sbrk_r+0x20>
    800016e2:	c01c                	sw	a5,0(s0)
    800016e4:	60a2                	ld	ra,8(sp)
    800016e6:	6402                	ld	s0,0(sp)
    800016e8:	0141                	addi	sp,sp,16
    800016ea:	8082                	ret

00000000800016ec <_close>:
#include <errno.h>
#include "syscall.h"

int _close(int file)
{
    800016ec:	1141                	addi	sp,sp,-16
    800016ee:	e406                	sd	ra,8(sp)
    errno = EBADF;
    800016f0:	07c000ef          	jal	8000176c <__errno>
    return -1;
}
    800016f4:	60a2                	ld	ra,8(sp)
    errno = EBADF;
    800016f6:	47a5                	li	a5,9
    800016f8:	c11c                	sw	a5,0(a0)
}
    800016fa:	557d                	li	a0,-1
    800016fc:	0141                	addi	sp,sp,16
    800016fe:	8082                	ret

0000000080001700 <_lseek>:
#include <errno.h>
#include <sys/types.h>
#include "syscall.h"

off_t _lseek(int file, off_t ptr, int dir)
{
    80001700:	1141                	addi	sp,sp,-16
    80001702:	e406                	sd	ra,8(sp)
    errno = EBADF;
    80001704:	068000ef          	jal	8000176c <__errno>
    return -1;
}
    80001708:	60a2                	ld	ra,8(sp)
    errno = EBADF;
    8000170a:	47a5                	li	a5,9
    8000170c:	c11c                	sw	a5,0(a0)
}
    8000170e:	557d                	li	a0,-1
    80001710:	0141                	addi	sp,sp,16
    80001712:	8082                	ret

0000000080001714 <_read>:
#include <errno.h>
#include <sys/types.h>
#include "syscall.h"

ssize_t _read(int file, void *ptr, size_t len)
{
    80001714:	1141                	addi	sp,sp,-16
    80001716:	e406                	sd	ra,8(sp)
    errno = ENOSYS;
    80001718:	054000ef          	jal	8000176c <__errno>
    return -1;
}
    8000171c:	60a2                	ld	ra,8(sp)
    errno = ENOSYS;
    8000171e:	05800793          	li	a5,88
    80001722:	c11c                	sw	a5,0(a0)
}
    80001724:	557d                	li	a0,-1
    80001726:	0141                	addi	sp,sp,16
    80001728:	8082                	ret

000000008000172a <_sbrk>:
{
    extern char __heap_end[];
    char *newbrk;
    char *oldbrk;

    oldbrk = curbrk;
    8000172a:	82018793          	addi	a5,gp,-2016 # 80002598 <curbrk>
    8000172e:	639c                	ld	a5,0(a5)
    newbrk = oldbrk + incr;
    if (unlikely((newbrk < _end) || (newbrk >= __heap_end))) {
    80001730:	fb018713          	addi	a4,gp,-80 # 80002d28 <_end>
    newbrk = oldbrk + incr;
    80001734:	953e                	add	a0,a0,a5
    if (unlikely((newbrk < _end) || (newbrk >= __heap_end))) {
    80001736:	00e56c63          	bltu	a0,a4,8000174e <_sbrk+0x24>
    8000173a:	00022717          	auipc	a4,0x22
    8000173e:	8c670713          	addi	a4,a4,-1850 # 80023000 <__heap_end>
    80001742:	00e57663          	bgeu	a0,a4,8000174e <_sbrk+0x24>
        errno = ENOMEM;
        return (void *)(-1);
    }

    curbrk = newbrk;
    80001746:	82a1b023          	sd	a0,-2016(gp) # 80002598 <curbrk>
    return oldbrk;
}
    8000174a:	853e                	mv	a0,a5
    8000174c:	8082                	ret
{
    8000174e:	1141                	addi	sp,sp,-16
    80001750:	e406                	sd	ra,8(sp)
        errno = ENOMEM;
    80001752:	01a000ef          	jal	8000176c <__errno>
}
    80001756:	60a2                	ld	ra,8(sp)
        errno = ENOMEM;
    80001758:	47b1                	li	a5,12
    8000175a:	c11c                	sw	a5,0(a0)
        return (void *)(-1);
    8000175c:	57fd                	li	a5,-1
}
    8000175e:	853e                	mv	a0,a5
    80001760:	0141                	addi	sp,sp,16
    80001762:	8082                	ret

0000000080001764 <_write>:
#include <sys/types.h>
#include "syscall.h"

ssize_t _write(int fd, const void *ptr, size_t len)
{
    return SYSCALL3(SYS_write, fd, (uintptr_t)ptr, len);
    80001764:	04000693          	li	a3,64
    80001768:	c74ff06f          	j	80000bdc <htif_syscall>

000000008000176c <__errno>:
    8000176c:	8101b503          	ld	a0,-2032(gp) # 80002588 <_impure_ptr>
    80001770:	8082                	ret

Disassembly of section .rodata:

0000000080001778 <argv-0xd0>:
    80001778:	edae                	sd	a1,216(sp)
    8000177a:	ffff                	.insn	2, 0xffff
    8000177c:	ecb6                	sd	a3,88(sp)
    8000177e:	ffff                	.insn	2, 0xffff
    80001780:	ee42                	sd	a6,280(sp)
    80001782:	ffff                	.insn	2, 0xffff
    80001784:	ee42                	sd	a6,280(sp)
    80001786:	ffff                	.insn	2, 0xffff
    80001788:	ee42                	sd	a6,280(sp)
    8000178a:	ffff                	.insn	2, 0xffff
    8000178c:	ec00                	sd	s0,24(s0)
    8000178e:	ffff                	.insn	2, 0xffff
    80001790:	ee42                	sd	a6,280(sp)
    80001792:	ffff                	.insn	2, 0xffff
    80001794:	ee42                	sd	a6,280(sp)
    80001796:	ffff                	.insn	2, 0xffff
    80001798:	ee42                	sd	a6,280(sp)
    8000179a:	ffff                	.insn	2, 0xffff
    8000179c:	ebf8                	sd	a4,208(a5)
    8000179e:	ffff                	.insn	2, 0xffff
    800017a0:	ee42                	sd	a6,280(sp)
    800017a2:	ffff                	.insn	2, 0xffff
    800017a4:	ee42                	sd	a6,280(sp)
    800017a6:	ffff                	.insn	2, 0xffff
    800017a8:	ee42                	sd	a6,280(sp)
    800017aa:	ffff                	.insn	2, 0xffff
    800017ac:	ee42                	sd	a6,280(sp)
    800017ae:	ffff                	.insn	2, 0xffff
    800017b0:	ee42                	sd	a6,280(sp)
    800017b2:	ffff                	.insn	2, 0xffff
    800017b4:	ee42                	sd	a6,280(sp)
    800017b6:	ffff                	.insn	2, 0xffff
    800017b8:	ed98                	sd	a4,24(a1)
    800017ba:	ffff                	.insn	2, 0xffff
    800017bc:	ee42                	sd	a6,280(sp)
    800017be:	ffff                	.insn	2, 0xffff
    800017c0:	ee42                	sd	a6,280(sp)
    800017c2:	ffff                	.insn	2, 0xffff
    800017c4:	ee42                	sd	a6,280(sp)
    800017c6:	ffff                	.insn	2, 0xffff
    800017c8:	edc8                	sd	a0,152(a1)
    800017ca:	ffff                	.insn	2, 0xffff
    800017cc:	ec08                	sd	a0,24(s0)
    800017ce:	ffff                	.insn	2, 0xffff
    800017d0:	0a0d                	addi	s4,s4,3
    800017d2:	6f44                	ld	s1,152(a4)
    800017d4:	6e69                	lui	t3,0x1a
    800017d6:	616d2067          	.insn	4, 0x616d2067
    800017da:	7274                	ld	a3,224(a2)
    800017dc:	7869                	lui	a6,0xffffa
    800017de:	6d20                	ld	s0,88(a0)
    800017e0:	6c75                	lui	s8,0x1d
    800017e2:	6974                	ld	a3,208(a0)
    800017e4:	6c70                	ld	a2,216(s0)
    800017e6:	6369                	lui	t1,0x1a
    800017e8:	7461                	lui	s0,0xffff8
    800017ea:	6f69                	lui	t5,0x1a
    800017ec:	206e                	fld	ft0,216(sp)
    800017ee:	6e69                	lui	t3,0x1a
    800017f0:	2520                	fld	fs0,72(a0)
    800017f2:	2064                	fld	fs1,192(s0)
    800017f4:	6c637963          	bgeu	t1,t1,80001ec6 <input2_data+0x1f6>
    800017f8:	7365                	lui	t1,0xffff9
    800017fa:	0d2e                	slli	s10,s10,0xb
    800017fc:	000a                	c.slli	zero,0x2
    800017fe:	0000                	unimp
    80001800:	63637553          	.insn	4, 0x63637553
    80001804:	7365                	lui	t1,0xffff9
    80001806:	0d212073          	csrs	0xd2,sp
    8000180a:	000a                	c.slli	zero,0x2
    8000180c:	0000                	unimp
    8000180e:	0000                	unimp
    80001810:	6146                	ld	sp,80(sp)
    80001812:	6c69                	lui	s8,0x1a
    80001814:	6120                	ld	s0,64(a0)
    80001816:	2074                	fld	fa3,192(s0)
    80001818:	6425                	lui	s0,0x9
    8000181a:	2120                	fld	fs0,64(a0)
    8000181c:	0a0d                	addi	s4,s4,3
    8000181e:	0000                	unimp
    80001820:	6148                	ld	a0,128(a0)
    80001822:	7472                	ld	s0,312(sp)
    80001824:	2520                	fld	fs0,72(a0)
    80001826:	2064                	fld	fs1,192(s0)
    80001828:	20746f67          	.insn	4, 0x20746f67
    8000182c:	7274                	ld	a3,224(a2)
    8000182e:	7061                	c.lui	zero,0xffff8
    80001830:	203a                	fld	ft0,392(sp)
    80001832:	73756163          	bltu	a0,s7,80001f54 <input2_data+0x284>
    80001836:	3d65                	addiw	s10,s10,-7
    80001838:	6c25                	lui	s8,0x9
    8000183a:	2c78                	fld	fa4,216(s0)
    8000183c:	6520                	ld	s0,72(a0)
    8000183e:	6370                	ld	a2,192(a4)
    80001840:	253d                	addiw	a0,a0,15
    80001842:	786c                	ld	a1,240(s0)
    80001844:	0a0d                	addi	s4,s4,3
	...

0000000080001848 <argv>:
    80001848:	1858                	addi	a4,sp,52
    8000184a:	8000                	.insn	2, 0x8000
	...

0000000080001858 <name>:
    80001858:	70696863          	bltu	s2,t1,80001f68 <input2_data+0x298>
    8000185c:	6179                	addi	sp,sp,464
    8000185e:	6472                	ld	s0,280(sp)
	...

Disassembly of section .eh_frame:

0000000080001868 <.eh_frame>:
    80001868:	0010                	.insn	2, 0x0010
    8000186a:	0000                	unimp
    8000186c:	0000                	unimp
    8000186e:	0000                	unimp
    80001870:	7a01                	lui	s4,0xfffe0
    80001872:	0052                	c.slli	zero,0x14
    80001874:	7c01                	lui	s8,0xfffe0
    80001876:	0101                	addi	sp,sp,0
    80001878:	00020d1b          	sext.w	s10,tp
    8000187c:	0010                	.insn	2, 0x0010
    8000187e:	0000                	unimp
    80001880:	0018                	.insn	2, 0x0018
    80001882:	0000                	unimp
    80001884:	e77c                	sd	a5,200(a4)
    80001886:	ffff                	.insn	2, 0xffff
    80001888:	0146                	slli	sp,sp,0x11
    8000188a:	0000                	unimp
    8000188c:	0000                	unimp
	...

Disassembly of section .htif:

00000000800018c0 <tohost>:
	...

00000000800018c8 <fromhost>:
	...

Disassembly of section .data:

00000000800018d0 <input1_data>:
#define __DATASET_H
#define ARRAY_SIZE 256 

#define DIM_SIZE 16 

static int input1_data[ARRAY_SIZE] = 
    800018d0:	0000                	unimp
    800018d2:	0000                	unimp
    800018d4:	00000003          	lb	zero,0(zero) # 0 <__boot_hart>
    800018d8:	0002                	c.slli64	zero
    800018da:	0000                	unimp
    800018dc:	0000                	unimp
    800018de:	0000                	unimp
    800018e0:	00000003          	lb	zero,0(zero) # 0 <__boot_hart>
    800018e4:	0001                	nop
    800018e6:	0000                	unimp
    800018e8:	0000                	unimp
    800018ea:	0000                	unimp
    800018ec:	00000003          	lb	zero,0(zero) # 0 <__boot_hart>
    800018f0:	0002                	c.slli64	zero
    800018f2:	0000                	unimp
    800018f4:	00000003          	lb	zero,0(zero) # 0 <__boot_hart>
    800018f8:	0002                	c.slli64	zero
    800018fa:	0000                	unimp
    800018fc:	0000                	unimp
    800018fe:	0000                	unimp
    80001900:	00000003          	lb	zero,0(zero) # 0 <__boot_hart>
    80001904:	00000003          	lb	zero,0(zero) # 0 <__boot_hart>
    80001908:	0001                	nop
    8000190a:	0000                	unimp
    8000190c:	0002                	c.slli64	zero
    8000190e:	0000                	unimp
    80001910:	00000003          	lb	zero,0(zero) # 0 <__boot_hart>
	...
    8000191c:	0001                	nop
    8000191e:	0000                	unimp
    80001920:	0001                	nop
    80001922:	0000                	unimp
    80001924:	0001                	nop
    80001926:	0000                	unimp
    80001928:	0002                	c.slli64	zero
    8000192a:	0000                	unimp
    8000192c:	00000003          	lb	zero,0(zero) # 0 <__boot_hart>
    80001930:	0001                	nop
    80001932:	0000                	unimp
    80001934:	0002                	c.slli64	zero
    80001936:	0000                	unimp
    80001938:	00000003          	lb	zero,0(zero) # 0 <__boot_hart>
    8000193c:	0001                	nop
    8000193e:	0000                	unimp
    80001940:	0001                	nop
    80001942:	0000                	unimp
    80001944:	00000003          	lb	zero,0(zero) # 0 <__boot_hart>
    80001948:	0002                	c.slli64	zero
    8000194a:	0000                	unimp
    8000194c:	0002                	c.slli64	zero
    8000194e:	0000                	unimp
    80001950:	0000                	unimp
    80001952:	0000                	unimp
    80001954:	0001                	nop
    80001956:	0000                	unimp
    80001958:	00000003          	lb	zero,0(zero) # 0 <__boot_hart>
    8000195c:	0002                	c.slli64	zero
    8000195e:	0000                	unimp
    80001960:	0002                	c.slli64	zero
    80001962:	0000                	unimp
    80001964:	0002                	c.slli64	zero
	...
    8000196e:	0000                	unimp
    80001970:	0001                	nop
    80001972:	0000                	unimp
    80001974:	0000                	unimp
    80001976:	0000                	unimp
    80001978:	0001                	nop
    8000197a:	0000                	unimp
    8000197c:	00000003          	lb	zero,0(zero) # 0 <__boot_hart>
    80001980:	00000003          	lb	zero,0(zero) # 0 <__boot_hart>
    80001984:	0000                	unimp
    80001986:	0000                	unimp
    80001988:	00000003          	lb	zero,0(zero) # 0 <__boot_hart>
    8000198c:	00000003          	lb	zero,0(zero) # 0 <__boot_hart>
    80001990:	00000003          	lb	zero,0(zero) # 0 <__boot_hart>
    80001994:	00000003          	lb	zero,0(zero) # 0 <__boot_hart>
    80001998:	0000                	unimp
    8000199a:	0000                	unimp
    8000199c:	00000003          	lb	zero,0(zero) # 0 <__boot_hart>
    800019a0:	0002                	c.slli64	zero
    800019a2:	0000                	unimp
    800019a4:	0001                	nop
    800019a6:	0000                	unimp
    800019a8:	0002                	c.slli64	zero
    800019aa:	0000                	unimp
    800019ac:	0002                	c.slli64	zero
	...
    800019b6:	0000                	unimp
    800019b8:	00000003          	lb	zero,0(zero) # 0 <__boot_hart>
    800019bc:	0000                	unimp
    800019be:	0000                	unimp
    800019c0:	0001                	nop
    800019c2:	0000                	unimp
    800019c4:	0001                	nop
    800019c6:	0000                	unimp
    800019c8:	0000                	unimp
    800019ca:	0000                	unimp
    800019cc:	00000003          	lb	zero,0(zero) # 0 <__boot_hart>
    800019d0:	00000003          	lb	zero,0(zero) # 0 <__boot_hart>
    800019d4:	0001                	nop
    800019d6:	0000                	unimp
    800019d8:	0002                	c.slli64	zero
    800019da:	0000                	unimp
    800019dc:	00000003          	lb	zero,0(zero) # 0 <__boot_hart>
    800019e0:	00000003          	lb	zero,0(zero) # 0 <__boot_hart>
    800019e4:	0000                	unimp
    800019e6:	0000                	unimp
    800019e8:	0001                	nop
    800019ea:	0000                	unimp
    800019ec:	0002                	c.slli64	zero
    800019ee:	0000                	unimp
    800019f0:	0001                	nop
    800019f2:	0000                	unimp
    800019f4:	0000                	unimp
    800019f6:	0000                	unimp
    800019f8:	0001                	nop
    800019fa:	0000                	unimp
    800019fc:	0002                	c.slli64	zero
    800019fe:	0000                	unimp
    80001a00:	0002                	c.slli64	zero
    80001a02:	0000                	unimp
    80001a04:	0001                	nop
    80001a06:	0000                	unimp
    80001a08:	0000                	unimp
    80001a0a:	0000                	unimp
    80001a0c:	00000003          	lb	zero,0(zero) # 0 <__boot_hart>
    80001a10:	0001                	nop
    80001a12:	0000                	unimp
    80001a14:	0000                	unimp
    80001a16:	0000                	unimp
    80001a18:	0002                	c.slli64	zero
    80001a1a:	0000                	unimp
    80001a1c:	0002                	c.slli64	zero
    80001a1e:	0000                	unimp
    80001a20:	0001                	nop
    80001a22:	0000                	unimp
    80001a24:	0001                	nop
    80001a26:	0000                	unimp
    80001a28:	0001                	nop
    80001a2a:	0000                	unimp
    80001a2c:	0001                	nop
    80001a2e:	0000                	unimp
    80001a30:	0001                	nop
    80001a32:	0000                	unimp
    80001a34:	0001                	nop
    80001a36:	0000                	unimp
    80001a38:	0002                	c.slli64	zero
    80001a3a:	0000                	unimp
    80001a3c:	0000                	unimp
    80001a3e:	0000                	unimp
    80001a40:	00000003          	lb	zero,0(zero) # 0 <__boot_hart>
    80001a44:	0001                	nop
    80001a46:	0000                	unimp
    80001a48:	0001                	nop
    80001a4a:	0000                	unimp
    80001a4c:	0002                	c.slli64	zero
    80001a4e:	0000                	unimp
    80001a50:	0002                	c.slli64	zero
    80001a52:	0000                	unimp
    80001a54:	00000003          	lb	zero,0(zero) # 0 <__boot_hart>
    80001a58:	00000003          	lb	zero,0(zero) # 0 <__boot_hart>
    80001a5c:	0001                	nop
    80001a5e:	0000                	unimp
    80001a60:	00000003          	lb	zero,0(zero) # 0 <__boot_hart>
    80001a64:	0002                	c.slli64	zero
	...
    80001a72:	0000                	unimp
    80001a74:	00000003          	lb	zero,0(zero) # 0 <__boot_hart>
    80001a78:	00000003          	lb	zero,0(zero) # 0 <__boot_hart>
    80001a7c:	00000003          	lb	zero,0(zero) # 0 <__boot_hart>
    80001a80:	0002                	c.slli64	zero
    80001a82:	0000                	unimp
    80001a84:	0001                	nop
    80001a86:	0000                	unimp
    80001a88:	0002                	c.slli64	zero
    80001a8a:	0000                	unimp
    80001a8c:	00000003          	lb	zero,0(zero) # 0 <__boot_hart>
    80001a90:	0001                	nop
	...
    80001aa2:	0000                	unimp
    80001aa4:	0001                	nop
    80001aa6:	0000                	unimp
    80001aa8:	0002                	c.slli64	zero
    80001aaa:	0000                	unimp
    80001aac:	0002                	c.slli64	zero
    80001aae:	0000                	unimp
    80001ab0:	0001                	nop
    80001ab2:	0000                	unimp
    80001ab4:	0001                	nop
    80001ab6:	0000                	unimp
    80001ab8:	00000003          	lb	zero,0(zero) # 0 <__boot_hart>
    80001abc:	00000003          	lb	zero,0(zero) # 0 <__boot_hart>
    80001ac0:	00000003          	lb	zero,0(zero) # 0 <__boot_hart>
    80001ac4:	0001                	nop
    80001ac6:	0000                	unimp
    80001ac8:	0001                	nop
    80001aca:	0000                	unimp
    80001acc:	0002                	c.slli64	zero
    80001ace:	0000                	unimp
    80001ad0:	00000003          	lb	zero,0(zero) # 0 <__boot_hart>
    80001ad4:	0001                	nop
    80001ad6:	0000                	unimp
    80001ad8:	00000003          	lb	zero,0(zero) # 0 <__boot_hart>
    80001adc:	00000003          	lb	zero,0(zero) # 0 <__boot_hart>
    80001ae0:	0002                	c.slli64	zero
    80001ae2:	0000                	unimp
    80001ae4:	00000003          	lb	zero,0(zero) # 0 <__boot_hart>
    80001ae8:	0002                	c.slli64	zero
    80001aea:	0000                	unimp
    80001aec:	0001                	nop
    80001aee:	0000                	unimp
    80001af0:	0002                	c.slli64	zero
    80001af2:	0000                	unimp
    80001af4:	00000003          	lb	zero,0(zero) # 0 <__boot_hart>
    80001af8:	0000                	unimp
    80001afa:	0000                	unimp
    80001afc:	0002                	c.slli64	zero
    80001afe:	0000                	unimp
    80001b00:	0002                	c.slli64	zero
    80001b02:	0000                	unimp
    80001b04:	0001                	nop
    80001b06:	0000                	unimp
    80001b08:	0001                	nop
	...
    80001b1e:	0000                	unimp
    80001b20:	0001                	nop
    80001b22:	0000                	unimp
    80001b24:	00000003          	lb	zero,0(zero) # 0 <__boot_hart>
    80001b28:	00000003          	lb	zero,0(zero) # 0 <__boot_hart>
    80001b2c:	0001                	nop
    80001b2e:	0000                	unimp
    80001b30:	0001                	nop
    80001b32:	0000                	unimp
    80001b34:	0001                	nop
    80001b36:	0000                	unimp
    80001b38:	0002                	c.slli64	zero
    80001b3a:	0000                	unimp
    80001b3c:	0002                	c.slli64	zero
    80001b3e:	0000                	unimp
    80001b40:	00000003          	lb	zero,0(zero) # 0 <__boot_hart>
    80001b44:	0002                	c.slli64	zero
    80001b46:	0000                	unimp
    80001b48:	0001                	nop
    80001b4a:	0000                	unimp
    80001b4c:	0001                	nop
    80001b4e:	0000                	unimp
    80001b50:	0001                	nop
    80001b52:	0000                	unimp
    80001b54:	0001                	nop
    80001b56:	0000                	unimp
    80001b58:	00000003          	lb	zero,0(zero) # 0 <__boot_hart>
    80001b5c:	0000                	unimp
    80001b5e:	0000                	unimp
    80001b60:	0002                	c.slli64	zero
    80001b62:	0000                	unimp
    80001b64:	0002                	c.slli64	zero
    80001b66:	0000                	unimp
    80001b68:	0001                	nop
    80001b6a:	0000                	unimp
    80001b6c:	00000003          	lb	zero,0(zero) # 0 <__boot_hart>
    80001b70:	0002                	c.slli64	zero
    80001b72:	0000                	unimp
    80001b74:	0001                	nop
    80001b76:	0000                	unimp
    80001b78:	0002                	c.slli64	zero
    80001b7a:	0000                	unimp
    80001b7c:	0002                	c.slli64	zero
    80001b7e:	0000                	unimp
    80001b80:	0001                	nop
    80001b82:	0000                	unimp
    80001b84:	00000003          	lb	zero,0(zero) # 0 <__boot_hart>
    80001b88:	0001                	nop
    80001b8a:	0000                	unimp
    80001b8c:	00000003          	lb	zero,0(zero) # 0 <__boot_hart>
    80001b90:	0001                	nop
    80001b92:	0000                	unimp
    80001b94:	00000003          	lb	zero,0(zero) # 0 <__boot_hart>
    80001b98:	0002                	c.slli64	zero
    80001b9a:	0000                	unimp
    80001b9c:	00000003          	lb	zero,0(zero) # 0 <__boot_hart>
    80001ba0:	0001                	nop
    80001ba2:	0000                	unimp
    80001ba4:	0002                	c.slli64	zero
    80001ba6:	0000                	unimp
    80001ba8:	0001                	nop
    80001baa:	0000                	unimp
    80001bac:	00000003          	lb	zero,0(zero) # 0 <__boot_hart>
    80001bb0:	0002                	c.slli64	zero
    80001bb2:	0000                	unimp
    80001bb4:	0002                	c.slli64	zero
    80001bb6:	0000                	unimp
    80001bb8:	0000                	unimp
    80001bba:	0000                	unimp
    80001bbc:	0001                	nop
	...
    80001bc6:	0000                	unimp
    80001bc8:	0001                	nop
    80001bca:	0000                	unimp
    80001bcc:	0002                	c.slli64	zero
    80001bce:	0000                	unimp
    80001bd0:	00000003          	lb	zero,0(zero) # 0 <__boot_hart>
    80001bd4:	00000003          	lb	zero,0(zero) # 0 <__boot_hart>
    80001bd8:	0001                	nop
	...
    80001be6:	0000                	unimp
    80001be8:	00000003          	lb	zero,0(zero) # 0 <__boot_hart>
    80001bec:	0001                	nop
    80001bee:	0000                	unimp
    80001bf0:	0002                	c.slli64	zero
    80001bf2:	0000                	unimp
    80001bf4:	00000003          	lb	zero,0(zero) # 0 <__boot_hart>
    80001bf8:	0002                	c.slli64	zero
    80001bfa:	0000                	unimp
    80001bfc:	00000003          	lb	zero,0(zero) # 0 <__boot_hart>
    80001c00:	0002                	c.slli64	zero
	...
    80001c16:	0000                	unimp
    80001c18:	00000003          	lb	zero,0(zero) # 0 <__boot_hart>
    80001c1c:	0001                	nop
    80001c1e:	0000                	unimp
    80001c20:	00000003          	lb	zero,0(zero) # 0 <__boot_hart>
	...
    80001c30:	00000003          	lb	zero,0(zero) # 0 <__boot_hart>
    80001c34:	0001                	nop
    80001c36:	0000                	unimp
    80001c38:	0001                	nop
    80001c3a:	0000                	unimp
    80001c3c:	0001                	nop
    80001c3e:	0000                	unimp
    80001c40:	0001                	nop
    80001c42:	0000                	unimp
    80001c44:	0002                	c.slli64	zero
    80001c46:	0000                	unimp
    80001c48:	0001                	nop
    80001c4a:	0000                	unimp
    80001c4c:	0002                	c.slli64	zero
    80001c4e:	0000                	unimp
    80001c50:	00000003          	lb	zero,0(zero) # 0 <__boot_hart>
    80001c54:	0002                	c.slli64	zero
	...
    80001c5e:	0000                	unimp
    80001c60:	0002                	c.slli64	zero
    80001c62:	0000                	unimp
    80001c64:	0002                	c.slli64	zero
    80001c66:	0000                	unimp
    80001c68:	00000003          	lb	zero,0(zero) # 0 <__boot_hart>
    80001c6c:	0000                	unimp
    80001c6e:	0000                	unimp
    80001c70:	00000003          	lb	zero,0(zero) # 0 <__boot_hart>
	...
    80001c7c:	00000003          	lb	zero,0(zero) # 0 <__boot_hart>
    80001c80:	0000                	unimp
    80001c82:	0000                	unimp
    80001c84:	00000003          	lb	zero,0(zero) # 0 <__boot_hart>
    80001c88:	0001                	nop
    80001c8a:	0000                	unimp
    80001c8c:	00000003          	lb	zero,0(zero) # 0 <__boot_hart>
    80001c90:	00000003          	lb	zero,0(zero) # 0 <__boot_hart>
    80001c94:	0001                	nop
    80001c96:	0000                	unimp
    80001c98:	0001                	nop
    80001c9a:	0000                	unimp
    80001c9c:	0001                	nop
    80001c9e:	0000                	unimp
    80001ca0:	0002                	c.slli64	zero
    80001ca2:	0000                	unimp
    80001ca4:	0002                	c.slli64	zero
    80001ca6:	0000                	unimp
    80001ca8:	0001                	nop
    80001caa:	0000                	unimp
    80001cac:	00000003          	lb	zero,0(zero) # 0 <__boot_hart>
    80001cb0:	0000                	unimp
    80001cb2:	0000                	unimp
    80001cb4:	00000003          	lb	zero,0(zero) # 0 <__boot_hart>
    80001cb8:	00000003          	lb	zero,0(zero) # 0 <__boot_hart>
    80001cbc:	0001                	nop
	...
    80001cc6:	0000                	unimp
    80001cc8:	00000003          	lb	zero,0(zero) # 0 <__boot_hart>
    80001ccc:	0002                	c.slli64	zero
	...

0000000080001cd0 <input2_data>:
    2,   3,   2,   3,   2,   0,   0,   0,   0,   0,   3,   1,   3,   0,   0,   0,   3,   1,   1,   1, 
    1,   2,   1,   2,   3,   2,   0,   0,   2,   2,   3,   0,   3,   0,   0,   3,   0,   3,   1,   3, 
    3,   1,   1,   1,   2,   2,   1,   3,   0,   3,   3,   1,   0,   0,   3,   2
};

static int input2_data[ARRAY_SIZE] = 
    80001cd0:	0001                	nop
    80001cd2:	0000                	unimp
    80001cd4:	0001                	nop
    80001cd6:	0000                	unimp
    80001cd8:	0000                	unimp
    80001cda:	0000                	unimp
    80001cdc:	00000003          	lb	zero,0(zero) # 0 <__boot_hart>
    80001ce0:	0001                	nop
    80001ce2:	0000                	unimp
    80001ce4:	0002                	c.slli64	zero
	...
    80001cfa:	0000                	unimp
    80001cfc:	0002                	c.slli64	zero
    80001cfe:	0000                	unimp
    80001d00:	0001                	nop
    80001d02:	0000                	unimp
    80001d04:	0002                	c.slli64	zero
    80001d06:	0000                	unimp
    80001d08:	00000003          	lb	zero,0(zero) # 0 <__boot_hart>
	...
    80001d14:	00000003          	lb	zero,0(zero) # 0 <__boot_hart>
    80001d18:	00000003          	lb	zero,0(zero) # 0 <__boot_hart>
    80001d1c:	0002                	c.slli64	zero
    80001d1e:	0000                	unimp
    80001d20:	0002                	c.slli64	zero
    80001d22:	0000                	unimp
    80001d24:	0001                	nop
    80001d26:	0000                	unimp
    80001d28:	0002                	c.slli64	zero
    80001d2a:	0000                	unimp
    80001d2c:	00000003          	lb	zero,0(zero) # 0 <__boot_hart>
    80001d30:	00000003          	lb	zero,0(zero) # 0 <__boot_hart>
    80001d34:	0000                	unimp
    80001d36:	0000                	unimp
    80001d38:	0002                	c.slli64	zero
    80001d3a:	0000                	unimp
    80001d3c:	0002                	c.slli64	zero
    80001d3e:	0000                	unimp
    80001d40:	0001                	nop
    80001d42:	0000                	unimp
    80001d44:	0001                	nop
    80001d46:	0000                	unimp
    80001d48:	0002                	c.slli64	zero
    80001d4a:	0000                	unimp
    80001d4c:	0002                	c.slli64	zero
    80001d4e:	0000                	unimp
    80001d50:	0000                	unimp
    80001d52:	0000                	unimp
    80001d54:	0002                	c.slli64	zero
    80001d56:	0000                	unimp
    80001d58:	0002                	c.slli64	zero
    80001d5a:	0000                	unimp
    80001d5c:	0001                	nop
    80001d5e:	0000                	unimp
    80001d60:	0002                	c.slli64	zero
    80001d62:	0000                	unimp
    80001d64:	00000003          	lb	zero,0(zero) # 0 <__boot_hart>
    80001d68:	0002                	c.slli64	zero
    80001d6a:	0000                	unimp
    80001d6c:	0002                	c.slli64	zero
    80001d6e:	0000                	unimp
    80001d70:	00000003          	lb	zero,0(zero) # 0 <__boot_hart>
    80001d74:	00000003          	lb	zero,0(zero) # 0 <__boot_hart>
    80001d78:	0002                	c.slli64	zero
    80001d7a:	0000                	unimp
    80001d7c:	0002                	c.slli64	zero
    80001d7e:	0000                	unimp
    80001d80:	0001                	nop
    80001d82:	0000                	unimp
    80001d84:	0001                	nop
    80001d86:	0000                	unimp
    80001d88:	0001                	nop
    80001d8a:	0000                	unimp
    80001d8c:	0001                	nop
    80001d8e:	0000                	unimp
    80001d90:	0002                	c.slli64	zero
    80001d92:	0000                	unimp
    80001d94:	0001                	nop
    80001d96:	0000                	unimp
    80001d98:	0002                	c.slli64	zero
    80001d9a:	0000                	unimp
    80001d9c:	0002                	c.slli64	zero
    80001d9e:	0000                	unimp
    80001da0:	00000003          	lb	zero,0(zero) # 0 <__boot_hart>
    80001da4:	00000003          	lb	zero,0(zero) # 0 <__boot_hart>
    80001da8:	00000003          	lb	zero,0(zero) # 0 <__boot_hart>
	...
    80001db4:	00000003          	lb	zero,0(zero) # 0 <__boot_hart>
    80001db8:	0002                	c.slli64	zero
    80001dba:	0000                	unimp
    80001dbc:	00000003          	lb	zero,0(zero) # 0 <__boot_hart>
    80001dc0:	0002                	c.slli64	zero
    80001dc2:	0000                	unimp
    80001dc4:	00000003          	lb	zero,0(zero) # 0 <__boot_hart>
    80001dc8:	0001                	nop
    80001dca:	0000                	unimp
    80001dcc:	0002                	c.slli64	zero
    80001dce:	0000                	unimp
    80001dd0:	0001                	nop
    80001dd2:	0000                	unimp
    80001dd4:	0001                	nop
    80001dd6:	0000                	unimp
    80001dd8:	0002                	c.slli64	zero
    80001dda:	0000                	unimp
    80001ddc:	0002                	c.slli64	zero
    80001dde:	0000                	unimp
    80001de0:	0000                	unimp
    80001de2:	0000                	unimp
    80001de4:	0001                	nop
    80001de6:	0000                	unimp
    80001de8:	0000                	unimp
    80001dea:	0000                	unimp
    80001dec:	00000003          	lb	zero,0(zero) # 0 <__boot_hart>
    80001df0:	0002                	c.slli64	zero
    80001df2:	0000                	unimp
    80001df4:	0001                	nop
    80001df6:	0000                	unimp
    80001df8:	0001                	nop
    80001dfa:	0000                	unimp
    80001dfc:	0001                	nop
    80001dfe:	0000                	unimp
    80001e00:	0002                	c.slli64	zero
    80001e02:	0000                	unimp
    80001e04:	0000                	unimp
    80001e06:	0000                	unimp
    80001e08:	0001                	nop
    80001e0a:	0000                	unimp
    80001e0c:	0002                	c.slli64	zero
    80001e0e:	0000                	unimp
    80001e10:	0002                	c.slli64	zero
    80001e12:	0000                	unimp
    80001e14:	0000                	unimp
    80001e16:	0000                	unimp
    80001e18:	0002                	c.slli64	zero
    80001e1a:	0000                	unimp
    80001e1c:	0001                	nop
    80001e1e:	0000                	unimp
    80001e20:	00000003          	lb	zero,0(zero) # 0 <__boot_hart>
    80001e24:	00000003          	lb	zero,0(zero) # 0 <__boot_hart>
    80001e28:	0002                	c.slli64	zero
    80001e2a:	0000                	unimp
    80001e2c:	00000003          	lb	zero,0(zero) # 0 <__boot_hart>
    80001e30:	0002                	c.slli64	zero
    80001e32:	0000                	unimp
    80001e34:	0000                	unimp
    80001e36:	0000                	unimp
    80001e38:	00000003          	lb	zero,0(zero) # 0 <__boot_hart>
    80001e3c:	0001                	nop
    80001e3e:	0000                	unimp
    80001e40:	00000003          	lb	zero,0(zero) # 0 <__boot_hart>
    80001e44:	00000003          	lb	zero,0(zero) # 0 <__boot_hart>
    80001e48:	0002                	c.slli64	zero
    80001e4a:	0000                	unimp
    80001e4c:	0000                	unimp
    80001e4e:	0000                	unimp
    80001e50:	0001                	nop
    80001e52:	0000                	unimp
    80001e54:	0000                	unimp
    80001e56:	0000                	unimp
    80001e58:	0001                	nop
    80001e5a:	0000                	unimp
    80001e5c:	0001                	nop
    80001e5e:	0000                	unimp
    80001e60:	0002                	c.slli64	zero
    80001e62:	0000                	unimp
    80001e64:	0002                	c.slli64	zero
    80001e66:	0000                	unimp
    80001e68:	0001                	nop
    80001e6a:	0000                	unimp
    80001e6c:	0001                	nop
    80001e6e:	0000                	unimp
    80001e70:	0002                	c.slli64	zero
    80001e72:	0000                	unimp
    80001e74:	0002                	c.slli64	zero
    80001e76:	0000                	unimp
    80001e78:	0001                	nop
    80001e7a:	0000                	unimp
    80001e7c:	0002                	c.slli64	zero
    80001e7e:	0000                	unimp
    80001e80:	00000003          	lb	zero,0(zero) # 0 <__boot_hart>
    80001e84:	00000003          	lb	zero,0(zero) # 0 <__boot_hart>
    80001e88:	0001                	nop
    80001e8a:	0000                	unimp
    80001e8c:	00000003          	lb	zero,0(zero) # 0 <__boot_hart>
    80001e90:	0002                	c.slli64	zero
    80001e92:	0000                	unimp
    80001e94:	0002                	c.slli64	zero
    80001e96:	0000                	unimp
    80001e98:	0002                	c.slli64	zero
    80001e9a:	0000                	unimp
    80001e9c:	00000003          	lb	zero,0(zero) # 0 <__boot_hart>
    80001ea0:	00000003          	lb	zero,0(zero) # 0 <__boot_hart>
    80001ea4:	0001                	nop
    80001ea6:	0000                	unimp
    80001ea8:	0000                	unimp
    80001eaa:	0000                	unimp
    80001eac:	0002                	c.slli64	zero
    80001eae:	0000                	unimp
    80001eb0:	0001                	nop
	...
    80001ebe:	0000                	unimp
    80001ec0:	0001                	nop
    80001ec2:	0000                	unimp
    80001ec4:	0001                	nop
    80001ec6:	0000                	unimp
    80001ec8:	0002                	c.slli64	zero
    80001eca:	0000                	unimp
    80001ecc:	0000                	unimp
    80001ece:	0000                	unimp
    80001ed0:	00000003          	lb	zero,0(zero) # 0 <__boot_hart>
    80001ed4:	0002                	c.slli64	zero
    80001ed6:	0000                	unimp
    80001ed8:	00000003          	lb	zero,0(zero) # 0 <__boot_hart>
    80001edc:	00000003          	lb	zero,0(zero) # 0 <__boot_hart>
    80001ee0:	0000                	unimp
    80001ee2:	0000                	unimp
    80001ee4:	0002                	c.slli64	zero
    80001ee6:	0000                	unimp
    80001ee8:	00000003          	lb	zero,0(zero) # 0 <__boot_hart>
    80001eec:	0001                	nop
	...
    80001ef6:	0000                	unimp
    80001ef8:	0002                	c.slli64	zero
    80001efa:	0000                	unimp
    80001efc:	0001                	nop
    80001efe:	0000                	unimp
    80001f00:	0002                	c.slli64	zero
    80001f02:	0000                	unimp
    80001f04:	0000                	unimp
    80001f06:	0000                	unimp
    80001f08:	0002                	c.slli64	zero
    80001f0a:	0000                	unimp
    80001f0c:	0001                	nop
    80001f0e:	0000                	unimp
    80001f10:	0001                	nop
    80001f12:	0000                	unimp
    80001f14:	0002                	c.slli64	zero
    80001f16:	0000                	unimp
    80001f18:	00000003          	lb	zero,0(zero) # 0 <__boot_hart>
    80001f1c:	0001                	nop
    80001f1e:	0000                	unimp
    80001f20:	00000003          	lb	zero,0(zero) # 0 <__boot_hart>
    80001f24:	0002                	c.slli64	zero
    80001f26:	0000                	unimp
    80001f28:	0001                	nop
	...
    80001f3e:	0000                	unimp
    80001f40:	0002                	c.slli64	zero
    80001f42:	0000                	unimp
    80001f44:	0002                	c.slli64	zero
    80001f46:	0000                	unimp
    80001f48:	0000                	unimp
    80001f4a:	0000                	unimp
    80001f4c:	0002                	c.slli64	zero
    80001f4e:	0000                	unimp
    80001f50:	0001                	nop
    80001f52:	0000                	unimp
    80001f54:	0002                	c.slli64	zero
    80001f56:	0000                	unimp
    80001f58:	0000                	unimp
    80001f5a:	0000                	unimp
    80001f5c:	00000003          	lb	zero,0(zero) # 0 <__boot_hart>
    80001f60:	0002                	c.slli64	zero
    80001f62:	0000                	unimp
    80001f64:	0002                	c.slli64	zero
	...
    80001f6e:	0000                	unimp
    80001f70:	00000003          	lb	zero,0(zero) # 0 <__boot_hart>
    80001f74:	0002                	c.slli64	zero
    80001f76:	0000                	unimp
    80001f78:	0001                	nop
    80001f7a:	0000                	unimp
    80001f7c:	0001                	nop
    80001f7e:	0000                	unimp
    80001f80:	00000003          	lb	zero,0(zero) # 0 <__boot_hart>
    80001f84:	0000                	unimp
    80001f86:	0000                	unimp
    80001f88:	0002                	c.slli64	zero
	...
    80001f92:	0000                	unimp
    80001f94:	0001                	nop
    80001f96:	0000                	unimp
    80001f98:	0000                	unimp
    80001f9a:	0000                	unimp
    80001f9c:	0002                	c.slli64	zero
    80001f9e:	0000                	unimp
    80001fa0:	00000003          	lb	zero,0(zero) # 0 <__boot_hart>
    80001fa4:	00000003          	lb	zero,0(zero) # 0 <__boot_hart>
    80001fa8:	0001                	nop
    80001faa:	0000                	unimp
    80001fac:	00000003          	lb	zero,0(zero) # 0 <__boot_hart>
    80001fb0:	00000003          	lb	zero,0(zero) # 0 <__boot_hart>
	...
    80001fbc:	0002                	c.slli64	zero
    80001fbe:	0000                	unimp
    80001fc0:	0002                	c.slli64	zero
	...
    80001fce:	0000                	unimp
    80001fd0:	0001                	nop
	...
    80001fda:	0000                	unimp
    80001fdc:	0001                	nop
    80001fde:	0000                	unimp
    80001fe0:	00000003          	lb	zero,0(zero) # 0 <__boot_hart>
    80001fe4:	0000                	unimp
    80001fe6:	0000                	unimp
    80001fe8:	0002                	c.slli64	zero
    80001fea:	0000                	unimp
    80001fec:	0001                	nop
    80001fee:	0000                	unimp
    80001ff0:	00000003          	lb	zero,0(zero) # 0 <__boot_hart>
    80001ff4:	0002                	c.slli64	zero
    80001ff6:	0000                	unimp
    80001ff8:	0002                	c.slli64	zero
    80001ffa:	0000                	unimp
    80001ffc:	0001                	nop
    80001ffe:	0000                	unimp
    80002000:	00000003          	lb	zero,0(zero) # 0 <__boot_hart>
    80002004:	0002                	c.slli64	zero
    80002006:	0000                	unimp
    80002008:	0000                	unimp
    8000200a:	0000                	unimp
    8000200c:	0001                	nop
    8000200e:	0000                	unimp
    80002010:	0002                	c.slli64	zero
    80002012:	0000                	unimp
    80002014:	0002                	c.slli64	zero
    80002016:	0000                	unimp
    80002018:	00000003          	lb	zero,0(zero) # 0 <__boot_hart>
    8000201c:	0002                	c.slli64	zero
    8000201e:	0000                	unimp
    80002020:	0001                	nop
    80002022:	0000                	unimp
    80002024:	0001                	nop
    80002026:	0000                	unimp
    80002028:	0001                	nop
    8000202a:	0000                	unimp
    8000202c:	0001                	nop
    8000202e:	0000                	unimp
    80002030:	00000003          	lb	zero,0(zero) # 0 <__boot_hart>
    80002034:	0000                	unimp
    80002036:	0000                	unimp
    80002038:	0001                	nop
    8000203a:	0000                	unimp
    8000203c:	00000003          	lb	zero,0(zero) # 0 <__boot_hart>
    80002040:	0002                	c.slli64	zero
    80002042:	0000                	unimp
    80002044:	0002                	c.slli64	zero
    80002046:	0000                	unimp
    80002048:	00000003          	lb	zero,0(zero) # 0 <__boot_hart>
    8000204c:	0001                	nop
    8000204e:	0000                	unimp
    80002050:	0001                	nop
    80002052:	0000                	unimp
    80002054:	0002                	c.slli64	zero
    80002056:	0000                	unimp
    80002058:	0000                	unimp
    8000205a:	0000                	unimp
    8000205c:	0002                	c.slli64	zero
    8000205e:	0000                	unimp
    80002060:	0001                	nop
    80002062:	0000                	unimp
    80002064:	0001                	nop
    80002066:	0000                	unimp
    80002068:	0002                	c.slli64	zero
    8000206a:	0000                	unimp
    8000206c:	00000003          	lb	zero,0(zero) # 0 <__boot_hart>
    80002070:	0001                	nop
    80002072:	0000                	unimp
    80002074:	0000                	unimp
    80002076:	0000                	unimp
    80002078:	0001                	nop
    8000207a:	0000                	unimp
    8000207c:	0000                	unimp
    8000207e:	0000                	unimp
    80002080:	0001                	nop
    80002082:	0000                	unimp
    80002084:	0001                	nop
	...
    8000208e:	0000                	unimp
    80002090:	0002                	c.slli64	zero
    80002092:	0000                	unimp
    80002094:	0000                	unimp
    80002096:	0000                	unimp
    80002098:	00000003          	lb	zero,0(zero) # 0 <__boot_hart>
    8000209c:	0000                	unimp
    8000209e:	0000                	unimp
    800020a0:	00000003          	lb	zero,0(zero) # 0 <__boot_hart>
    800020a4:	0000                	unimp
    800020a6:	0000                	unimp
    800020a8:	00000003          	lb	zero,0(zero) # 0 <__boot_hart>
    800020ac:	0002                	c.slli64	zero
    800020ae:	0000                	unimp
    800020b0:	0002                	c.slli64	zero
    800020b2:	0000                	unimp
    800020b4:	00000003          	lb	zero,0(zero) # 0 <__boot_hart>
    800020b8:	00000003          	lb	zero,0(zero) # 0 <__boot_hart>
    800020bc:	0002                	c.slli64	zero
    800020be:	0000                	unimp
    800020c0:	0001                	nop
    800020c2:	0000                	unimp
    800020c4:	0000                	unimp
    800020c6:	0000                	unimp
    800020c8:	0002                	c.slli64	zero
    800020ca:	0000                	unimp
    800020cc:	0002                	c.slli64	zero
	...

00000000800020d0 <verify_data>:
    3,   2,   2,   1,   3,   2,   0,   1,   2,   2,   3,   2,   1,   1,   1,   1,   3,   0,   1,   3, 
    2,   2,   3,   1,   1,   2,   0,   2,   1,   1,   2,   3,   1,   0,   1,   0,   1,   1,   0,   0, 
    2,   0,   3,   0,   3,   0,   3,   2,   2,   3,   3,   2,   1,   0,   2,   2
};

static int verify_data[ARRAY_SIZE] = 
    800020d0:	0024                	addi	s1,sp,8
    800020d2:	0000                	unimp
    800020d4:	002c                	addi	a1,sp,8
    800020d6:	0000                	unimp
    800020d8:	0039                	c.nop	14
    800020da:	0000                	unimp
    800020dc:	0032                	c.slli	zero,0xc
    800020de:	0000                	unimp
    800020e0:	0036                	c.slli	zero,0xd
    800020e2:	0000                	unimp
    800020e4:	0024                	addi	s1,sp,8
    800020e6:	0000                	unimp
    800020e8:	0026                	c.slli	zero,0x9
    800020ea:	0000                	unimp
    800020ec:	002e                	c.slli	zero,0xb
    800020ee:	0000                	unimp
    800020f0:	00000037          	lui	zero,0x0
    800020f4:	0019                	c.nop	6
    800020f6:	0000                	unimp
    800020f8:	0026                	c.slli	zero,0x9
    800020fa:	0000                	unimp
    800020fc:	0022                	c.slli	zero,0x8
    800020fe:	0000                	unimp
    80002100:	00000033          	add	zero,zero,zero
    80002104:	001e                	c.slli	zero,0x7
    80002106:	0000                	unimp
    80002108:	0028                	addi	a0,sp,8
    8000210a:	0000                	unimp
    8000210c:	0020                	addi	s0,sp,8
    8000210e:	0000                	unimp
    80002110:	0025                	c.nop	9
    80002112:	0000                	unimp
    80002114:	0022                	c.slli	zero,0x8
    80002116:	0000                	unimp
    80002118:	0026                	c.slli	zero,0x9
    8000211a:	0000                	unimp
    8000211c:	0034                	addi	a3,sp,8
    8000211e:	0000                	unimp
    80002120:	00000033          	add	zero,zero,zero
    80002124:	0028                	addi	a0,sp,8
    80002126:	0000                	unimp
    80002128:	001c                	.insn	2, 0x001c
    8000212a:	0000                	unimp
    8000212c:	0020                	addi	s0,sp,8
    8000212e:	0000                	unimp
    80002130:	0029                	c.nop	10
    80002132:	0000                	unimp
    80002134:	0016                	c.slli	zero,0x5
    80002136:	0000                	unimp
    80002138:	001a                	c.slli	zero,0x6
    8000213a:	0000                	unimp
    8000213c:	00000023          	sb	zero,0(zero) # 0 <__boot_hart>
    80002140:	0031                	c.nop	12
    80002142:	0000                	unimp
    80002144:	00000023          	sb	zero,0(zero) # 0 <__boot_hart>
    80002148:	002a                	c.slli	zero,0xa
    8000214a:	0000                	unimp
    8000214c:	00000017          	auipc	zero,0x0
    80002150:	001a                	c.slli	zero,0x6
    80002152:	0000                	unimp
    80002154:	001a                	c.slli	zero,0x6
    80002156:	0000                	unimp
    80002158:	0021                	c.nop	8
    8000215a:	0000                	unimp
    8000215c:	0024                	addi	s1,sp,8
    8000215e:	0000                	unimp
    80002160:	0034                	addi	a3,sp,8
    80002162:	0000                	unimp
    80002164:	0028                	addi	a0,sp,8
    80002166:	0000                	unimp
    80002168:	002d                	c.nop	11
    8000216a:	0000                	unimp
    8000216c:	0031                	c.nop	12
    8000216e:	0000                	unimp
    80002170:	0032                	c.slli	zero,0xc
    80002172:	0000                	unimp
    80002174:	0022                	c.slli	zero,0x8
    80002176:	0000                	unimp
    80002178:	0029                	c.nop	10
    8000217a:	0000                	unimp
    8000217c:	00000023          	sb	zero,0(zero) # 0 <__boot_hart>
    80002180:	002c                	addi	a1,sp,8
    80002182:	0000                	unimp
    80002184:	0019                	c.nop	6
    80002186:	0000                	unimp
    80002188:	00000017          	auipc	zero,0x0
    8000218c:	00000017          	auipc	zero,0x0
    80002190:	001f 0000 001d      	.insn	6, 0x001d0000001f
    80002196:	0000                	unimp
    80002198:	00000027          	.insn	4, 0x0027
    8000219c:	002e                	c.slli	zero,0xb
    8000219e:	0000                	unimp
    800021a0:	0032                	c.slli	zero,0xc
    800021a2:	0000                	unimp
    800021a4:	0024                	addi	s1,sp,8
    800021a6:	0000                	unimp
    800021a8:	001f 0000 0020      	.insn	6, 0x00200000001f
    800021ae:	0000                	unimp
    800021b0:	002a                	c.slli	zero,0xa
    800021b2:	0000                	unimp
    800021b4:	0020                	addi	s0,sp,8
    800021b6:	0000                	unimp
    800021b8:	0022                	c.slli	zero,0x8
    800021ba:	0000                	unimp
    800021bc:	0029                	c.nop	10
    800021be:	0000                	unimp
    800021c0:	002c                	addi	a1,sp,8
    800021c2:	0000                	unimp
    800021c4:	0021                	c.nop	8
    800021c6:	0000                	unimp
    800021c8:	0000002b          	.insn	4, 0x002b
    800021cc:	001e                	c.slli	zero,0x7
    800021ce:	0000                	unimp
    800021d0:	001f 0000 001c      	.insn	6, 0x001c0000001f
    800021d6:	0000                	unimp
    800021d8:	00000027          	.insn	4, 0x0027
    800021dc:	002e                	c.slli	zero,0xb
    800021de:	0000                	unimp
    800021e0:	0032                	c.slli	zero,0xc
    800021e2:	0000                	unimp
    800021e4:	0028                	addi	a0,sp,8
    800021e6:	0000                	unimp
    800021e8:	00000023          	sb	zero,0(zero) # 0 <__boot_hart>
    800021ec:	0025                	c.nop	9
    800021ee:	0000                	unimp
    800021f0:	0000002b          	.insn	4, 0x002b
    800021f4:	00000023          	sb	zero,0(zero) # 0 <__boot_hart>
    800021f8:	0021                	c.nop	8
    800021fa:	0000                	unimp
    800021fc:	0000002b          	.insn	4, 0x002b
    80002200:	0000002b          	.insn	4, 0x002b
    80002204:	001d                	c.nop	7
    80002206:	0000                	unimp
    80002208:	0025                	c.nop	9
    8000220a:	0000                	unimp
    8000220c:	001d                	c.nop	7
    8000220e:	0000                	unimp
    80002210:	0000001b          	sext.w	zero,zero
    80002214:	0016                	c.slli	zero,0x5
    80002216:	0000                	unimp
    80002218:	001e                	c.slli	zero,0x7
    8000221a:	0000                	unimp
    8000221c:	0021                	c.nop	8
    8000221e:	0000                	unimp
    80002220:	0000002b          	.insn	4, 0x002b
    80002224:	001f 0000 0020      	.insn	6, 0x00200000001f
    8000222a:	0000                	unimp
    8000222c:	0019                	c.nop	6
    8000222e:	0000                	unimp
    80002230:	0024                	addi	s1,sp,8
    80002232:	0000                	unimp
    80002234:	001f 0000 001f      	.insn	6, 0x001f0000001f
    8000223a:	0000                	unimp
    8000223c:	001d                	c.nop	7
    8000223e:	0000                	unimp
    80002240:	0028                	addi	a0,sp,8
    80002242:	0000                	unimp
    80002244:	001c                	.insn	2, 0x001c
    80002246:	0000                	unimp
    80002248:	001a                	c.slli	zero,0x6
    8000224a:	0000                	unimp
    8000224c:	0016                	c.slli	zero,0x5
    8000224e:	0000                	unimp
    80002250:	001d                	c.nop	7
    80002252:	0000                	unimp
    80002254:	002a                	c.slli	zero,0xa
    80002256:	0000                	unimp
    80002258:	0030                	addi	a2,sp,8
    8000225a:	0000                	unimp
    8000225c:	00000033          	add	zero,zero,zero
    80002260:	0041                	c.nop	16
    80002262:	0000                	unimp
    80002264:	0034                	addi	a3,sp,8
    80002266:	0000                	unimp
    80002268:	0000002b          	.insn	4, 0x002b
    8000226c:	0036                	c.slli	zero,0xd
    8000226e:	0000                	unimp
    80002270:	0000003f 00000022 	.insn	8, 0x00220000003f
    80002278:	002a                	c.slli	zero,0xa
    8000227a:	0000                	unimp
    8000227c:	002c                	addi	a1,sp,8
    8000227e:	0000                	unimp
    80002280:	0038                	addi	a4,sp,8
    80002282:	0000                	unimp
    80002284:	0021                	c.nop	8
    80002286:	0000                	unimp
    80002288:	0026                	c.slli	zero,0x9
    8000228a:	0000                	unimp
    8000228c:	0020                	addi	s0,sp,8
    8000228e:	0000                	unimp
    80002290:	001a                	c.slli	zero,0x6
    80002292:	0000                	unimp
    80002294:	0016                	c.slli	zero,0x5
    80002296:	0000                	unimp
    80002298:	00000017          	auipc	zero,0x0
    8000229c:	0026                	c.slli	zero,0x9
    8000229e:	0000                	unimp
    800022a0:	0031                	c.nop	12
    800022a2:	0000                	unimp
    800022a4:	0020                	addi	s0,sp,8
    800022a6:	0000                	unimp
    800022a8:	001a                	c.slli	zero,0x6
    800022aa:	0000                	unimp
    800022ac:	001e                	c.slli	zero,0x7
    800022ae:	0000                	unimp
    800022b0:	0000002b          	.insn	4, 0x002b
    800022b4:	0016                	c.slli	zero,0x5
    800022b6:	0000                	unimp
    800022b8:	0018                	.insn	2, 0x0018
    800022ba:	0000                	unimp
    800022bc:	0000001b          	sext.w	zero,zero
    800022c0:	002d                	c.nop	11
    800022c2:	0000                	unimp
    800022c4:	0018                	.insn	2, 0x0018
    800022c6:	0000                	unimp
    800022c8:	001a                	c.slli	zero,0x6
    800022ca:	0000                	unimp
    800022cc:	0011                	c.nop	4
    800022ce:	0000                	unimp
    800022d0:	00000023          	sb	zero,0(zero) # 0 <__boot_hart>
    800022d4:	00000023          	sb	zero,0(zero) # 0 <__boot_hart>
    800022d8:	0000002f          	.insn	4, 0x002f
    800022dc:	00000033          	add	zero,zero,zero
    800022e0:	0000003b          	addw	zero,zero,zero
    800022e4:	0000003b          	addw	zero,zero,zero
    800022e8:	0000002b          	.insn	4, 0x002b
    800022ec:	002a                	c.slli	zero,0xa
    800022ee:	0000                	unimp
    800022f0:	0000002b          	.insn	4, 0x002b
    800022f4:	001c                	.insn	2, 0x001c
    800022f6:	0000                	unimp
    800022f8:	0025                	c.nop	9
    800022fa:	0000                	unimp
    800022fc:	0000002b          	.insn	4, 0x002b
    80002300:	0038                	addi	a4,sp,8
    80002302:	0000                	unimp
    80002304:	0030                	addi	a2,sp,8
    80002306:	0000                	unimp
    80002308:	0024                	addi	s1,sp,8
    8000230a:	0000                	unimp
    8000230c:	0020                	addi	s0,sp,8
    8000230e:	0000                	unimp
    80002310:	001c                	.insn	2, 0x001c
    80002312:	0000                	unimp
    80002314:	00000013          	nop
    80002318:	001c                	.insn	2, 0x001c
    8000231a:	0000                	unimp
    8000231c:	0022                	c.slli	zero,0x8
    8000231e:	0000                	unimp
    80002320:	002e                	c.slli	zero,0xb
    80002322:	0000                	unimp
    80002324:	0022                	c.slli	zero,0x8
    80002326:	0000                	unimp
    80002328:	001c                	.insn	2, 0x001c
    8000232a:	0000                	unimp
    8000232c:	0022                	c.slli	zero,0x8
    8000232e:	0000                	unimp
    80002330:	002d                	c.nop	11
    80002332:	0000                	unimp
    80002334:	0014                	.insn	2, 0x0014
    80002336:	0000                	unimp
    80002338:	001d                	c.nop	7
    8000233a:	0000                	unimp
    8000233c:	001c                	.insn	2, 0x001c
    8000233e:	0000                	unimp
    80002340:	0032                	c.slli	zero,0xc
    80002342:	0000                	unimp
    80002344:	0020                	addi	s0,sp,8
    80002346:	0000                	unimp
    80002348:	001a                	c.slli	zero,0x6
    8000234a:	0000                	unimp
    8000234c:	0015                	c.nop	5
    8000234e:	0000                	unimp
    80002350:	0025                	c.nop	9
    80002352:	0000                	unimp
    80002354:	0026                	c.slli	zero,0x9
    80002356:	0000                	unimp
    80002358:	00000033          	add	zero,zero,zero
    8000235c:	0032                	c.slli	zero,0xc
    8000235e:	0000                	unimp
    80002360:	00000037          	lui	zero,0x0
    80002364:	002d                	c.nop	11
    80002366:	0000                	unimp
    80002368:	0026                	c.slli	zero,0x9
    8000236a:	0000                	unimp
    8000236c:	0031                	c.nop	12
    8000236e:	0000                	unimp
    80002370:	0038                	addi	a4,sp,8
    80002372:	0000                	unimp
    80002374:	001c                	.insn	2, 0x001c
    80002376:	0000                	unimp
    80002378:	0026                	c.slli	zero,0x9
    8000237a:	0000                	unimp
    8000237c:	0028                	addi	a0,sp,8
    8000237e:	0000                	unimp
    80002380:	0032                	c.slli	zero,0xc
    80002382:	0000                	unimp
    80002384:	001d                	c.nop	7
    80002386:	0000                	unimp
    80002388:	002c                	addi	a1,sp,8
    8000238a:	0000                	unimp
    8000238c:	001a                	c.slli	zero,0x6
    8000238e:	0000                	unimp
    80002390:	0020                	addi	s0,sp,8
    80002392:	0000                	unimp
    80002394:	00000023          	sb	zero,0(zero) # 0 <__boot_hart>
    80002398:	0032                	c.slli	zero,0xc
    8000239a:	0000                	unimp
    8000239c:	0000002b          	.insn	4, 0x002b
    800023a0:	0035                	c.nop	13
    800023a2:	0000                	unimp
    800023a4:	002c                	addi	a1,sp,8
    800023a6:	0000                	unimp
    800023a8:	0029                	c.nop	10
    800023aa:	0000                	unimp
    800023ac:	0029                	c.nop	10
    800023ae:	0000                	unimp
    800023b0:	0022                	c.slli	zero,0x8
    800023b2:	0000                	unimp
    800023b4:	0018                	.insn	2, 0x0018
    800023b6:	0000                	unimp
    800023b8:	00000023          	sb	zero,0(zero) # 0 <__boot_hart>
    800023bc:	0022                	c.slli	zero,0x8
    800023be:	0000                	unimp
    800023c0:	00000027          	.insn	4, 0x0027
    800023c4:	0021                	c.nop	8
    800023c6:	0000                	unimp
    800023c8:	0022                	c.slli	zero,0x8
    800023ca:	0000                	unimp
    800023cc:	001d                	c.nop	7
    800023ce:	0000                	unimp
    800023d0:	0015                	c.nop	5
    800023d2:	0000                	unimp
    800023d4:	0021                	c.nop	8
    800023d6:	0000                	unimp
    800023d8:	001f 0000 002d      	.insn	6, 0x002d0000001f
    800023de:	0000                	unimp
    800023e0:	0030                	addi	a2,sp,8
    800023e2:	0000                	unimp
    800023e4:	002a                	c.slli	zero,0xa
    800023e6:	0000                	unimp
    800023e8:	0000001b          	sext.w	zero,zero
    800023ec:	001d                	c.nop	7
    800023ee:	0000                	unimp
    800023f0:	0028                	addi	a0,sp,8
    800023f2:	0000                	unimp
    800023f4:	0011                	c.nop	4
    800023f6:	0000                	unimp
    800023f8:	0015                	c.nop	5
    800023fa:	0000                	unimp
    800023fc:	0020                	addi	s0,sp,8
    800023fe:	0000                	unimp
    80002400:	002d                	c.nop	11
    80002402:	0000                	unimp
    80002404:	001e                	c.slli	zero,0x7
    80002406:	0000                	unimp
    80002408:	001d                	c.nop	7
    8000240a:	0000                	unimp
    8000240c:	001a                	c.slli	zero,0x6
    8000240e:	0000                	unimp
    80002410:	001a                	c.slli	zero,0x6
    80002412:	0000                	unimp
    80002414:	0000001b          	sext.w	zero,zero
    80002418:	0026                	c.slli	zero,0x9
    8000241a:	0000                	unimp
    8000241c:	0021                	c.nop	8
    8000241e:	0000                	unimp
    80002420:	001d                	c.nop	7
    80002422:	0000                	unimp
    80002424:	001f 0000 0020      	.insn	6, 0x00200000001f
    8000242a:	0000                	unimp
    8000242c:	001f 0000 0023      	.insn	6, 0x00230000001f
    80002432:	0000                	unimp
    80002434:	0019                	c.nop	6
    80002436:	0000                	unimp
    80002438:	001d                	c.nop	7
    8000243a:	0000                	unimp
    8000243c:	001d                	c.nop	7
    8000243e:	0000                	unimp
    80002440:	0022                	c.slli	zero,0x8
    80002442:	0000                	unimp
    80002444:	0000000f          	fence	unknown,unknown
    80002448:	0019                	c.nop	6
    8000244a:	0000                	unimp
    8000244c:	00000017          	auipc	zero,0x0
    80002450:	0022                	c.slli	zero,0x8
    80002452:	0000                	unimp
    80002454:	001c                	.insn	2, 0x001c
    80002456:	0000                	unimp
    80002458:	002c                	addi	a1,sp,8
    8000245a:	0000                	unimp
    8000245c:	002d                	c.nop	11
    8000245e:	0000                	unimp
    80002460:	0029                	c.nop	10
    80002462:	0000                	unimp
    80002464:	0029                	c.nop	10
    80002466:	0000                	unimp
    80002468:	0025                	c.nop	9
    8000246a:	0000                	unimp
    8000246c:	002d                	c.nop	11
    8000246e:	0000                	unimp
    80002470:	002d                	c.nop	11
    80002472:	0000                	unimp
    80002474:	0011                	c.nop	4
    80002476:	0000                	unimp
    80002478:	0022                	c.slli	zero,0x8
    8000247a:	0000                	unimp
    8000247c:	002c                	addi	a1,sp,8
    8000247e:	0000                	unimp
    80002480:	002e                	c.slli	zero,0xb
    80002482:	0000                	unimp
    80002484:	001e                	c.slli	zero,0x7
    80002486:	0000                	unimp
    80002488:	0000002b          	.insn	4, 0x002b
    8000248c:	001d                	c.nop	7
    8000248e:	0000                	unimp
    80002490:	001f 0000 0024      	.insn	6, 0x00240000001f
    80002496:	0000                	unimp
    80002498:	0025                	c.nop	9
    8000249a:	0000                	unimp
    8000249c:	0032                	c.slli	zero,0xc
    8000249e:	0000                	unimp
    800024a0:	0036                	c.slli	zero,0xd
    800024a2:	0000                	unimp
    800024a4:	002c                	addi	a1,sp,8
    800024a6:	0000                	unimp
    800024a8:	001c                	.insn	2, 0x001c
    800024aa:	0000                	unimp
    800024ac:	0028                	addi	a0,sp,8
    800024ae:	0000                	unimp
    800024b0:	0026                	c.slli	zero,0x9
    800024b2:	0000                	unimp
    800024b4:	0016                	c.slli	zero,0x5
    800024b6:	0000                	unimp
    800024b8:	0000001b          	sext.w	zero,zero
    800024bc:	001c                	.insn	2, 0x001c
    800024be:	0000                	unimp
    800024c0:	002d                	c.nop	11
    800024c2:	0000                	unimp
    800024c4:	0020                	addi	s0,sp,8
    800024c6:	0000                	unimp
    800024c8:	0024                	addi	s1,sp,8
    800024ca:	0000                	unimp
    800024cc:	0016                	c.slli	zero,0x5
	...

Disassembly of section .data.__sglue:

00000000800024d0 <__sglue>:
	...
    800024d8:	00000003          	lb	zero,0(zero) # 0 <__boot_hart>
    800024dc:	0000                	unimp
    800024de:	0000                	unimp
    800024e0:	2a00                	fld	fs0,16(a2)
    800024e2:	8000                	.insn	2, 0x8000
    800024e4:	0000                	unimp
	...

Disassembly of section .data._impure_data:

00000000800024e8 <_impure_data>:
	...
    800024f0:	2a00                	fld	fs0,16(a2)
    800024f2:	8000                	.insn	2, 0x8000
    800024f4:	0000                	unimp
    800024f6:	0000                	unimp
    800024f8:	2ab0                	fld	fa2,80(a3)
    800024fa:	8000                	.insn	2, 0x8000
    800024fc:	0000                	unimp
    800024fe:	0000                	unimp
    80002500:	2b60                	fld	fs0,208(a4)
    80002502:	8000                	.insn	2, 0x8000
	...

Disassembly of section .sdata:

0000000080002578 <n_cores>:
static uint32_t n_cores = 4;
    80002578:	0004                	.insn	2, 0x0004
    8000257a:	0000                	unimp
    8000257c:	0000                	unimp
	...

0000000080002580 <environ>:
    80002580:	25c0                	fld	fs0,136(a1)
    80002582:	8000                	.insn	2, 0x8000
    80002584:	0000                	unimp
	...

0000000080002588 <_impure_ptr>:
    80002588:	24e8                	fld	fa0,200(s1)
    8000258a:	8000                	.insn	2, 0x8000
    8000258c:	0000                	unimp
	...

0000000080002590 <__atexit_dummy>:
    80002590:	1230                	addi	a2,sp,296
    80002592:	8000                	.insn	2, 0x8000
    80002594:	0000                	unimp
	...

0000000080002598 <curbrk>:
static char *curbrk = _end;
    80002598:	2d28                	fld	fa0,88(a0)
    8000259a:	8000                	.insn	2, 0x8000
    8000259c:	0000                	unimp
	...

00000000800025a0 <uart>:

  #define _CONCAT3(A, B, C) A ## B ## C
  #define _UART_CTRL_ADDR(UART_NUM) _CONCAT3(UART, UART_NUM, _CTRL_ADDR)
  #define UART_CTRL_ADDR _UART_CTRL_ADDR(UART_NUM)
#endif
static volatile uint32_t * const uart = (void *)(UART_CTRL_ADDR);
    800025a0:	0000                	unimp
    800025a2:	6400                	ld	s0,8(s0)
    800025a4:	0000                	unimp
	...

00000000800025a8 <uart>:
    800025a8:	0000                	unimp
    800025aa:	6400                	ld	s0,8(s0)
    800025ac:	0000                	unimp
	...

00000000800025b0 <uart>:
    800025b0:	0000                	unimp
    800025b2:	6400                	ld	s0,8(s0)
    800025b4:	0000                	unimp
	...

Disassembly of section .debug_info:

0000000000000000 <.debug_info>:
       0:	00000317          	auipc	t1,0x0
       4:	0005                	c.nop	1
       6:	0801                	addi	a6,a6,0 # ffffffffffffa000 <__heap_end+0xffffffff7ffd7000>
       8:	0000                	unimp
       a:	0000                	unimp
       c:	0000640b          	.insn	4, 0x640b
      10:	1d00                	addi	s0,sp,688
      12:	0000                	unimp
      14:	0000                	unimp
      16:	0000003b          	addw	zero,zero,zero
      1a:	023e                	slli	tp,tp,0xf
      1c:	8000                	.insn	2, 0x8000
      1e:	0000                	unimp
      20:	0000                	unimp
      22:	03d8                	addi	a4,sp,452
	...
      2c:	0000                	unimp
      2e:	00003403          	ld	s0,0(zero) # 0 <__boot_hart>
      32:	0300                	addi	s0,sp,384
      34:	1b28                	addi	a0,sp,440
      36:	003a                	c.slli	zero,0xe
      38:	0000                	unimp
      3a:	080c                	addi	a1,sp,16
      3c:	0008                	.insn	2, 0x0008
      3e:	0000                	unimp
      40:	00003b03          	ld	s6,0(zero) # 0 <__boot_hart>
      44:	0300                	addi	s0,sp,384
      46:	002e1867          	.insn	4, 0x002e1867
      4a:	0000                	unimp
      4c:	0102                	c.slli64	sp
      4e:	4506                	lw	a0,64(sp)
      50:	0000                	unimp
      52:	0200                	addi	s0,sp,256
      54:	0801                	addi	a6,a6,0
      56:	00000043          	fmadd.s	ft0,ft0,ft0,ft0,rne
      5a:	0202                	c.slli64	tp
      5c:	1505                	addi	a0,a0,-31
      5e:	0001                	nop
      60:	0200                	addi	s0,sp,256
      62:	0702                	c.slli64	a4
      64:	0051                	c.nop	20
      66:	0000                	unimp
      68:	00001a03          	lh	s4,0(zero) # 0 <__boot_hart>
      6c:	0400                	addi	s0,sp,512
      6e:	184d                	addi	a6,a6,-13
      70:	0074                	addi	a3,sp,12
      72:	0000                	unimp
      74:	040d                	addi	s0,s0,3 # 9003 <__stack_size+0x1003>
      76:	6905                	lui	s2,0x1
      78:	746e                	ld	s0,248(sp)
      7a:	0300                	addi	s0,sp,384
      7c:	0100                	addi	s0,sp,128
      7e:	0000                	unimp
      80:	4f04                	lw	s1,24(a4)
      82:	8719                	srai	a4,a4,0x6
      84:	0000                	unimp
      86:	0200                	addi	s0,sp,256
      88:	0704                	addi	s1,sp,896
      8a:	035d                	addi	t1,t1,23 # 17 <__stack_align+0x7>
      8c:	0000                	unimp
      8e:	0802                	c.slli64	a6
      90:	1505                	addi	a0,a0,-31
      92:	0002                	c.slli64	zero
      94:	0200                	addi	s0,sp,256
      96:	0708                	addi	a0,sp,896
      98:	0358                	addi	a4,sp,388
      9a:	0000                	unimp
      9c:	00001c03          	lh	s8,0(zero) # 0 <__boot_hart>
      a0:	0500                	addi	s0,sp,640
      a2:	132c                	addi	a1,sp,424
      a4:	0068                	addi	a0,sp,12
      a6:	0000                	unimp
      a8:	00010203          	lb	tp,0(sp)
      ac:	0500                	addi	s0,sp,640
      ae:	1430                	addi	a2,sp,552
      b0:	0000007b          	.insn	4, 0x007b
      b4:	a80e                	fsd	ft3,16(sp)
      b6:	0000                	unimp
      b8:	0400                	addi	s0,sp,512
      ba:	012d                	addi	sp,sp,11
      bc:	0000                	unimp
      be:	1301                	addi	t1,t1,-32
      c0:	d422                	sw	s0,40(sp)
      c2:	0000                	unimp
      c4:	0900                	addi	s0,sp,144
      c6:	0025a003          	lw	zero,2(a1)
      ca:	0080                	addi	s0,sp,64
      cc:	0000                	unimp
      ce:	0700                	addi	s0,sp,896
      d0:	00b4                	addi	a3,sp,72
      d2:	0000                	unimp
      d4:	cf08                	sw	a0,24(a4)
      d6:	0000                	unimp
      d8:	0900                	addi	s0,sp,144
      da:	002c                	addi	a1,sp,8
      dc:	0000                	unimp
      de:	ea16                	sd	t0,272(sp)
      e0:	0002                	c.slli64	zero
      e2:	0080                	addi	s0,sp,64
      e4:	0000                	unimp
      e6:	2c00                	fld	fs0,24(s0)
      e8:	00000003          	lb	zero,0(zero) # 0 <__boot_hart>
      ec:	0000                	unimp
      ee:	0100                	addi	s0,sp,128
      f0:	4c9c                	lw	a5,24(s1)
      f2:	0002                	c.slli64	zero
      f4:	0500                	addi	s0,sp,640
      f6:	6d66                	ld	s10,88(sp)
      f8:	0074                	addi	a3,sp,12
      fa:	1602                	slli	a2,a2,0x20
      fc:	4c1a                	lw	s8,132(sp)
      fe:	0002                	c.slli64	zero
     100:	0300                	addi	s0,sp,384
     102:	b891                	j	fffffffffffff956 <__heap_end+0xffffffff7ffdc956>
     104:	0f7e                	slli	t5,t5,0x1f
     106:	7601                	lui	a2,0xfffe0
     108:	006c                	addi	a1,sp,12
     10a:	1802                	slli	a6,a6,0x20
     10c:	400d                	c.li	zero,3
     10e:	0000                	unimp
     110:	0300                	addi	s0,sp,384
     112:	e891                	bnez	s1,126 <__stack_align+0x116>
     114:	047e                	slli	s0,s0,0x1f
     116:	0000010b          	.insn	4, 0x010b
     11a:	1902                	slli	s2,s2,0x20
     11c:	5d0a                	lw	s10,160(sp)
     11e:	0002                	c.slli64	zero
     120:	0300                	addi	s0,sp,384
     122:	af91                	j	876 <__stack_align+0x866>
     124:	047f 0024 0000 1902 	.insn	10, 0x5d15190200000024047f
     12c:	5d15 
     12e:	0002                	c.slli64	zero
     130:	0300                	addi	s0,sp,384
     132:	ae91                	j	486 <__stack_align+0x476>
     134:	047f 0000 0000 1902 	.insn	10, 0x5d1e190200000000047f
     13c:	5d1e 
     13e:	0002                	c.slli64	zero
     140:	0300                	addi	s0,sp,384
     142:	ad91                	j	796 <__stack_align+0x786>
     144:	017f 0063 1a02 510a 	.insn	10, 0x0002510a1a020063017f
     14c:	0002 
     14e:	0300                	addi	s0,sp,384
     150:	8791                	srai	a5,a5,0x4
     152:	067f 0370 8000 0000 	.insn	10, 0x80000370067f
     15a:	0000 
     15c:	024a                	slli	tp,tp,0x12
     15e:	0000                	unimp
     160:	0000                	unimp
     162:	0000                	unimp
     164:	6e01                	.insn	2, 0x6e01
     166:	0200                	addi	s0,sp,256
     168:	1e5d                	addi	t3,t3,-9 # 19ff7 <__stack_size+0x11ff7>
     16a:	00000087          	.insn	4, 0x0087
     16e:	7ef49103          	lh	sp,2031(s1)
     172:	800a                	c.mv	zero,sp
     174:	00800003          	lb	zero,8(zero) # 8 <__tcb_size+0x2>
     178:	0000                	unimp
     17a:	ae00                	fsd	fs0,24(a2)
     17c:	0000                	unimp
     17e:	0000                	unimp
     180:	0000                	unimp
     182:	c400                	sw	s0,8(s0)
     184:	0001                	nop
     186:	0100                	addi	s0,sp,128
     188:	006e                	c.slli	zero,0x1b
     18a:	2b02                	fld	fs6,0(sp)
     18c:	951f 0000 0300      	.insn	6, 0x03000000951f
     192:	a091                	j	1d6 <__stack_align+0x1c6>
     194:	017f 0069 2c02 8e16 	.insn	10, 0x8e162c020069017f
     19c:	0000 
     19e:	0300                	addi	s0,sp,384
     1a0:	9891                	andi	s1,s1,-28
     1a2:	067f 03d2 8000 0000 	.insn	10, 0x800003d2067f
     1aa:	0000 
     1ac:	0048                	addi	a0,sp,4
     1ae:	0000                	unimp
     1b0:	0000                	unimp
     1b2:	0000                	unimp
     1b4:	6401                	.insn	2, 0x6401
     1b6:	0200                	addi	s0,sp,256
     1b8:	1a35                	addi	s4,s4,-19 # fffffffffffdffed <__heap_end+0xffffffff7ffbcfed>
     1ba:	008e                	slli	ra,ra,0x3
     1bc:	0000                	unimp
     1be:	7ef89103          	lh	sp,2031(a7)
     1c2:	0000                	unimp
     1c4:	2e0a                	fld	ft8,128(sp)
     1c6:	0004                	.insn	2, 0x0004
     1c8:	0080                	addi	s0,sp,64
     1ca:	0000                	unimp
     1cc:	e200                	sd	s0,0(a2)
     1ce:	0000                	unimp
     1d0:	0000                	unimp
     1d2:	0000                	unimp
     1d4:	0a00                	addi	s0,sp,272
     1d6:	0002                	c.slli64	zero
     1d8:	0100                	addi	s0,sp,128
     1da:	756e                	ld	a0,248(sp)
     1dc:	006d                	c.nop	27
     1de:	3b02                	fld	fs6,32(sp)
     1e0:	8e16                	mv	t3,t0
     1e2:	0000                	unimp
     1e4:	0300                	addi	s0,sp,384
     1e6:	9091                	srli	s1,s1,0x24
     1e8:	047f 011f 0000 4a02 	.insn	10, 0x64164a020000011f047f
     1f0:	6416 
     1f2:	0002                	c.slli64	zero
     1f4:	0300                	addi	s0,sp,384
     1f6:	c891                	beqz	s1,20a <__stack_align+0x1fa>
     1f8:	017e                	slli	sp,sp,0x1f
     1fa:	6f70                	ld	a2,216(a4)
     1fc:	4b020073          	.insn	4, 0x4b020073
     200:	7415                	lui	s0,0xfffe5
     202:	0000                	unimp
     204:	0300                	addi	s0,sp,384
     206:	8c91                	sub	s1,s1,a2
     208:	007f 5206 0005 0080 	.insn	10, 0x008000055206007f
     210:	0000 
     212:	6600                	ld	s0,8(a2)
     214:	0000                	unimp
     216:	0000                	unimp
     218:	0000                	unimp
     21a:	0100                	addi	s0,sp,128
     21c:	0069                	c.nop	26
     21e:	5e02                	lw	t3,32(sp)
     220:	741a                	ld	s0,416(sp)
     222:	0000                	unimp
     224:	0300                	addi	s0,sp,384
     226:	8891                	andi	s1,s1,4
     228:	067f 055a 8000 0000 	.insn	10, 0x8000055a067f
     230:	0000 
     232:	004a                	c.slli	zero,0x12
     234:	0000                	unimp
     236:	0000                	unimp
     238:	0000                	unimp
     23a:	6401                	.insn	2, 0x6401
     23c:	0200                	addi	s0,sp,256
     23e:	225f 0087 0000      	.insn	6, 0x0087225f
     244:	7ef09103          	lh	sp,2031(ra)
     248:	0000                	unimp
     24a:	0000                	unimp
     24c:	00025807          	.insn	4, 0x00025807
     250:	0200                	addi	s0,sp,256
     252:	0801                	addi	a6,a6,0
     254:	004c                	addi	a1,sp,4
     256:	0000                	unimp
     258:	5108                	lw	a0,32(a0)
     25a:	0002                	c.slli64	zero
     25c:	0200                	addi	s0,sp,256
     25e:	0201                	addi	tp,tp,0 # 0 <__boot_hart>
     260:	0138                	addi	a4,sp,136
     262:	0000                	unimp
     264:	5110                	lw	a2,32(a0)
     266:	0002                	c.slli64	zero
     268:	7400                	ld	s0,40(s0)
     26a:	0002                	c.slli64	zero
     26c:	1100                	addi	s0,sp,160
     26e:	0095                	addi	ra,ra,5
     270:	0000                	unimp
     272:	001f 2709 0001      	.insn	6, 0x00012709001f
     278:	0f00                	addi	s0,sp,912
     27a:	02c0                	addi	s0,sp,324
     27c:	8000                	.insn	2, 0x8000
     27e:	0000                	unimp
     280:	0000                	unimp
     282:	002a                	c.slli	zero,0xa
     284:	0000                	unimp
     286:	0000                	unimp
     288:	0000                	unimp
     28a:	9c01                	subw	s0,s0,s0
     28c:	029e                	slli	t0,t0,0x7
     28e:	0000                	unimp
     290:	7305                	lui	t1,0xfffe1
     292:	0200                	addi	s0,sp,256
     294:	024c180f          	.insn	4, 0x024c180f
     298:	0000                	unimp
     29a:	9102                	jalr	sp
     29c:	0068                	addi	a0,sp,12
     29e:	2612                	fld	fa2,256(sp)
     2a0:	0001                	nop
     2a2:	0200                	addi	s0,sp,256
     2a4:	1408                	addi	a0,sp,544
     2a6:	027c                	addi	a5,sp,268
     2a8:	8000                	.insn	2, 0x8000
     2aa:	0000                	unimp
     2ac:	0000                	unimp
     2ae:	0044                	addi	s1,sp,4
     2b0:	0000                	unimp
     2b2:	0000                	unimp
     2b4:	0000                	unimp
     2b6:	9c01                	subw	s0,s0,s0
     2b8:	000002d7          	.insn	4, 0x02d7
     2bc:	7305                	lui	t1,0xfffe1
     2be:	0200                	addi	s0,sp,256
     2c0:	2708                	fld	fa0,8(a4)
     2c2:	024c                	addi	a1,sp,260
     2c4:	0000                	unimp
     2c6:	9102                	jalr	sp
     2c8:	0158                	addi	a4,sp,132
     2ca:	0a020063          	beqz	tp,36a <__stack_align+0x35a>
     2ce:	00025107          	.insn	4, 0x00025107
     2d2:	0200                	addi	s0,sp,256
     2d4:	6f91                	lui	t6,0x4
     2d6:	1300                	addi	s0,sp,416
     2d8:	0132                	slli	sp,sp,0xc
     2da:	0000                	unimp
     2dc:	1501                	addi	a0,a0,-32
     2de:	3e14                	fld	fa3,56(a2)
     2e0:	0002                	c.slli64	zero
     2e2:	0080                	addi	s0,sp,64
     2e4:	0000                	unimp
     2e6:	3e00                	fld	fs0,56(a2)
     2e8:	0000                	unimp
     2ea:	0000                	unimp
     2ec:	0000                	unimp
     2ee:	0100                	addi	s0,sp,128
     2f0:	059c                	addi	a5,sp,704
     2f2:	15010063          	beq	sp,a6,432 <__stack_align+0x422>
     2f6:	511f 0002 0200      	.insn	6, 0x02000002511f
     2fc:	5f91                	li	t6,-28
     2fe:	7401                	lui	s0,0xfffe0
     300:	0078                	addi	a4,sp,12
     302:	1701                	addi	a4,a4,-32
     304:	cf15                	beqz	a4,340 <__stack_align+0x330>
     306:	0000                	unimp
     308:	0200                	addi	s0,sp,256
     30a:	6891                	lui	a7,0x4
     30c:	7201                	lui	tp,0xfffe0
     30e:	0100                	addi	s0,sp,128
     310:	0a19                	addi	s4,s4,6
     312:	009c                	addi	a5,sp,64
     314:	0000                	unimp
     316:	9102                	jalr	sp
     318:	0064                	addi	s1,sp,12
     31a:	0900                	addi	s0,sp,144
     31c:	0005                	c.nop	1
     31e:	0500                	addi	s0,sp,640
     320:	0100                	addi	s0,sp,128
     322:	0508                	addi	a0,sp,640
     324:	0001                	nop
     326:	0d00                	addi	s0,sp,656
     328:	0064                	addi	s1,sp,12
     32a:	0000                	unimp
     32c:	ea1d                	bnez	a2,362 <__stack_align+0x352>
     32e:	0001                	nop
     330:	3b00                	fld	fs0,48(a4)
     332:	0000                	unimp
     334:	1600                	addi	s0,sp,800
     336:	0006                	c.slli	zero,0x1
     338:	0080                	addi	s0,sp,64
     33a:	0000                	unimp
     33c:	b600                	fsd	fs0,40(a2)
     33e:	0004                	.insn	2, 0x0004
     340:	0000                	unimp
     342:	0000                	unimp
     344:	f600                	sd	s0,40(a2)
     346:	03000003          	lb	zero,48(zero) # 30 <__stack_align+0x20>
     34a:	0601                	addi	a2,a2,0 # fffffffffffe0000 <__heap_end+0xffffffff7ffbd000>
     34c:	0045                	c.nop	17
     34e:	0000                	unimp
     350:	43080103          	lb	sp,1072(a6)
     354:	0000                	unimp
     356:	0300                	addi	s0,sp,384
     358:	0502                	c.slli64	a0
     35a:	0115                	addi	sp,sp,5
     35c:	0000                	unimp
     35e:	51070203          	lb	tp,1296(a4)
     362:	0000                	unimp
     364:	0e00                	addi	s0,sp,784
     366:	0504                	addi	s1,sp,640
     368:	6e69                	lui	t3,0x1a
     36a:	0074                	addi	a3,sp,12
     36c:	4a0a                	lw	s4,128(sp)
     36e:	0000                	unimp
     370:	0900                	addi	s0,sp,144
     372:	004a                	c.slli	zero,0x12
     374:	0000                	unimp
     376:	5109                	li	sp,-30
     378:	0000                	unimp
     37a:	0b00                	addi	s0,sp,400
     37c:	0100                	addi	s0,sp,128
     37e:	0000                	unimp
     380:	6c194f03          	lbu	t5,1729(s2) # 16c1 <__stack_align+0x16b1>
     384:	0000                	unimp
     386:	0300                	addi	s0,sp,384
     388:	0704                	addi	s1,sp,896
     38a:	035d                	addi	t1,t1,23 # fffffffffffe1017 <__heap_end+0xffffffff7ffbe017>
     38c:	0000                	unimp
     38e:	15050803          	lb	a6,336(a0)
     392:	0002                	c.slli64	zero
     394:	0300                	addi	s0,sp,384
     396:	0708                	addi	a0,sp,896
     398:	0358                	addi	a4,sp,388
     39a:	0000                	unimp
     39c:	0001020b          	.insn	4, 0x0001020b
     3a0:	0400                	addi	s0,sp,512
     3a2:	1430                	addi	a2,sp,552
     3a4:	0060                	addi	s0,sp,12
     3a6:	0000                	unimp
     3a8:	810a                	mv	sp,sp
     3aa:	0000                	unimp
     3ac:	0100                	addi	s0,sp,128
     3ae:	012d                	addi	sp,sp,11
     3b0:	0000                	unimp
     3b2:	1305                	addi	t1,t1,-31
     3b4:	ad22                	fsd	fs0,152(sp)
     3b6:	0000                	unimp
     3b8:	0900                	addi	s0,sp,144
     3ba:	0025a803          	lw	a6,2(a1)
     3be:	0080                	addi	s0,sp,64
     3c0:	0000                	unimp
     3c2:	0400                	addi	s0,sp,512
     3c4:	008d                	addi	ra,ra,3
     3c6:	0000                	unimp
     3c8:	a809                	j	3da <__stack_align+0x3ca>
     3ca:	0000                	unimp
     3cc:	0f00                	addi	s0,sp,912
     3ce:	004a                	c.slli	zero,0x12
     3d0:	0000                	unimp
     3d2:	00c2                	slli	ra,ra,0x10
     3d4:	0000                	unimp
     3d6:	7a10                	ld	a2,48(a2)
     3d8:	0000                	unimp
     3da:	ff00                	sd	s0,56(a4)
     3dc:	0100                	addi	s0,sp,128
     3de:	01ad                	addi	gp,gp,11 # 80002d83 <__global_pointer$+0xb>
     3e0:	0000                	unimp
     3e2:	0806                	slli	a6,a6,0x1
     3e4:	b20c                	fsd	fa1,32(a2)
     3e6:	0000                	unimp
     3e8:	0900                	addi	s0,sp,144
     3ea:	0018d003          	lhu	zero,1(a7) # 4001 <__stack_align+0x3ff1>
     3ee:	0080                	addi	s0,sp,64
     3f0:	0000                	unimp
     3f2:	0100                	addi	s0,sp,128
     3f4:	01b9                	addi	gp,gp,14 # 80002d86 <__global_pointer$+0xe>
     3f6:	0000                	unimp
     3f8:	1906                	slli	s2,s2,0x21
     3fa:	b20c                	fsd	fa1,32(a2)
     3fc:	0000                	unimp
     3fe:	0900                	addi	s0,sp,144
     400:	001cd003          	lhu	zero,1(s9)
     404:	0080                	addi	s0,sp,64
     406:	0000                	unimp
     408:	0100                	addi	s0,sp,128
     40a:	0000014b          	fnmsub.s	ft2,ft0,ft0,ft0,rne
     40e:	2a06                	fld	fs4,64(sp)
     410:	b20c                	fsd	fa1,32(a2)
     412:	0000                	unimp
     414:	0900                	addi	s0,sp,144
     416:	0020d003          	lhu	zero,2(ra)
     41a:	0080                	addi	s0,sp,64
     41c:	0000                	unimp
     41e:	0100                	addi	s0,sp,128
     420:	0181                	addi	gp,gp,0 # 80002d78 <__global_pointer$>
     422:	0000                	unimp
     424:	0802                	c.slli64	a6
     426:	8111                	srli	a0,a0,0x4
     428:	0000                	unimp
     42a:	0900                	addi	s0,sp,144
     42c:	00257803          	.insn	4, 0x00257803
     430:	0080                	addi	s0,sp,64
     432:	0000                	unimp
     434:	0100                	addi	s0,sp,128
     436:	01c5                	addi	gp,gp,17 # 80002d89 <__global_pointer$+0x11>
     438:	0000                	unimp
     43a:	0902                	c.slli64	s2
     43c:	b20c                	fsd	fa1,32(a2)
     43e:	0000                	unimp
     440:	0900                	addi	s0,sp,144
     442:	0025f003          	.insn	4, 0x0025f003
     446:	0080                	addi	s0,sp,64
     448:	0000                	unimp
     44a:	1100                	addi	s0,sp,160
     44c:	002c                	addi	a1,sp,8
     44e:	0000                	unimp
     450:	2705                	addiw	a4,a4,1
     452:	430d                	li	t1,3
     454:	0001                	nop
     456:	1200                	addi	s0,sp,288
     458:	00000143          	fmadd.s	ft2,ft0,ft0,ft0,rne
     45c:	4f040013          	addi	zero,s0,1264 # fffffffffffe04f0 <__heap_end+0xffffffff7ffbd4f0>
     460:	0001                	nop
     462:	0300                	addi	s0,sp,384
     464:	0801                	addi	a6,a6,0
     466:	004c                	addi	a1,sp,4
     468:	0000                	unimp
     46a:	4809                	li	a6,2
     46c:	0001                	nop
     46e:	1400                	addi	s0,sp,544
     470:	0160                	addi	s0,sp,140
     472:	0000                	unimp
     474:	3402                	fld	fs0,32(sp)
     476:	4a05                	li	s4,1
     478:	0000                	unimp
     47a:	a000                	fsd	fs0,0(s0)
     47c:	0009                	c.nop	2
     47e:	0080                	addi	s0,sp,64
     480:	0000                	unimp
     482:	2c00                	fld	fs0,24(s0)
     484:	0001                	nop
     486:	0000                	unimp
     488:	0000                	unimp
     48a:	0100                	addi	s0,sp,128
     48c:	319c                	fld	fa5,32(a1)
     48e:	0002                	c.slli64	zero
     490:	0100                	addi	s0,sp,128
     492:	0165                	addi	sp,sp,25
     494:	0000                	unimp
     496:	3502                	fld	fa0,32(sp)
     498:	810c                	.insn	2, 0x810c
     49a:	0000                	unimp
     49c:	0200                	addi	s0,sp,256
     49e:	6491                	lui	s1,0x4
     4a0:	5f02                	lw	t5,32(sp)
     4a2:	39020063          	beq	tp,a6,822 <__stack_align+0x812>
     4a6:	7a11                	lui	s4,0xfffe4
     4a8:	0000                	unimp
     4aa:	0200                	addi	s0,sp,256
     4ac:	5091                	li	ra,-28
     4ae:	7202                	ld	tp,32(sp)
     4b0:	7365                	lui	t1,0xffff9
     4b2:	0200                	addi	s0,sp,256
     4b4:	0749                	addi	a4,a4,18
     4b6:	004a                	c.slli	zero,0x12
     4b8:	0000                	unimp
     4ba:	9102                	jalr	sp
     4bc:	0544                	addi	s1,sp,644
     4be:	09a8                	addi	a0,sp,216
     4c0:	8000                	.insn	2, 0x8000
     4c2:	0000                	unimp
     4c4:	0000                	unimp
     4c6:	000c                	.insn	2, 0x000c
     4c8:	0000                	unimp
     4ca:	0000                	unimp
     4cc:	0000                	unimp
     4ce:	000001c7          	fmsub.s	ft3,ft0,ft0,ft0,rne
     4d2:	4501                	li	a0,0
     4d4:	0001                	nop
     4d6:	0200                	addi	s0,sp,256
     4d8:	1635                	addi	a2,a2,-19
     4da:	007a                	c.slli	zero,0x1e
     4dc:	0000                	unimp
     4de:	9102                	jalr	sp
     4e0:	0068                	addi	a0,sp,12
     4e2:	b805                	j	fffffffffffffd12 <__heap_end+0xffffffff7ffdcd12>
     4e4:	0009                	c.nop	2
     4e6:	0080                	addi	s0,sp,64
     4e8:	0000                	unimp
     4ea:	2800                	fld	fs0,16(s0)
     4ec:	0000                	unimp
     4ee:	0000                	unimp
     4f0:	0000                	unimp
     4f2:	ea00                	sd	s0,16(a2)
     4f4:	0001                	nop
     4f6:	0200                	addi	s0,sp,256
     4f8:	0069                	c.nop	26
     4fa:	3702                	fld	fa4,32(sp)
     4fc:	5115                	li	sp,-27
     4fe:	0000                	unimp
     500:	0200                	addi	s0,sp,256
     502:	4091                	li	ra,4
     504:	0500                	addi	s0,sp,640
     506:	09e0                	addi	s0,sp,220
     508:	8000                	.insn	2, 0x8000
     50a:	0000                	unimp
     50c:	0000                	unimp
     50e:	000c                	.insn	2, 0x000c
     510:	0000                	unimp
     512:	0000                	unimp
     514:	0000                	unimp
     516:	0000020f          	.insn	4, 0x020f
     51a:	4501                	li	a0,0
     51c:	0001                	nop
     51e:	0200                	addi	s0,sp,256
     520:	1739                	addi	a4,a4,-18
     522:	007a                	c.slli	zero,0x1e
     524:	0000                	unimp
     526:	9102                	jalr	sp
     528:	0058                	addi	a4,sp,4
     52a:	5406                	lw	s0,96(sp)
     52c:	000a                	c.slli	zero,0x2
     52e:	0080                	addi	s0,sp,64
     530:	0000                	unimp
     532:	0c00                	addi	s0,sp,528
     534:	0000                	unimp
     536:	0000                	unimp
     538:	0000                	unimp
     53a:	0100                	addi	s0,sp,128
     53c:	0145                	addi	sp,sp,17
     53e:	0000                	unimp
     540:	4202                	lw	tp,0(sp)
     542:	7a09                	lui	s4,0xfffe2
     544:	0000                	unimp
     546:	0200                	addi	s0,sp,256
     548:	4891                	li	a7,4
     54a:	0000                	unimp
     54c:	5e0c                	lw	a1,56(a2)
     54e:	0001                	nop
     550:	2500                	fld	fs0,8(a0)
     552:	0944                	addi	s1,sp,148
     554:	8000                	.insn	2, 0x8000
     556:	0000                	unimp
     558:	0000                	unimp
     55a:	005c                	addi	a5,sp,4
     55c:	0000                	unimp
     55e:	0000                	unimp
     560:	0000                	unimp
     562:	9c01                	subw	s0,s0,s0
     564:	02c8                	addi	a0,sp,324
     566:	0000                	unimp
     568:	6501                	.insn	2, 0x6501
     56a:	0001                	nop
     56c:	0200                	addi	s0,sp,256
     56e:	0c26                	slli	s8,s8,0x9
     570:	0081                	addi	ra,ra,0
     572:	0000                	unimp
     574:	9102                	jalr	sp
     576:	0564                	addi	s1,sp,652
     578:	094a                	slli	s2,s2,0x12
     57a:	8000                	.insn	2, 0x8000
     57c:	0000                	unimp
     57e:	0000                	unimp
     580:	000c                	.insn	2, 0x000c
     582:	0000                	unimp
     584:	0000                	unimp
     586:	0000                	unimp
     588:	0281                	addi	t0,t0,0
     58a:	0000                	unimp
     58c:	4501                	li	a0,0
     58e:	0001                	nop
     590:	0200                	addi	s0,sp,256
     592:	1626                	slli	a2,a2,0x29
     594:	007a                	c.slli	zero,0x1e
     596:	0000                	unimp
     598:	9102                	jalr	sp
     59a:	0068                	addi	a0,sp,12
     59c:	7205                	lui	tp,0xfffe1
     59e:	0009                	c.nop	2
     5a0:	0080                	addi	s0,sp,64
     5a2:	0000                	unimp
     5a4:	0c00                	addi	s0,sp,528
     5a6:	0000                	unimp
     5a8:	0000                	unimp
     5aa:	0000                	unimp
     5ac:	a600                	fsd	fs0,8(a2)
     5ae:	0002                	c.slli64	zero
     5b0:	0100                	addi	s0,sp,128
     5b2:	0145                	addi	sp,sp,17
     5b4:	0000                	unimp
     5b6:	2a02                	fld	fs4,0(sp)
     5b8:	00007a03          	.insn	4, 0x7a03
     5bc:	0200                	addi	s0,sp,256
     5be:	5891                	li	a7,-28
     5c0:	0600                	addi	s0,sp,768
     5c2:	0986                	slli	s3,s3,0x1
     5c4:	8000                	.insn	2, 0x8000
     5c6:	0000                	unimp
     5c8:	0000                	unimp
     5ca:	000c                	.insn	2, 0x000c
     5cc:	0000                	unimp
     5ce:	0000                	unimp
     5d0:	0000                	unimp
     5d2:	4501                	li	a0,0
     5d4:	0001                	nop
     5d6:	0200                	addi	s0,sp,256
     5d8:	032c                	addi	a1,sp,392
     5da:	007a                	c.slli	zero,0x1e
     5dc:	0000                	unimp
     5de:	9102                	jalr	sp
     5e0:	0050                	addi	a2,sp,4
     5e2:	1500                	addi	s0,sp,672
     5e4:	01a2                	slli	gp,gp,0x8
     5e6:	0000                	unimp
     5e8:	1d02                	slli	s10,s10,0x20
     5ea:	e006                	sd	ra,0(sp)
     5ec:	0008                	.insn	2, 0x0008
     5ee:	0080                	addi	s0,sp,64
     5f0:	0000                	unimp
     5f2:	6400                	ld	s0,8(s0)
     5f4:	0000                	unimp
     5f6:	0000                	unimp
     5f8:	0000                	unimp
     5fa:	0100                	addi	s0,sp,128
     5fc:	179c                	addi	a5,sp,992
     5fe:	01000003          	lb	zero,16(zero) # 10 <__stack_align>
     602:	0165                	addi	sp,sp,25
     604:	0000                	unimp
     606:	1e02                	slli	t3,t3,0x20
     608:	810c                	.insn	2, 0x810c
     60a:	0000                	unimp
     60c:	0200                	addi	s0,sp,256
     60e:	6491                	lui	s1,0x4
     610:	e806                	sd	ra,16(sp)
     612:	0008                	.insn	2, 0x0008
     614:	0080                	addi	s0,sp,64
     616:	0000                	unimp
     618:	0c00                	addi	s0,sp,528
     61a:	0000                	unimp
     61c:	0000                	unimp
     61e:	0000                	unimp
     620:	0100                	addi	s0,sp,128
     622:	0145                	addi	sp,sp,17
     624:	0000                	unimp
     626:	1e02                	slli	t3,t3,0x20
     628:	7a16                	ld	s4,352(sp)
     62a:	0000                	unimp
     62c:	0200                	addi	s0,sp,256
     62e:	6891                	lui	a7,0x4
     630:	0000                	unimp
     632:	750c                	ld	a1,40(a0)
     634:	0001                	nop
     636:	0c00                	addi	s0,sp,528
     638:	079e                	slli	a5,a5,0x7
     63a:	8000                	.insn	2, 0x8000
     63c:	0000                	unimp
     63e:	0000                	unimp
     640:	0142                	slli	sp,sp,0x10
     642:	0000                	unimp
     644:	0000                	unimp
     646:	0000                	unimp
     648:	9c01                	subw	s0,s0,s0
     64a:	03f1                	addi	t2,t2,28
     64c:	0000                	unimp
     64e:	00015707          	.insn	4, 0x00015707
     652:	0200                	addi	s0,sp,256
     654:	170c                	addi	a1,sp,928
     656:	0056                	c.slli	zero,0x15
     658:	0000                	unimp
     65a:	9102                	jalr	sp
     65c:	074c                	addi	a1,sp,900
     65e:	0189                	addi	gp,gp,2 # 80002d7a <__global_pointer$+0x2>
     660:	0000                	unimp
     662:	0c02                	c.slli64	s8
     664:	5629                	li	a2,-22
     666:	0000                	unimp
     668:	0200                	addi	s0,sp,256
     66a:	4891                	li	a7,4
     66c:	6c08                	ld	a0,24(s0)
     66e:	6164                	ld	s1,192(a0)
     670:	0200                	addi	s0,sp,256
     672:	3b0c                	fld	fa1,48(a4)
     674:	0056                	c.slli	zero,0x15
     676:	0000                	unimp
     678:	9102                	jalr	sp
     67a:	0844                	addi	s1,sp,20
     67c:	0041                	c.nop	16
     67e:	0c02                	c.slli64	s8
     680:	f14a                	sd	s2,160(sp)
     682:	03000003          	lb	zero,48(zero) # 30 <__stack_align+0x20>
     686:	b891                	j	fffffffffffffeda <__heap_end+0xffffffff7ffdceda>
     688:	087f 0042 0c02 f159 	.insn	10, 0x0003f1590c020042087f
     690:	0003 
     692:	0300                	addi	s0,sp,384
     694:	b091                	j	fffffffffffffed8 <__heap_end+0xffffffff7ffdced8>
     696:	087f 0043 0c02 f662 	.insn	10, 0x0003f6620c020043087f
     69e:	0003 
     6a0:	0300                	addi	s0,sp,384
     6a2:	a891                	j	6f6 <__stack_align+0x6e6>
     6a4:	027f 0069 0e02 4a07 	.insn	10, 0x4a070e020069027f
     6ac:	0000 
     6ae:	0200                	addi	s0,sp,256
     6b0:	6c91                	lui	s9,0x4
     6b2:	6a02                	ld	s4,0(sp)
     6b4:	0200                	addi	s0,sp,256
     6b6:	0a0e                	slli	s4,s4,0x3
     6b8:	004a                	c.slli	zero,0x12
     6ba:	0000                	unimp
     6bc:	9102                	jalr	sp
     6be:	0268                	addi	a0,sp,268
     6c0:	0e02006b          	.insn	4, 0x0e02006b
     6c4:	4a0d                	li	s4,3
     6c6:	0000                	unimp
     6c8:	0200                	addi	s0,sp,256
     6ca:	6491                	lui	s1,0x4
     6cc:	9001                	srli	s0,s0,0x20
     6ce:	0001                	nop
     6d0:	0200                	addi	s0,sp,256
     6d2:	004a070f          	.insn	4, 0x004a070f
     6d6:	0000                	unimp
     6d8:	9102                	jalr	sp
     6da:	015c                	addi	a5,sp,132
     6dc:	04b1                	addi	s1,s1,12 # 400c <__stack_align+0x3ffc>
     6de:	0000                	unimp
     6e0:	1002                	c.slli	zero,0x20
     6e2:	00004a07          	.insn	4, 0x4a07
     6e6:	0200                	addi	s0,sp,256
     6e8:	5891                	li	a7,-28
     6ea:	f606                	sd	ra,296(sp)
     6ec:	00800007          	.insn	4, 0x00800007
     6f0:	0000                	unimp
     6f2:	a000                	fsd	fs0,0(s0)
     6f4:	0000                	unimp
     6f6:	0000                	unimp
     6f8:	0000                	unimp
     6fa:	0200                	addi	s0,sp,256
     6fc:	006d7573          	csrrci	a0,0x6,26
     700:	1402                	slli	s0,s0,0x20
     702:	00004a0b          	.insn	4, 0x4a0b
     706:	0200                	addi	s0,sp,256
     708:	6091                	lui	ra,0x4
     70a:	0000                	unimp
     70c:	5604                	lw	s1,40(a2)
     70e:	0000                	unimp
     710:	0400                	addi	s0,sp,512
     712:	004a                	c.slli	zero,0x12
     714:	0000                	unimp
     716:	6d16                	ld	s10,320(sp)
     718:	0001                	nop
     71a:	0100                	addi	s0,sp,128
     71c:	2716                	fld	fa4,320(sp)
     71e:	0724                	addi	s1,sp,904
     720:	8000                	.insn	2, 0x8000
     722:	0000                	unimp
     724:	0000                	unimp
     726:	007a                	c.slli	zero,0x1e
     728:	0000                	unimp
     72a:	0000                	unimp
     72c:	0000                	unimp
     72e:	9c01                	subw	s0,s0,s0
     730:	0461                	addi	s0,s0,24
     732:	0000                	unimp
     734:	00018907          	.insn	4, 0x00018907
     738:	0100                	addi	s0,sp,128
     73a:	3316                	fld	ft6,352(sp)
     73c:	004a                	c.slli	zero,0x12
     73e:	0000                	unimp
     740:	9102                	jalr	sp
     742:	016c                	addi	a1,sp,140
     744:	019c                	addi	a5,sp,192
     746:	0000                	unimp
     748:	1801                	addi	a6,a6,-32
     74a:	00005117          	auipc	sp,0x5
     74e:	0900                	addi	s0,sp,144
     750:	0029f403          	.insn	4, 0x0029f403
     754:	0080                	addi	s0,sp,64
     756:	0000                	unimp
     758:	0100                	addi	s0,sp,128
     75a:	0625                	addi	a2,a2,9
     75c:	0000                	unimp
     75e:	1901                	addi	s2,s2,-32
     760:	00005117          	auipc	sp,0x5
     764:	0900                	addi	s0,sp,144
     766:	0029f003          	.insn	4, 0x0029f003
     76a:	0080                	addi	s0,sp,64
     76c:	0000                	unimp
     76e:	1700                	addi	s0,sp,928
     770:	0196                	slli	gp,gp,0x5
     772:	0000                	unimp
     774:	1a01                	addi	s4,s4,-32 # fffffffffffe1fe0 <__heap_end+0xffffffff7ffbefe0>
     776:	00004a17          	auipc	s4,0x4
     77a:	0000                	unimp
     77c:	3e18                	fld	fa4,56(a2)
     77e:	0001                	nop
     780:	0100                	addi	s0,sp,128
     782:	0c06                	slli	s8,s8,0x1
     784:	004a                	c.slli	zero,0x12
     786:	0000                	unimp
     788:	0616                	slli	a2,a2,0x5
     78a:	8000                	.insn	2, 0x8000
     78c:	0000                	unimp
     78e:	0000                	unimp
     790:	010e                	slli	sp,sp,0x3
     792:	0000                	unimp
     794:	0000                	unimp
     796:	0000                	unimp
     798:	9c01                	subw	s0,s0,s0
     79a:	00000507          	.insn	4, 0x0507
     79e:	6e08                	ld	a0,24(a2)
     7a0:	0100                	addi	s0,sp,128
     7a2:	1706                	slli	a4,a4,0x21
     7a4:	004a                	c.slli	zero,0x12
     7a6:	0000                	unimp
     7a8:	9102                	jalr	sp
     7aa:	074c                	addi	a1,sp,900
     7ac:	017c                	addi	a5,sp,140
     7ae:	0000                	unimp
     7b0:	0601                	addi	a2,a2,0
     7b2:	072e                	slli	a4,a4,0xb
     7b4:	0005                	c.nop	1
     7b6:	0200                	addi	s0,sp,256
     7b8:	4091                	li	ra,4
     7ba:	00013e07          	fld	ft8,0(sp) # 5760 <__stack_align+0x5750>
     7be:	0100                	addi	s0,sp,128
     7c0:	3f06                	fld	ft10,96(sp)
     7c2:	03f1                	addi	t2,t2,28
     7c4:	0000                	unimp
     7c6:	7fb89103          	lh	sp,2043(a7) # 47fb <__stack_align+0x47eb>
     7ca:	6902                	ld	s2,0(sp)
     7cc:	0100                	addi	s0,sp,128
     7ce:	0708                	addi	a0,sp,896
     7d0:	004a                	c.slli	zero,0x12
     7d2:	0000                	unimp
     7d4:	9102                	jalr	sp
     7d6:	066c                	addi	a1,sp,780
     7d8:	0630                	addi	a2,sp,776
     7da:	8000                	.insn	2, 0x8000
     7dc:	0000                	unimp
     7de:	0000                	unimp
     7e0:	0084                	addi	s1,sp,64
     7e2:	0000                	unimp
     7e4:	0000                	unimp
     7e6:	0000                	unimp
     7e8:	7402                	ld	s0,32(sp)
     7ea:	0030                	addi	a2,sp,8
     7ec:	0c01                	addi	s8,s8,0 # fffffffffffe0000 <__heap_end+0xffffffff7ffbd000>
     7ee:	4a09                	li	s4,2
     7f0:	0000                	unimp
     7f2:	0200                	addi	s0,sp,256
     7f4:	6891                	lui	a7,0x4
     7f6:	7402                	ld	s0,32(sp)
     7f8:	0031                	c.nop	12
     7fa:	0c01                	addi	s8,s8,0
     7fc:	00004a17          	auipc	s4,0x4
     800:	0200                	addi	s0,sp,256
     802:	6491                	lui	s1,0x4
     804:	7602                	ld	a2,32(sp)
     806:	0030                	addi	a2,sp,8
     808:	0d01                	addi	s10,s10,0
     80a:	4a09                	li	s4,2
     80c:	0000                	unimp
     80e:	0200                	addi	s0,sp,256
     810:	6091                	lui	ra,0x4
     812:	7602                	ld	a2,32(sp)
     814:	0031                	c.nop	12
     816:	0d01                	addi	s10,s10,0
     818:	4a19                	li	s4,6
     81a:	0000                	unimp
     81c:	0200                	addi	s0,sp,256
     81e:	5c91                	li	s9,-28
     820:	0000                	unimp
     822:	5b04                	lw	s1,48(a4)
     824:	0000                	unimp
     826:	0000                	unimp
     828:	01ea                	slli	gp,gp,0x1a
     82a:	0000                	unimp
     82c:	0005                	c.nop	1
     82e:	0801                	addi	a6,a6,0
     830:	0279                	addi	tp,tp,30 # fffffffffffe101e <__heap_end+0xffffffff7ffbe01e>
     832:	0000                	unimp
     834:	640a                	ld	s0,128(sp)
     836:	0000                	unimp
     838:	1d00                	addi	s0,sp,688
     83a:	0235                	addi	tp,tp,13 # d <__tcb_size+0x7>
     83c:	0000                	unimp
     83e:	0000003b          	addw	zero,zero,zero
     842:	0acc                	addi	a1,sp,340
     844:	8000                	.insn	2, 0x8000
     846:	0000                	unimp
     848:	0000                	unimp
     84a:	00c2                	slli	ra,ra,0x10
     84c:	0000                	unimp
     84e:	0000                	unimp
     850:	0000                	unimp
     852:	00000847          	fmsub.s	fa6,ft0,ft0,ft0,rne
     856:	0101                	addi	sp,sp,0
     858:	4506                	lw	a0,64(sp)
     85a:	0000                	unimp
     85c:	0100                	addi	s0,sp,128
     85e:	0801                	addi	a6,a6,0
     860:	00000043          	fmadd.s	ft0,ft0,ft0,ft0,rne
     864:	0201                	addi	tp,tp,0 # 0 <__boot_hart>
     866:	1505                	addi	a0,a0,-31
     868:	0001                	nop
     86a:	0100                	addi	s0,sp,128
     86c:	0702                	c.slli64	a4
     86e:	0051                	c.nop	20
     870:	0000                	unimp
     872:	6905040b          	.insn	4, 0x6905040b
     876:	746e                	ld	s0,248(sp)
     878:	0200                	addi	s0,sp,256
     87a:	0100                	addi	s0,sp,128
     87c:	0000                	unimp
     87e:	4f02                	lw	t5,0(sp)
     880:	5d19                	li	s10,-26
     882:	0000                	unimp
     884:	0100                	addi	s0,sp,128
     886:	0704                	addi	s1,sp,896
     888:	035d                	addi	t1,t1,23 # ffffffffffff9017 <__heap_end+0xffffffff7ffd6017>
     88a:	0000                	unimp
     88c:	0801                	addi	a6,a6,0
     88e:	1505                	addi	a0,a0,-31
     890:	0002                	c.slli64	zero
     892:	0100                	addi	s0,sp,128
     894:	0708                	addi	a0,sp,896
     896:	0358                	addi	a4,sp,388
     898:	0000                	unimp
     89a:	d202                	sw	zero,36(sp)
     89c:	0001                	nop
     89e:	0200                	addi	s0,sp,256
     8a0:	19e6                	slli	s3,s3,0x39
     8a2:	0064                	addi	s1,sp,12
     8a4:	0000                	unimp
     8a6:	dd02                	sw	zero,184(sp)
     8a8:	0001                	nop
     8aa:	0200                	addi	s0,sp,256
     8ac:	1ae8                	addi	a0,sp,380
     8ae:	0000006b          	.insn	4, 0x006b
     8b2:	0202                	c.slli64	tp
     8b4:	0001                	nop
     8b6:	0300                	addi	s0,sp,384
     8b8:	1430                	addi	a2,sp,552
     8ba:	0051                	c.nop	20
     8bc:	0000                	unimp
     8be:	8a0c                	.insn	2, 0x8a0c
     8c0:	0000                	unimp
     8c2:	0200                	addi	s0,sp,256
     8c4:	01d4                	addi	a3,sp,196
     8c6:	0000                	unimp
     8c8:	72144d03          	lbu	s10,1825(s0)
     8cc:	0000                	unimp
     8ce:	0200                	addi	s0,sp,256
     8d0:	01df 0000 5203      	.insn	6, 0x5203000001df
     8d6:	7e15                	lui	t3,0xfffe5
     8d8:	0000                	unimp
     8da:	0300                	addi	s0,sp,384
     8dc:	012d                	addi	sp,sp,11
     8de:	0000                	unimp
     8e0:	1304                	addi	s1,sp,416
     8e2:	ce22                	sw	s0,28(sp)
     8e4:	0000                	unimp
     8e6:	0900                	addi	s0,sp,144
     8e8:	0025b003          	ld	zero,2(a1)
     8ec:	0080                	addi	s0,sp,64
     8ee:	0000                	unimp
     8f0:	0400                	addi	s0,sp,512
     8f2:	0096                	slli	ra,ra,0x5
     8f4:	0000                	unimp
     8f6:	c906                	sw	ra,144(sp)
     8f8:	0000                	unimp
     8fa:	0d00                	addi	s0,sp,656
     8fc:	01f5                	addi	gp,gp,29 # 80002d95 <__global_pointer$+0x1d>
     8fe:	0000                	unimp
     900:	0801                	addi	a6,a6,0
     902:	e506                	sd	ra,136(sp)
     904:	0000                	unimp
     906:	0700                	addi	s0,sp,896
     908:	004a                	c.slli	zero,0x12
     90a:	0000                	unimp
     90c:	0e00                	addi	s0,sp,784
     90e:	002c                	addi	a1,sp,8
     910:	0000                	unimp
     912:	2704                	fld	fs1,8(a4)
     914:	f80d                	bnez	s0,846 <__stack_align+0x836>
     916:	0000                	unimp
     918:	0700                	addi	s0,sp,896
     91a:	00f8                	addi	a4,sp,76
     91c:	0000                	unimp
     91e:	0008                	.insn	2, 0x0008
     920:	0404                	addi	s1,sp,512
     922:	0001                	nop
     924:	0100                	addi	s0,sp,128
     926:	0801                	addi	a6,a6,0
     928:	004c                	addi	a1,sp,4
     92a:	0000                	unimp
     92c:	fd06                	sd	ra,184(sp)
     92e:	0000                	unimp
     930:	0f00                	addi	s0,sp,912
     932:	01a2                	slli	gp,gp,0x8
     934:	0000                	unimp
     936:	0901                	addi	s2,s2,0
     938:	1706                	slli	a4,a4,0x21
     93a:	0001                	nop
     93c:	0800                	addi	s0,sp,16
     93e:	1000                	addi	s0,sp,32
     940:	01e9                	addi	gp,gp,26 # 80002d92 <__global_pointer$+0x1a>
     942:	0000                	unimp
     944:	0b01                	addi	s6,s6,0
     946:	0000a70b          	.insn	4, 0xa70b
     94a:	cc00                	sw	s0,24(s0)
     94c:	000a                	c.slli	zero,0x2
     94e:	0080                	addi	s0,sp,64
     950:	0000                	unimp
     952:	c200                	sw	s0,0(a2)
     954:	0000                	unimp
     956:	0000                	unimp
     958:	0000                	unimp
     95a:	0100                	addi	s0,sp,128
     95c:	e89c                	sd	a5,16(s1)
     95e:	0001                	nop
     960:	1100                	addi	s0,sp,160
     962:	7065                	c.lui	zero,0xffff9
     964:	0b010063          	beq	sp,a6,a04 <__stack_align+0x9f4>
     968:	a721                	j	1070 <__stack_align+0x1060>
     96a:	0000                	unimp
     96c:	0200                	addi	s0,sp,256
     96e:	4891                	li	a7,4
     970:	0505                	addi	a0,a0,1
     972:	0002                	c.slli64	zero
     974:	3000                	fld	fs0,32(s0)
     976:	000000a7          	.insn	4, 0x00a7
     97a:	9102                	jalr	sp
     97c:	0540                	addi	s0,sp,644
     97e:	0000020b          	.insn	4, 0x020b
     982:	a741                	j	1102 <__stack_align+0x10f2>
     984:	0000                	unimp
     986:	0300                	addi	s0,sp,384
     988:	b891                	j	1dc <__stack_align+0x1cc>
     98a:	057f 0200 0000 e851 	.insn	10, 0x0001e85100000200057f
     992:	0001 
     994:	0300                	addi	s0,sp,384
     996:	b091                	j	1da <__stack_align+0x1ca>
     998:	037f 01fb 0000 1701 	.insn	10, 0x4a071701000001fb037f
     9a0:	4a07 
     9a2:	0000                	unimp
     9a4:	0200                	addi	s0,sp,256
     9a6:	6c91                	lui	s9,0x4
     9a8:	f212                	sd	tp,288(sp)
     9aa:	000a                	c.slli	zero,0x2
     9ac:	0080                	addi	s0,sp,64
     9ae:	0000                	unimp
     9b0:	3400                	fld	fs0,40(s0)
     9b2:	0000                	unimp
     9b4:	0000                	unimp
     9b6:	0000                	unimp
     9b8:	c600                	sw	s0,8(a2)
     9ba:	0001                	nop
     9bc:	0300                	addi	s0,sp,384
     9be:	0165                	addi	sp,sp,25
     9c0:	0000                	unimp
     9c2:	0d01                	addi	s10,s10,0
     9c4:	8a0e                	mv	s4,gp
     9c6:	0000                	unimp
     9c8:	0200                	addi	s0,sp,256
     9ca:	5491                	li	s1,-28
     9cc:	f209                	bnez	a2,8ce <__stack_align+0x8be>
     9ce:	000a                	c.slli	zero,0x2
     9d0:	0080                	addi	s0,sp,64
     9d2:	0000                	unimp
     9d4:	0c00                	addi	s0,sp,528
     9d6:	0000                	unimp
     9d8:	0000                	unimp
     9da:	0000                	unimp
     9dc:	0300                	addi	s0,sp,384
     9de:	0145                	addi	sp,sp,17
     9e0:	0000                	unimp
     9e2:	0d01                	addi	s10,s10,0
     9e4:	6b18                	ld	a4,16(a4)
     9e6:	0000                	unimp
     9e8:	0200                	addi	s0,sp,256
     9ea:	5891                	li	a7,-28
     9ec:	0000                	unimp
     9ee:	5809                	li	a6,-30
     9f0:	0080000b          	.insn	4, 0x0080000b
     9f4:	0000                	unimp
     9f6:	0c00                	addi	s0,sp,528
     9f8:	0000                	unimp
     9fa:	0000                	unimp
     9fc:	0000                	unimp
     9fe:	0300                	addi	s0,sp,384
     a00:	0145                	addi	sp,sp,17
     a02:	0000                	unimp
     a04:	1a01                	addi	s4,s4,-32 # 47dc <__stack_align+0x47cc>
     a06:	00006b0b          	.insn	4, 0x6b0b
     a0a:	0200                	addi	s0,sp,256
     a0c:	6091                	lui	ra,0x4
     a0e:	0000                	unimp
     a10:	a704                	fsd	fs1,8(a4)
     a12:	0000                	unimp
     a14:	0000                	unimp
     a16:	000000e3          	beqz	zero,1216 <__stack_align+0x1206>
     a1a:	0004                	.insn	2, 0x0004
     a1c:	037c                	addi	a5,sp,396
     a1e:	0000                	unimp
     a20:	0108                	addi	a0,sp,128
     a22:	0260                	addi	s0,sp,268
     a24:	0000                	unimp
     a26:	250c                	fld	fa1,8(a0)
     a28:	0002                	c.slli64	zero
     a2a:	3300                	fld	fs0,32(a4)
     a2c:	0002                	c.slli64	zero
     a2e:	8e00                	.insn	2, 0x8e00
     a30:	0080000b          	.insn	4, 0x0080000b
     a34:	0000                	unimp
     a36:	2000                	fld	fs0,0(s0)
     a38:	0000                	unimp
     a3a:	0000                	unimp
     a3c:	0000                	unimp
     a3e:	4a00                	lw	s0,16(a2)
     a40:	0009                	c.nop	2
     a42:	0200                	addi	s0,sp,256
     a44:	0508                	addi	a0,sp,640
     a46:	0215                	addi	tp,tp,5 # 5 <__tbss_size+0x1>
     a48:	0000                	unimp
     a4a:	0802                	c.slli64	a6
     a4c:	00035807          	.insn	4, 0x00035807
     a50:	0300                	addi	s0,sp,384
     a52:	0504                	addi	s1,sp,640
     a54:	6e69                	lui	t3,0x1a
     a56:	0074                	addi	a3,sp,12
     a58:	0802                	c.slli64	a6
     a5a:	1005                	c.nop	-31
     a5c:	0002                	c.slli64	zero
     a5e:	0200                	addi	s0,sp,256
     a60:	0410                	addi	a2,sp,512
     a62:	02ce                	slli	t0,t0,0x13
     a64:	0000                	unimp
     a66:	0102                	c.slli64	sp
     a68:	4506                	lw	a0,64(sp)
     a6a:	0000                	unimp
     a6c:	0200                	addi	s0,sp,256
     a6e:	0801                	addi	a6,a6,0
     a70:	00000043          	fmadd.s	ft0,ft0,ft0,ft0,rne
     a74:	0202                	c.slli64	tp
     a76:	1505                	addi	a0,a0,-31
     a78:	0001                	nop
     a7a:	0200                	addi	s0,sp,256
     a7c:	0702                	c.slli64	a4
     a7e:	0051                	c.nop	20
     a80:	0000                	unimp
     a82:	0402                	c.slli64	s0
     a84:	00035d07          	.insn	4, 0x00035d07
     a88:	0400                	addi	s0,sp,512
     a8a:	02da                	slli	t0,t0,0x16
     a8c:	0000                	unimp
     a8e:	6902                	ld	s2,0(sp)
     a90:	3419                	addiw	s0,s0,-26
     a92:	0000                	unimp
     a94:	0400                	addi	s0,sp,512
     a96:	02dc                	addi	a5,sp,324
     a98:	0000                	unimp
     a9a:	73143c03          	ld	s8,1841(s0)
     a9e:	0000                	unimp
     aa0:	0500                	addi	s0,sp,640
     aa2:	007f 0000 0102 4c08 	.insn	10, 0x4c0801020000007f
     aaa:	0000 
     aac:	0600                	addi	s0,sp,768
     aae:	021e                	slli	tp,tp,0x7
     ab0:	0000                	unimp
     ab2:	0604                	addi	s1,sp,768
     ab4:	8b1a                	mv	s6,t1
     ab6:	0000                	unimp
     ab8:	0600                	addi	s0,sp,768
     aba:	02c5                	addi	t0,t0,17
     abc:	0000                	unimp
     abe:	0704                	addi	s1,sp,896
     ac0:	8b1a                	mv	s6,t1
     ac2:	0000                	unimp
     ac4:	0700                	addi	s0,sp,896
     ac6:	01f5                	addi	gp,gp,29 # 80002d95 <__global_pointer$+0x1d>
     ac8:	0000                	unimp
     aca:	0401                	addi	s0,s0,0
     acc:	8e21                	xor	a2,a2,s0
     ace:	0080000b          	.insn	4, 0x0080000b
     ad2:	0000                	unimp
     ad4:	2000                	fld	fs0,0(s0)
     ad6:	0000                	unimp
     ad8:	0000                	unimp
     ada:	0000                	unimp
     adc:	0100                	addi	s0,sp,128
     ade:	089c                	addi	a5,sp,80
     ae0:	000001fb          	.insn	4, 0x01fb
     ae4:	0401                	addi	s0,s0,0
     ae6:	00003b2b          	.insn	4, 0x3b2b
     aea:	0100                	addi	s0,sp,128
     aec:	095a                	slli	s2,s2,0x16
     aee:	00646d63          	bltu	s0,t1,b08 <__stack_align+0xaf8>
     af2:	0601                	addi	a2,a2,0
     af4:	7f0e                	ld	t5,224(sp)
     af6:	0000                	unimp
     af8:	0100                	addi	s0,sp,128
     afa:	005f 2a00 0000      	.insn	6, 0x2a00005f
     b00:	0200                	addi	s0,sp,256
     b02:	0e00                	addi	s0,sp,784
     b04:	0004                	.insn	2, 0x0004
     b06:	0800                	addi	s0,sp,16
     b08:	7501                	lui	a0,0xfffe0
     b0a:	000a                	c.slli	zero,0x2
     b0c:	0000                	unimp
     b0e:	0000                	unimp
     b10:	0080                	addi	s0,sp,64
     b12:	0000                	unimp
     b14:	f400                	sd	s0,40(s0)
     b16:	0001                	nop
     b18:	0080                	addi	s0,sp,64
     b1a:	0000                	unimp
     b1c:	e500                	sd	s0,8(a0)
     b1e:	0002                	c.slli64	zero
     b20:	3300                	fld	fs0,32(a4)
     b22:	0002                	c.slli64	zero
     b24:	f400                	sd	s0,40(s0)
     b26:	0002                	c.slli64	zero
     b28:	0100                	addi	s0,sp,128
     b2a:	2a80                	fld	fs0,16(a3)
     b2c:	0000                	unimp
     b2e:	0200                	addi	s0,sp,256
     b30:	2200                	fld	fs0,0(a2)
     b32:	0004                	.insn	2, 0x0004
     b34:	0800                	addi	s0,sp,16
     b36:	9c01                	subw	s0,s0,s0
     b38:	000e                	c.slli	zero,0x3
     b3a:	f400                	sd	s0,40(s0)
     b3c:	0001                	nop
     b3e:	0080                	addi	s0,sp,64
     b40:	0000                	unimp
     b42:	3e00                	fld	fs0,56(a2)
     b44:	0002                	c.slli64	zero
     b46:	0080                	addi	s0,sp,64
     b48:	0000                	unimp
     b4a:	0200                	addi	s0,sp,256
     b4c:	33000003          	lb	zero,816(zero) # 330 <__stack_align+0x320>
     b50:	0002                	c.slli64	zero
     b52:	f400                	sd	s0,40(s0)
     b54:	0002                	c.slli64	zero
     b56:	0100                	addi	s0,sp,128
     b58:	d580                	sw	s0,40(a1)
     b5a:	0009                	c.nop	2
     b5c:	0400                	addi	s0,sp,512
     b5e:	3600                	fld	fs0,40(a2)
     b60:	0004                	.insn	2, 0x0004
     b62:	0800                	addi	s0,sp,16
     b64:	6001                	.insn	2, 0x6001
     b66:	0002                	c.slli64	zero
     b68:	0c00                	addi	s0,sp,528
     b6a:	0650                	addi	a2,sp,772
     b6c:	0000                	unimp
     b6e:	00000233          	add	tp,zero,zero
     b72:	0bae                	slli	s7,s7,0xb
     b74:	8000                	.insn	2, 0x8000
     b76:	0000                	unimp
     b78:	0000                	unimp
     b7a:	002e                	c.slli	zero,0xb
     b7c:	0000                	unimp
     b7e:	0000                	unimp
     b80:	0000                	unimp
     b82:	0ef4                	addi	a3,sp,860
     b84:	0000                	unimp
     b86:	0802                	c.slli64	a6
     b88:	1505                	addi	a0,a0,-31 # fffffffffffdffe1 <__heap_end+0xffffffff7ffbcfe1>
     b8a:	0002                	c.slli64	zero
     b8c:	0300                	addi	s0,sp,384
     b8e:	06cc                	addi	a1,sp,836
     b90:	0000                	unimp
     b92:	d802                	sw	zero,48(sp)
     b94:	00004017          	auipc	zero,0x4
     b98:	0200                	addi	s0,sp,256
     b9a:	0708                	addi	a0,sp,896
     b9c:	0358                	addi	a4,sp,388
     b9e:	0000                	unimp
     ba0:	0404                	addi	s1,sp,512
     ba2:	6905                	lui	s2,0x1
     ba4:	746e                	ld	s0,248(sp)
     ba6:	0200                	addi	s0,sp,256
     ba8:	0508                	addi	a0,sp,640
     baa:	0210                	addi	a2,sp,256
     bac:	0000                	unimp
     bae:	1002                	c.slli	zero,0x20
     bb0:	ce04                	sw	s1,24(a2)
     bb2:	0002                	c.slli64	zero
     bb4:	0200                	addi	s0,sp,256
     bb6:	0601                	addi	a2,a2,0
     bb8:	0045                	c.nop	17
     bba:	0000                	unimp
     bbc:	0102                	c.slli64	sp
     bbe:	4308                	lw	a0,0(a4)
     bc0:	0000                	unimp
     bc2:	0200                	addi	s0,sp,256
     bc4:	0502                	c.slli64	a0
     bc6:	0115                	addi	sp,sp,5
     bc8:	0000                	unimp
     bca:	0202                	c.slli64	tp
     bcc:	00005107          	.insn	4, 0x5107
     bd0:	0200                	addi	s0,sp,256
     bd2:	0704                	addi	s1,sp,896
     bd4:	035d                	addi	t1,t1,23
     bd6:	0000                	unimp
     bd8:	00056703          	lwu	a4,0(a0)
     bdc:	0300                	addi	s0,sp,384
     bde:	0d0c                	addi	a1,sp,656
     be0:	00000047          	fmsub.s	ft0,ft0,ft0,ft0,rne
     be4:	0007f703          	.insn	4, 0x0007f703
     be8:	0400                	addi	s0,sp,512
     bea:	0e2c                	addi	a1,sp,792
     bec:	002d                	c.nop	11
     bee:	0000                	unimp
     bf0:	00063903          	ld	s2,0(a2)
     bf4:	0400                	addi	s0,sp,512
     bf6:	0e72                	slli	t3,t3,0x1c
     bf8:	002d                	c.nop	11
     bfa:	0000                	unimp
     bfc:	0006ca03          	lbu	s4,0(a3)
     c00:	0400                	addi	s0,sp,512
     c02:	1791                	addi	a5,a5,-28
     c04:	002d                	c.nop	11
     c06:	0000                	unimp
     c08:	f505                	bnez	a0,b30 <__stack_align+0xb20>
     c0a:	0004                	.insn	2, 0x0004
     c0c:	0200                	addi	s0,sp,256
     c0e:	0165                	addi	sp,sp,25
     c10:	00007817          	auipc	a6,0x7
     c14:	0600                	addi	s0,sp,768
     c16:	0404                	addi	s1,sp,512
     c18:	03a6                	slli	t2,t2,0x9
     c1a:	00de                	slli	ra,ra,0x17
     c1c:	0000                	unimp
     c1e:	0004e807          	.insn	4, 0x0004e807
     c22:	0400                	addi	s0,sp,512
     c24:	0ca8                	addi	a0,sp,600
     c26:	000000af          	.insn	4, 0x00af
     c2a:	00048c07          	.insn	4, 0x00048c07
     c2e:	0400                	addi	s0,sp,512
     c30:	13a9                	addi	t2,t2,-22
     c32:	00de                	slli	ra,ra,0x17
     c34:	0000                	unimp
     c36:	0800                	addi	s0,sp,16
     c38:	00000063          	beqz	zero,c38 <__stack_align+0xc28>
     c3c:	00ee                	slli	ra,ra,0x1b
     c3e:	0000                	unimp
     c40:	4009                	c.li	zero,2
     c42:	0000                	unimp
     c44:	0300                	addi	s0,sp,384
     c46:	0a00                	addi	s0,sp,272
     c48:	0408                	addi	a0,sp,512
     c4a:	011209a3          	sb	a7,19(tp) # 13 <__stack_align+0x3>
     c4e:	0000                	unimp
     c50:	0006230b          	.insn	4, 0x0006230b
     c54:	0400                	addi	s0,sp,512
     c56:	07a5                	addi	a5,a5,9
     c58:	00000047          	fmsub.s	ft0,ft0,ft0,ft0,rne
     c5c:	0b00                	addi	s0,sp,400
     c5e:	0000062b          	.insn	4, 0x062b
     c62:	aa04                	fsd	fs1,16(a2)
     c64:	bc05                	j	694 <__stack_align+0x684>
     c66:	0000                	unimp
     c68:	0400                	addi	s0,sp,512
     c6a:	0300                	addi	s0,sp,384
     c6c:	05a5                	addi	a1,a1,9
     c6e:	0000                	unimp
     c70:	ab04                	fsd	fs1,16(a4)
     c72:	0000ee03          	lwu	t3,0(ra) # 4000 <__stack_align+0x3ff0>
     c76:	0300                	addi	s0,sp,384
     c78:	0000044f          	fnmadd.s	fs0,ft0,ft0,ft0,rne
     c7c:	af04                	fsd	fs1,24(a4)
     c7e:	00007f1b          	.insn	4, 0x7f1b
     c82:	0c00                	addi	s0,sp,528
     c84:	0d08                	addi	a0,sp,656
     c86:	3208                	fld	fa0,32(a2)
     c88:	0001                	nop
     c8a:	0200                	addi	s0,sp,256
     c8c:	0801                	addi	a6,a6,0 # 7c10 <__stack_size_min+0x1c10>
     c8e:	004c                	addi	a1,sp,4
     c90:	0000                	unimp
     c92:	320e                	fld	ft4,224(sp)
     c94:	0001                	nop
     c96:	0300                	addi	s0,sp,384
     c98:	0679                	addi	a2,a2,30
     c9a:	0000                	unimp
     c9c:	1905                	addi	s2,s2,-31 # fe1 <__stack_align+0xfd1>
     c9e:	7819                	lui	a6,0xfffe6
     ca0:	0000                	unimp
     ca2:	0f00                	addi	s0,sp,912
     ca4:	0460                	addi	s0,sp,524
     ca6:	0000                	unimp
     ca8:	0520                	addi	s0,sp,648
     caa:	01a4082f          	.insn	4, 0x01a4082f
     cae:	0000                	unimp
     cb0:	0005c60b          	.insn	4, 0x0005c60b
     cb4:	0500                	addi	s0,sp,640
     cb6:	1331                	addi	t1,t1,-20
     cb8:	01a4                	addi	s1,sp,200
     cba:	0000                	unimp
     cbc:	1000                	addi	s0,sp,32
     cbe:	6b5f 0500 0732      	.insn	6, 0x073205006b5f
     cc4:	00000047          	fmsub.s	ft0,ft0,ft0,ft0,rne
     cc8:	0b08                	addi	a0,sp,400
     cca:	060e                	slli	a2,a2,0x3
     ccc:	0000                	unimp
     cce:	3205                	addiw	tp,tp,-31 # ffffffffffffffe1 <__heap_end+0xffffffff7ffdcfe1>
     cd0:	0000470b          	.insn	4, 0x470b
     cd4:	0c00                	addi	s0,sp,528
     cd6:	0004490b          	.insn	4, 0x0004490b
     cda:	0500                	addi	s0,sp,640
     cdc:	1432                	slli	s0,s0,0x2c
     cde:	00000047          	fmsub.s	ft0,ft0,ft0,ft0,rne
     ce2:	0b10                	addi	a2,sp,400
     ce4:	06b5                	addi	a3,a3,13
     ce6:	0000                	unimp
     ce8:	3205                	addiw	tp,tp,-31 # ffffffffffffffe1 <__heap_end+0xffffffff7ffdcfe1>
     cea:	0000471b          	.insn	4, 0x471b
     cee:	1400                	addi	s0,sp,544
     cf0:	5f10                	lw	a2,56(a4)
     cf2:	0078                	addi	a4,sp,12
     cf4:	3305                	addiw	t1,t1,-31
     cf6:	0001aa0b          	.insn	4, 0x0001aa0b
     cfa:	1800                	addi	s0,sp,48
     cfc:	0d00                	addi	s0,sp,656
     cfe:	4a08                	lw	a0,16(a2)
     d00:	0001                	nop
     d02:	0800                	addi	s0,sp,16
     d04:	013e                	slli	sp,sp,0xf
     d06:	0000                	unimp
     d08:	01ba                	slli	gp,gp,0xe
     d0a:	0000                	unimp
     d0c:	4009                	c.li	zero,2
     d0e:	0000                	unimp
     d10:	0000                	unimp
     d12:	0f00                	addi	s0,sp,912
     d14:	00000487          	.insn	4, 0x0487
     d18:	0524                	addi	s1,sp,648
     d1a:	023d0837          	lui	a6,0x23d0
     d1e:	0000                	unimp
     d20:	00039b0b          	.insn	4, 0x00039b0b
     d24:	0500                	addi	s0,sp,640
     d26:	0939                	addi	s2,s2,14
     d28:	00000047          	fmsub.s	ft0,ft0,ft0,ft0,rne
     d2c:	0b00                	addi	s0,sp,400
     d2e:	0641                	addi	a2,a2,16
     d30:	0000                	unimp
     d32:	3a05                	addiw	s4,s4,-31
     d34:	4709                	li	a4,2
     d36:	0000                	unimp
     d38:	0400                	addi	s0,sp,512
     d3a:	0003b00b          	.insn	4, 0x0003b00b
     d3e:	0500                	addi	s0,sp,640
     d40:	0047093b          	addw	s2,a4,tp
     d44:	0000                	unimp
     d46:	0b08                	addi	a0,sp,400
     d48:	0739                	addi	a4,a4,14
     d4a:	0000                	unimp
     d4c:	3c05                	addiw	s8,s8,-31
     d4e:	4709                	li	a4,2
     d50:	0000                	unimp
     d52:	0c00                	addi	s0,sp,528
     d54:	0005330b          	.insn	4, 0x0005330b
     d58:	0500                	addi	s0,sp,640
     d5a:	093d                	addi	s2,s2,15
     d5c:	00000047          	fmsub.s	ft0,ft0,ft0,ft0,rne
     d60:	0b10                	addi	a2,sp,400
     d62:	0000050b          	.insn	4, 0x050b
     d66:	3e05                	addiw	t3,t3,-31 # 19fe1 <__stack_size+0x11fe1>
     d68:	4709                	li	a4,2
     d6a:	0000                	unimp
     d6c:	1400                	addi	s0,sp,544
     d6e:	0006ba0b          	.insn	4, 0x0006ba0b
     d72:	0500                	addi	s0,sp,640
     d74:	0047093f 0b180000 	.insn	8, 0x0b1800000047093f
     d7c:	00000587          	.insn	4, 0x0587
     d80:	4005                	c.li	zero,1
     d82:	4709                	li	a4,2
     d84:	0000                	unimp
     d86:	1c00                	addi	s0,sp,560
     d88:	0007000b          	.insn	4, 0x0007000b
     d8c:	0500                	addi	s0,sp,640
     d8e:	0941                	addi	s2,s2,16
     d90:	00000047          	fmsub.s	ft0,ft0,ft0,ft0,rne
     d94:	0020                	addi	s0,sp,8
     d96:	bf11                	j	caa <__stack_align+0xc9a>
     d98:	08000003          	lb	zero,128(zero) # 80 <__stack_align+0x70>
     d9c:	0502                	c.slli64	a0
     d9e:	084a                	slli	a6,a6,0x12
     da0:	00000283          	lb	t0,0(zero) # 0 <__boot_hart>
     da4:	0004300b          	.insn	4, 0x0004300b
     da8:	0500                	addi	s0,sp,640
     daa:	02830a4b          	fnmsub.d	fs4,ft6,fs0,ft0,rne
     dae:	0000                	unimp
     db0:	1200                	addi	s0,sp,288
     db2:	0314                	addi	a3,sp,384
     db4:	0000                	unimp
     db6:	4c05                	li	s8,1
     db8:	8309                	srli	a4,a4,0x2
     dba:	0002                	c.slli64	zero
     dbc:	0000                	unimp
     dbe:	1201                	addi	tp,tp,-32 # ffffffffffffffe0 <__heap_end+0xffffffff7ffdcfe0>
     dc0:	0000066b          	.insn	4, 0x066b
     dc4:	4e05                	li	t3,1
     dc6:	3e0a                	fld	ft8,160(sp)
     dc8:	0001                	nop
     dca:	0000                	unimp
     dcc:	1202                	slli	tp,tp,0x20
     dce:	03e4                	addi	s1,sp,460
     dd0:	0000                	unimp
     dd2:	5105                	li	sp,-31
     dd4:	3e0a                	fld	ft8,160(sp)
     dd6:	0001                	nop
     dd8:	0400                	addi	s0,sp,512
     dda:	0002                	c.slli64	zero
     ddc:	2a08                	fld	fa0,16(a2)
     dde:	0001                	nop
     de0:	9300                	.insn	2, 0x9300
     de2:	0002                	c.slli64	zero
     de4:	0900                	addi	s0,sp,144
     de6:	0040                	addi	s0,sp,4
     de8:	0000                	unimp
     dea:	001f 3c11 0005      	.insn	6, 0x00053c11001f
     df0:	1800                	addi	s0,sp,48
     df2:	085d0503          	lb	a0,133(s10)
     df6:	000002d7          	.insn	4, 0x02d7
     dfa:	0005c60b          	.insn	4, 0x0005c60b
     dfe:	0500                	addi	s0,sp,640
     e00:	125e                	slli	tp,tp,0x37
     e02:	000002d7          	.insn	4, 0x02d7
     e06:	0b00                	addi	s0,sp,400
     e08:	05de                	slli	a1,a1,0x17
     e0a:	0000                	unimp
     e0c:	5f05                	li	t5,-31
     e0e:	4706                	lw	a4,64(sp)
     e10:	0000                	unimp
     e12:	0800                	addi	s0,sp,16
     e14:	0004440b          	.insn	4, 0x0004440b
     e18:	0500                	addi	s0,sp,640
     e1a:	0961                	addi	s2,s2,24
     e1c:	02dd                	addi	t0,t0,23
     e1e:	0000                	unimp
     e20:	1210                	addi	a2,sp,288
     e22:	000003bf 3d1e6205 	.insn	8, 0x3d1e6205000003bf
     e2a:	0002                	c.slli64	zero
     e2c:	1000                	addi	s0,sp,32
     e2e:	0001                	nop
     e30:	080d                	addi	a6,a6,3 # 23d0003 <__heap_size+0x23b0003>
     e32:	00000293          	li	t0,0
     e36:	ed08                	sd	a0,24(a0)
     e38:	0002                	c.slli64	zero
     e3a:	ed00                	sd	s0,24(a0)
     e3c:	0002                	c.slli64	zero
     e3e:	0900                	addi	s0,sp,144
     e40:	0040                	addi	s0,sp,4
     e42:	0000                	unimp
     e44:	001f 080d 02f3      	.insn	6, 0x02f3080d001f
     e4a:	0000                	unimp
     e4c:	05910f13          	addi	t5,sp,89
     e50:	0000                	unimp
     e52:	0510                	addi	a2,sp,640
     e54:	0875                	addi	a6,a6,29
     e56:	031c                	addi	a5,sp,384
     e58:	0000                	unimp
     e5a:	0003aa0b          	.insn	4, 0x0003aa0b
     e5e:	0500                	addi	s0,sp,640
     e60:	1176                	slli	sp,sp,0x3d
     e62:	031c                	addi	a5,sp,384
     e64:	0000                	unimp
     e66:	0b00                	addi	s0,sp,400
     e68:	03fa                	slli	t2,t2,0x1e
     e6a:	0000                	unimp
     e6c:	7705                	lui	a4,0xfffe1
     e6e:	4706                	lw	a4,64(sp)
     e70:	0000                	unimp
     e72:	0800                	addi	s0,sp,16
     e74:	0d00                	addi	s0,sp,656
     e76:	6308                	ld	a0,0(a4)
     e78:	0000                	unimp
     e7a:	0f00                	addi	s0,sp,912
     e7c:	05b0                	addi	a2,sp,712
     e7e:	0000                	unimp
     e80:	05b0                	addi	a2,sp,712
     e82:	08b5                	addi	a7,a7,13 # 400d <__stack_align+0x3ffd>
     e84:	0465                	addi	s0,s0,25
     e86:	0000                	unimp
     e88:	5f10                	lw	a2,56(a4)
     e8a:	0070                	addi	a2,sp,12
     e8c:	b605                	j	9ac <__stack_align+0x99c>
     e8e:	1c12                	slli	s8,s8,0x24
     e90:	00000003          	lb	zero,0(zero) # 0 <__boot_hart>
     e94:	5f10                	lw	a2,56(a4)
     e96:	0072                	c.slli	zero,0x1c
     e98:	b705                	j	db8 <__stack_align+0xda8>
     e9a:	00004707          	.insn	4, 0x4707
     e9e:	0800                	addi	s0,sp,16
     ea0:	5f10                	lw	a2,56(a4)
     ea2:	b8050077          	.insn	4, 0xb8050077
     ea6:	00004707          	.insn	4, 0x4707
     eaa:	0c00                	addi	s0,sp,528
     eac:	0003dd0b          	.insn	4, 0x0003dd0b
     eb0:	0500                	addi	s0,sp,640
     eb2:	09b9                	addi	s3,s3,14
     eb4:	006a                	c.slli	zero,0x1a
     eb6:	0000                	unimp
     eb8:	0b10                	addi	a2,sp,400
     eba:	000004a3          	sb	zero,9(zero) # 9 <__tcb_size+0x3>
     ebe:	ba05                	j	7ee <__stack_align+0x7de>
     ec0:	6a09                	lui	s4,0x2
     ec2:	0000                	unimp
     ec4:	1200                	addi	s0,sp,288
     ec6:	5f10                	lw	a2,56(a4)
     ec8:	6662                	ld	a2,24(sp)
     eca:	0500                	addi	s0,sp,640
     ecc:	02f411bb          	.insn	4, 0x02f411bb
     ed0:	0000                	unimp
     ed2:	0b18                	addi	a4,sp,400
     ed4:	036a                	slli	t1,t1,0x1a
     ed6:	0000                	unimp
     ed8:	bc05                	j	908 <__stack_align+0x8f8>
     eda:	00004707          	.insn	4, 0x4707
     ede:	2800                	fld	fs0,16(s0)
     ee0:	0003cd0b          	.insn	4, 0x0003cd0b
     ee4:	0500                	addi	s0,sp,640
     ee6:	012a0ac3          	fmadd.s	fs5,fs4,fs2,ft0,rne
     eea:	0000                	unimp
     eec:	0b30                	addi	a2,sp,408
     eee:	00000477          	.insn	4, 0x0477
     ef2:	c505                	beqz	a0,f1a <__stack_align+0xf0a>
     ef4:	d71d                	beqz	a4,e22 <__stack_align+0xe12>
     ef6:	0005                	c.nop	1
     ef8:	3800                	fld	fs0,48(s0)
     efa:	0005040b          	.insn	4, 0x0005040b
     efe:	0500                	addi	s0,sp,640
     f00:	06011dc7          	.insn	4, 0x06011dc7
     f04:	0000                	unimp
     f06:	0b40                	addi	s0,sp,404
     f08:	00000633          	add	a2,zero,zero
     f0c:	ca05                	beqz	a2,f3c <__stack_align+0xf2c>
     f0e:	250d                	addiw	a0,a0,3
     f10:	0006                	c.slli	zero,0x1
     f12:	4800                	lw	s0,16(s0)
     f14:	00071a0b          	.insn	4, 0x00071a0b
     f18:	0500                	addi	s0,sp,640
     f1a:	063f09cb          	.insn	4, 0x063f09cb
     f1e:	0000                	unimp
     f20:	1050                	addi	a2,sp,36
     f22:	755f 0062 ce05      	.insn	6, 0xce050062755f
     f28:	f411                	bnez	s0,e34 <__stack_align+0xe24>
     f2a:	0002                	c.slli64	zero
     f2c:	5800                	lw	s0,48(s0)
     f2e:	5f10                	lw	a2,56(a4)
     f30:	7075                	c.lui	zero,0xffffd
     f32:	0500                	addi	s0,sp,640
     f34:	031c12cf          	fnmadd.d	ft5,fs8,fa7,ft0,rtz
     f38:	0000                	unimp
     f3a:	1068                	addi	a0,sp,44
     f3c:	755f 0072 d005      	.insn	6, 0xd0050072755f
     f42:	00004707          	.insn	4, 0x4707
     f46:	7000                	ld	s0,32(s0)
     f48:	0003a40b          	.insn	4, 0x0003a40b
     f4c:	0500                	addi	s0,sp,640
     f4e:	064511d3          	.insn	4, 0x064511d3
     f52:	0000                	unimp
     f54:	0b74                	addi	a3,sp,412
     f56:	06f2                	slli	a3,a3,0x1c
     f58:	0000                	unimp
     f5a:	d405                	beqz	s0,e82 <__stack_align+0xe72>
     f5c:	5511                	li	a0,-28
     f5e:	0006                	c.slli	zero,0x1
     f60:	7700                	ld	s0,40(a4)
     f62:	5f10                	lw	a2,56(a4)
     f64:	626c                	ld	a1,192(a2)
     f66:	0500                	addi	s0,sp,640
     f68:	02f411d7          	.insn	4, 0x02f411d7
     f6c:	0000                	unimp
     f6e:	0b78                	addi	a4,sp,412
     f70:	0400                	addi	s0,sp,512
     f72:	0000                	unimp
     f74:	da05                	beqz	a2,ea4 <__stack_align+0xe94>
     f76:	00004707          	.insn	4, 0x4707
     f7a:	8800                	.insn	2, 0x8800
     f7c:	0005240b          	.insn	4, 0x0005240b
     f80:	0500                	addi	s0,sp,640
     f82:	008b0adb          	.insn	4, 0x008b0adb
     f86:	0000                	unimp
     f88:	0b90                	addi	a2,sp,464
     f8a:	000001b3          	add	gp,zero,zero
     f8e:	de05                	beqz	a2,ec6 <__stack_align+0xeb6>
     f90:	8312                	mv	t1,tp
     f92:	0004                	.insn	2, 0x0004
     f94:	9800                	.insn	2, 0x9800
     f96:	0007610b          	.insn	4, 0x0007610b
     f9a:	0500                	addi	s0,sp,640
     f9c:	0ce2                	slli	s9,s9,0x18
     f9e:	011e                	slli	sp,sp,0x7
     fa0:	0000                	unimp
     fa2:	0ba0                	addi	s0,sp,472
     fa4:	05b8                	addi	a4,sp,712
     fa6:	0000                	unimp
     fa8:	e405                	bnez	s0,fd0 <__stack_align+0xfc0>
     faa:	120e                	slli	tp,tp,0x23
     fac:	0001                	nop
     fae:	a400                	fsd	fs0,8(s0)
     fb0:	0004fc0b          	.insn	4, 0x0004fc0b
     fb4:	0500                	addi	s0,sp,640
     fb6:	09e5                	addi	s3,s3,25
     fb8:	00000047          	fmsub.s	ft0,ft0,ft0,ft0,rne
     fbc:	00ac                	addi	a1,sp,72
     fbe:	a314                	fsd	fa3,0(a4)
     fc0:	0000                	unimp
     fc2:	8300                	.insn	2, 0x8300
     fc4:	0004                	.insn	2, 0x0004
     fc6:	1500                	addi	s0,sp,672
     fc8:	00000483          	lb	s1,0(zero) # 0 <__boot_hart>
     fcc:	2a15                	addiw	s4,s4,5 # 2005 <__stack_align+0x1ff5>
     fce:	0001                	nop
     fd0:	1500                	addi	s0,sp,672
     fd2:	012c                	addi	a1,sp,136
     fd4:	0000                	unimp
     fd6:	4715                	li	a4,5
     fd8:	0000                	unimp
     fda:	0000                	unimp
     fdc:	080d                	addi	a6,a6,3
     fde:	048e                	slli	s1,s1,0x3
     fe0:	0000                	unimp
     fe2:	830e                	mv	t1,gp
     fe4:	0004                	.insn	2, 0x0004
     fe6:	1600                	addi	s0,sp,800
     fe8:	0616                	slli	a2,a2,0x5
     fea:	0000                	unimp
     fec:	0748                	addi	a0,sp,900
     fee:	3905                	addiw	s2,s2,-31
     ff0:	0802                	c.slli64	a6
     ff2:	000005d7          	.insn	4, 0x05d7
     ff6:	0007c917          	auipc	s2,0x7c
     ffa:	0500                	addi	s0,sp,640
     ffc:	4707023b          	.insn	4, 0x4707023b
    1000:	0000                	unimp
    1002:	0000                	unimp
    1004:	0003ec17          	auipc	s8,0x3e
    1008:	0500                	addi	s0,sp,640
    100a:	0240                	addi	s0,sp,260
    100c:	0006b10b          	.insn	4, 0x0006b10b
    1010:	0800                	addi	s0,sp,16
    1012:	00049317          	auipc	t1,0x49
    1016:	0500                	addi	s0,sp,640
    1018:	0240                	addi	s0,sp,260
    101a:	b114                	fsd	fa3,32(a0)
    101c:	0006                	c.slli	zero,0x1
    101e:	1000                	addi	s0,sp,32
    1020:	00045817          	auipc	a6,0x45
    1024:	0500                	addi	s0,sp,640
    1026:	0240                	addi	s0,sp,260
    1028:	b11e                	fsd	ft7,160(sp)
    102a:	0006                	c.slli	zero,0x1
    102c:	1800                	addi	s0,sp,48
    102e:	0005d917          	auipc	s2,0x5d
    1032:	0500                	addi	s0,sp,640
    1034:	0242                	slli	tp,tp,0x10
    1036:	4708                	lw	a0,8(a4)
    1038:	0000                	unimp
    103a:	2000                	fld	fs0,0(s0)
    103c:	00032817          	auipc	a6,0x32
    1040:	0500                	addi	s0,sp,640
    1042:	ba080243          	fmadd.d	ft4,fa6,ft0,fs7,rne
    1046:	0008                	.insn	2, 0x0008
    1048:	2400                	fld	fs0,8(s0)
    104a:	0005f517          	auipc	a0,0x5f
    104e:	0500                	addi	s0,sp,640
    1050:	0246                	slli	tp,tp,0x11
    1052:	00004707          	.insn	4, 0x4707
    1056:	4000                	lw	s0,0(s0)
    1058:	0005e317          	auipc	t1,0x5e
    105c:	0500                	addi	s0,sp,640
    105e:	cf160247          	.insn	4, 0xcf160247
    1062:	0008                	.insn	2, 0x0008
    1064:	4800                	lw	s0,16(s0)
    1066:	00054417          	auipc	s0,0x54
    106a:	0500                	addi	s0,sp,640
    106c:	0249                	addi	tp,tp,18 # 12 <__stack_align+0x2>
    106e:	00004707          	.insn	4, 0x4707
    1072:	5000                	lw	s0,32(s0)
    1074:	0005eb17          	auipc	s6,0x5e
    1078:	0500                	addi	s0,sp,640
    107a:	e00a024b          	fnmsub.s	ft4,fs4,ft0,ft8,rne
    107e:	0008                	.insn	2, 0x0008
    1080:	5800                	lw	s0,48(s0)
    1082:	0004e017          	auipc	zero,0x4e
    1086:	0500                	addi	s0,sp,640
    1088:	024e                	slli	tp,tp,0x13
    108a:	0001a413          	slti	s0,gp,0
    108e:	6000                	ld	s0,0(s0)
    1090:	00047d17          	auipc	s10,0x47
    1094:	0500                	addi	s0,sp,640
    1096:	4707024f          	.insn	4, 0x4707024f
    109a:	0000                	unimp
    109c:	6800                	ld	s0,16(s0)
    109e:	00073417          	auipc	s0,0x73
    10a2:	0500                	addi	s0,sp,640
    10a4:	0250                	addi	a2,sp,260
    10a6:	0001a413          	slti	s0,gp,0
    10aa:	7000                	ld	s0,32(s0)
    10ac:	00054f17          	auipc	t5,0x54
    10b0:	0500                	addi	s0,sp,640
    10b2:	0251                	addi	tp,tp,20 # 14 <__stack_align+0x4>
    10b4:	e614                	sd	a3,8(a2)
    10b6:	0008                	.insn	2, 0x0008
    10b8:	7800                	ld	s0,48(s0)
    10ba:	00049b17          	auipc	s6,0x49
    10be:	0500                	addi	s0,sp,640
    10c0:	0254                	addi	a3,sp,260
    10c2:	00004707          	.insn	4, 0x4707
    10c6:	8000                	.insn	2, 0x8000
    10c8:	00040917          	auipc	s2,0x40
    10cc:	0500                	addi	s0,sp,640
    10ce:	0255                	addi	tp,tp,21 # 15 <__stack_align+0x5>
    10d0:	2c09                	addiw	s8,s8,2 # 3f006 <__heap_size+0x1f006>
    10d2:	0001                	nop
    10d4:	8800                	.insn	2, 0x8800
    10d6:	00057917          	auipc	s2,0x57
    10da:	0500                	addi	s0,sp,640
    10dc:	0278                	addi	a4,sp,268
    10de:	00089407          	.insn	4, 0x00089407
    10e2:	9000                	.insn	2, 0x9000
    10e4:	3c18                	fld	fa4,56(s0)
    10e6:	0005                	c.nop	1
    10e8:	0500                	addi	s0,sp,640
    10ea:	027c                	addi	a5,sp,268
    10ec:	0002d713          	srli	a4,t0,0x0
    10f0:	f800                	sd	s0,48(s0)
    10f2:	1801                	addi	a6,a6,-32 # 3301c <__heap_size+0x1301c>
    10f4:	04be                	slli	s1,s1,0xf
    10f6:	0000                	unimp
    10f8:	7d05                	lui	s10,0xfffe1
    10fa:	1202                	slli	tp,tp,0x20
    10fc:	00000293          	li	t0,0
    1100:	0200                	addi	s0,sp,256
    1102:	e818                	sd	a4,16(s0)
    1104:	0006                	c.slli	zero,0x1
    1106:	0500                	addi	s0,sp,640
    1108:	0281                	addi	t0,t0,0
    110a:	f70c                	sd	a1,40(a4)
    110c:	0008                	.insn	2, 0x0008
    110e:	1800                	addi	s0,sp,48
    1110:	1805                	addi	a6,a6,-31
    1112:	03d5                	addi	t2,t2,21
    1114:	0000                	unimp
    1116:	8605                	srai	a2,a2,0x1
    1118:	1002                	c.slli	zero,0x20
    111a:	0672                	slli	a2,a2,0x1c
    111c:	0000                	unimp
    111e:	0520                	addi	s0,sp,648
    1120:	ba18                	fsd	fa4,48(a2)
    1122:	05000003          	lb	zero,80(zero) # 50 <__stack_align+0x40>
    1126:	0288                	addi	a0,sp,320
    1128:	030a                	slli	t1,t1,0x2
    112a:	0009                	c.nop	2
    112c:	3800                	fld	fs0,48(s0)
    112e:	0005                	c.nop	1
    1130:	080d                	addi	a6,a6,3
    1132:	0465                	addi	s0,s0,25 # 740b7 <__heap_size+0x540b7>
    1134:	0000                	unimp
    1136:	a314                	fsd	fa3,0(a4)
    1138:	0000                	unimp
    113a:	fb00                	sd	s0,48(a4)
    113c:	0005                	c.nop	1
    113e:	1500                	addi	s0,sp,672
    1140:	00000483          	lb	s1,0(zero) # 0 <__boot_hart>
    1144:	2a15                	addiw	s4,s4,5
    1146:	0001                	nop
    1148:	1500                	addi	s0,sp,672
    114a:	000005fb          	.insn	4, 0x05fb
    114e:	4715                	li	a4,5
    1150:	0000                	unimp
    1152:	0000                	unimp
    1154:	080d                	addi	a6,a6,3
    1156:	0139                	addi	sp,sp,14
    1158:	0000                	unimp
    115a:	080d                	addi	a6,a6,3
    115c:	05dd                	addi	a1,a1,23
    115e:	0000                	unimp
    1160:	9714                	.insn	2, 0x9714
    1162:	0000                	unimp
    1164:	2500                	fld	fs0,8(a0)
    1166:	0006                	c.slli	zero,0x1
    1168:	1500                	addi	s0,sp,672
    116a:	00000483          	lb	s1,0(zero) # 0 <__boot_hart>
    116e:	2a15                	addiw	s4,s4,5
    1170:	0001                	nop
    1172:	1500                	addi	s0,sp,672
    1174:	00000097          	auipc	ra,0x0
    1178:	4715                	li	a4,5
    117a:	0000                	unimp
    117c:	0000                	unimp
    117e:	080d                	addi	a6,a6,3
    1180:	00000607          	.insn	4, 0x0607
    1184:	4714                	lw	a3,8(a4)
    1186:	0000                	unimp
    1188:	3f00                	fld	fs0,56(a4)
    118a:	0006                	c.slli	zero,0x1
    118c:	1500                	addi	s0,sp,672
    118e:	00000483          	lb	s1,0(zero) # 0 <__boot_hart>
    1192:	2a15                	addiw	s4,s4,5
    1194:	0001                	nop
    1196:	0000                	unimp
    1198:	080d                	addi	a6,a6,3
    119a:	0000062b          	.insn	4, 0x062b
    119e:	6308                	ld	a0,0(a4)
    11a0:	0000                	unimp
    11a2:	5500                	lw	s0,40(a0)
    11a4:	0006                	c.slli	zero,0x1
    11a6:	0900                	addi	s0,sp,144
    11a8:	0040                	addi	s0,sp,4
    11aa:	0000                	unimp
    11ac:	0002                	c.slli64	zero
    11ae:	6308                	ld	a0,0(a4)
    11b0:	0000                	unimp
    11b2:	6500                	ld	s0,8(a0)
    11b4:	0006                	c.slli	zero,0x1
    11b6:	0900                	addi	s0,sp,144
    11b8:	0040                	addi	s0,sp,4
    11ba:	0000                	unimp
    11bc:	0000                	unimp
    11be:	9e05                	subw	a2,a2,s1
    11c0:	0005                	c.nop	1
    11c2:	0500                	addi	s0,sp,640
    11c4:	011f 221a 0003      	.insn	6, 0x0003221a011f
    11ca:	1900                	addi	s0,sp,176
    11cc:	06c4                	addi	s1,sp,836
    11ce:	0000                	unimp
    11d0:	0518                	addi	a4,sp,640
    11d2:	ab080123          	sb	a6,-1374(a6)
    11d6:	0006                	c.slli	zero,0x1
    11d8:	1700                	addi	s0,sp,928
    11da:	05c6                	slli	a1,a1,0x11
    11dc:	0000                	unimp
    11de:	2505                	addiw	a0,a0,1 # 6004b <__heap_size+0x4004b>
    11e0:	1101                	addi	sp,sp,-32
    11e2:	000006ab          	.insn	4, 0x06ab
    11e6:	1700                	addi	s0,sp,928
    11e8:	000004b7          	lui	s1,0x0
    11ec:	2605                	addiw	a2,a2,1
    11ee:	0701                	addi	a4,a4,0 # fffffffffffe1000 <__heap_end+0xffffffff7ffbe000>
    11f0:	00000047          	fmsub.s	ft0,ft0,ft0,ft0,rne
    11f4:	1708                	addi	a0,sp,928
    11f6:	0598                	addi	a4,sp,704
    11f8:	0000                	unimp
    11fa:	2705                	addiw	a4,a4,1
    11fc:	0b01                	addi	s6,s6,0 # 4a0ba <__heap_size+0x2a0ba>
    11fe:	06b1                	addi	a3,a3,12
    1200:	0000                	unimp
    1202:	0010                	.insn	2, 0x0010
    1204:	080d                	addi	a6,a6,3
    1206:	0672                	slli	a2,a2,0x1c
    1208:	0000                	unimp
    120a:	080d                	addi	a6,a6,3
    120c:	0665                	addi	a2,a2,25
    120e:	0000                	unimp
    1210:	2019                	.insn	2, 0x2019
    1212:	0e000003          	lb	zero,224(zero) # e0 <__stack_align+0xd0>
    1216:	3f05                	addiw	t5,t5,-31 # 5508d <__heap_size+0x3508d>
    1218:	0801                	addi	a6,a6,0
    121a:	06f0                	addi	a2,sp,844
    121c:	0000                	unimp
    121e:	00061d17          	auipc	s10,0x61
    1222:	0500                	addi	s0,sp,640
    1224:	0140                	addi	s0,sp,132
    1226:	f012                	sd	tp,32(sp)
    1228:	0006                	c.slli	zero,0x1
    122a:	0000                	unimp
    122c:	00064a17          	auipc	s4,0x64
    1230:	0500                	addi	s0,sp,640
    1232:	0141                	addi	sp,sp,16
    1234:	f012                	sd	tp,32(sp)
    1236:	0006                	c.slli	zero,0x1
    1238:	0600                	addi	s0,sp,768
    123a:	00067417          	auipc	s0,0x67
    123e:	0500                	addi	s0,sp,640
    1240:	0142                	slli	sp,sp,0x10
    1242:	7112                	ld	sp,288(sp)
    1244:	0000                	unimp
    1246:	0c00                	addi	s0,sp,528
    1248:	0800                	addi	s0,sp,16
    124a:	0071                	c.nop	28
    124c:	0000                	unimp
    124e:	0700                	addi	s0,sp,896
    1250:	0000                	unimp
    1252:	4009                	c.li	zero,2
    1254:	0000                	unimp
    1256:	0200                	addi	s0,sp,256
    1258:	1a00                	addi	s0,sp,304
    125a:	05d8                	addi	a4,sp,708
    125c:	0259                	addi	tp,tp,22 # 16 <__stack_align+0x6>
    125e:	00081507          	.insn	4, 0x00081507
    1262:	1700                	addi	s0,sp,928
    1264:	06a8                	addi	a0,sp,840
    1266:	0000                	unimp
    1268:	5b05                	li	s6,-31
    126a:	1802                	slli	a6,a6,0x20
    126c:	0078                	addi	a4,sp,12
    126e:	0000                	unimp
    1270:	1700                	addi	s0,sp,928
    1272:	065e                	slli	a2,a2,0x17
    1274:	0000                	unimp
    1276:	5c05                	li	s8,-31
    1278:	1202                	slli	tp,tp,0x20
    127a:	012c                	addi	a1,sp,136
    127c:	0000                	unimp
    127e:	1708                	addi	a0,sp,928
    1280:	000004d3          	fadd.s	fs1,ft0,ft0,rne
    1284:	5d05                	li	s10,-31
    1286:	1002                	c.slli	zero,0x20
    1288:	0815                	addi	a6,a6,5
    128a:	0000                	unimp
    128c:	1710                	addi	a2,sp,928
    128e:	0000070b          	.insn	4, 0x070b
    1292:	5e05                	li	t3,-31
    1294:	1702                	slli	a4,a4,0x20
    1296:	01ba                	slli	gp,gp,0xe
    1298:	0000                	unimp
    129a:	172c                	addi	a1,sp,936
    129c:	0468                	addi	a0,sp,524
    129e:	0000                	unimp
    12a0:	5f05                	li	t5,-31
    12a2:	0f02                	c.slli64	t5
    12a4:	00000047          	fmsub.s	ft0,ft0,ft0,ft0,rne
    12a8:	1750                	addi	a2,sp,932
    12aa:	05c1                	addi	a1,a1,16
    12ac:	0000                	unimp
    12ae:	6005                	c.lui	zero,0x1
    12b0:	2c02                	fld	fs8,0(sp)
    12b2:	0825                	addi	a6,a6,9
    12b4:	0000                	unimp
    12b6:	1758                	addi	a4,sp,932
    12b8:	0721                	addi	a4,a4,8
    12ba:	0000                	unimp
    12bc:	6105                	addi	sp,sp,32
    12be:	1a02                	slli	s4,s4,0x20
    12c0:	000006b7          	lui	a3,0x0
    12c4:	1760                	addi	s0,sp,940
    12c6:	05cc                	addi	a1,sp,708
    12c8:	0000                	unimp
    12ca:	6205                	lui	tp,0x1
    12cc:	1602                	slli	a2,a2,0x20
    12ce:	0112                	slli	sp,sp,0x4
    12d0:	0000                	unimp
    12d2:	1770                	addi	a2,sp,940
    12d4:	0726                	slli	a4,a4,0x9
    12d6:	0000                	unimp
    12d8:	6305                	lui	t1,0x1
    12da:	1602                	slli	a2,a2,0x20
    12dc:	0112                	slli	sp,sp,0x4
    12de:	0000                	unimp
    12e0:	1778                	addi	a4,sp,940
    12e2:	038d                	addi	t2,t2,3
    12e4:	0000                	unimp
    12e6:	6405                	lui	s0,0x1
    12e8:	1602                	slli	a2,a2,0x20
    12ea:	0112                	slli	sp,sp,0x4
    12ec:	0000                	unimp
    12ee:	1780                	addi	s0,sp,992
    12f0:	000006d3          	fadd.s	fa3,ft0,ft0,rne
    12f4:	6505                	lui	a0,0x1
    12f6:	1002                	c.slli	zero,0x20
    12f8:	082c                	addi	a1,sp,24
    12fa:	0000                	unimp
    12fc:	1788                	addi	a0,sp,992
    12fe:	000004c7          	fmsub.s	fs1,ft0,ft0,ft0,rne
    1302:	6605                	lui	a2,0x1
    1304:	1002                	c.slli	zero,0x20
    1306:	083c                	addi	a5,sp,24
    1308:	0000                	unimp
    130a:	1790                	addi	a2,sp,992
    130c:	0681                	addi	a3,a3,0 # 0 <__boot_hart>
    130e:	0000                	unimp
    1310:	6705                	lui	a4,0x1
    1312:	0f02                	c.slli64	t5
    1314:	00000047          	fmsub.s	ft0,ft0,ft0,ft0,rne
    1318:	17a8                	addi	a0,sp,1000
    131a:	0422                	slli	s0,s0,0x8
    131c:	0000                	unimp
    131e:	6805                	lui	a6,0x1
    1320:	1602                	slli	a2,a2,0x20
    1322:	0112                	slli	sp,sp,0x4
    1324:	0000                	unimp
    1326:	17ac                	addi	a1,sp,1000
    1328:	037e                	slli	t1,t1,0x1f
    132a:	0000                	unimp
    132c:	6905                	lui	s2,0x1
    132e:	1602                	slli	a2,a2,0x20
    1330:	0112                	slli	sp,sp,0x4
    1332:	0000                	unimp
    1334:	17b4                	addi	a3,sp,1000
    1336:	0411                	addi	s0,s0,4 # 1004 <__stack_align+0xff4>
    1338:	0000                	unimp
    133a:	6a05                	lui	s4,0x1
    133c:	1602                	slli	a2,a2,0x20
    133e:	0112                	slli	sp,sp,0x4
    1340:	0000                	unimp
    1342:	17bc                	addi	a5,sp,1000
    1344:	00000333          	add	t1,zero,zero
    1348:	6b05                	lui	s6,0x1
    134a:	1602                	slli	a2,a2,0x20
    134c:	0112                	slli	sp,sp,0x4
    134e:	0000                	unimp
    1350:	17c4                	addi	s1,sp,996
    1352:	0342                	slli	t1,t1,0x10
    1354:	0000                	unimp
    1356:	6c05                	lui	s8,0x1
    1358:	1602                	slli	a2,a2,0x20
    135a:	0112                	slli	sp,sp,0x4
    135c:	0000                	unimp
    135e:	17cc                	addi	a1,sp,996
    1360:	057e                	slli	a0,a0,0x1f
    1362:	0000                	unimp
    1364:	6d05                	lui	s10,0x1
    1366:	0802                	c.slli64	a6
    1368:	00000047          	fmsub.s	ft0,ft0,ft0,ft0,rne
    136c:	00d4                	addi	a3,sp,68
    136e:	3208                	fld	fa0,32(a2)
    1370:	0001                	nop
    1372:	2500                	fld	fs0,8(a0)
    1374:	0008                	.insn	2, 0x0008
    1376:	0900                	addi	s0,sp,144
    1378:	0040                	addi	s0,sp,4
    137a:	0000                	unimp
    137c:	0019                	c.nop	6
    137e:	0802                	c.slli64	a6
    1380:	00035307          	.insn	4, 0x00035307
    1384:	0800                	addi	s0,sp,16
    1386:	0132                	slli	sp,sp,0xc
    1388:	0000                	unimp
    138a:	083c                	addi	a5,sp,24
    138c:	0000                	unimp
    138e:	4009                	c.li	zero,2
    1390:	0000                	unimp
    1392:	0700                	addi	s0,sp,896
    1394:	0800                	addi	s0,sp,16
    1396:	0132                	slli	sp,sp,0xc
    1398:	0000                	unimp
    139a:	084c                	addi	a1,sp,20
    139c:	0000                	unimp
    139e:	4009                	c.li	zero,2
    13a0:	0000                	unimp
    13a2:	1700                	addi	s0,sp,928
    13a4:	1b00                	addi	s0,sp,432
    13a6:	0168                	addi	a0,sp,140
    13a8:	7205                	lui	tp,0xfffe1
    13aa:	0702                	c.slli64	a4
    13ac:	0874                	addi	a3,sp,28
    13ae:	0000                	unimp
    13b0:	00052c17          	auipc	s8,0x52
    13b4:	0500                	addi	s0,sp,640
    13b6:	0275                	addi	tp,tp,29 # fffffffffffe101d <__heap_end+0xffffffff7ffbe01d>
    13b8:	0008741b          	.insn	4, 0x0008741b
    13bc:	0000                	unimp
    13be:	00051517          	auipc	a0,0x51
    13c2:	0500                	addi	s0,sp,640
    13c4:	0276                	slli	tp,tp,0x1d
    13c6:	8418                	.insn	2, 0x8418
    13c8:	0008                	.insn	2, 0x0008
    13ca:	f000                	sd	s0,32(s0)
    13cc:	0800                	addi	s0,sp,16
    13ce:	031c                	addi	a5,sp,384
    13d0:	0000                	unimp
    13d2:	0884                	addi	s1,sp,80
    13d4:	0000                	unimp
    13d6:	4009                	c.li	zero,2
    13d8:	0000                	unimp
    13da:	1d00                	addi	s0,sp,688
    13dc:	0800                	addi	s0,sp,16
    13de:	0078                	addi	a4,sp,12
    13e0:	0000                	unimp
    13e2:	0894                	addi	a3,sp,80
    13e4:	0000                	unimp
    13e6:	4009                	c.li	zero,2
    13e8:	0000                	unimp
    13ea:	1d00                	addi	s0,sp,688
    13ec:	1c00                	addi	s0,sp,560
    13ee:	0168                	addi	a0,sp,140
    13f0:	5705                	li	a4,-31
    13f2:	0302                	c.slli64	t1
    13f4:	08ba                	slli	a7,a7,0xe
    13f6:	0000                	unimp
    13f8:	161d                	addi	a2,a2,-25 # fe7 <__stack_align+0xfd7>
    13fa:	0006                	c.slli	zero,0x1
    13fc:	0500                	addi	s0,sp,640
    13fe:	026e                	slli	tp,tp,0x1b
    1400:	0007000b          	.insn	4, 0x0007000b
    1404:	1d00                	addi	s0,sp,688
    1406:	06f8                	addi	a4,sp,844
    1408:	0000                	unimp
    140a:	7705                	lui	a4,0xfffe1
    140c:	0b02                	c.slli64	s6
    140e:	084c                	addi	a1,sp,20
    1410:	0000                	unimp
    1412:	0800                	addi	s0,sp,16
    1414:	0132                	slli	sp,sp,0xc
    1416:	0000                	unimp
    1418:	08ca                	slli	a7,a7,0x12
    141a:	0000                	unimp
    141c:	4009                	c.li	zero,2
    141e:	0000                	unimp
    1420:	1800                	addi	s0,sp,48
    1422:	1e00                	addi	s0,sp,816
    1424:	00000373          	.insn	4, 0x0373
    1428:	080d                	addi	a6,a6,3 # 1003 <__stack_align+0xff3>
    142a:	08ca                	slli	a7,a7,0x12
    142c:	0000                	unimp
    142e:	e01f 0008 1500      	.insn	6, 0x15000008e01f
    1434:	00000483          	lb	s1,0(zero) # 0 <__boot_hart>
    1438:	0d00                	addi	s0,sp,656
    143a:	d508                	sw	a0,40(a0)
    143c:	0008                	.insn	2, 0x0008
    143e:	0d00                	addi	s0,sp,656
    1440:	a408                	fsd	fa0,8(s0)
    1442:	0001                	nop
    1444:	1f00                	addi	s0,sp,944
    1446:	000008f7          	.insn	4, 0x08f7
    144a:	4715                	li	a4,5
    144c:	0000                	unimp
    144e:	0000                	unimp
    1450:	080d                	addi	a6,a6,3
    1452:	08fd                	addi	a7,a7,31
    1454:	0000                	unimp
    1456:	080d                	addi	a6,a6,3
    1458:	08ec                	addi	a1,sp,92
    145a:	0000                	unimp
    145c:	6508                	ld	a0,8(a0)
    145e:	0006                	c.slli	zero,0x1
    1460:	1300                	addi	s0,sp,416
    1462:	0009                	c.nop	2
    1464:	0900                	addi	s0,sp,144
    1466:	0040                	addi	s0,sp,4
    1468:	0000                	unimp
    146a:	0002                	c.slli64	zero
    146c:	9520                	.insn	2, 0x9520
    146e:	0006                	c.slli	zero,0x1
    1470:	0500                	addi	s0,sp,640
    1472:	83170307          	.insn	4, 0x83170307
    1476:	0004                	.insn	2, 0x0004
    1478:	2000                	fld	fs0,0(s0)
    147a:	068e                	slli	a3,a3,0x3
    147c:	0000                	unimp
    147e:	0805                	addi	a6,a6,1
    1480:	04891d03          	lh	s10,72(s2) # 1048 <__stack_align+0x1038>
    1484:	0000                	unimp
    1486:	dd21                	beqz	a0,13de <__stack_align+0x13ce>
    1488:	0006                	c.slli	zero,0x1
    148a:	0100                	addi	s0,sp,128
    148c:	0bae0603          	lb	a2,186(t3)
    1490:	8000                	.insn	2, 0x8000
    1492:	0000                	unimp
    1494:	0000                	unimp
    1496:	002e                	c.slli	zero,0xb
    1498:	0000                	unimp
    149a:	0000                	unimp
    149c:	0000                	unimp
    149e:	9c01                	subw	s0,s0,s0
    14a0:	09b5                	addi	s3,s3,13
    14a2:	0000                	unimp
    14a4:	5922                	lw	s2,40(sp)
    14a6:	0005                	c.nop	1
    14a8:	0100                	addi	s0,sp,128
    14aa:	1405                	addi	s0,s0,-31
    14ac:	012c                	addi	a1,sp,136
    14ae:	0000                	unimp
    14b0:	5401                	li	s0,-32
    14b2:	0004a923          	sw	zero,18(s1) # 12 <__stack_align+0x2>
    14b6:	0100                	addi	s0,sp,128
    14b8:	1106                	slli	sp,sp,0x21
    14ba:	09b5                	addi	s3,s3,13
    14bc:	0000                	unimp
    14be:	00051e23          	sh	zero,28(a0) # 523da <__heap_size+0x323da>
    14c2:	0100                	addi	s0,sp,128
    14c4:	09b51107          	.insn	4, 0x09b51107
    14c8:	0000                	unimp
    14ca:	0003f323          	.insn	4, 0x0003f323
    14ce:	0100                	addi	s0,sp,128
    14d0:	1108                	addi	a0,sp,160
    14d2:	09b5                	addi	s3,s3,13
    14d4:	0000                	unimp
    14d6:	00043823          	sd	zero,16(s0)
    14da:	0100                	addi	s0,sp,128
    14dc:	1109                	addi	sp,sp,-30
    14de:	09b5                	addi	s3,s3,13
    14e0:	0000                	unimp
    14e2:	c824                	sw	s1,80(s0)
    14e4:	0080000b          	.insn	4, 0x0080000b
    14e8:	0000                	unimp
    14ea:	c000                	sw	s0,0(s0)
    14ec:	0009                	c.nop	2
    14ee:	a100                	fsd	fs0,0(a0)
    14f0:	0009                	c.nop	2
    14f2:	2500                	fld	fs0,8(a0)
    14f4:	5a01                	li	s4,-32
    14f6:	7802                	ld	a6,32(sp)
    14f8:	0000                	unimp
    14fa:	dc26                	sw	s1,56(sp)
    14fc:	0080000b          	.insn	4, 0x0080000b
    1500:	0000                	unimp
    1502:	cc00                	sw	s0,24(s0)
    1504:	0009                	c.nop	2
    1506:	2500                	fld	fs0,8(a0)
    1508:	5b01                	li	s6,-32
    150a:	3001                	.insn	2, 0x3001
    150c:	0000                	unimp
    150e:	3208                	fld	fa0,32(a2)
    1510:	0001                	nop
    1512:	c000                	sw	s0,0(s0)
    1514:	0009                	c.nop	2
    1516:	2700                	fld	fs0,8(a4)
    1518:	2800                	fld	fs0,16(s0)
    151a:	04ee                	slli	s1,s1,0x1b
    151c:	0000                	unimp
    151e:	04ee                	slli	s1,s1,0x1b
    1520:	0000                	unimp
    1522:	1f06                	slli	t5,t5,0x21
    1524:	2809                	addiw	a6,a6,2
    1526:	06a1                	addi	a3,a3,8
    1528:	0000                	unimp
    152a:	06a1                	addi	a3,a3,8
    152c:	0000                	unimp
    152e:	2106                	fld	ft2,64(sp)
    1530:	0009                	c.nop	2
    1532:	0374                	addi	a3,sp,396
    1534:	0000                	unimp
    1536:	0004                	.insn	2, 0x0004
    1538:	0666                	slli	a2,a2,0x19
    153a:	0000                	unimp
    153c:	0108                	addi	a0,sp,128
    153e:	0260                	addi	s0,sp,268
    1540:	0000                	unimp
    1542:	4e0c                	lw	a1,24(a2)
    1544:	33000007          	.insn	4, 0x33000007
    1548:	0002                	c.slli64	zero
    154a:	dc00                	sw	s0,56(s0)
    154c:	0080000b          	.insn	4, 0x0080000b
    1550:	0000                	unimp
    1552:	5200                	lw	s0,32(a2)
    1554:	0000                	unimp
    1556:	0000                	unimp
    1558:	0000                	unimp
    155a:	7500                	ld	s0,40(a0)
    155c:	0010                	.insn	2, 0x0010
    155e:	0200                	addi	s0,sp,256
    1560:	0601                	addi	a2,a2,0
    1562:	0045                	c.nop	17
    1564:	0000                	unimp
    1566:	0102                	c.slli64	sp
    1568:	4308                	lw	a0,0(a4)
    156a:	0000                	unimp
    156c:	0200                	addi	s0,sp,256
    156e:	0502                	c.slli64	a0
    1570:	0115                	addi	sp,sp,5
    1572:	0000                	unimp
    1574:	0202                	c.slli64	tp
    1576:	00005107          	.insn	4, 0x5107
    157a:	0300                	addi	s0,sp,384
    157c:	001a                	c.slli	zero,0x6
    157e:	0000                	unimp
    1580:	4d04                	lw	s1,24(a0)
    1582:	5518                	lw	a4,40(a0)
    1584:	0000                	unimp
    1586:	0400                	addi	s0,sp,512
    1588:	0504                	addi	s1,sp,640
    158a:	6e69                	lui	t3,0x1a
    158c:	0074                	addi	a3,sp,12
    158e:	0402                	c.slli64	s0
    1590:	00035d07          	.insn	4, 0x00035d07
    1594:	0200                	addi	s0,sp,256
    1596:	0508                	addi	a0,sp,640
    1598:	0215                	addi	tp,tp,5 # 5 <__tbss_size+0x1>
    159a:	0000                	unimp
    159c:	0002da03          	lhu	s4,0(t0)
    15a0:	0400                	addi	s0,sp,512
    15a2:	1969                	addi	s2,s2,-6
    15a4:	0076                	c.slli	zero,0x1d
    15a6:	0000                	unimp
    15a8:	0802                	c.slli64	a6
    15aa:	00035807          	.insn	4, 0x00035807
    15ae:	0300                	addi	s0,sp,384
    15b0:	01dd                	addi	gp,gp,23 # 80002d8f <__global_pointer$+0x17>
    15b2:	0000                	unimp
    15b4:	e804                	sd	s1,16(s0)
    15b6:	761a                	ld	a2,416(sp)
    15b8:	0000                	unimp
    15ba:	0300                	addi	s0,sp,384
    15bc:	001c                	.insn	2, 0x001c
    15be:	0000                	unimp
    15c0:	2c05                	addiw	s8,s8,1 # 533b1 <__heap_size+0x333b1>
    15c2:	00004913          	xori	s2,zero,0
    15c6:	0300                	addi	s0,sp,384
    15c8:	02dc                	addi	a5,sp,324
    15ca:	0000                	unimp
    15cc:	3c05                	addiw	s8,s8,-31
    15ce:	6a14                	ld	a3,16(a2)
    15d0:	0000                	unimp
    15d2:	0500                	addi	s0,sp,640
    15d4:	0095                	addi	ra,ra,5 # 1179 <__stack_align+0x1169>
    15d6:	0000                	unimp
    15d8:	0001df03          	lhu	t5,0(gp) # 80002d78 <__global_pointer$>
    15dc:	0500                	addi	s0,sp,640
    15de:	1552                	slli	a0,a0,0x34
    15e0:	007d                	c.nop	31
    15e2:	0000                	unimp
    15e4:	00078803          	lb	a6,0(a5)
    15e8:	0200                	addi	s0,sp,256
    15ea:	0089111b          	slliw	sp,s2,0x8
    15ee:	0000                	unimp
    15f0:	b206                	fsd	ft1,288(sp)
    15f2:	0000                	unimp
    15f4:	0700                	addi	s0,sp,896
    15f6:	0304                	addi	s1,sp,384
    15f8:	0906                	slli	s2,s2,0x1
    15fa:	00da                	slli	ra,ra,0x16
    15fc:	0000                	unimp
    15fe:	6208                	ld	a0,0(a2)
    1600:	03000007          	.insn	4, 0x03000007
    1604:	00b20e07          	.insn	4, 0x00b20e07
    1608:	0000                	unimp
    160a:	0000                	unimp
    160c:	00074303          	lbu	t1,0(a4) # fffffffffffe1000 <__heap_end+0xffffffff7ffbe000>
    1610:	0300                	addi	s0,sp,384
    1612:	0308                	addi	a0,sp,384
    1614:	000000c3          	fmadd.s	ft1,ft0,ft0,ft0,rne
    1618:	1e09                	addi	t3,t3,-30 # 19fe2 <__stack_size+0x11fe2>
    161a:	0002                	c.slli64	zero
    161c:	0600                	addi	s0,sp,768
    161e:	1a06                	slli	s4,s4,0x21
    1620:	00a1                	addi	ra,ra,8
    1622:	0000                	unimp
    1624:	c509                	beqz	a0,162e <__stack_align+0x161e>
    1626:	0002                	c.slli64	zero
    1628:	0600                	addi	s0,sp,768
    162a:	00a11a07          	.insn	4, 0x00a11a07
    162e:	0000                	unimp
    1630:	e60a                	sd	sp,264(sp)
    1632:	0000                	unimp
    1634:	0100                	addi	s0,sp,128
    1636:	03091307          	.insn	4, 0x03091307
    163a:	18c0                	addi	s0,sp,116
    163c:	8000                	.insn	2, 0x8000
    163e:	0000                	unimp
    1640:	0000                	unimp
    1642:	f20a                	sd	sp,288(sp)
    1644:	0000                	unimp
    1646:	0100                	addi	s0,sp,128
    1648:	1308                	addi	a0,sp,416
    164a:	0309                	addi	t1,t1,2 # 1002 <__stack_align+0xff2>
    164c:	18c8                	addi	a0,sp,116
    164e:	8000                	.insn	2, 0x8000
    1650:	0000                	unimp
    1652:	0000                	unimp
    1654:	00075d0b          	.insn	4, 0x00075d0b
    1658:	0100                	addi	s0,sp,128
    165a:	130a                	slli	t1,t1,0x22
    165c:	00da                	slli	ra,ra,0x16
    165e:	0000                	unimp
    1660:	0309                	addi	t1,t1,2
    1662:	25b8                	fld	fa4,72(a1)
    1664:	8000                	.insn	2, 0x8000
    1666:	0000                	unimp
    1668:	0000                	unimp
    166a:	670c                	ld	a1,8(a4)
    166c:	01000007          	.insn	4, 0x01000007
    1670:	060c                	addi	a1,sp,768
    1672:	00000063          	beqz	zero,1672 <__stack_align+0x1662>
    1676:	0bdc                	addi	a5,sp,468
    1678:	8000                	.insn	2, 0x8000
    167a:	0000                	unimp
    167c:	0000                	unimp
    167e:	0052                	c.slli	zero,0x14
    1680:	0000                	unimp
    1682:	0000                	unimp
    1684:	0000                	unimp
    1686:	9c01                	subw	s0,s0,s0
    1688:	02a6                	slli	t0,t0,0x9
    168a:	0000                	unimp
    168c:	610d                	addi	sp,sp,160
    168e:	0030                	addi	a2,sp,8
    1690:	0c01                	addi	s8,s8,0
    1692:	951c                	.insn	2, 0x951c
    1694:	0000                	unimp
    1696:	0000                	unimp
    1698:	0000                	unimp
    169a:	0e00                	addi	s0,sp,784
    169c:	3161                	addiw	sp,sp,-8
    169e:	0100                	addi	s0,sp,128
    16a0:	290c                	fld	fa1,16(a0)
    16a2:	0095                	addi	ra,ra,5
    16a4:	0000                	unimp
    16a6:	5b01                	li	s6,-32
    16a8:	610d                	addi	sp,sp,160
    16aa:	0032                	c.slli	zero,0xc
    16ac:	0c01                	addi	s8,s8,0
    16ae:	9536                	add	a0,a0,a3
    16b0:	0000                	unimp
    16b2:	3900                	fld	fs0,48(a0)
    16b4:	0000                	unimp
    16b6:	0d00                	addi	s0,sp,656
    16b8:	006e                	c.slli	zero,0x1b
    16ba:	0c01                	addi	s8,s8,0
    16bc:	7648                	ld	a0,168(a2)
    16be:	0000                	unimp
    16c0:	8600                	.insn	2, 0x8600
    16c2:	0000                	unimp
    16c4:	0f00                	addi	s0,sp,912
    16c6:	7562                	ld	a0,56(sp)
    16c8:	0066                	c.slli	zero,0x19
    16ca:	0e01                	addi	t3,t3,0
    16cc:	0002b617          	auipc	a2,0x2b
    16d0:	0200                	addi	s0,sp,256
    16d2:	4091                	li	ra,4
    16d4:	0063730f          	.insn	4, 0x0063730f
    16d8:	0f01                	addi	t5,t5,0
    16da:	950e                	add	a0,a0,gp
    16dc:	0000                	unimp
    16de:	0100                	addi	s0,sp,128
    16e0:	105c                	addi	a5,sp,36
    16e2:	000002db          	.insn	4, 0x02db
    16e6:	0bf2                	slli	s7,s7,0x1c
    16e8:	8000                	.insn	2, 0x8000
    16ea:	0000                	unimp
    16ec:	0000                	unimp
    16ee:	000e                	c.slli	zero,0x3
    16f0:	0000                	unimp
    16f2:	0000                	unimp
    16f4:	0000                	unimp
    16f6:	1701                	addi	a4,a4,-32
    16f8:	2d05                	addiw	s10,s10,1 # 1001 <__stack_align+0xff1>
    16fa:	0002                	c.slli64	zero
    16fc:	1100                	addi	s0,sp,160
    16fe:	02e8                	addi	a0,sp,332
    1700:	0000                	unimp
    1702:	000000bf 00031312 	.insn	8, 0x00031312000000bf
    170a:	f200                	sd	s0,32(a2)
    170c:	0080000b          	.insn	4, 0x0080000b
    1710:	0000                	unimp
    1712:	0000                	unimp
    1714:	0000                	unimp
    1716:	0300                	addi	s0,sp,384
    1718:	0e12                	slli	t3,t3,0x4
    171a:	020a                	slli	tp,tp,0x2
    171c:	0000                	unimp
    171e:	2e11                	addiw	t3,t3,4
    1720:	eb000003          	lb	zero,-336(zero) # fffffffffffffeb0 <__heap_end+0xffffffff7ffdceb0>
    1724:	0000                	unimp
    1726:	1100                	addi	s0,sp,160
    1728:	0324                	addi	s1,sp,392
    172a:	0000                	unimp
    172c:	0110                	addi	a2,sp,128
    172e:	0000                	unimp
    1730:	00000013          	nop
    1734:	1400                	addi	s0,sp,544
    1736:	0338                	addi	a4,sp,392
    1738:	0000                	unimp
    173a:	0000                	unimp
    173c:	4315                	li	t1,5
    173e:	f4000003          	lb	zero,-192(zero) # ffffffffffffff40 <__heap_end+0xffffffff7ffdcf40>
    1742:	0080000b          	.insn	4, 0x0080000b
    1746:	0000                	unimp
    1748:	0400                	addi	s0,sp,512
    174a:	0000                	unimp
    174c:	0000                	unimp
    174e:	0000                	unimp
    1750:	0300                	addi	s0,sp,384
    1752:	1010                	addi	a2,sp,32
    1754:	5411                	li	s0,-28
    1756:	3c000003          	lb	zero,960(zero) # 3c0 <__stack_align+0x3b0>
    175a:	0001                	nop
    175c:	0000                	unimp
    175e:	1600                	addi	s0,sp,800
    1760:	0365                	addi	t1,t1,25
    1762:	0000                	unimp
    1764:	0c00                	addi	s0,sp,528
    1766:	8000                	.insn	2, 0x8000
    1768:	0000                	unimp
    176a:	0000                	unimp
    176c:	0004                	.insn	2, 0x0004
    176e:	0000                	unimp
    1770:	0000                	unimp
    1772:	0000                	unimp
    1774:	1801                	addi	a6,a6,-32
    1776:	1005                	c.nop	-31
    1778:	000002bb          	addw	t0,zero,zero
    177c:	0c20                	addi	s0,sp,536
    177e:	8000                	.insn	2, 0x8000
    1780:	0000                	unimp
    1782:	0000                	unimp
    1784:	0004                	.insn	2, 0x0004
    1786:	0000                	unimp
    1788:	0000                	unimp
    178a:	0000                	unimp
    178c:	1c01                	addi	s8,s8,-32
    178e:	8d05                	sub	a0,a0,s1
    1790:	0002                	c.slli64	zero
    1792:	1100                	addi	s0,sp,160
    1794:	02c8                	addi	a0,sp,324
    1796:	0000                	unimp
    1798:	0168                	addi	a0,sp,140
    179a:	0000                	unimp
    179c:	f515                	bnez	a0,16c8 <__stack_align+0x16b8>
    179e:	0002                	c.slli64	zero
    17a0:	2000                	fld	fs0,0(s0)
    17a2:	000c                	.insn	2, 0x000c
    17a4:	0080                	addi	s0,sp,64
    17a6:	0000                	unimp
    17a8:	0400                	addi	s0,sp,512
    17aa:	0000                	unimp
    17ac:	0000                	unimp
    17ae:	0000                	unimp
    17b0:	0300                	addi	s0,sp,384
    17b2:	02110517          	auipc	a0,0x2110
    17b6:	68000003          	lb	zero,1664(zero) # 680 <__stack_align+0x670>
    17ba:	0001                	nop
    17bc:	0000                	unimp
    17be:	1600                	addi	s0,sp,800
    17c0:	036e                	slli	t1,t1,0x1b
    17c2:	0000                	unimp
    17c4:	0c24                	addi	s1,sp,536
    17c6:	8000                	.insn	2, 0x8000
    17c8:	0000                	unimp
    17ca:	0000                	unimp
    17cc:	0004                	.insn	2, 0x0004
    17ce:	0000                	unimp
    17d0:	0000                	unimp
    17d2:	0000                	unimp
    17d4:	1e01                	addi	t3,t3,-32
    17d6:	0005                	c.nop	1
    17d8:	0000a117          	auipc	sp,0xa
    17dc:	b600                	fsd	fs0,40(a2)
    17de:	0002                	c.slli64	zero
    17e0:	1800                	addi	s0,sp,48
    17e2:	0076                	c.slli	zero,0x1d
    17e4:	0000                	unimp
    17e6:	a6050007          	.insn	4, 0xa6050007
    17ea:	0002                	c.slli64	zero
    17ec:	1900                	addi	s0,sp,176
    17ee:	000007a7          	.insn	4, 0x07a7
    17f2:	03141503          	lh	a0,49(s0)
    17f6:	02d5                	addi	t0,t0,21
    17f8:	0000                	unimp
    17fa:	621a                	ld	tp,384(sp)
    17fc:	03000007          	.insn	4, 0x03000007
    1800:	2c15                	addiw	s8,s8,5
    1802:	02d5                	addi	t0,t0,21
    1804:	0000                	unimp
    1806:	1b00                	addi	s0,sp,432
    1808:	da08                	sw	a0,48(a2)
    180a:	0000                	unimp
    180c:	1900                	addi	s0,sp,176
    180e:	079d                	addi	a5,a5,7
    1810:	0000                	unimp
    1812:	03140c03          	lb	s8,49(s0)
    1816:	02f5                	addi	t0,t0,29
    1818:	0000                	unimp
    181a:	621a                	ld	tp,384(sp)
    181c:	03000007          	.insn	4, 0x03000007
    1820:	2a0c                	fld	fa1,16(a2)
    1822:	02d5                	addi	t0,t0,21
    1824:	0000                	unimp
    1826:	1900                	addi	s0,sp,176
    1828:	000007b3          	add	a5,zero,zero
    182c:	3c02                	fld	fs8,32(sp)
    182e:	0314                	addi	a3,sp,384
    1830:	030d                	addi	t1,t1,3
    1832:	0000                	unimp
    1834:	701c                	ld	a5,32(s0)
    1836:	0200                	addi	s0,sp,256
    1838:	333c                	fld	fa5,96(a4)
    183a:	030d                	addi	t1,t1,3
    183c:	0000                	unimp
    183e:	1b00                	addi	s0,sp,432
    1840:	b208                	fsd	fa0,32(a2)
    1842:	0000                	unimp
    1844:	1d00                	addi	s0,sp,688
    1846:	0774                	addi	a3,sp,908
    1848:	0000                	unimp
    184a:	2802                	fld	fa6,0(sp)
    184c:	6314                	ld	a3,0(a4)
    184e:	0000                	unimp
    1850:	0300                	addi	s0,sp,384
    1852:	00000343          	fmadd.s	ft6,ft0,ft0,ft0,rne
    1856:	701c                	ld	a5,32(s0)
    1858:	0200                	addi	s0,sp,256
    185a:	3228                	fld	fa0,96(a2)
    185c:	030d                	addi	t1,t1,3
    185e:	0000                	unimp
    1860:	761c                	ld	a5,40(a2)
    1862:	0200                	addi	s0,sp,256
    1864:	3e28                	fld	fa0,120(a2)
    1866:	00b2                	slli	ra,ra,0xc
    1868:	0000                	unimp
    186a:	6e1e                	ld	t3,448(sp)
    186c:	0200                	addi	s0,sp,256
    186e:	0a2a                	slli	s4,s4,0xa
    1870:	00000063          	beqz	zero,1870 <__stack_align+0x1860>
    1874:	1d00                	addi	s0,sp,688
    1876:	0791                	addi	a5,a5,4
    1878:	0000                	unimp
    187a:	1d02                	slli	s10,s10,0x20
    187c:	6314                	ld	a3,0(a4)
    187e:	0000                	unimp
    1880:	0300                	addi	s0,sp,384
    1882:	035f 0000 701c      	.insn	6, 0x701c0000035f
    1888:	0200                	addi	s0,sp,256
    188a:	301d                	.insn	2, 0x301d
    188c:	035f 0000 1b00      	.insn	6, 0x1b000000035f
    1892:	be08                	fsd	fa0,56(a2)
    1894:	0000                	unimp
    1896:	1f00                	addi	s0,sp,944
    1898:	00626d77          	.insn	4, 0x00626d77
    189c:	1602                	slli	a2,a2,0x20
    189e:	0314                	addi	a3,sp,384
    18a0:	721f 626d 0200      	.insn	6, 0x0200626d721f
    18a6:	1415                	addi	s0,s0,-27
    18a8:	09cc0003          	lb	zero,156(s8)
    18ac:	0000                	unimp
    18ae:	0004                	.insn	2, 0x0004
    18b0:	0831                	addi	a6,a6,12
    18b2:	0000                	unimp
    18b4:	0108                	addi	a0,sp,128
    18b6:	0260                	addi	s0,sp,268
    18b8:	0000                	unimp
    18ba:	dd0c                	sw	a1,56(a0)
    18bc:	33000007          	.insn	4, 0x33000007
    18c0:	0002                	c.slli64	zero
    18c2:	ec00                	sd	s0,24(s0)
    18c4:	0016                	c.slli	zero,0x5
    18c6:	0080                	addi	s0,sp,64
    18c8:	0000                	unimp
    18ca:	1400                	addi	s0,sp,544
    18cc:	0000                	unimp
    18ce:	0000                	unimp
    18d0:	0000                	unimp
    18d2:	df00                	sw	s0,56(a4)
    18d4:	0012                	c.slli	zero,0x4
    18d6:	0200                	addi	s0,sp,256
    18d8:	0504                	addi	s1,sp,640
    18da:	6e69                	lui	t3,0x1a
    18dc:	0074                	addi	a3,sp,12
    18de:	15050803          	lb	a6,336(a0) # 2111902 <__heap_size+0x20f1902>
    18e2:	0002                	c.slli64	zero
    18e4:	0300                	addi	s0,sp,384
    18e6:	0708                	addi	a0,sp,896
    18e8:	0358                	addi	a4,sp,388
    18ea:	0000                	unimp
    18ec:	10050803          	lb	a6,256(a0)
    18f0:	0002                	c.slli64	zero
    18f2:	0300                	addi	s0,sp,384
    18f4:	0410                	addi	a2,sp,512
    18f6:	02ce                	slli	t0,t0,0x13
    18f8:	0000                	unimp
    18fa:	45060103          	lb	sp,1104(a2) # 2cb1c <__heap_size+0xcb1c>
    18fe:	0000                	unimp
    1900:	0300                	addi	s0,sp,384
    1902:	0801                	addi	a6,a6,0
    1904:	00000043          	fmadd.s	ft0,ft0,ft0,ft0,rne
    1908:	15050203          	lb	tp,336(a0)
    190c:	0001                	nop
    190e:	0300                	addi	s0,sp,384
    1910:	0702                	c.slli64	a4
    1912:	0051                	c.nop	20
    1914:	0000                	unimp
    1916:	5d070403          	lb	s0,1488(a4)
    191a:	04000003          	lb	zero,64(zero) # 40 <__stack_align+0x30>
    191e:	02da                	slli	t0,t0,0x16
    1920:	0000                	unimp
    1922:	6902                	ld	s2,0(sp)
    1924:	3b19                	addiw	s6,s6,-26 # fe6 <__stack_align+0xfd6>
    1926:	0000                	unimp
    1928:	0400                	addi	s0,sp,512
    192a:	00000567          	jalr	a0,zero # 0 <__boot_hart>
    192e:	2d0d0c03          	lb	s8,720(s10)
    1932:	0000                	unimp
    1934:	0400                	addi	s0,sp,512
    1936:	000007f7          	.insn	4, 0x07f7
    193a:	2c04                	fld	fs1,24(s0)
    193c:	340e                	fld	fs0,224(sp)
    193e:	0000                	unimp
    1940:	0400                	addi	s0,sp,512
    1942:	0639                	addi	a2,a2,14
    1944:	0000                	unimp
    1946:	7204                	ld	s1,32(a2)
    1948:	340e                	fld	fs0,224(sp)
    194a:	0000                	unimp
    194c:	0400                	addi	s0,sp,512
    194e:	06ca                	slli	a3,a3,0x12
    1950:	0000                	unimp
    1952:	9104                	.insn	2, 0x9104
    1954:	00003417          	auipc	s0,0x3
    1958:	0500                	addi	s0,sp,640
    195a:	04f5                	addi	s1,s1,29
    195c:	0000                	unimp
    195e:	6505                	lui	a0,0x1
    1960:	1701                	addi	a4,a4,-32
    1962:	006c                	addi	a1,sp,12
    1964:	0000                	unimp
    1966:	0406                	slli	s0,s0,0x1
    1968:	a604                	fsd	fs1,8(a2)
    196a:	0000de03          	lhu	t3,0(ra)
    196e:	0700                	addi	s0,sp,896
    1970:	04e8                	addi	a0,sp,588
    1972:	0000                	unimp
    1974:	a804                	fsd	fs1,16(s0)
    1976:	af0c                	fsd	fa1,24(a4)
    1978:	0000                	unimp
    197a:	0700                	addi	s0,sp,896
    197c:	048c                	addi	a1,sp,576
    197e:	0000                	unimp
    1980:	a904                	fsd	fs1,16(a0)
    1982:	0000de13          	srli	t3,ra,0x0
    1986:	0000                	unimp
    1988:	5708                	lw	a0,40(a4)
    198a:	0000                	unimp
    198c:	ee00                	sd	s0,24(a2)
    198e:	0000                	unimp
    1990:	0900                	addi	s0,sp,144
    1992:	0000003b          	addw	zero,zero,zero
    1996:	080a0003          	lb	zero,128(s4) # 1080 <__stack_align+0x1070>
    199a:	a304                	fsd	fs1,0(a4)
    199c:	1209                	addi	tp,tp,-30 # ffffffffffffffe2 <__heap_end+0xffffffff7ffdcfe2>
    199e:	0001                	nop
    19a0:	0b00                	addi	s0,sp,400
    19a2:	00000623          	sb	zero,12(zero) # c <__tcb_size+0x6>
    19a6:	a504                	fsd	fs1,8(a0)
    19a8:	00002d07          	flw	fs10,0(zero) # 0 <__boot_hart>
    19ac:	0000                	unimp
    19ae:	00062b0b          	.insn	4, 0x00062b0b
    19b2:	0400                	addi	s0,sp,512
    19b4:	05aa                	slli	a1,a1,0xa
    19b6:	00bc                	addi	a5,sp,72
    19b8:	0000                	unimp
    19ba:	0004                	.insn	2, 0x0004
    19bc:	a504                	fsd	fs1,8(a0)
    19be:	0005                	c.nop	1
    19c0:	0400                	addi	s0,sp,512
    19c2:	00ee03ab          	.insn	4, 0x00ee03ab
    19c6:	0000                	unimp
    19c8:	4f04                	lw	s1,24(a4)
    19ca:	0004                	.insn	2, 0x0004
    19cc:	0400                	addi	s0,sp,512
    19ce:	007f1baf          	.insn	4, 0x007f1baf
    19d2:	0000                	unimp
    19d4:	080c                	addi	a1,sp,16
    19d6:	080d                	addi	a6,a6,3
    19d8:	0132                	slli	sp,sp,0xc
    19da:	0000                	unimp
    19dc:	4c080103          	lb	sp,1216(a6)
    19e0:	0000                	unimp
    19e2:	0e00                	addi	s0,sp,784
    19e4:	0132                	slli	sp,sp,0xc
    19e6:	0000                	unimp
    19e8:	7904                	ld	s1,48(a0)
    19ea:	0006                	c.slli	zero,0x1
    19ec:	0600                	addi	s0,sp,768
    19ee:	1919                	addi	s2,s2,-26
    19f0:	006c                	addi	a1,sp,12
    19f2:	0000                	unimp
    19f4:	0004600f          	.insn	4, 0x0004600f
    19f8:	2000                	fld	fs0,0(s0)
    19fa:	2f06                	fld	ft10,64(sp)
    19fc:	a408                	fsd	fa0,8(s0)
    19fe:	0001                	nop
    1a00:	0b00                	addi	s0,sp,400
    1a02:	05c6                	slli	a1,a1,0x11
    1a04:	0000                	unimp
    1a06:	3106                	fld	ft2,96(sp)
    1a08:	0001a413          	slti	s0,gp,0
    1a0c:	0000                	unimp
    1a0e:	5f10                	lw	a2,56(a4)
    1a10:	3206006b          	.insn	4, 0x3206006b
    1a14:	00002d07          	flw	fs10,0(zero) # 0 <__boot_hart>
    1a18:	0800                	addi	s0,sp,16
    1a1a:	00060e0b          	.insn	4, 0x00060e0b
    1a1e:	0600                	addi	s0,sp,768
    1a20:	0b32                	slli	s6,s6,0xc
    1a22:	002d                	c.nop	11
    1a24:	0000                	unimp
    1a26:	0b0c                	addi	a1,sp,400
    1a28:	0449                	addi	s0,s0,18 # 4966 <__stack_align+0x4956>
    1a2a:	0000                	unimp
    1a2c:	3206                	fld	ft4,96(sp)
    1a2e:	2d14                	fld	fa3,24(a0)
    1a30:	0000                	unimp
    1a32:	1000                	addi	s0,sp,32
    1a34:	0006b50b          	.insn	4, 0x0006b50b
    1a38:	0600                	addi	s0,sp,768
    1a3a:	1b32                	slli	s6,s6,0x2c
    1a3c:	002d                	c.nop	11
    1a3e:	0000                	unimp
    1a40:	1014                	addi	a3,sp,32
    1a42:	785f 0600 0b33      	.insn	6, 0x0b330600785f
    1a48:	01aa                	slli	gp,gp,0xa
    1a4a:	0000                	unimp
    1a4c:	0018                	.insn	2, 0x0018
    1a4e:	080d                	addi	a6,a6,3
    1a50:	014a                	slli	sp,sp,0x12
    1a52:	0000                	unimp
    1a54:	3e08                	fld	fa0,56(a2)
    1a56:	0001                	nop
    1a58:	ba00                	fsd	fs0,48(a2)
    1a5a:	0001                	nop
    1a5c:	0900                	addi	s0,sp,144
    1a5e:	0000003b          	addw	zero,zero,zero
    1a62:	0000                	unimp
    1a64:	0004870f          	.insn	4, 0x0004870f
    1a68:	2400                	fld	fs0,8(s0)
    1a6a:	3706                	fld	fa4,96(sp)
    1a6c:	3d08                	fld	fa0,56(a0)
    1a6e:	0002                	c.slli64	zero
    1a70:	0b00                	addi	s0,sp,400
    1a72:	0000039b          	sext.w	t2,zero
    1a76:	3906                	fld	fs2,96(sp)
    1a78:	2d09                	addiw	s10,s10,2
    1a7a:	0000                	unimp
    1a7c:	0000                	unimp
    1a7e:	0006410b          	.insn	4, 0x0006410b
    1a82:	0600                	addi	s0,sp,768
    1a84:	093a                	slli	s2,s2,0xe
    1a86:	002d                	c.nop	11
    1a88:	0000                	unimp
    1a8a:	0b04                	addi	s1,sp,400
    1a8c:	03b0                	addi	a2,sp,456
    1a8e:	0000                	unimp
    1a90:	3b06                	fld	fs6,96(sp)
    1a92:	2d09                	addiw	s10,s10,2
    1a94:	0000                	unimp
    1a96:	0800                	addi	s0,sp,16
    1a98:	0007390b          	.insn	4, 0x0007390b
    1a9c:	0600                	addi	s0,sp,768
    1a9e:	093c                	addi	a5,sp,152
    1aa0:	002d                	c.nop	11
    1aa2:	0000                	unimp
    1aa4:	0b0c                	addi	a1,sp,400
    1aa6:	00000533          	add	a0,zero,zero
    1aaa:	3d06                	fld	fs10,96(sp)
    1aac:	2d09                	addiw	s10,s10,2
    1aae:	0000                	unimp
    1ab0:	1000                	addi	s0,sp,32
    1ab2:	00050b0b          	.insn	4, 0x00050b0b
    1ab6:	0600                	addi	s0,sp,768
    1ab8:	093e                	slli	s2,s2,0xf
    1aba:	002d                	c.nop	11
    1abc:	0000                	unimp
    1abe:	0b14                	addi	a3,sp,400
    1ac0:	06ba                	slli	a3,a3,0xe
    1ac2:	0000                	unimp
    1ac4:	3f06                	fld	ft10,96(sp)
    1ac6:	2d09                	addiw	s10,s10,2
    1ac8:	0000                	unimp
    1aca:	1800                	addi	s0,sp,48
    1acc:	0005870b          	.insn	4, 0x0005870b
    1ad0:	0600                	addi	s0,sp,768
    1ad2:	0940                	addi	s0,sp,148
    1ad4:	002d                	c.nop	11
    1ad6:	0000                	unimp
    1ad8:	0b1c                	addi	a5,sp,400
    1ada:	0700                	addi	s0,sp,896
    1adc:	0000                	unimp
    1ade:	4106                	lw	sp,64(sp)
    1ae0:	2d09                	addiw	s10,s10,2
    1ae2:	0000                	unimp
    1ae4:	2000                	fld	fs0,0(s0)
    1ae6:	1100                	addi	s0,sp,160
    1ae8:	000003bf 4a060208 	.insn	8, 0x4a060208000003bf
    1af0:	8308                	.insn	2, 0x8308
    1af2:	0002                	c.slli64	zero
    1af4:	0b00                	addi	s0,sp,400
    1af6:	0430                	addi	a2,sp,520
    1af8:	0000                	unimp
    1afa:	4b06                	lw	s6,64(sp)
    1afc:	830a                	mv	t1,sp
    1afe:	0002                	c.slli64	zero
    1b00:	0000                	unimp
    1b02:	1412                	slli	s0,s0,0x24
    1b04:	06000003          	lb	zero,96(zero) # 60 <__stack_align+0x50>
    1b08:	094c                	addi	a1,sp,148
    1b0a:	00000283          	lb	t0,0(zero) # 0 <__boot_hart>
    1b0e:	0100                	addi	s0,sp,128
    1b10:	6b12                	ld	s6,256(sp)
    1b12:	0006                	c.slli	zero,0x1
    1b14:	0600                	addi	s0,sp,768
    1b16:	0a4e                	slli	s4,s4,0x13
    1b18:	013e                	slli	sp,sp,0xf
    1b1a:	0000                	unimp
    1b1c:	0200                	addi	s0,sp,256
    1b1e:	e412                	sd	tp,8(sp)
    1b20:	06000003          	lb	zero,96(zero) # 60 <__stack_align+0x50>
    1b24:	0a51                	addi	s4,s4,20
    1b26:	013e                	slli	sp,sp,0xf
    1b28:	0000                	unimp
    1b2a:	0204                	addi	s1,sp,256
    1b2c:	0800                	addi	s0,sp,16
    1b2e:	012a                	slli	sp,sp,0xa
    1b30:	0000                	unimp
    1b32:	00000293          	li	t0,0
    1b36:	3b09                	addiw	s6,s6,-30
    1b38:	0000                	unimp
    1b3a:	1f00                	addi	s0,sp,944
    1b3c:	1100                	addi	s0,sp,160
    1b3e:	053c                	addi	a5,sp,648
    1b40:	0000                	unimp
    1b42:	0318                	addi	a4,sp,384
    1b44:	5d06                	lw	s10,96(sp)
    1b46:	d708                	sw	a0,40(a4)
    1b48:	0002                	c.slli64	zero
    1b4a:	0b00                	addi	s0,sp,400
    1b4c:	05c6                	slli	a1,a1,0x11
    1b4e:	0000                	unimp
    1b50:	5e06                	lw	t3,96(sp)
    1b52:	d712                	sw	tp,172(sp)
    1b54:	0002                	c.slli64	zero
    1b56:	0000                	unimp
    1b58:	0005de0b          	.insn	4, 0x0005de0b
    1b5c:	0600                	addi	s0,sp,768
    1b5e:	065f 002d 0000      	.insn	6, 0x002d065f
    1b64:	0b08                	addi	a0,sp,400
    1b66:	0444                	addi	s1,sp,516
    1b68:	0000                	unimp
    1b6a:	6106                	ld	sp,64(sp)
    1b6c:	dd09                	beqz	a0,1a86 <__stack_align+0x1a76>
    1b6e:	0002                	c.slli64	zero
    1b70:	1000                	addi	s0,sp,32
    1b72:	bf12                	fsd	ft4,440(sp)
    1b74:	06000003          	lb	zero,96(zero) # 60 <__stack_align+0x50>
    1b78:	1e62                	slli	t3,t3,0x38
    1b7a:	023d                	addi	tp,tp,15 # f <__stack_shift>
    1b7c:	0000                	unimp
    1b7e:	0110                	addi	a2,sp,128
    1b80:	0d00                	addi	s0,sp,656
    1b82:	9308                	.insn	2, 0x9308
    1b84:	0002                	c.slli64	zero
    1b86:	0800                	addi	s0,sp,16
    1b88:	02ed                	addi	t0,t0,27
    1b8a:	0000                	unimp
    1b8c:	02ed                	addi	t0,t0,27
    1b8e:	0000                	unimp
    1b90:	3b09                	addiw	s6,s6,-30
    1b92:	0000                	unimp
    1b94:	1f00                	addi	s0,sp,944
    1b96:	0d00                	addi	s0,sp,656
    1b98:	f308                	sd	a0,32(a4)
    1b9a:	0002                	c.slli64	zero
    1b9c:	1300                	addi	s0,sp,416
    1b9e:	0005910f          	.insn	4, 0x0005910f
    1ba2:	1000                	addi	s0,sp,32
    1ba4:	7506                	ld	a0,96(sp)
    1ba6:	1c08                	addi	a0,sp,560
    1ba8:	0b000003          	lb	zero,176(zero) # b0 <__stack_align+0xa0>
    1bac:	03aa                	slli	t2,t2,0xa
    1bae:	0000                	unimp
    1bb0:	7606                	ld	a2,96(sp)
    1bb2:	1c11                	addi	s8,s8,-28
    1bb4:	00000003          	lb	zero,0(zero) # 0 <__boot_hart>
    1bb8:	0003fa0b          	.insn	4, 0x0003fa0b
    1bbc:	0600                	addi	s0,sp,768
    1bbe:	002d0677          	.insn	4, 0x002d0677
    1bc2:	0000                	unimp
    1bc4:	0008                	.insn	2, 0x0008
    1bc6:	080d                	addi	a6,a6,3
    1bc8:	00000057          	.insn	4, 0x0057
    1bcc:	0005b00f          	.insn	4, 0x0005b00f
    1bd0:	b000                	fsd	fs0,32(s0)
    1bd2:	b506                	fsd	ft1,168(sp)
    1bd4:	6508                	ld	a0,8(a0)
    1bd6:	0004                	.insn	2, 0x0004
    1bd8:	1000                	addi	s0,sp,32
    1bda:	705f 0600 12b6      	.insn	6, 0x12b60600705f
    1be0:	031c                	addi	a5,sp,384
    1be2:	0000                	unimp
    1be4:	1000                	addi	s0,sp,32
    1be6:	725f 0600 07b7      	.insn	6, 0x07b70600725f
    1bec:	002d                	c.nop	11
    1bee:	0000                	unimp
    1bf0:	1008                	addi	a0,sp,32
    1bf2:	775f 0600 07b8      	.insn	6, 0x07b80600775f
    1bf8:	002d                	c.nop	11
    1bfa:	0000                	unimp
    1bfc:	0b0c                	addi	a1,sp,400
    1bfe:	03dd                	addi	t2,t2,23
    1c00:	0000                	unimp
    1c02:	b906                	fsd	ft1,176(sp)
    1c04:	5e09                	li	t3,-30
    1c06:	0000                	unimp
    1c08:	1000                	addi	s0,sp,32
    1c0a:	0004a30b          	.insn	4, 0x0004a30b
    1c0e:	0600                	addi	s0,sp,768
    1c10:	09ba                	slli	s3,s3,0xe
    1c12:	005e                	c.slli	zero,0x17
    1c14:	0000                	unimp
    1c16:	1012                	c.slli	zero,0x24
    1c18:	625f 0066 bb06      	.insn	6, 0xbb060066625f
    1c1e:	f411                	bnez	s0,1b2a <__stack_align+0x1b1a>
    1c20:	0002                	c.slli64	zero
    1c22:	1800                	addi	s0,sp,48
    1c24:	00036a0b          	.insn	4, 0x00036a0b
    1c28:	0600                	addi	s0,sp,768
    1c2a:	07bc                	addi	a5,sp,968
    1c2c:	002d                	c.nop	11
    1c2e:	0000                	unimp
    1c30:	0b28                	addi	a0,sp,408
    1c32:	03cd                	addi	t2,t2,19
    1c34:	0000                	unimp
    1c36:	c306                	sw	ra,132(sp)
    1c38:	2a0a                	fld	fs4,128(sp)
    1c3a:	0001                	nop
    1c3c:	3000                	fld	fs0,32(s0)
    1c3e:	0004770b          	.insn	4, 0x0004770b
    1c42:	0600                	addi	s0,sp,768
    1c44:	1dc5                	addi	s11,s11,-15
    1c46:	000005d7          	.insn	4, 0x05d7
    1c4a:	0b38                	addi	a4,sp,408
    1c4c:	0504                	addi	s1,sp,640
    1c4e:	0000                	unimp
    1c50:	c706                	sw	ra,140(sp)
    1c52:	061d                	addi	a2,a2,7
    1c54:	0006                	c.slli	zero,0x1
    1c56:	4000                	lw	s0,0(s0)
    1c58:	0006330b          	.insn	4, 0x0006330b
    1c5c:	0600                	addi	s0,sp,768
    1c5e:	0dca                	slli	s11,s11,0x12
    1c60:	062a                	slli	a2,a2,0xa
    1c62:	0000                	unimp
    1c64:	0b48                	addi	a0,sp,404
    1c66:	071a                	slli	a4,a4,0x6
    1c68:	0000                	unimp
    1c6a:	cb06                	sw	ra,148(sp)
    1c6c:	4409                	li	s0,2
    1c6e:	0006                	c.slli	zero,0x1
    1c70:	5000                	lw	s0,32(s0)
    1c72:	5f10                	lw	a2,56(a4)
    1c74:	6275                	lui	tp,0x1d
    1c76:	0600                	addi	s0,sp,768
    1c78:	11ce                	slli	gp,gp,0x33
    1c7a:	02f4                	addi	a3,sp,332
    1c7c:	0000                	unimp
    1c7e:	1058                	addi	a4,sp,36
    1c80:	755f 0070 cf06      	.insn	6, 0xcf060070755f
    1c86:	1c12                	slli	s8,s8,0x24
    1c88:	68000003          	lb	zero,1664(zero) # 680 <__stack_align+0x670>
    1c8c:	5f10                	lw	a2,56(a4)
    1c8e:	7275                	lui	tp,0xffffd
    1c90:	0600                	addi	s0,sp,768
    1c92:	07d0                	addi	a2,sp,964
    1c94:	002d                	c.nop	11
    1c96:	0000                	unimp
    1c98:	0b70                	addi	a2,sp,412
    1c9a:	03a4                	addi	s1,sp,456
    1c9c:	0000                	unimp
    1c9e:	d306                	sw	ra,164(sp)
    1ca0:	4a11                	li	s4,4
    1ca2:	0006                	c.slli	zero,0x1
    1ca4:	7400                	ld	s0,40(s0)
    1ca6:	0006f20b          	.insn	4, 0x0006f20b
    1caa:	0600                	addi	s0,sp,768
    1cac:	11d4                	addi	a3,sp,228
    1cae:	065a                	slli	a2,a2,0x16
    1cb0:	0000                	unimp
    1cb2:	6c5f1077          	.insn	4, 0x6c5f1077
    1cb6:	0062                	c.slli	zero,0x18
    1cb8:	d706                	sw	ra,172(sp)
    1cba:	f411                	bnez	s0,1bc6 <__stack_align+0x1bb6>
    1cbc:	0002                	c.slli64	zero
    1cbe:	7800                	ld	s0,48(s0)
    1cc0:	0004000b          	.insn	4, 0x0004000b
    1cc4:	0600                	addi	s0,sp,768
    1cc6:	07da                	slli	a5,a5,0x16
    1cc8:	002d                	c.nop	11
    1cca:	0000                	unimp
    1ccc:	0b88                	addi	a0,sp,464
    1cce:	0524                	addi	s1,sp,648
    1cd0:	0000                	unimp
    1cd2:	db06                	sw	ra,180(sp)
    1cd4:	8b0a                	mv	s6,sp
    1cd6:	0000                	unimp
    1cd8:	9000                	.insn	2, 0x9000
    1cda:	0001b30b          	.insn	4, 0x0001b30b
    1cde:	0600                	addi	s0,sp,768
    1ce0:	12de                	slli	t0,t0,0x37
    1ce2:	00000483          	lb	s1,0(zero) # 0 <__boot_hart>
    1ce6:	0b98                	addi	a4,sp,464
    1ce8:	0761                	addi	a4,a4,24
    1cea:	0000                	unimp
    1cec:	e206                	sd	ra,256(sp)
    1cee:	1e0c                	addi	a1,sp,816
    1cf0:	0001                	nop
    1cf2:	a000                	fsd	fs0,0(s0)
    1cf4:	0005b80b          	.insn	4, 0x0005b80b
    1cf8:	0600                	addi	s0,sp,768
    1cfa:	0ee4                	addi	s1,sp,860
    1cfc:	0112                	slli	sp,sp,0x4
    1cfe:	0000                	unimp
    1d00:	0ba4                	addi	s1,sp,472
    1d02:	04fc                	addi	a5,sp,588
    1d04:	0000                	unimp
    1d06:	e506                	sd	ra,136(sp)
    1d08:	2d09                	addiw	s10,s10,2
    1d0a:	0000                	unimp
    1d0c:	ac00                	fsd	fs0,24(s0)
    1d0e:	1400                	addi	s0,sp,544
    1d10:	000000a3          	sb	zero,1(zero) # 1 <__boot_hart+0x1>
    1d14:	00000483          	lb	s1,0(zero) # 0 <__boot_hart>
    1d18:	8315                	srli	a4,a4,0x5
    1d1a:	0004                	.insn	2, 0x0004
    1d1c:	1500                	addi	s0,sp,672
    1d1e:	012a                	slli	sp,sp,0xa
    1d20:	0000                	unimp
    1d22:	2c15                	addiw	s8,s8,5
    1d24:	0001                	nop
    1d26:	1500                	addi	s0,sp,672
    1d28:	002d                	c.nop	11
    1d2a:	0000                	unimp
    1d2c:	0d00                	addi	s0,sp,656
    1d2e:	8e08                	.insn	2, 0x8e08
    1d30:	0004                	.insn	2, 0x0004
    1d32:	0e00                	addi	s0,sp,784
    1d34:	00000483          	lb	s1,0(zero) # 0 <__boot_hart>
    1d38:	1616                	slli	a2,a2,0x25
    1d3a:	0006                	c.slli	zero,0x1
    1d3c:	4800                	lw	s0,16(s0)
    1d3e:	02390607          	.insn	4, 0x02390607
    1d42:	d708                	sw	a0,40(a4)
    1d44:	0005                	c.nop	1
    1d46:	1700                	addi	s0,sp,928
    1d48:	07c9                	addi	a5,a5,18
    1d4a:	0000                	unimp
    1d4c:	3b06                	fld	fs6,96(sp)
    1d4e:	0702                	c.slli64	a4
    1d50:	002d                	c.nop	11
    1d52:	0000                	unimp
    1d54:	1700                	addi	s0,sp,928
    1d56:	03ec                	addi	a1,sp,460
    1d58:	0000                	unimp
    1d5a:	4006                	.insn	2, 0x4006
    1d5c:	0b02                	c.slli64	s6
    1d5e:	06b6                	slli	a3,a3,0xd
    1d60:	0000                	unimp
    1d62:	1708                	addi	a0,sp,928
    1d64:	00000493          	li	s1,0
    1d68:	4006                	.insn	2, 0x4006
    1d6a:	1402                	slli	s0,s0,0x20
    1d6c:	06b6                	slli	a3,a3,0xd
    1d6e:	0000                	unimp
    1d70:	1710                	addi	a2,sp,928
    1d72:	0458                	addi	a4,sp,516
    1d74:	0000                	unimp
    1d76:	4006                	.insn	2, 0x4006
    1d78:	1e02                	slli	t3,t3,0x20
    1d7a:	06b6                	slli	a3,a3,0xd
    1d7c:	0000                	unimp
    1d7e:	1718                	addi	a4,sp,928
    1d80:	05d9                	addi	a1,a1,22
    1d82:	0000                	unimp
    1d84:	4206                	lw	tp,64(sp)
    1d86:	0802                	c.slli64	a6
    1d88:	002d                	c.nop	11
    1d8a:	0000                	unimp
    1d8c:	1720                	addi	s0,sp,936
    1d8e:	0328                	addi	a0,sp,392
    1d90:	0000                	unimp
    1d92:	4306                	lw	t1,64(sp)
    1d94:	0802                	c.slli64	a6
    1d96:	000008bf 05f51724 	.insn	8, 0x05f51724000008bf
    1d9e:	0000                	unimp
    1da0:	4606                	lw	a2,64(sp)
    1da2:	0702                	c.slli64	a4
    1da4:	002d                	c.nop	11
    1da6:	0000                	unimp
    1da8:	1740                	addi	s0,sp,932
    1daa:	000005e3          	beqz	zero,25b4 <__stack_align+0x25a4>
    1dae:	4706                	lw	a4,64(sp)
    1db0:	1602                	slli	a2,a2,0x20
    1db2:	08d4                	addi	a3,sp,84
    1db4:	0000                	unimp
    1db6:	1748                	addi	a0,sp,932
    1db8:	0544                	addi	s1,sp,644
    1dba:	0000                	unimp
    1dbc:	4906                	lw	s2,64(sp)
    1dbe:	0702                	c.slli64	a4
    1dc0:	002d                	c.nop	11
    1dc2:	0000                	unimp
    1dc4:	1750                	addi	a2,sp,932
    1dc6:	000005eb          	.insn	4, 0x05eb
    1dca:	4b06                	lw	s6,64(sp)
    1dcc:	0a02                	c.slli64	s4
    1dce:	08e5                	addi	a7,a7,25
    1dd0:	0000                	unimp
    1dd2:	1758                	addi	a4,sp,932
    1dd4:	04e0                	addi	s0,sp,588
    1dd6:	0000                	unimp
    1dd8:	4e06                	lw	t3,64(sp)
    1dda:	1302                	slli	t1,t1,0x20
    1ddc:	01a4                	addi	s1,sp,200
    1dde:	0000                	unimp
    1de0:	1760                	addi	s0,sp,940
    1de2:	047d                	addi	s0,s0,31
    1de4:	0000                	unimp
    1de6:	4f06                	lw	t5,64(sp)
    1de8:	0702                	c.slli64	a4
    1dea:	002d                	c.nop	11
    1dec:	0000                	unimp
    1dee:	1768                	addi	a0,sp,940
    1df0:	0734                	addi	a3,sp,904
    1df2:	0000                	unimp
    1df4:	5006                	.insn	2, 0x5006
    1df6:	1302                	slli	t1,t1,0x20
    1df8:	01a4                	addi	s1,sp,200
    1dfa:	0000                	unimp
    1dfc:	1770                	addi	a2,sp,940
    1dfe:	0000054f          	fnmadd.s	fa0,ft0,ft0,ft0,rne
    1e02:	5106                	lw	sp,96(sp)
    1e04:	1402                	slli	s0,s0,0x20
    1e06:	000008eb          	.insn	4, 0x08eb
    1e0a:	1778                	addi	a4,sp,940
    1e0c:	0000049b          	sext.w	s1,zero
    1e10:	5406                	lw	s0,96(sp)
    1e12:	0702                	c.slli64	a4
    1e14:	002d                	c.nop	11
    1e16:	0000                	unimp
    1e18:	1780                	addi	s0,sp,992
    1e1a:	0409                	addi	s0,s0,2
    1e1c:	0000                	unimp
    1e1e:	5506                	lw	a0,96(sp)
    1e20:	0902                	c.slli64	s2
    1e22:	012c                	addi	a1,sp,136
    1e24:	0000                	unimp
    1e26:	1788                	addi	a0,sp,992
    1e28:	0579                	addi	a0,a0,30 # 101e <__stack_align+0x100e>
    1e2a:	0000                	unimp
    1e2c:	7806                	ld	a6,96(sp)
    1e2e:	0702                	c.slli64	a4
    1e30:	0899                	addi	a7,a7,6
    1e32:	0000                	unimp
    1e34:	1890                	addi	a2,sp,112
    1e36:	053c                	addi	a5,sp,648
    1e38:	0000                	unimp
    1e3a:	7c06                	ld	s8,96(sp)
    1e3c:	1302                	slli	t1,t1,0x20
    1e3e:	000002d7          	.insn	4, 0x02d7
    1e42:	01f8                	addi	a4,sp,204
    1e44:	be18                	fsd	fa4,56(a2)
    1e46:	0004                	.insn	2, 0x0004
    1e48:	0600                	addi	s0,sp,768
    1e4a:	027d                	addi	tp,tp,31 # ffffffffffffd01f <__heap_end+0xffffffff7ffda01f>
    1e4c:	9312                	add	t1,t1,tp
    1e4e:	0002                	c.slli64	zero
    1e50:	0000                	unimp
    1e52:	1802                	slli	a6,a6,0x20
    1e54:	06e8                	addi	a0,sp,844
    1e56:	0000                	unimp
    1e58:	8106                	mv	sp,ra
    1e5a:	0c02                	c.slli64	s8
    1e5c:	08fc                	addi	a5,sp,92
    1e5e:	0000                	unimp
    1e60:	0518                	addi	a4,sp,640
    1e62:	d518                	sw	a4,40(a0)
    1e64:	06000003          	lb	zero,96(zero) # 60 <__stack_align+0x50>
    1e68:	0286                	slli	t0,t0,0x1
    1e6a:	7710                	ld	a2,40(a4)
    1e6c:	0006                	c.slli	zero,0x1
    1e6e:	2000                	fld	fs0,0(s0)
    1e70:	1805                	addi	a6,a6,-31
    1e72:	03ba                	slli	t2,t2,0xe
    1e74:	0000                	unimp
    1e76:	8806                	mv	a6,ra
    1e78:	0a02                	c.slli64	s4
    1e7a:	0908                	addi	a0,sp,144
    1e7c:	0000                	unimp
    1e7e:	0538                	addi	a4,sp,648
    1e80:	0d00                	addi	s0,sp,656
    1e82:	6508                	ld	a0,8(a0)
    1e84:	0004                	.insn	2, 0x0004
    1e86:	1400                	addi	s0,sp,544
    1e88:	000000a3          	sb	zero,1(zero) # 1 <__boot_hart+0x1>
    1e8c:	000005fb          	.insn	4, 0x05fb
    1e90:	8315                	srli	a4,a4,0x5
    1e92:	0004                	.insn	2, 0x0004
    1e94:	1500                	addi	s0,sp,672
    1e96:	012a                	slli	sp,sp,0xa
    1e98:	0000                	unimp
    1e9a:	fb15                	bnez	a4,1dce <__stack_align+0x1dbe>
    1e9c:	0005                	c.nop	1
    1e9e:	1500                	addi	s0,sp,672
    1ea0:	002d                	c.nop	11
    1ea2:	0000                	unimp
    1ea4:	0d00                	addi	s0,sp,656
    1ea6:	3908                	fld	fa0,48(a0)
    1ea8:	0001                	nop
    1eaa:	0e00                	addi	s0,sp,784
    1eac:	000005fb          	.insn	4, 0x05fb
    1eb0:	080d                	addi	a6,a6,3
    1eb2:	05dd                	addi	a1,a1,23
    1eb4:	0000                	unimp
    1eb6:	9714                	.insn	2, 0x9714
    1eb8:	0000                	unimp
    1eba:	2a00                	fld	fs0,16(a2)
    1ebc:	0006                	c.slli	zero,0x1
    1ebe:	1500                	addi	s0,sp,672
    1ec0:	00000483          	lb	s1,0(zero) # 0 <__boot_hart>
    1ec4:	2a15                	addiw	s4,s4,5
    1ec6:	0001                	nop
    1ec8:	1500                	addi	s0,sp,672
    1eca:	00000097          	auipc	ra,0x0
    1ece:	2d15                	addiw	s10,s10,5
    1ed0:	0000                	unimp
    1ed2:	0000                	unimp
    1ed4:	080d                	addi	a6,a6,3
    1ed6:	060c                	addi	a1,sp,768
    1ed8:	0000                	unimp
    1eda:	2d14                	fld	fa3,24(a0)
    1edc:	0000                	unimp
    1ede:	4400                	lw	s0,8(s0)
    1ee0:	0006                	c.slli	zero,0x1
    1ee2:	1500                	addi	s0,sp,672
    1ee4:	00000483          	lb	s1,0(zero) # 0 <__boot_hart>
    1ee8:	2a15                	addiw	s4,s4,5
    1eea:	0001                	nop
    1eec:	0000                	unimp
    1eee:	080d                	addi	a6,a6,3
    1ef0:	0630                	addi	a2,sp,776
    1ef2:	0000                	unimp
    1ef4:	5708                	lw	a0,40(a4)
    1ef6:	0000                	unimp
    1ef8:	5a00                	lw	s0,48(a2)
    1efa:	0006                	c.slli	zero,0x1
    1efc:	0900                	addi	s0,sp,144
    1efe:	0000003b          	addw	zero,zero,zero
    1f02:	0002                	c.slli64	zero
    1f04:	5708                	lw	a0,40(a4)
    1f06:	0000                	unimp
    1f08:	6a00                	ld	s0,16(a2)
    1f0a:	0006                	c.slli	zero,0x1
    1f0c:	0900                	addi	s0,sp,144
    1f0e:	0000003b          	addw	zero,zero,zero
    1f12:	0000                	unimp
    1f14:	9e05                	subw	a2,a2,s1
    1f16:	0005                	c.nop	1
    1f18:	0600                	addi	s0,sp,768
    1f1a:	011f 221a 0003      	.insn	6, 0x0003221a011f
    1f20:	1900                	addi	s0,sp,176
    1f22:	06c4                	addi	s1,sp,836
    1f24:	0000                	unimp
    1f26:	0618                	addi	a4,sp,768
    1f28:	b0080123          	sb	zero,-1278(a6)
    1f2c:	0006                	c.slli	zero,0x1
    1f2e:	1700                	addi	s0,sp,928
    1f30:	05c6                	slli	a1,a1,0x11
    1f32:	0000                	unimp
    1f34:	2506                	fld	fa0,64(sp)
    1f36:	1101                	addi	sp,sp,-32 # b7b8 <__stack_size+0x37b8>
    1f38:	06b0                	addi	a2,sp,840
    1f3a:	0000                	unimp
    1f3c:	1700                	addi	s0,sp,928
    1f3e:	000004b7          	lui	s1,0x0
    1f42:	2606                	fld	fa2,64(sp)
    1f44:	0701                	addi	a4,a4,0
    1f46:	002d                	c.nop	11
    1f48:	0000                	unimp
    1f4a:	1708                	addi	a0,sp,928
    1f4c:	0598                	addi	a4,sp,704
    1f4e:	0000                	unimp
    1f50:	2706                	fld	fa4,64(sp)
    1f52:	0b01                	addi	s6,s6,0
    1f54:	06b6                	slli	a3,a3,0xd
    1f56:	0000                	unimp
    1f58:	0010                	.insn	2, 0x0010
    1f5a:	080d                	addi	a6,a6,3
    1f5c:	00000677          	.insn	4, 0x0677
    1f60:	080d                	addi	a6,a6,3
    1f62:	066a                	slli	a2,a2,0x1a
    1f64:	0000                	unimp
    1f66:	2019                	.insn	2, 0x2019
    1f68:	0e000003          	lb	zero,224(zero) # e0 <__stack_align+0xd0>
    1f6c:	3f06                	fld	ft10,96(sp)
    1f6e:	0801                	addi	a6,a6,0
    1f70:	06f5                	addi	a3,a3,29
    1f72:	0000                	unimp
    1f74:	00061d17          	auipc	s10,0x61
    1f78:	0600                	addi	s0,sp,768
    1f7a:	0140                	addi	s0,sp,132
    1f7c:	f512                	sd	tp,168(sp)
    1f7e:	0006                	c.slli	zero,0x1
    1f80:	0000                	unimp
    1f82:	00064a17          	auipc	s4,0x64
    1f86:	0600                	addi	s0,sp,768
    1f88:	0141                	addi	sp,sp,16
    1f8a:	f512                	sd	tp,168(sp)
    1f8c:	0006                	c.slli	zero,0x1
    1f8e:	0600                	addi	s0,sp,768
    1f90:	00067417          	auipc	s0,0x67
    1f94:	0600                	addi	s0,sp,768
    1f96:	0142                	slli	sp,sp,0x10
    1f98:	6512                	ld	a0,256(sp)
    1f9a:	0000                	unimp
    1f9c:	0c00                	addi	s0,sp,528
    1f9e:	0800                	addi	s0,sp,16
    1fa0:	0065                	c.nop	25
    1fa2:	0000                	unimp
    1fa4:	0705                	addi	a4,a4,1
    1fa6:	0000                	unimp
    1fa8:	3b09                	addiw	s6,s6,-30
    1faa:	0000                	unimp
    1fac:	0200                	addi	s0,sp,256
    1fae:	1a00                	addi	s0,sp,304
    1fb0:	06d8                	addi	a4,sp,836
    1fb2:	0259                	addi	tp,tp,22 # 16 <__stack_align+0x6>
    1fb4:	00081a07          	.insn	4, 0x00081a07
    1fb8:	1700                	addi	s0,sp,928
    1fba:	06a8                	addi	a0,sp,840
    1fbc:	0000                	unimp
    1fbe:	5b06                	lw	s6,96(sp)
    1fc0:	1802                	slli	a6,a6,0x20
    1fc2:	006c                	addi	a1,sp,12
    1fc4:	0000                	unimp
    1fc6:	1700                	addi	s0,sp,928
    1fc8:	065e                	slli	a2,a2,0x17
    1fca:	0000                	unimp
    1fcc:	5c06                	lw	s8,96(sp)
    1fce:	1202                	slli	tp,tp,0x20
    1fd0:	012c                	addi	a1,sp,136
    1fd2:	0000                	unimp
    1fd4:	1708                	addi	a0,sp,928
    1fd6:	000004d3          	fadd.s	fs1,ft0,ft0,rne
    1fda:	5d06                	lw	s10,96(sp)
    1fdc:	1002                	c.slli	zero,0x20
    1fde:	081a                	slli	a6,a6,0x6
    1fe0:	0000                	unimp
    1fe2:	1710                	addi	a2,sp,928
    1fe4:	0000070b          	.insn	4, 0x070b
    1fe8:	5e06                	lw	t3,96(sp)
    1fea:	1702                	slli	a4,a4,0x20
    1fec:	01ba                	slli	gp,gp,0xe
    1fee:	0000                	unimp
    1ff0:	172c                	addi	a1,sp,936
    1ff2:	0468                	addi	a0,sp,524
    1ff4:	0000                	unimp
    1ff6:	5f06                	lw	t5,96(sp)
    1ff8:	0f02                	c.slli64	t5
    1ffa:	002d                	c.nop	11
    1ffc:	0000                	unimp
    1ffe:	1750                	addi	a2,sp,932
    2000:	05c1                	addi	a1,a1,16
    2002:	0000                	unimp
    2004:	6006                	.insn	2, 0x6006
    2006:	2c02                	fld	fs8,0(sp)
    2008:	082a                	slli	a6,a6,0xa
    200a:	0000                	unimp
    200c:	1758                	addi	a4,sp,932
    200e:	0721                	addi	a4,a4,8
    2010:	0000                	unimp
    2012:	6106                	ld	sp,64(sp)
    2014:	1a02                	slli	s4,s4,0x20
    2016:	06bc                	addi	a5,sp,840
    2018:	0000                	unimp
    201a:	1760                	addi	s0,sp,940
    201c:	05cc                	addi	a1,sp,708
    201e:	0000                	unimp
    2020:	6206                	ld	tp,64(sp)
    2022:	1602                	slli	a2,a2,0x20
    2024:	0112                	slli	sp,sp,0x4
    2026:	0000                	unimp
    2028:	1770                	addi	a2,sp,940
    202a:	0726                	slli	a4,a4,0x9
    202c:	0000                	unimp
    202e:	6306                	ld	t1,64(sp)
    2030:	1602                	slli	a2,a2,0x20
    2032:	0112                	slli	sp,sp,0x4
    2034:	0000                	unimp
    2036:	1778                	addi	a4,sp,940
    2038:	038d                	addi	t2,t2,3
    203a:	0000                	unimp
    203c:	6406                	ld	s0,64(sp)
    203e:	1602                	slli	a2,a2,0x20
    2040:	0112                	slli	sp,sp,0x4
    2042:	0000                	unimp
    2044:	1780                	addi	s0,sp,992
    2046:	000006d3          	fadd.s	fa3,ft0,ft0,rne
    204a:	6506                	ld	a0,64(sp)
    204c:	1002                	c.slli	zero,0x20
    204e:	0831                	addi	a6,a6,12
    2050:	0000                	unimp
    2052:	1788                	addi	a0,sp,992
    2054:	000004c7          	fmsub.s	fs1,ft0,ft0,ft0,rne
    2058:	6606                	ld	a2,64(sp)
    205a:	1002                	c.slli	zero,0x20
    205c:	0841                	addi	a6,a6,16
    205e:	0000                	unimp
    2060:	1790                	addi	a2,sp,992
    2062:	0681                	addi	a3,a3,0
    2064:	0000                	unimp
    2066:	6706                	ld	a4,64(sp)
    2068:	0f02                	c.slli64	t5
    206a:	002d                	c.nop	11
    206c:	0000                	unimp
    206e:	17a8                	addi	a0,sp,1000
    2070:	0422                	slli	s0,s0,0x8
    2072:	0000                	unimp
    2074:	6806                	ld	a6,64(sp)
    2076:	1602                	slli	a2,a2,0x20
    2078:	0112                	slli	sp,sp,0x4
    207a:	0000                	unimp
    207c:	17ac                	addi	a1,sp,1000
    207e:	037e                	slli	t1,t1,0x1f
    2080:	0000                	unimp
    2082:	6906                	ld	s2,64(sp)
    2084:	1602                	slli	a2,a2,0x20
    2086:	0112                	slli	sp,sp,0x4
    2088:	0000                	unimp
    208a:	17b4                	addi	a3,sp,1000
    208c:	0411                	addi	s0,s0,4 # 68f94 <__heap_size+0x48f94>
    208e:	0000                	unimp
    2090:	6a06                	ld	s4,64(sp)
    2092:	1602                	slli	a2,a2,0x20
    2094:	0112                	slli	sp,sp,0x4
    2096:	0000                	unimp
    2098:	17bc                	addi	a5,sp,1000
    209a:	00000333          	add	t1,zero,zero
    209e:	6b06                	ld	s6,64(sp)
    20a0:	1602                	slli	a2,a2,0x20
    20a2:	0112                	slli	sp,sp,0x4
    20a4:	0000                	unimp
    20a6:	17c4                	addi	s1,sp,996
    20a8:	0342                	slli	t1,t1,0x10
    20aa:	0000                	unimp
    20ac:	6c06                	ld	s8,64(sp)
    20ae:	1602                	slli	a2,a2,0x20
    20b0:	0112                	slli	sp,sp,0x4
    20b2:	0000                	unimp
    20b4:	17cc                	addi	a1,sp,996
    20b6:	057e                	slli	a0,a0,0x1f
    20b8:	0000                	unimp
    20ba:	6d06                	ld	s10,64(sp)
    20bc:	0802                	c.slli64	a6
    20be:	002d                	c.nop	11
    20c0:	0000                	unimp
    20c2:	00d4                	addi	a3,sp,68
    20c4:	3208                	fld	fa0,32(a2)
    20c6:	0001                	nop
    20c8:	2a00                	fld	fs0,16(a2)
    20ca:	0008                	.insn	2, 0x0008
    20cc:	0900                	addi	s0,sp,144
    20ce:	0000003b          	addw	zero,zero,zero
    20d2:	0019                	c.nop	6
    20d4:	53070803          	lb	a6,1328(a4)
    20d8:	08000003          	lb	zero,128(zero) # 80 <__stack_align+0x70>
    20dc:	0132                	slli	sp,sp,0xc
    20de:	0000                	unimp
    20e0:	0841                	addi	a6,a6,16
    20e2:	0000                	unimp
    20e4:	3b09                	addiw	s6,s6,-30
    20e6:	0000                	unimp
    20e8:	0700                	addi	s0,sp,896
    20ea:	0800                	addi	s0,sp,16
    20ec:	0132                	slli	sp,sp,0xc
    20ee:	0000                	unimp
    20f0:	0851                	addi	a6,a6,20
    20f2:	0000                	unimp
    20f4:	3b09                	addiw	s6,s6,-30
    20f6:	0000                	unimp
    20f8:	1700                	addi	s0,sp,928
    20fa:	1b00                	addi	s0,sp,432
    20fc:	0168                	addi	a0,sp,140
    20fe:	7206                	ld	tp,96(sp)
    2100:	0702                	c.slli64	a4
    2102:	0879                	addi	a6,a6,30
    2104:	0000                	unimp
    2106:	00052c17          	auipc	s8,0x52
    210a:	0600                	addi	s0,sp,768
    210c:	0275                	addi	tp,tp,29 # 1d <__stack_align+0xd>
    210e:	0008791b          	.insn	4, 0x0008791b
    2112:	0000                	unimp
    2114:	00051517          	auipc	a0,0x51
    2118:	0600                	addi	s0,sp,768
    211a:	0276                	slli	tp,tp,0x1d
    211c:	8918                	.insn	2, 0x8918
    211e:	0008                	.insn	2, 0x0008
    2120:	f000                	sd	s0,32(s0)
    2122:	0800                	addi	s0,sp,16
    2124:	031c                	addi	a5,sp,384
    2126:	0000                	unimp
    2128:	0889                	addi	a7,a7,2
    212a:	0000                	unimp
    212c:	3b09                	addiw	s6,s6,-30
    212e:	0000                	unimp
    2130:	1d00                	addi	s0,sp,688
    2132:	0800                	addi	s0,sp,16
    2134:	006c                	addi	a1,sp,12
    2136:	0000                	unimp
    2138:	0899                	addi	a7,a7,6
    213a:	0000                	unimp
    213c:	3b09                	addiw	s6,s6,-30
    213e:	0000                	unimp
    2140:	1d00                	addi	s0,sp,688
    2142:	1c00                	addi	s0,sp,560
    2144:	0168                	addi	a0,sp,140
    2146:	5706                	lw	a4,96(sp)
    2148:	0302                	c.slli64	t1
    214a:	000008bf 0006161d 	.insn	8, 0x0006161d000008bf
    2152:	0600                	addi	s0,sp,768
    2154:	026e                	slli	tp,tp,0x1b
    2156:	0007050b          	.insn	4, 0x0007050b
    215a:	1d00                	addi	s0,sp,688
    215c:	06f8                	addi	a4,sp,844
    215e:	0000                	unimp
    2160:	7706                	ld	a4,96(sp)
    2162:	0b02                	c.slli64	s6
    2164:	0851                	addi	a6,a6,20
    2166:	0000                	unimp
    2168:	0800                	addi	s0,sp,16
    216a:	0132                	slli	sp,sp,0xc
    216c:	0000                	unimp
    216e:	000008cf          	fnmadd.s	fa7,ft0,ft0,ft0,rne
    2172:	3b09                	addiw	s6,s6,-30
    2174:	0000                	unimp
    2176:	1800                	addi	s0,sp,48
    2178:	1e00                	addi	s0,sp,816
    217a:	00000373          	.insn	4, 0x0373
    217e:	080d                	addi	a6,a6,3
    2180:	000008cf          	fnmadd.s	fa7,ft0,ft0,ft0,rne
    2184:	e51f 0008 1500      	.insn	6, 0x15000008e51f
    218a:	00000483          	lb	s1,0(zero) # 0 <__boot_hart>
    218e:	0d00                	addi	s0,sp,656
    2190:	da08                	sw	a0,48(a2)
    2192:	0008                	.insn	2, 0x0008
    2194:	0d00                	addi	s0,sp,656
    2196:	a408                	fsd	fa0,8(s0)
    2198:	0001                	nop
    219a:	1f00                	addi	s0,sp,944
    219c:	08fc                	addi	a5,sp,92
    219e:	0000                	unimp
    21a0:	2d15                	addiw	s10,s10,5 # 62f79 <__heap_size+0x42f79>
    21a2:	0000                	unimp
    21a4:	0000                	unimp
    21a6:	080d                	addi	a6,a6,3
    21a8:	0902                	c.slli64	s2
    21aa:	0000                	unimp
    21ac:	080d                	addi	a6,a6,3
    21ae:	08f1                	addi	a7,a7,28
    21b0:	0000                	unimp
    21b2:	6a08                	ld	a0,16(a2)
    21b4:	0006                	c.slli	zero,0x1
    21b6:	1800                	addi	s0,sp,48
    21b8:	0009                	c.nop	2
    21ba:	0900                	addi	s0,sp,144
    21bc:	0000003b          	addw	zero,zero,zero
    21c0:	0002                	c.slli64	zero
    21c2:	9520                	.insn	2, 0x9520
    21c4:	0006                	c.slli	zero,0x1
    21c6:	0600                	addi	s0,sp,768
    21c8:	83170307          	.insn	4, 0x83170307
    21cc:	0004                	.insn	2, 0x0004
    21ce:	2000                	fld	fs0,0(s0)
    21d0:	068e                	slli	a3,a3,0x3
    21d2:	0000                	unimp
    21d4:	0806                	slli	a6,a6,0x1
    21d6:	04891d03          	lh	s10,72(s2)
    21da:	0000                	unimp
    21dc:	0108                	addi	a0,sp,128
    21de:	0006                	c.slli	zero,0x1
    21e0:	3d00                	fld	fs0,56(a0)
    21e2:	0009                	c.nop	2
    21e4:	2100                	fld	fs0,0(a0)
    21e6:	0e00                	addi	s0,sp,784
    21e8:	0932                	slli	s2,s2,0xc
    21ea:	0000                	unimp
    21ec:	d022                	sw	s0,32(sp)
    21ee:	07000007          	.insn	4, 0x07000007
    21f2:	2414                	fld	fa3,8(s0)
    21f4:	093d                	addi	s2,s2,15
    21f6:	0000                	unimp
    21f8:	ec22                	sd	s0,24(sp)
    21fa:	07000007          	.insn	4, 0x07000007
    21fe:	1515                	addi	a0,a0,-27 # 530f9 <__heap_size+0x330f9>
    2200:	002d                	c.nop	11
    2202:	0000                	unimp
    2204:	dc04                	sw	s1,56(s0)
    2206:	0002                	c.slli64	zero
    2208:	0800                	addi	s0,sp,16
    220a:	143c                	addi	a5,sp,552
    220c:	00000073          	ecall
    2210:	00095a23          	.insn	4, 0x00095a23
    2214:	2200                	fld	fs0,0(a2)
    2216:	021e                	slli	tp,tp,0x7
    2218:	0000                	unimp
    221a:	0609                	addi	a2,a2,2
    221c:	661a                	ld	a2,384(sp)
    221e:	0009                	c.nop	2
    2220:	2200                	fld	fs0,0(a2)
    2222:	02c5                	addi	t0,t0,17
    2224:	0000                	unimp
    2226:	0709                	addi	a4,a4,2
    2228:	661a                	ld	a2,384(sp)
    222a:	0009                	c.nop	2
    222c:	2400                	fld	fs0,8(s0)
    222e:	071a                	slli	a4,a4,0x6
    2230:	0000                	unimp
    2232:	0401                	addi	s0,s0,0
    2234:	2d05                	addiw	s10,s10,1
    2236:	0000                	unimp
    2238:	ec00                	sd	s0,24(s0)
    223a:	0016                	c.slli	zero,0x5
    223c:	0080                	addi	s0,sp,64
    223e:	0000                	unimp
    2240:	1400                	addi	s0,sp,544
    2242:	0000                	unimp
    2244:	0000                	unimp
    2246:	0000                	unimp
    2248:	0100                	addi	s0,sp,128
    224a:	c39c                	sw	a5,0(a5)
    224c:	0009                	c.nop	2
    224e:	2500                	fld	fs0,8(a0)
    2250:	04a4                	addi	s1,sp,584
    2252:	0000                	unimp
    2254:	0401                	addi	s0,s0,0
    2256:	2d10                	fld	fa2,24(a0)
    2258:	0000                	unimp
    225a:	9400                	.insn	2, 0x9400
    225c:	0001                	nop
    225e:	2600                	fld	fs0,8(a2)
    2260:	16f4                	addi	a3,sp,876
    2262:	8000                	.insn	2, 0x8000
    2264:	0000                	unimp
    2266:	0000                	unimp
    2268:	000009c3          	fmadd.s	fs3,ft0,ft0,ft0,rne
    226c:	2700                	fld	fs0,8(a4)
    226e:	07c8                	addi	a0,sp,964
    2270:	0000                	unimp
    2272:	07c8                	addi	a0,sp,964
    2274:	0000                	unimp
    2276:	000d0f07          	.insn	4, 0x000d0f07
    227a:	0a04                	addi	s1,sp,272
    227c:	0000                	unimp
    227e:	0004                	.insn	2, 0x0004
    2280:	0a4e                	slli	s4,s4,0x13
    2282:	0000                	unimp
    2284:	0108                	addi	a0,sp,128
    2286:	0260                	addi	s0,sp,268
    2288:	0000                	unimp
    228a:	050c                	addi	a1,sp,640
    228c:	0008                	.insn	2, 0x0008
    228e:	3300                	fld	fs0,32(a4)
    2290:	0002                	c.slli64	zero
    2292:	0000                	unimp
    2294:	00800017          	auipc	zero,0x800
    2298:	0000                	unimp
    229a:	1400                	addi	s0,sp,544
    229c:	0000                	unimp
    229e:	0000                	unimp
    22a0:	0000                	unimp
    22a2:	5a00                	lw	s0,48(a2)
    22a4:	0014                	.insn	2, 0x0014
    22a6:	0200                	addi	s0,sp,256
    22a8:	0504                	addi	s1,sp,640
    22aa:	6e69                	lui	t3,0x1a
    22ac:	0074                	addi	a3,sp,12
    22ae:	15050803          	lb	a6,336(a0)
    22b2:	0002                	c.slli64	zero
    22b4:	0300                	addi	s0,sp,384
    22b6:	0708                	addi	a0,sp,896
    22b8:	0358                	addi	a4,sp,388
    22ba:	0000                	unimp
    22bc:	10050803          	lb	a6,256(a0)
    22c0:	0002                	c.slli64	zero
    22c2:	0300                	addi	s0,sp,384
    22c4:	0410                	addi	a2,sp,512
    22c6:	02ce                	slli	t0,t0,0x13
    22c8:	0000                	unimp
    22ca:	45060103          	lb	sp,1104(a2)
    22ce:	0000                	unimp
    22d0:	0300                	addi	s0,sp,384
    22d2:	0801                	addi	a6,a6,0
    22d4:	00000043          	fmadd.s	ft0,ft0,ft0,ft0,rne
    22d8:	15050203          	lb	tp,336(a0)
    22dc:	0001                	nop
    22de:	0300                	addi	s0,sp,384
    22e0:	0702                	c.slli64	a4
    22e2:	0051                	c.nop	20
    22e4:	0000                	unimp
    22e6:	5d070403          	lb	s0,1488(a4)
    22ea:	04000003          	lb	zero,64(zero) # 40 <__stack_align+0x30>
    22ee:	02da                	slli	t0,t0,0x16
    22f0:	0000                	unimp
    22f2:	6902                	ld	s2,0(sp)
    22f4:	3b19                	addiw	s6,s6,-26
    22f6:	0000                	unimp
    22f8:	0400                	addi	s0,sp,512
    22fa:	00000567          	jalr	a0,zero # 0 <__boot_hart>
    22fe:	2d0d0c03          	lb	s8,720(s10)
    2302:	0000                	unimp
    2304:	0400                	addi	s0,sp,512
    2306:	000007f7          	.insn	4, 0x07f7
    230a:	2c04                	fld	fs1,24(s0)
    230c:	340e                	fld	fs0,224(sp)
    230e:	0000                	unimp
    2310:	0400                	addi	s0,sp,512
    2312:	07f6                	slli	a5,a5,0x1d
    2314:	0000                	unimp
    2316:	6404                	ld	s1,8(s0)
    2318:	8b10                	.insn	2, 0x8b10
    231a:	0000                	unimp
    231c:	0400                	addi	s0,sp,512
    231e:	0639                	addi	a2,a2,14
    2320:	0000                	unimp
    2322:	7204                	ld	s1,32(a2)
    2324:	340e                	fld	fs0,224(sp)
    2326:	0000                	unimp
    2328:	0400                	addi	s0,sp,512
    232a:	06ca                	slli	a3,a3,0x12
    232c:	0000                	unimp
    232e:	9104                	.insn	2, 0x9104
    2330:	00003417          	auipc	s0,0x3
    2334:	0500                	addi	s0,sp,640
    2336:	04f5                	addi	s1,s1,29 # 1d <__stack_align+0xd>
    2338:	0000                	unimp
    233a:	6505                	lui	a0,0x1
    233c:	1701                	addi	a4,a4,-32
    233e:	006c                	addi	a1,sp,12
    2340:	0000                	unimp
    2342:	0406                	slli	s0,s0,0x1
    2344:	a604                	fsd	fs1,8(a2)
    2346:	0000ea03          	lwu	s4,0(ra) # 1eca <__stack_align+0x1eba>
    234a:	0700                	addi	s0,sp,896
    234c:	04e8                	addi	a0,sp,588
    234e:	0000                	unimp
    2350:	a804                	fsd	fs1,16(s0)
    2352:	bb0c                	fsd	fa1,48(a4)
    2354:	0000                	unimp
    2356:	0700                	addi	s0,sp,896
    2358:	048c                	addi	a1,sp,576
    235a:	0000                	unimp
    235c:	a904                	fsd	fs1,16(a0)
    235e:	0000ea13          	ori	s4,ra,0
    2362:	0000                	unimp
    2364:	5708                	lw	a0,40(a4)
    2366:	0000                	unimp
    2368:	fa00                	sd	s0,48(a2)
    236a:	0000                	unimp
    236c:	0900                	addi	s0,sp,144
    236e:	0000003b          	addw	zero,zero,zero
    2372:	080a0003          	lb	zero,128(s4) # 66002 <__heap_size+0x46002>
    2376:	a304                	fsd	fs1,0(a4)
    2378:	1e09                	addi	t3,t3,-30 # 19fe2 <__stack_size+0x11fe2>
    237a:	0001                	nop
    237c:	0b00                	addi	s0,sp,400
    237e:	00000623          	sb	zero,12(zero) # c <__tcb_size+0x6>
    2382:	a504                	fsd	fs1,8(a0)
    2384:	00002d07          	flw	fs10,0(zero) # 0 <__boot_hart>
    2388:	0000                	unimp
    238a:	00062b0b          	.insn	4, 0x00062b0b
    238e:	0400                	addi	s0,sp,512
    2390:	05aa                	slli	a1,a1,0xa
    2392:	00c8                	addi	a0,sp,68
    2394:	0000                	unimp
    2396:	0004                	.insn	2, 0x0004
    2398:	a504                	fsd	fs1,8(a0)
    239a:	0005                	c.nop	1
    239c:	0400                	addi	s0,sp,512
    239e:	00fa03ab          	.insn	4, 0x00fa03ab
    23a2:	0000                	unimp
    23a4:	4f04                	lw	s1,24(a4)
    23a6:	0004                	.insn	2, 0x0004
    23a8:	0400                	addi	s0,sp,512
    23aa:	007f1baf          	.insn	4, 0x007f1baf
    23ae:	0000                	unimp
    23b0:	080c                	addi	a1,sp,16
    23b2:	080d                	addi	a6,a6,3
    23b4:	013e                	slli	sp,sp,0xf
    23b6:	0000                	unimp
    23b8:	4c080103          	lb	sp,1216(a6)
    23bc:	0000                	unimp
    23be:	0e00                	addi	s0,sp,784
    23c0:	013e                	slli	sp,sp,0xf
    23c2:	0000                	unimp
    23c4:	7904                	ld	s1,48(a0)
    23c6:	0006                	c.slli	zero,0x1
    23c8:	0600                	addi	s0,sp,768
    23ca:	1919                	addi	s2,s2,-26
    23cc:	006c                	addi	a1,sp,12
    23ce:	0000                	unimp
    23d0:	0004600f          	.insn	4, 0x0004600f
    23d4:	2000                	fld	fs0,0(s0)
    23d6:	2f06                	fld	ft10,64(sp)
    23d8:	b008                	fsd	fa0,32(s0)
    23da:	0001                	nop
    23dc:	0b00                	addi	s0,sp,400
    23de:	05c6                	slli	a1,a1,0x11
    23e0:	0000                	unimp
    23e2:	3106                	fld	ft2,96(sp)
    23e4:	0001b013          	sltiu	zero,gp,0
    23e8:	0000                	unimp
    23ea:	5f10                	lw	a2,56(a4)
    23ec:	3206006b          	.insn	4, 0x3206006b
    23f0:	00002d07          	flw	fs10,0(zero) # 0 <__boot_hart>
    23f4:	0800                	addi	s0,sp,16
    23f6:	00060e0b          	.insn	4, 0x00060e0b
    23fa:	0600                	addi	s0,sp,768
    23fc:	0b32                	slli	s6,s6,0xc
    23fe:	002d                	c.nop	11
    2400:	0000                	unimp
    2402:	0b0c                	addi	a1,sp,400
    2404:	0449                	addi	s0,s0,18 # 5342 <__stack_align+0x5332>
    2406:	0000                	unimp
    2408:	3206                	fld	ft4,96(sp)
    240a:	2d14                	fld	fa3,24(a0)
    240c:	0000                	unimp
    240e:	1000                	addi	s0,sp,32
    2410:	0006b50b          	.insn	4, 0x0006b50b
    2414:	0600                	addi	s0,sp,768
    2416:	1b32                	slli	s6,s6,0x2c
    2418:	002d                	c.nop	11
    241a:	0000                	unimp
    241c:	1014                	addi	a3,sp,32
    241e:	785f 0600 0b33      	.insn	6, 0x0b330600785f
    2424:	01b6                	slli	gp,gp,0xd
    2426:	0000                	unimp
    2428:	0018                	.insn	2, 0x0018
    242a:	080d                	addi	a6,a6,3
    242c:	0156                	slli	sp,sp,0x15
    242e:	0000                	unimp
    2430:	4a08                	lw	a0,16(a2)
    2432:	0001                	nop
    2434:	c600                	sw	s0,8(a2)
    2436:	0001                	nop
    2438:	0900                	addi	s0,sp,144
    243a:	0000003b          	addw	zero,zero,zero
    243e:	0000                	unimp
    2440:	0004870f          	.insn	4, 0x0004870f
    2444:	2400                	fld	fs0,8(s0)
    2446:	3706                	fld	fa4,96(sp)
    2448:	4908                	lw	a0,16(a0)
    244a:	0002                	c.slli64	zero
    244c:	0b00                	addi	s0,sp,400
    244e:	0000039b          	sext.w	t2,zero
    2452:	3906                	fld	fs2,96(sp)
    2454:	2d09                	addiw	s10,s10,2
    2456:	0000                	unimp
    2458:	0000                	unimp
    245a:	0006410b          	.insn	4, 0x0006410b
    245e:	0600                	addi	s0,sp,768
    2460:	093a                	slli	s2,s2,0xe
    2462:	002d                	c.nop	11
    2464:	0000                	unimp
    2466:	0b04                	addi	s1,sp,400
    2468:	03b0                	addi	a2,sp,456
    246a:	0000                	unimp
    246c:	3b06                	fld	fs6,96(sp)
    246e:	2d09                	addiw	s10,s10,2
    2470:	0000                	unimp
    2472:	0800                	addi	s0,sp,16
    2474:	0007390b          	.insn	4, 0x0007390b
    2478:	0600                	addi	s0,sp,768
    247a:	093c                	addi	a5,sp,152
    247c:	002d                	c.nop	11
    247e:	0000                	unimp
    2480:	0b0c                	addi	a1,sp,400
    2482:	00000533          	add	a0,zero,zero
    2486:	3d06                	fld	fs10,96(sp)
    2488:	2d09                	addiw	s10,s10,2
    248a:	0000                	unimp
    248c:	1000                	addi	s0,sp,32
    248e:	00050b0b          	.insn	4, 0x00050b0b
    2492:	0600                	addi	s0,sp,768
    2494:	093e                	slli	s2,s2,0xf
    2496:	002d                	c.nop	11
    2498:	0000                	unimp
    249a:	0b14                	addi	a3,sp,400
    249c:	06ba                	slli	a3,a3,0xe
    249e:	0000                	unimp
    24a0:	3f06                	fld	ft10,96(sp)
    24a2:	2d09                	addiw	s10,s10,2
    24a4:	0000                	unimp
    24a6:	1800                	addi	s0,sp,48
    24a8:	0005870b          	.insn	4, 0x0005870b
    24ac:	0600                	addi	s0,sp,768
    24ae:	0940                	addi	s0,sp,148
    24b0:	002d                	c.nop	11
    24b2:	0000                	unimp
    24b4:	0b1c                	addi	a5,sp,400
    24b6:	0700                	addi	s0,sp,896
    24b8:	0000                	unimp
    24ba:	4106                	lw	sp,64(sp)
    24bc:	2d09                	addiw	s10,s10,2
    24be:	0000                	unimp
    24c0:	2000                	fld	fs0,0(s0)
    24c2:	1100                	addi	s0,sp,160
    24c4:	000003bf 4a060208 	.insn	8, 0x4a060208000003bf
    24cc:	8f08                	.insn	2, 0x8f08
    24ce:	0002                	c.slli64	zero
    24d0:	0b00                	addi	s0,sp,400
    24d2:	0430                	addi	a2,sp,520
    24d4:	0000                	unimp
    24d6:	4b06                	lw	s6,64(sp)
    24d8:	8f0a                	mv	t5,sp
    24da:	0002                	c.slli64	zero
    24dc:	0000                	unimp
    24de:	1412                	slli	s0,s0,0x24
    24e0:	06000003          	lb	zero,96(zero) # 60 <__stack_align+0x50>
    24e4:	094c                	addi	a1,sp,148
    24e6:	0000028f          	.insn	4, 0x028f
    24ea:	0100                	addi	s0,sp,128
    24ec:	6b12                	ld	s6,256(sp)
    24ee:	0006                	c.slli	zero,0x1
    24f0:	0600                	addi	s0,sp,768
    24f2:	0a4e                	slli	s4,s4,0x13
    24f4:	014a                	slli	sp,sp,0x12
    24f6:	0000                	unimp
    24f8:	0200                	addi	s0,sp,256
    24fa:	e412                	sd	tp,8(sp)
    24fc:	06000003          	lb	zero,96(zero) # 60 <__stack_align+0x50>
    2500:	0a51                	addi	s4,s4,20
    2502:	014a                	slli	sp,sp,0x12
    2504:	0000                	unimp
    2506:	0204                	addi	s1,sp,256
    2508:	0800                	addi	s0,sp,16
    250a:	0136                	slli	sp,sp,0xd
    250c:	0000                	unimp
    250e:	029f 0000 3b09      	.insn	6, 0x3b090000029f
    2514:	0000                	unimp
    2516:	1f00                	addi	s0,sp,944
    2518:	1100                	addi	s0,sp,160
    251a:	053c                	addi	a5,sp,648
    251c:	0000                	unimp
    251e:	0318                	addi	a4,sp,384
    2520:	5d06                	lw	s10,96(sp)
    2522:	e308                	sd	a0,0(a4)
    2524:	0002                	c.slli64	zero
    2526:	0b00                	addi	s0,sp,400
    2528:	05c6                	slli	a1,a1,0x11
    252a:	0000                	unimp
    252c:	5e06                	lw	t3,96(sp)
    252e:	e312                	sd	tp,384(sp)
    2530:	0002                	c.slli64	zero
    2532:	0000                	unimp
    2534:	0005de0b          	.insn	4, 0x0005de0b
    2538:	0600                	addi	s0,sp,768
    253a:	065f 002d 0000      	.insn	6, 0x002d065f
    2540:	0b08                	addi	a0,sp,400
    2542:	0444                	addi	s1,sp,516
    2544:	0000                	unimp
    2546:	6106                	ld	sp,64(sp)
    2548:	e909                	bnez	a0,255a <__stack_align+0x254a>
    254a:	0002                	c.slli64	zero
    254c:	1000                	addi	s0,sp,32
    254e:	bf12                	fsd	ft4,440(sp)
    2550:	06000003          	lb	zero,96(zero) # 60 <__stack_align+0x50>
    2554:	1e62                	slli	t3,t3,0x38
    2556:	0249                	addi	tp,tp,18 # 12 <__stack_align+0x2>
    2558:	0000                	unimp
    255a:	0110                	addi	a2,sp,128
    255c:	0d00                	addi	s0,sp,656
    255e:	9f08                	.insn	2, 0x9f08
    2560:	0002                	c.slli64	zero
    2562:	0800                	addi	s0,sp,16
    2564:	02f9                	addi	t0,t0,30
    2566:	0000                	unimp
    2568:	02f9                	addi	t0,t0,30
    256a:	0000                	unimp
    256c:	3b09                	addiw	s6,s6,-30
    256e:	0000                	unimp
    2570:	1f00                	addi	s0,sp,944
    2572:	0d00                	addi	s0,sp,656
    2574:	ff08                	sd	a0,56(a4)
    2576:	0002                	c.slli64	zero
    2578:	1300                	addi	s0,sp,416
    257a:	0005910f          	.insn	4, 0x0005910f
    257e:	1000                	addi	s0,sp,32
    2580:	7506                	ld	a0,96(sp)
    2582:	2808                	fld	fa0,16(s0)
    2584:	0b000003          	lb	zero,176(zero) # b0 <__stack_align+0xa0>
    2588:	03aa                	slli	t2,t2,0xa
    258a:	0000                	unimp
    258c:	7606                	ld	a2,96(sp)
    258e:	2811                	addiw	a6,a6,4
    2590:	00000003          	lb	zero,0(zero) # 0 <__boot_hart>
    2594:	0003fa0b          	.insn	4, 0x0003fa0b
    2598:	0600                	addi	s0,sp,768
    259a:	002d0677          	.insn	4, 0x002d0677
    259e:	0000                	unimp
    25a0:	0008                	.insn	2, 0x0008
    25a2:	080d                	addi	a6,a6,3
    25a4:	00000057          	.insn	4, 0x0057
    25a8:	0005b00f          	.insn	4, 0x0005b00f
    25ac:	b000                	fsd	fs0,32(s0)
    25ae:	b506                	fsd	ft1,168(sp)
    25b0:	7108                	ld	a0,32(a0)
    25b2:	0004                	.insn	2, 0x0004
    25b4:	1000                	addi	s0,sp,32
    25b6:	705f 0600 12b6      	.insn	6, 0x12b60600705f
    25bc:	0328                	addi	a0,sp,392
    25be:	0000                	unimp
    25c0:	1000                	addi	s0,sp,32
    25c2:	725f 0600 07b7      	.insn	6, 0x07b70600725f
    25c8:	002d                	c.nop	11
    25ca:	0000                	unimp
    25cc:	1008                	addi	a0,sp,32
    25ce:	775f 0600 07b8      	.insn	6, 0x07b80600775f
    25d4:	002d                	c.nop	11
    25d6:	0000                	unimp
    25d8:	0b0c                	addi	a1,sp,400
    25da:	03dd                	addi	t2,t2,23
    25dc:	0000                	unimp
    25de:	b906                	fsd	ft1,176(sp)
    25e0:	5e09                	li	t3,-30
    25e2:	0000                	unimp
    25e4:	1000                	addi	s0,sp,32
    25e6:	0004a30b          	.insn	4, 0x0004a30b
    25ea:	0600                	addi	s0,sp,768
    25ec:	09ba                	slli	s3,s3,0xe
    25ee:	005e                	c.slli	zero,0x17
    25f0:	0000                	unimp
    25f2:	1012                	c.slli	zero,0x24
    25f4:	625f 0066 bb06      	.insn	6, 0xbb060066625f
    25fa:	0011                	c.nop	4
    25fc:	18000003          	lb	zero,384(zero) # 180 <__stack_align+0x170>
    2600:	00036a0b          	.insn	4, 0x00036a0b
    2604:	0600                	addi	s0,sp,768
    2606:	07bc                	addi	a5,sp,968
    2608:	002d                	c.nop	11
    260a:	0000                	unimp
    260c:	0b28                	addi	a0,sp,408
    260e:	03cd                	addi	t2,t2,19
    2610:	0000                	unimp
    2612:	c306                	sw	ra,132(sp)
    2614:	360a                	fld	fa2,160(sp)
    2616:	0001                	nop
    2618:	3000                	fld	fs0,32(s0)
    261a:	0004770b          	.insn	4, 0x0004770b
    261e:	0600                	addi	s0,sp,768
    2620:	1dc5                	addi	s11,s11,-15
    2622:	000005e3          	beqz	zero,2e2c <__stack_align+0x2e1c>
    2626:	0b38                	addi	a4,sp,408
    2628:	0504                	addi	s1,sp,640
    262a:	0000                	unimp
    262c:	c706                	sw	ra,140(sp)
    262e:	121d                	addi	tp,tp,-25 # ffffffffffffffe7 <__heap_end+0xffffffff7ffdcfe7>
    2630:	0006                	c.slli	zero,0x1
    2632:	4000                	lw	s0,0(s0)
    2634:	0006330b          	.insn	4, 0x0006330b
    2638:	0600                	addi	s0,sp,768
    263a:	0dca                	slli	s11,s11,0x12
    263c:	0636                	slli	a2,a2,0xd
    263e:	0000                	unimp
    2640:	0b48                	addi	a0,sp,404
    2642:	071a                	slli	a4,a4,0x6
    2644:	0000                	unimp
    2646:	cb06                	sw	ra,148(sp)
    2648:	5009                	c.li	zero,-30
    264a:	0006                	c.slli	zero,0x1
    264c:	5000                	lw	s0,32(s0)
    264e:	5f10                	lw	a2,56(a4)
    2650:	6275                	lui	tp,0x1d
    2652:	0600                	addi	s0,sp,768
    2654:	11ce                	slli	gp,gp,0x33
    2656:	0300                	addi	s0,sp,384
    2658:	0000                	unimp
    265a:	1058                	addi	a4,sp,36
    265c:	755f 0070 cf06      	.insn	6, 0xcf060070755f
    2662:	2812                	fld	fa6,256(sp)
    2664:	68000003          	lb	zero,1664(zero) # 680 <__stack_align+0x670>
    2668:	5f10                	lw	a2,56(a4)
    266a:	7275                	lui	tp,0xffffd
    266c:	0600                	addi	s0,sp,768
    266e:	07d0                	addi	a2,sp,964
    2670:	002d                	c.nop	11
    2672:	0000                	unimp
    2674:	0b70                	addi	a2,sp,412
    2676:	03a4                	addi	s1,sp,456
    2678:	0000                	unimp
    267a:	d306                	sw	ra,164(sp)
    267c:	5611                	li	a2,-28
    267e:	0006                	c.slli	zero,0x1
    2680:	7400                	ld	s0,40(s0)
    2682:	0006f20b          	.insn	4, 0x0006f20b
    2686:	0600                	addi	s0,sp,768
    2688:	11d4                	addi	a3,sp,228
    268a:	0666                	slli	a2,a2,0x19
    268c:	0000                	unimp
    268e:	6c5f1077          	.insn	4, 0x6c5f1077
    2692:	0062                	c.slli	zero,0x18
    2694:	d706                	sw	ra,172(sp)
    2696:	0011                	c.nop	4
    2698:	78000003          	lb	zero,1920(zero) # 780 <__stack_align+0x770>
    269c:	0004000b          	.insn	4, 0x0004000b
    26a0:	0600                	addi	s0,sp,768
    26a2:	07da                	slli	a5,a5,0x16
    26a4:	002d                	c.nop	11
    26a6:	0000                	unimp
    26a8:	0b88                	addi	a0,sp,464
    26aa:	0524                	addi	s1,sp,648
    26ac:	0000                	unimp
    26ae:	db06                	sw	ra,180(sp)
    26b0:	8b0a                	mv	s6,sp
    26b2:	0000                	unimp
    26b4:	9000                	.insn	2, 0x9000
    26b6:	0001b30b          	.insn	4, 0x0001b30b
    26ba:	0600                	addi	s0,sp,768
    26bc:	12de                	slli	t0,t0,0x37
    26be:	0000048f          	.insn	4, 0x048f
    26c2:	0b98                	addi	a4,sp,464
    26c4:	0761                	addi	a4,a4,24
    26c6:	0000                	unimp
    26c8:	e206                	sd	ra,256(sp)
    26ca:	2a0c                	fld	fa1,16(a2)
    26cc:	0001                	nop
    26ce:	a000                	fsd	fs0,0(s0)
    26d0:	0005b80b          	.insn	4, 0x0005b80b
    26d4:	0600                	addi	s0,sp,768
    26d6:	0ee4                	addi	s1,sp,860
    26d8:	011e                	slli	sp,sp,0x7
    26da:	0000                	unimp
    26dc:	0ba4                	addi	s1,sp,472
    26de:	04fc                	addi	a5,sp,588
    26e0:	0000                	unimp
    26e2:	e506                	sd	ra,136(sp)
    26e4:	2d09                	addiw	s10,s10,2
    26e6:	0000                	unimp
    26e8:	ac00                	fsd	fs0,24(s0)
    26ea:	1400                	addi	s0,sp,544
    26ec:	000000af          	.insn	4, 0x00af
    26f0:	0000048f          	.insn	4, 0x048f
    26f4:	8f15                	sub	a4,a4,a3
    26f6:	0004                	.insn	2, 0x0004
    26f8:	1500                	addi	s0,sp,672
    26fa:	0136                	slli	sp,sp,0xd
    26fc:	0000                	unimp
    26fe:	3815                	addiw	a6,a6,-27
    2700:	0001                	nop
    2702:	1500                	addi	s0,sp,672
    2704:	002d                	c.nop	11
    2706:	0000                	unimp
    2708:	0d00                	addi	s0,sp,656
    270a:	9a08                	.insn	2, 0x9a08
    270c:	0004                	.insn	2, 0x0004
    270e:	0e00                	addi	s0,sp,784
    2710:	0000048f          	.insn	4, 0x048f
    2714:	1616                	slli	a2,a2,0x25
    2716:	0006                	c.slli	zero,0x1
    2718:	4800                	lw	s0,16(s0)
    271a:	02390607          	.insn	4, 0x02390607
    271e:	e308                	sd	a0,0(a4)
    2720:	0005                	c.nop	1
    2722:	1700                	addi	s0,sp,928
    2724:	07c9                	addi	a5,a5,18
    2726:	0000                	unimp
    2728:	3b06                	fld	fs6,96(sp)
    272a:	0702                	c.slli64	a4
    272c:	002d                	c.nop	11
    272e:	0000                	unimp
    2730:	1700                	addi	s0,sp,928
    2732:	03ec                	addi	a1,sp,460
    2734:	0000                	unimp
    2736:	4006                	.insn	2, 0x4006
    2738:	0b02                	c.slli64	s6
    273a:	06c2                	slli	a3,a3,0x10
    273c:	0000                	unimp
    273e:	1708                	addi	a0,sp,928
    2740:	00000493          	li	s1,0
    2744:	4006                	.insn	2, 0x4006
    2746:	1402                	slli	s0,s0,0x20
    2748:	06c2                	slli	a3,a3,0x10
    274a:	0000                	unimp
    274c:	1710                	addi	a2,sp,928
    274e:	0458                	addi	a4,sp,516
    2750:	0000                	unimp
    2752:	4006                	.insn	2, 0x4006
    2754:	1e02                	slli	t3,t3,0x20
    2756:	06c2                	slli	a3,a3,0x10
    2758:	0000                	unimp
    275a:	1718                	addi	a4,sp,928
    275c:	05d9                	addi	a1,a1,22
    275e:	0000                	unimp
    2760:	4206                	lw	tp,64(sp)
    2762:	0802                	c.slli64	a6
    2764:	002d                	c.nop	11
    2766:	0000                	unimp
    2768:	1720                	addi	s0,sp,936
    276a:	0328                	addi	a0,sp,392
    276c:	0000                	unimp
    276e:	4306                	lw	t1,64(sp)
    2770:	0802                	c.slli64	a6
    2772:	000008cb          	fnmsub.s	fa7,ft0,ft0,ft0,rne
    2776:	1724                	addi	s1,sp,936
    2778:	05f5                	addi	a1,a1,29
    277a:	0000                	unimp
    277c:	4606                	lw	a2,64(sp)
    277e:	0702                	c.slli64	a4
    2780:	002d                	c.nop	11
    2782:	0000                	unimp
    2784:	1740                	addi	s0,sp,932
    2786:	000005e3          	beqz	zero,2f90 <__stack_align+0x2f80>
    278a:	4706                	lw	a4,64(sp)
    278c:	1602                	slli	a2,a2,0x20
    278e:	08e0                	addi	s0,sp,92
    2790:	0000                	unimp
    2792:	1748                	addi	a0,sp,932
    2794:	0544                	addi	s1,sp,644
    2796:	0000                	unimp
    2798:	4906                	lw	s2,64(sp)
    279a:	0702                	c.slli64	a4
    279c:	002d                	c.nop	11
    279e:	0000                	unimp
    27a0:	1750                	addi	a2,sp,932
    27a2:	000005eb          	.insn	4, 0x05eb
    27a6:	4b06                	lw	s6,64(sp)
    27a8:	0a02                	c.slli64	s4
    27aa:	08f1                	addi	a7,a7,28
    27ac:	0000                	unimp
    27ae:	1758                	addi	a4,sp,932
    27b0:	04e0                	addi	s0,sp,588
    27b2:	0000                	unimp
    27b4:	4e06                	lw	t3,64(sp)
    27b6:	1302                	slli	t1,t1,0x20
    27b8:	01b0                	addi	a2,sp,200
    27ba:	0000                	unimp
    27bc:	1760                	addi	s0,sp,940
    27be:	047d                	addi	s0,s0,31
    27c0:	0000                	unimp
    27c2:	4f06                	lw	t5,64(sp)
    27c4:	0702                	c.slli64	a4
    27c6:	002d                	c.nop	11
    27c8:	0000                	unimp
    27ca:	1768                	addi	a0,sp,940
    27cc:	0734                	addi	a3,sp,904
    27ce:	0000                	unimp
    27d0:	5006                	.insn	2, 0x5006
    27d2:	1302                	slli	t1,t1,0x20
    27d4:	01b0                	addi	a2,sp,200
    27d6:	0000                	unimp
    27d8:	1770                	addi	a2,sp,940
    27da:	0000054f          	fnmadd.s	fa0,ft0,ft0,ft0,rne
    27de:	5106                	lw	sp,96(sp)
    27e0:	1402                	slli	s0,s0,0x20
    27e2:	000008f7          	.insn	4, 0x08f7
    27e6:	1778                	addi	a4,sp,940
    27e8:	0000049b          	sext.w	s1,zero
    27ec:	5406                	lw	s0,96(sp)
    27ee:	0702                	c.slli64	a4
    27f0:	002d                	c.nop	11
    27f2:	0000                	unimp
    27f4:	1780                	addi	s0,sp,992
    27f6:	0409                	addi	s0,s0,2
    27f8:	0000                	unimp
    27fa:	5506                	lw	a0,96(sp)
    27fc:	0902                	c.slli64	s2
    27fe:	0138                	addi	a4,sp,136
    2800:	0000                	unimp
    2802:	1788                	addi	a0,sp,992
    2804:	0579                	addi	a0,a0,30 # 101e <__stack_align+0x100e>
    2806:	0000                	unimp
    2808:	7806                	ld	a6,96(sp)
    280a:	0702                	c.slli64	a4
    280c:	08a5                	addi	a7,a7,9
    280e:	0000                	unimp
    2810:	1890                	addi	a2,sp,112
    2812:	053c                	addi	a5,sp,648
    2814:	0000                	unimp
    2816:	7c06                	ld	s8,96(sp)
    2818:	1302                	slli	t1,t1,0x20
    281a:	000002e3          	beqz	zero,301e <__stack_align+0x300e>
    281e:	01f8                	addi	a4,sp,204
    2820:	be18                	fsd	fa4,56(a2)
    2822:	0004                	.insn	2, 0x0004
    2824:	0600                	addi	s0,sp,768
    2826:	027d                	addi	tp,tp,31 # ffffffffffffd01f <__heap_end+0xffffffff7ffda01f>
    2828:	9f12                	add	t5,t5,tp
    282a:	0002                	c.slli64	zero
    282c:	0000                	unimp
    282e:	1802                	slli	a6,a6,0x20
    2830:	06e8                	addi	a0,sp,844
    2832:	0000                	unimp
    2834:	8106                	mv	sp,ra
    2836:	0c02                	c.slli64	s8
    2838:	0908                	addi	a0,sp,144
    283a:	0000                	unimp
    283c:	0518                	addi	a4,sp,640
    283e:	d518                	sw	a4,40(a0)
    2840:	06000003          	lb	zero,96(zero) # 60 <__stack_align+0x50>
    2844:	0286                	slli	t0,t0,0x1
    2846:	8310                	.insn	2, 0x8310
    2848:	0006                	c.slli	zero,0x1
    284a:	2000                	fld	fs0,0(s0)
    284c:	1805                	addi	a6,a6,-31
    284e:	03ba                	slli	t2,t2,0xe
    2850:	0000                	unimp
    2852:	8806                	mv	a6,ra
    2854:	0a02                	c.slli64	s4
    2856:	0914                	addi	a3,sp,144
    2858:	0000                	unimp
    285a:	0538                	addi	a4,sp,648
    285c:	0d00                	addi	s0,sp,656
    285e:	7108                	ld	a0,32(a0)
    2860:	0004                	.insn	2, 0x0004
    2862:	1400                	addi	s0,sp,544
    2864:	000000af          	.insn	4, 0x00af
    2868:	00000607          	.insn	4, 0x0607
    286c:	8f15                	sub	a4,a4,a3
    286e:	0004                	.insn	2, 0x0004
    2870:	1500                	addi	s0,sp,672
    2872:	0136                	slli	sp,sp,0xd
    2874:	0000                	unimp
    2876:	0715                	addi	a4,a4,5
    2878:	0006                	c.slli	zero,0x1
    287a:	1500                	addi	s0,sp,672
    287c:	002d                	c.nop	11
    287e:	0000                	unimp
    2880:	0d00                	addi	s0,sp,656
    2882:	4508                	lw	a0,8(a0)
    2884:	0001                	nop
    2886:	0e00                	addi	s0,sp,784
    2888:	00000607          	.insn	4, 0x0607
    288c:	080d                	addi	a6,a6,3
    288e:	05e9                	addi	a1,a1,26
    2890:	0000                	unimp
    2892:	a314                	fsd	fa3,0(a4)
    2894:	0000                	unimp
    2896:	3600                	fld	fs0,40(a2)
    2898:	0006                	c.slli	zero,0x1
    289a:	1500                	addi	s0,sp,672
    289c:	0000048f          	.insn	4, 0x048f
    28a0:	3615                	addiw	a2,a2,-27
    28a2:	0001                	nop
    28a4:	1500                	addi	s0,sp,672
    28a6:	000000a3          	sb	zero,1(zero) # 1 <__boot_hart+0x1>
    28aa:	2d15                	addiw	s10,s10,5
    28ac:	0000                	unimp
    28ae:	0000                	unimp
    28b0:	080d                	addi	a6,a6,3
    28b2:	0618                	addi	a4,sp,768
    28b4:	0000                	unimp
    28b6:	2d14                	fld	fa3,24(a0)
    28b8:	0000                	unimp
    28ba:	5000                	lw	s0,32(s0)
    28bc:	0006                	c.slli	zero,0x1
    28be:	1500                	addi	s0,sp,672
    28c0:	0000048f          	.insn	4, 0x048f
    28c4:	3615                	addiw	a2,a2,-27
    28c6:	0001                	nop
    28c8:	0000                	unimp
    28ca:	080d                	addi	a6,a6,3
    28cc:	063c                	addi	a5,sp,776
    28ce:	0000                	unimp
    28d0:	5708                	lw	a0,40(a4)
    28d2:	0000                	unimp
    28d4:	6600                	ld	s0,8(a2)
    28d6:	0006                	c.slli	zero,0x1
    28d8:	0900                	addi	s0,sp,144
    28da:	0000003b          	addw	zero,zero,zero
    28de:	0002                	c.slli64	zero
    28e0:	5708                	lw	a0,40(a4)
    28e2:	0000                	unimp
    28e4:	7600                	ld	s0,40(a2)
    28e6:	0006                	c.slli	zero,0x1
    28e8:	0900                	addi	s0,sp,144
    28ea:	0000003b          	addw	zero,zero,zero
    28ee:	0000                	unimp
    28f0:	9e05                	subw	a2,a2,s1
    28f2:	0005                	c.nop	1
    28f4:	0600                	addi	s0,sp,768
    28f6:	011f 2e1a 0003      	.insn	6, 0x00032e1a011f
    28fc:	1900                	addi	s0,sp,176
    28fe:	06c4                	addi	s1,sp,836
    2900:	0000                	unimp
    2902:	0618                	addi	a4,sp,768
    2904:	bc080123          	sb	zero,-1086(a6)
    2908:	0006                	c.slli	zero,0x1
    290a:	1700                	addi	s0,sp,928
    290c:	05c6                	slli	a1,a1,0x11
    290e:	0000                	unimp
    2910:	2506                	fld	fa0,64(sp)
    2912:	1101                	addi	sp,sp,-32
    2914:	06bc                	addi	a5,sp,840
    2916:	0000                	unimp
    2918:	1700                	addi	s0,sp,928
    291a:	000004b7          	lui	s1,0x0
    291e:	2606                	fld	fa2,64(sp)
    2920:	0701                	addi	a4,a4,0
    2922:	002d                	c.nop	11
    2924:	0000                	unimp
    2926:	1708                	addi	a0,sp,928
    2928:	0598                	addi	a4,sp,704
    292a:	0000                	unimp
    292c:	2706                	fld	fa4,64(sp)
    292e:	0b01                	addi	s6,s6,0
    2930:	06c2                	slli	a3,a3,0x10
    2932:	0000                	unimp
    2934:	0010                	.insn	2, 0x0010
    2936:	080d                	addi	a6,a6,3
    2938:	00000683          	lb	a3,0(zero) # 0 <__boot_hart>
    293c:	080d                	addi	a6,a6,3
    293e:	0676                	slli	a2,a2,0x1d
    2940:	0000                	unimp
    2942:	2019                	.insn	2, 0x2019
    2944:	0e000003          	lb	zero,224(zero) # e0 <__stack_align+0xd0>
    2948:	3f06                	fld	ft10,96(sp)
    294a:	0801                	addi	a6,a6,0
    294c:	0701                	addi	a4,a4,0
    294e:	0000                	unimp
    2950:	00061d17          	auipc	s10,0x61
    2954:	0600                	addi	s0,sp,768
    2956:	0140                	addi	s0,sp,132
    2958:	0112                	slli	sp,sp,0x4
    295a:	00000007          	.insn	4, 0x0007
    295e:	00064a17          	auipc	s4,0x64
    2962:	0600                	addi	s0,sp,768
    2964:	0141                	addi	sp,sp,16
    2966:	0112                	slli	sp,sp,0x4
    2968:	06000007          	.insn	4, 0x06000007
    296c:	00067417          	auipc	s0,0x67
    2970:	0600                	addi	s0,sp,768
    2972:	0142                	slli	sp,sp,0x10
    2974:	6512                	ld	a0,256(sp)
    2976:	0000                	unimp
    2978:	0c00                	addi	s0,sp,528
    297a:	0800                	addi	s0,sp,16
    297c:	0065                	c.nop	25
    297e:	0000                	unimp
    2980:	0711                	addi	a4,a4,4
    2982:	0000                	unimp
    2984:	3b09                	addiw	s6,s6,-30
    2986:	0000                	unimp
    2988:	0200                	addi	s0,sp,256
    298a:	1a00                	addi	s0,sp,304
    298c:	06d8                	addi	a4,sp,836
    298e:	0259                	addi	tp,tp,22 # 16 <__stack_align+0x6>
    2990:	00082607          	flw	fa2,0(a6)
    2994:	1700                	addi	s0,sp,928
    2996:	06a8                	addi	a0,sp,840
    2998:	0000                	unimp
    299a:	5b06                	lw	s6,96(sp)
    299c:	1802                	slli	a6,a6,0x20
    299e:	006c                	addi	a1,sp,12
    29a0:	0000                	unimp
    29a2:	1700                	addi	s0,sp,928
    29a4:	065e                	slli	a2,a2,0x17
    29a6:	0000                	unimp
    29a8:	5c06                	lw	s8,96(sp)
    29aa:	1202                	slli	tp,tp,0x20
    29ac:	0138                	addi	a4,sp,136
    29ae:	0000                	unimp
    29b0:	1708                	addi	a0,sp,928
    29b2:	000004d3          	fadd.s	fs1,ft0,ft0,rne
    29b6:	5d06                	lw	s10,96(sp)
    29b8:	1002                	c.slli	zero,0x20
    29ba:	0826                	slli	a6,a6,0x9
    29bc:	0000                	unimp
    29be:	1710                	addi	a2,sp,928
    29c0:	0000070b          	.insn	4, 0x070b
    29c4:	5e06                	lw	t3,96(sp)
    29c6:	1702                	slli	a4,a4,0x20
    29c8:	01c6                	slli	gp,gp,0x11
    29ca:	0000                	unimp
    29cc:	172c                	addi	a1,sp,936
    29ce:	0468                	addi	a0,sp,524
    29d0:	0000                	unimp
    29d2:	5f06                	lw	t5,96(sp)
    29d4:	0f02                	c.slli64	t5
    29d6:	002d                	c.nop	11
    29d8:	0000                	unimp
    29da:	1750                	addi	a2,sp,932
    29dc:	05c1                	addi	a1,a1,16
    29de:	0000                	unimp
    29e0:	6006                	.insn	2, 0x6006
    29e2:	2c02                	fld	fs8,0(sp)
    29e4:	0836                	slli	a6,a6,0xd
    29e6:	0000                	unimp
    29e8:	1758                	addi	a4,sp,932
    29ea:	0721                	addi	a4,a4,8
    29ec:	0000                	unimp
    29ee:	6106                	ld	sp,64(sp)
    29f0:	1a02                	slli	s4,s4,0x20
    29f2:	06c8                	addi	a0,sp,836
    29f4:	0000                	unimp
    29f6:	1760                	addi	s0,sp,940
    29f8:	05cc                	addi	a1,sp,708
    29fa:	0000                	unimp
    29fc:	6206                	ld	tp,64(sp)
    29fe:	1602                	slli	a2,a2,0x20
    2a00:	011e                	slli	sp,sp,0x7
    2a02:	0000                	unimp
    2a04:	1770                	addi	a2,sp,940
    2a06:	0726                	slli	a4,a4,0x9
    2a08:	0000                	unimp
    2a0a:	6306                	ld	t1,64(sp)
    2a0c:	1602                	slli	a2,a2,0x20
    2a0e:	011e                	slli	sp,sp,0x7
    2a10:	0000                	unimp
    2a12:	1778                	addi	a4,sp,940
    2a14:	038d                	addi	t2,t2,3
    2a16:	0000                	unimp
    2a18:	6406                	ld	s0,64(sp)
    2a1a:	1602                	slli	a2,a2,0x20
    2a1c:	011e                	slli	sp,sp,0x7
    2a1e:	0000                	unimp
    2a20:	1780                	addi	s0,sp,992
    2a22:	000006d3          	fadd.s	fa3,ft0,ft0,rne
    2a26:	6506                	ld	a0,64(sp)
    2a28:	1002                	c.slli	zero,0x20
    2a2a:	083d                	addi	a6,a6,15
    2a2c:	0000                	unimp
    2a2e:	1788                	addi	a0,sp,992
    2a30:	000004c7          	fmsub.s	fs1,ft0,ft0,ft0,rne
    2a34:	6606                	ld	a2,64(sp)
    2a36:	1002                	c.slli	zero,0x20
    2a38:	084d                	addi	a6,a6,19
    2a3a:	0000                	unimp
    2a3c:	1790                	addi	a2,sp,992
    2a3e:	0681                	addi	a3,a3,0
    2a40:	0000                	unimp
    2a42:	6706                	ld	a4,64(sp)
    2a44:	0f02                	c.slli64	t5
    2a46:	002d                	c.nop	11
    2a48:	0000                	unimp
    2a4a:	17a8                	addi	a0,sp,1000
    2a4c:	0422                	slli	s0,s0,0x8
    2a4e:	0000                	unimp
    2a50:	6806                	ld	a6,64(sp)
    2a52:	1602                	slli	a2,a2,0x20
    2a54:	011e                	slli	sp,sp,0x7
    2a56:	0000                	unimp
    2a58:	17ac                	addi	a1,sp,1000
    2a5a:	037e                	slli	t1,t1,0x1f
    2a5c:	0000                	unimp
    2a5e:	6906                	ld	s2,64(sp)
    2a60:	1602                	slli	a2,a2,0x20
    2a62:	011e                	slli	sp,sp,0x7
    2a64:	0000                	unimp
    2a66:	17b4                	addi	a3,sp,1000
    2a68:	0411                	addi	s0,s0,4 # 69970 <__heap_size+0x49970>
    2a6a:	0000                	unimp
    2a6c:	6a06                	ld	s4,64(sp)
    2a6e:	1602                	slli	a2,a2,0x20
    2a70:	011e                	slli	sp,sp,0x7
    2a72:	0000                	unimp
    2a74:	17bc                	addi	a5,sp,1000
    2a76:	00000333          	add	t1,zero,zero
    2a7a:	6b06                	ld	s6,64(sp)
    2a7c:	1602                	slli	a2,a2,0x20
    2a7e:	011e                	slli	sp,sp,0x7
    2a80:	0000                	unimp
    2a82:	17c4                	addi	s1,sp,996
    2a84:	0342                	slli	t1,t1,0x10
    2a86:	0000                	unimp
    2a88:	6c06                	ld	s8,64(sp)
    2a8a:	1602                	slli	a2,a2,0x20
    2a8c:	011e                	slli	sp,sp,0x7
    2a8e:	0000                	unimp
    2a90:	17cc                	addi	a1,sp,996
    2a92:	057e                	slli	a0,a0,0x1f
    2a94:	0000                	unimp
    2a96:	6d06                	ld	s10,64(sp)
    2a98:	0802                	c.slli64	a6
    2a9a:	002d                	c.nop	11
    2a9c:	0000                	unimp
    2a9e:	00d4                	addi	a3,sp,68
    2aa0:	3e08                	fld	fa0,56(a2)
    2aa2:	0001                	nop
    2aa4:	3600                	fld	fs0,40(a2)
    2aa6:	0008                	.insn	2, 0x0008
    2aa8:	0900                	addi	s0,sp,144
    2aaa:	0000003b          	addw	zero,zero,zero
    2aae:	0019                	c.nop	6
    2ab0:	53070803          	lb	a6,1328(a4)
    2ab4:	08000003          	lb	zero,128(zero) # 80 <__stack_align+0x70>
    2ab8:	013e                	slli	sp,sp,0xf
    2aba:	0000                	unimp
    2abc:	084d                	addi	a6,a6,19
    2abe:	0000                	unimp
    2ac0:	3b09                	addiw	s6,s6,-30
    2ac2:	0000                	unimp
    2ac4:	0700                	addi	s0,sp,896
    2ac6:	0800                	addi	s0,sp,16
    2ac8:	013e                	slli	sp,sp,0xf
    2aca:	0000                	unimp
    2acc:	085d                	addi	a6,a6,23
    2ace:	0000                	unimp
    2ad0:	3b09                	addiw	s6,s6,-30
    2ad2:	0000                	unimp
    2ad4:	1700                	addi	s0,sp,928
    2ad6:	1b00                	addi	s0,sp,432
    2ad8:	0168                	addi	a0,sp,140
    2ada:	7206                	ld	tp,96(sp)
    2adc:	0702                	c.slli64	a4
    2ade:	0885                	addi	a7,a7,1
    2ae0:	0000                	unimp
    2ae2:	00052c17          	auipc	s8,0x52
    2ae6:	0600                	addi	s0,sp,768
    2ae8:	0275                	addi	tp,tp,29 # 1d <__stack_align+0xd>
    2aea:	0008851b          	sext.w	a0,a7
    2aee:	0000                	unimp
    2af0:	00051517          	auipc	a0,0x51
    2af4:	0600                	addi	s0,sp,768
    2af6:	0276                	slli	tp,tp,0x1d
    2af8:	9518                	.insn	2, 0x9518
    2afa:	0008                	.insn	2, 0x0008
    2afc:	f000                	sd	s0,32(s0)
    2afe:	0800                	addi	s0,sp,16
    2b00:	0328                	addi	a0,sp,392
    2b02:	0000                	unimp
    2b04:	0895                	addi	a7,a7,5
    2b06:	0000                	unimp
    2b08:	3b09                	addiw	s6,s6,-30
    2b0a:	0000                	unimp
    2b0c:	1d00                	addi	s0,sp,688
    2b0e:	0800                	addi	s0,sp,16
    2b10:	006c                	addi	a1,sp,12
    2b12:	0000                	unimp
    2b14:	08a5                	addi	a7,a7,9
    2b16:	0000                	unimp
    2b18:	3b09                	addiw	s6,s6,-30
    2b1a:	0000                	unimp
    2b1c:	1d00                	addi	s0,sp,688
    2b1e:	1c00                	addi	s0,sp,560
    2b20:	0168                	addi	a0,sp,140
    2b22:	5706                	lw	a4,96(sp)
    2b24:	0302                	c.slli64	t1
    2b26:	000008cb          	fnmsub.s	fa7,ft0,ft0,ft0,rne
    2b2a:	161d                	addi	a2,a2,-25
    2b2c:	0006                	c.slli	zero,0x1
    2b2e:	0600                	addi	s0,sp,768
    2b30:	026e                	slli	tp,tp,0x1b
    2b32:	0007110b          	.insn	4, 0x0007110b
    2b36:	1d00                	addi	s0,sp,688
    2b38:	06f8                	addi	a4,sp,844
    2b3a:	0000                	unimp
    2b3c:	7706                	ld	a4,96(sp)
    2b3e:	0b02                	c.slli64	s6
    2b40:	085d                	addi	a6,a6,23
    2b42:	0000                	unimp
    2b44:	0800                	addi	s0,sp,16
    2b46:	013e                	slli	sp,sp,0xf
    2b48:	0000                	unimp
    2b4a:	000008db          	.insn	4, 0x08db
    2b4e:	3b09                	addiw	s6,s6,-30
    2b50:	0000                	unimp
    2b52:	1800                	addi	s0,sp,48
    2b54:	1e00                	addi	s0,sp,816
    2b56:	00000373          	.insn	4, 0x0373
    2b5a:	080d                	addi	a6,a6,3
    2b5c:	000008db          	.insn	4, 0x08db
    2b60:	f11f 0008 1500      	.insn	6, 0x15000008f11f
    2b66:	0000048f          	.insn	4, 0x048f
    2b6a:	0d00                	addi	s0,sp,656
    2b6c:	e608                	sd	a0,8(a2)
    2b6e:	0008                	.insn	2, 0x0008
    2b70:	0d00                	addi	s0,sp,656
    2b72:	b008                	fsd	fa0,32(s0)
    2b74:	0001                	nop
    2b76:	1f00                	addi	s0,sp,944
    2b78:	0908                	addi	a0,sp,144
    2b7a:	0000                	unimp
    2b7c:	2d15                	addiw	s10,s10,5 # 63955 <__heap_size+0x43955>
    2b7e:	0000                	unimp
    2b80:	0000                	unimp
    2b82:	080d                	addi	a6,a6,3
    2b84:	090e                	slli	s2,s2,0x3
    2b86:	0000                	unimp
    2b88:	080d                	addi	a6,a6,3
    2b8a:	08fd                	addi	a7,a7,31
    2b8c:	0000                	unimp
    2b8e:	7608                	ld	a0,40(a2)
    2b90:	0006                	c.slli	zero,0x1
    2b92:	2400                	fld	fs0,8(s0)
    2b94:	0009                	c.nop	2
    2b96:	0900                	addi	s0,sp,144
    2b98:	0000003b          	addw	zero,zero,zero
    2b9c:	0002                	c.slli64	zero
    2b9e:	9520                	.insn	2, 0x9520
    2ba0:	0006                	c.slli	zero,0x1
    2ba2:	0600                	addi	s0,sp,768
    2ba4:	8f170307          	.insn	4, 0x8f170307
    2ba8:	0004                	.insn	2, 0x0004
    2baa:	2000                	fld	fs0,0(s0)
    2bac:	068e                	slli	a3,a3,0x3
    2bae:	0000                	unimp
    2bb0:	0806                	slli	a6,a6,0x1
    2bb2:	04951d03          	lh	s10,73(a0) # 53b39 <__heap_size+0x33b39>
    2bb6:	0000                	unimp
    2bb8:	0d08                	addi	a0,sp,656
    2bba:	0006                	c.slli	zero,0x1
    2bbc:	4900                	lw	s0,16(a0)
    2bbe:	0009                	c.nop	2
    2bc0:	2100                	fld	fs0,0(a0)
    2bc2:	0e00                	addi	s0,sp,784
    2bc4:	093e                	slli	s2,s2,0xf
    2bc6:	0000                	unimp
    2bc8:	d022                	sw	s0,32(sp)
    2bca:	07000007          	.insn	4, 0x07000007
    2bce:	2414                	fld	fa3,8(s0)
    2bd0:	0949                	addi	s2,s2,18
    2bd2:	0000                	unimp
    2bd4:	ec22                	sd	s0,24(sp)
    2bd6:	07000007          	.insn	4, 0x07000007
    2bda:	1515                	addi	a0,a0,-27
    2bdc:	002d                	c.nop	11
    2bde:	0000                	unimp
    2be0:	dc04                	sw	s1,56(s0)
    2be2:	0002                	c.slli64	zero
    2be4:	0800                	addi	s0,sp,16
    2be6:	143c                	addi	a5,sp,552
    2be8:	00000073          	ecall
    2bec:	00096623          	.insn	4, 0x00096623
    2bf0:	0400                	addi	s0,sp,512
    2bf2:	07f8                	addi	a4,sp,972
    2bf4:	0000                	unimp
    2bf6:	ad09                	j	3208 <__stack_align+0x31f8>
    2bf8:	9712                	add	a4,a4,tp
    2bfa:	0000                	unimp
    2bfc:	2200                	fld	fs0,0(a2)
    2bfe:	021e                	slli	tp,tp,0x7
    2c00:	0000                	unimp
    2c02:	060a                	slli	a2,a2,0x2
    2c04:	721a                	ld	tp,416(sp)
    2c06:	0009                	c.nop	2
    2c08:	2200                	fld	fs0,0(a2)
    2c0a:	02c5                	addi	t0,t0,17
    2c0c:	0000                	unimp
    2c0e:	070a                	slli	a4,a4,0x2
    2c10:	721a                	ld	tp,416(sp)
    2c12:	0009                	c.nop	2
    2c14:	2400                	fld	fs0,8(s0)
    2c16:	07fe                	slli	a5,a5,0x1f
    2c18:	0000                	unimp
    2c1a:	0501                	addi	a0,a0,0
    2c1c:	00097707          	.insn	4, 0x00097707
    2c20:	0000                	unimp
    2c22:	00800017          	auipc	zero,0x800
    2c26:	0000                	unimp
    2c28:	1400                	addi	s0,sp,544
    2c2a:	0000                	unimp
    2c2c:	0000                	unimp
    2c2e:	0000                	unimp
    2c30:	0100                	addi	s0,sp,128
    2c32:	fb9c                	sd	a5,48(a5)
    2c34:	0009                	c.nop	2
    2c36:	2500                	fld	fs0,8(a0)
    2c38:	04a4                	addi	s1,sp,584
    2c3a:	0000                	unimp
    2c3c:	0501                	addi	a0,a0,0
    2c3e:	2d12                	fld	fs10,256(sp)
    2c40:	0000                	unimp
    2c42:	cd00                	sw	s0,24(a0)
    2c44:	0001                	nop
    2c46:	2600                	fld	fs0,8(a2)
    2c48:	7470                	ld	a2,232(s0)
    2c4a:	0072                	c.slli	zero,0x1c
    2c4c:	0501                	addi	a0,a0,0
    2c4e:	771e                	ld	a4,480(sp)
    2c50:	0009                	c.nop	2
    2c52:	0600                	addi	s0,sp,768
    2c54:	0002                	c.slli64	zero
    2c56:	2600                	fld	fs0,8(a2)
    2c58:	6964                	ld	s1,208(a0)
    2c5a:	0072                	c.slli	zero,0x1c
    2c5c:	0501                	addi	a0,a0,0
    2c5e:	00002d27          	fsw	ft0,26(zero) # 1a <__stack_align+0xa>
    2c62:	3f00                	fld	fs0,56(a4)
    2c64:	0002                	c.slli64	zero
    2c66:	2700                	fld	fs0,8(a4)
    2c68:	1708                	addi	a0,sp,928
    2c6a:	8000                	.insn	2, 0x8000
    2c6c:	0000                	unimp
    2c6e:	0000                	unimp
    2c70:	000009fb          	.insn	4, 0x09fb
    2c74:	2800                	fld	fs0,16(s0)
    2c76:	07c8                	addi	a0,sp,964
    2c78:	0000                	unimp
    2c7a:	07c8                	addi	a0,sp,964
    2c7c:	0000                	unimp
    2c7e:	000d0f07          	.insn	4, 0x000d0f07
    2c82:	0a04                	addi	s1,sp,272
    2c84:	0000                	unimp
    2c86:	0004                	.insn	2, 0x0004
    2c88:	0c7c                	addi	a5,sp,540
    2c8a:	0000                	unimp
    2c8c:	0108                	addi	a0,sp,128
    2c8e:	0260                	addi	s0,sp,268
    2c90:	0000                	unimp
    2c92:	140c                	addi	a1,sp,544
    2c94:	0008                	.insn	2, 0x0008
    2c96:	3300                	fld	fs0,32(a4)
    2c98:	0002                	c.slli64	zero
    2c9a:	1400                	addi	s0,sp,544
    2c9c:	00800017          	auipc	zero,0x800
    2ca0:	0000                	unimp
    2ca2:	1600                	addi	s0,sp,800
    2ca4:	0000                	unimp
    2ca6:	0000                	unimp
    2ca8:	0000                	unimp
    2caa:	e000                	sd	s0,0(s0)
    2cac:	0015                	c.nop	5
    2cae:	0200                	addi	s0,sp,256
    2cb0:	0504                	addi	s1,sp,640
    2cb2:	6e69                	lui	t3,0x1a
    2cb4:	0074                	addi	a3,sp,12
    2cb6:	15050803          	lb	a6,336(a0)
    2cba:	0002                	c.slli64	zero
    2cbc:	0400                	addi	s0,sp,512
    2cbe:	06cc                	addi	a1,sp,836
    2cc0:	0000                	unimp
    2cc2:	d802                	sw	zero,48(sp)
    2cc4:	00004717          	auipc	a4,0x4
    2cc8:	0300                	addi	s0,sp,384
    2cca:	0708                	addi	a0,sp,896
    2ccc:	0358                	addi	a4,sp,388
    2cce:	0000                	unimp
    2cd0:	10050803          	lb	a6,256(a0)
    2cd4:	0002                	c.slli64	zero
    2cd6:	0300                	addi	s0,sp,384
    2cd8:	0410                	addi	a2,sp,512
    2cda:	02ce                	slli	t0,t0,0x13
    2cdc:	0000                	unimp
    2cde:	45060103          	lb	sp,1104(a2)
    2ce2:	0000                	unimp
    2ce4:	0300                	addi	s0,sp,384
    2ce6:	0801                	addi	a6,a6,0
    2ce8:	00000043          	fmadd.s	ft0,ft0,ft0,ft0,rne
    2cec:	15050203          	lb	tp,336(a0)
    2cf0:	0001                	nop
    2cf2:	0300                	addi	s0,sp,384
    2cf4:	0702                	c.slli64	a4
    2cf6:	0051                	c.nop	20
    2cf8:	0000                	unimp
    2cfa:	5d070403          	lb	s0,1488(a4) # 7294 <__stack_size_min+0x1294>
    2cfe:	04000003          	lb	zero,64(zero) # 40 <__stack_align+0x30>
    2d02:	02da                	slli	t0,t0,0x16
    2d04:	0000                	unimp
    2d06:	47196903          	lwu	s2,1137(s2)
    2d0a:	0000                	unimp
    2d0c:	0400                	addi	s0,sp,512
    2d0e:	00000567          	jalr	a0,zero # 0 <__boot_hart>
    2d12:	0c04                	addi	s1,sp,528
    2d14:	2d0d                	addiw	s10,s10,3
    2d16:	0000                	unimp
    2d18:	0400                	addi	s0,sp,512
    2d1a:	000007f7          	.insn	4, 0x07f7
    2d1e:	2c05                	addiw	s8,s8,1 # 54ae3 <__heap_size+0x34ae3>
    2d20:	340e                	fld	fs0,224(sp)
    2d22:	0000                	unimp
    2d24:	0400                	addi	s0,sp,512
    2d26:	0639                	addi	a2,a2,14
    2d28:	0000                	unimp
    2d2a:	7205                	lui	tp,0xfffe1
    2d2c:	340e                	fld	fs0,224(sp)
    2d2e:	0000                	unimp
    2d30:	0400                	addi	s0,sp,512
    2d32:	06ca                	slli	a3,a3,0x12
    2d34:	0000                	unimp
    2d36:	9105                	srli	a0,a0,0x21
    2d38:	00003417          	auipc	s0,0x3
    2d3c:	0500                	addi	s0,sp,640
    2d3e:	04f5                	addi	s1,s1,29 # 1d <__stack_align+0xd>
    2d40:	0000                	unimp
    2d42:	6502                	ld	a0,0(sp)
    2d44:	1701                	addi	a4,a4,-32
    2d46:	0078                	addi	a4,sp,12
    2d48:	0000                	unimp
    2d4a:	0406                	slli	s0,s0,0x1
    2d4c:	a605                	j	306c <__stack_align+0x305c>
    2d4e:	0000ea03          	lwu	s4,0(ra)
    2d52:	0700                	addi	s0,sp,896
    2d54:	04e8                	addi	a0,sp,588
    2d56:	0000                	unimp
    2d58:	a805                	j	2d88 <__stack_align+0x2d78>
    2d5a:	bb0c                	fsd	fa1,48(a4)
    2d5c:	0000                	unimp
    2d5e:	0700                	addi	s0,sp,896
    2d60:	048c                	addi	a1,sp,576
    2d62:	0000                	unimp
    2d64:	a905                	j	3194 <__stack_align+0x3184>
    2d66:	0000ea13          	ori	s4,ra,0
    2d6a:	0000                	unimp
    2d6c:	6308                	ld	a0,0(a4)
    2d6e:	0000                	unimp
    2d70:	fa00                	sd	s0,48(a2)
    2d72:	0000                	unimp
    2d74:	0900                	addi	s0,sp,144
    2d76:	00000047          	fmsub.s	ft0,ft0,ft0,ft0,rne
    2d7a:	080a0003          	lb	zero,128(s4) # 669de <__heap_size+0x469de>
    2d7e:	a305                	j	329e <__stack_align+0x328e>
    2d80:	1e09                	addi	t3,t3,-30 # 19fe2 <__stack_size+0x11fe2>
    2d82:	0001                	nop
    2d84:	0b00                	addi	s0,sp,400
    2d86:	00000623          	sb	zero,12(zero) # c <__tcb_size+0x6>
    2d8a:	a505                	j	33aa <__stack_align+0x339a>
    2d8c:	00002d07          	flw	fs10,0(zero) # 0 <__boot_hart>
    2d90:	0000                	unimp
    2d92:	00062b0b          	.insn	4, 0x00062b0b
    2d96:	0500                	addi	s0,sp,640
    2d98:	05aa                	slli	a1,a1,0xa
    2d9a:	00c8                	addi	a0,sp,68
    2d9c:	0000                	unimp
    2d9e:	0004                	.insn	2, 0x0004
    2da0:	a504                	fsd	fs1,8(a0)
    2da2:	0005                	c.nop	1
    2da4:	0500                	addi	s0,sp,640
    2da6:	00fa03ab          	.insn	4, 0x00fa03ab
    2daa:	0000                	unimp
    2dac:	4f04                	lw	s1,24(a4)
    2dae:	0004                	.insn	2, 0x0004
    2db0:	0500                	addi	s0,sp,640
    2db2:	008b1baf          	.insn	4, 0x008b1baf
    2db6:	0000                	unimp
    2db8:	080c                	addi	a1,sp,16
    2dba:	080d                	addi	a6,a6,3
    2dbc:	013e                	slli	sp,sp,0xf
    2dbe:	0000                	unimp
    2dc0:	4c080103          	lb	sp,1216(a6)
    2dc4:	0000                	unimp
    2dc6:	0e00                	addi	s0,sp,784
    2dc8:	013e                	slli	sp,sp,0xf
    2dca:	0000                	unimp
    2dcc:	7904                	ld	s1,48(a0)
    2dce:	0006                	c.slli	zero,0x1
    2dd0:	0600                	addi	s0,sp,768
    2dd2:	1919                	addi	s2,s2,-26
    2dd4:	0078                	addi	a4,sp,12
    2dd6:	0000                	unimp
    2dd8:	0004600f          	.insn	4, 0x0004600f
    2ddc:	2000                	fld	fs0,0(s0)
    2dde:	2f06                	fld	ft10,64(sp)
    2de0:	b008                	fsd	fa0,32(s0)
    2de2:	0001                	nop
    2de4:	0b00                	addi	s0,sp,400
    2de6:	05c6                	slli	a1,a1,0x11
    2de8:	0000                	unimp
    2dea:	3106                	fld	ft2,96(sp)
    2dec:	0001b013          	sltiu	zero,gp,0
    2df0:	0000                	unimp
    2df2:	5f10                	lw	a2,56(a4)
    2df4:	3206006b          	.insn	4, 0x3206006b
    2df8:	00002d07          	flw	fs10,0(zero) # 0 <__boot_hart>
    2dfc:	0800                	addi	s0,sp,16
    2dfe:	00060e0b          	.insn	4, 0x00060e0b
    2e02:	0600                	addi	s0,sp,768
    2e04:	0b32                	slli	s6,s6,0xc
    2e06:	002d                	c.nop	11
    2e08:	0000                	unimp
    2e0a:	0b0c                	addi	a1,sp,400
    2e0c:	0449                	addi	s0,s0,18 # 5d4a <__stack_align+0x5d3a>
    2e0e:	0000                	unimp
    2e10:	3206                	fld	ft4,96(sp)
    2e12:	2d14                	fld	fa3,24(a0)
    2e14:	0000                	unimp
    2e16:	1000                	addi	s0,sp,32
    2e18:	0006b50b          	.insn	4, 0x0006b50b
    2e1c:	0600                	addi	s0,sp,768
    2e1e:	1b32                	slli	s6,s6,0x2c
    2e20:	002d                	c.nop	11
    2e22:	0000                	unimp
    2e24:	1014                	addi	a3,sp,32
    2e26:	785f 0600 0b33      	.insn	6, 0x0b330600785f
    2e2c:	01b6                	slli	gp,gp,0xd
    2e2e:	0000                	unimp
    2e30:	0018                	.insn	2, 0x0018
    2e32:	080d                	addi	a6,a6,3
    2e34:	0156                	slli	sp,sp,0x15
    2e36:	0000                	unimp
    2e38:	4a08                	lw	a0,16(a2)
    2e3a:	0001                	nop
    2e3c:	c600                	sw	s0,8(a2)
    2e3e:	0001                	nop
    2e40:	0900                	addi	s0,sp,144
    2e42:	00000047          	fmsub.s	ft0,ft0,ft0,ft0,rne
    2e46:	0000                	unimp
    2e48:	0004870f          	.insn	4, 0x0004870f
    2e4c:	2400                	fld	fs0,8(s0)
    2e4e:	3706                	fld	fa4,96(sp)
    2e50:	4908                	lw	a0,16(a0)
    2e52:	0002                	c.slli64	zero
    2e54:	0b00                	addi	s0,sp,400
    2e56:	0000039b          	sext.w	t2,zero
    2e5a:	3906                	fld	fs2,96(sp)
    2e5c:	2d09                	addiw	s10,s10,2
    2e5e:	0000                	unimp
    2e60:	0000                	unimp
    2e62:	0006410b          	.insn	4, 0x0006410b
    2e66:	0600                	addi	s0,sp,768
    2e68:	093a                	slli	s2,s2,0xe
    2e6a:	002d                	c.nop	11
    2e6c:	0000                	unimp
    2e6e:	0b04                	addi	s1,sp,400
    2e70:	03b0                	addi	a2,sp,456
    2e72:	0000                	unimp
    2e74:	3b06                	fld	fs6,96(sp)
    2e76:	2d09                	addiw	s10,s10,2
    2e78:	0000                	unimp
    2e7a:	0800                	addi	s0,sp,16
    2e7c:	0007390b          	.insn	4, 0x0007390b
    2e80:	0600                	addi	s0,sp,768
    2e82:	093c                	addi	a5,sp,152
    2e84:	002d                	c.nop	11
    2e86:	0000                	unimp
    2e88:	0b0c                	addi	a1,sp,400
    2e8a:	00000533          	add	a0,zero,zero
    2e8e:	3d06                	fld	fs10,96(sp)
    2e90:	2d09                	addiw	s10,s10,2
    2e92:	0000                	unimp
    2e94:	1000                	addi	s0,sp,32
    2e96:	00050b0b          	.insn	4, 0x00050b0b
    2e9a:	0600                	addi	s0,sp,768
    2e9c:	093e                	slli	s2,s2,0xf
    2e9e:	002d                	c.nop	11
    2ea0:	0000                	unimp
    2ea2:	0b14                	addi	a3,sp,400
    2ea4:	06ba                	slli	a3,a3,0xe
    2ea6:	0000                	unimp
    2ea8:	3f06                	fld	ft10,96(sp)
    2eaa:	2d09                	addiw	s10,s10,2
    2eac:	0000                	unimp
    2eae:	1800                	addi	s0,sp,48
    2eb0:	0005870b          	.insn	4, 0x0005870b
    2eb4:	0600                	addi	s0,sp,768
    2eb6:	0940                	addi	s0,sp,148
    2eb8:	002d                	c.nop	11
    2eba:	0000                	unimp
    2ebc:	0b1c                	addi	a5,sp,400
    2ebe:	0700                	addi	s0,sp,896
    2ec0:	0000                	unimp
    2ec2:	4106                	lw	sp,64(sp)
    2ec4:	2d09                	addiw	s10,s10,2
    2ec6:	0000                	unimp
    2ec8:	2000                	fld	fs0,0(s0)
    2eca:	1100                	addi	s0,sp,160
    2ecc:	000003bf 4a060208 	.insn	8, 0x4a060208000003bf
    2ed4:	8f08                	.insn	2, 0x8f08
    2ed6:	0002                	c.slli64	zero
    2ed8:	0b00                	addi	s0,sp,400
    2eda:	0430                	addi	a2,sp,520
    2edc:	0000                	unimp
    2ede:	4b06                	lw	s6,64(sp)
    2ee0:	8f0a                	mv	t5,sp
    2ee2:	0002                	c.slli64	zero
    2ee4:	0000                	unimp
    2ee6:	1412                	slli	s0,s0,0x24
    2ee8:	06000003          	lb	zero,96(zero) # 60 <__stack_align+0x50>
    2eec:	094c                	addi	a1,sp,148
    2eee:	0000028f          	.insn	4, 0x028f
    2ef2:	0100                	addi	s0,sp,128
    2ef4:	6b12                	ld	s6,256(sp)
    2ef6:	0006                	c.slli	zero,0x1
    2ef8:	0600                	addi	s0,sp,768
    2efa:	0a4e                	slli	s4,s4,0x13
    2efc:	014a                	slli	sp,sp,0x12
    2efe:	0000                	unimp
    2f00:	0200                	addi	s0,sp,256
    2f02:	e412                	sd	tp,8(sp)
    2f04:	06000003          	lb	zero,96(zero) # 60 <__stack_align+0x50>
    2f08:	0a51                	addi	s4,s4,20
    2f0a:	014a                	slli	sp,sp,0x12
    2f0c:	0000                	unimp
    2f0e:	0204                	addi	s1,sp,256
    2f10:	0800                	addi	s0,sp,16
    2f12:	0136                	slli	sp,sp,0xd
    2f14:	0000                	unimp
    2f16:	029f 0000 4709      	.insn	6, 0x47090000029f
    2f1c:	0000                	unimp
    2f1e:	1f00                	addi	s0,sp,944
    2f20:	1100                	addi	s0,sp,160
    2f22:	053c                	addi	a5,sp,648
    2f24:	0000                	unimp
    2f26:	0318                	addi	a4,sp,384
    2f28:	5d06                	lw	s10,96(sp)
    2f2a:	e308                	sd	a0,0(a4)
    2f2c:	0002                	c.slli64	zero
    2f2e:	0b00                	addi	s0,sp,400
    2f30:	05c6                	slli	a1,a1,0x11
    2f32:	0000                	unimp
    2f34:	5e06                	lw	t3,96(sp)
    2f36:	e312                	sd	tp,384(sp)
    2f38:	0002                	c.slli64	zero
    2f3a:	0000                	unimp
    2f3c:	0005de0b          	.insn	4, 0x0005de0b
    2f40:	0600                	addi	s0,sp,768
    2f42:	065f 002d 0000      	.insn	6, 0x002d065f
    2f48:	0b08                	addi	a0,sp,400
    2f4a:	0444                	addi	s1,sp,516
    2f4c:	0000                	unimp
    2f4e:	6106                	ld	sp,64(sp)
    2f50:	e909                	bnez	a0,2f62 <__stack_align+0x2f52>
    2f52:	0002                	c.slli64	zero
    2f54:	1000                	addi	s0,sp,32
    2f56:	bf12                	fsd	ft4,440(sp)
    2f58:	06000003          	lb	zero,96(zero) # 60 <__stack_align+0x50>
    2f5c:	1e62                	slli	t3,t3,0x38
    2f5e:	0249                	addi	tp,tp,18 # fffffffffffe1012 <__heap_end+0xffffffff7ffbe012>
    2f60:	0000                	unimp
    2f62:	0110                	addi	a2,sp,128
    2f64:	0d00                	addi	s0,sp,656
    2f66:	9f08                	.insn	2, 0x9f08
    2f68:	0002                	c.slli64	zero
    2f6a:	0800                	addi	s0,sp,16
    2f6c:	02f9                	addi	t0,t0,30
    2f6e:	0000                	unimp
    2f70:	02f9                	addi	t0,t0,30
    2f72:	0000                	unimp
    2f74:	4709                	li	a4,2
    2f76:	0000                	unimp
    2f78:	1f00                	addi	s0,sp,944
    2f7a:	0d00                	addi	s0,sp,656
    2f7c:	ff08                	sd	a0,56(a4)
    2f7e:	0002                	c.slli64	zero
    2f80:	1300                	addi	s0,sp,416
    2f82:	0005910f          	.insn	4, 0x0005910f
    2f86:	1000                	addi	s0,sp,32
    2f88:	7506                	ld	a0,96(sp)
    2f8a:	2808                	fld	fa0,16(s0)
    2f8c:	0b000003          	lb	zero,176(zero) # b0 <__stack_align+0xa0>
    2f90:	03aa                	slli	t2,t2,0xa
    2f92:	0000                	unimp
    2f94:	7606                	ld	a2,96(sp)
    2f96:	2811                	addiw	a6,a6,4
    2f98:	00000003          	lb	zero,0(zero) # 0 <__boot_hart>
    2f9c:	0003fa0b          	.insn	4, 0x0003fa0b
    2fa0:	0600                	addi	s0,sp,768
    2fa2:	002d0677          	.insn	4, 0x002d0677
    2fa6:	0000                	unimp
    2fa8:	0008                	.insn	2, 0x0008
    2faa:	080d                	addi	a6,a6,3
    2fac:	00000063          	beqz	zero,2fac <__stack_align+0x2f9c>
    2fb0:	0005b00f          	.insn	4, 0x0005b00f
    2fb4:	b000                	fsd	fs0,32(s0)
    2fb6:	b506                	fsd	ft1,168(sp)
    2fb8:	7108                	ld	a0,32(a0)
    2fba:	0004                	.insn	2, 0x0004
    2fbc:	1000                	addi	s0,sp,32
    2fbe:	705f 0600 12b6      	.insn	6, 0x12b60600705f
    2fc4:	0328                	addi	a0,sp,392
    2fc6:	0000                	unimp
    2fc8:	1000                	addi	s0,sp,32
    2fca:	725f 0600 07b7      	.insn	6, 0x07b70600725f
    2fd0:	002d                	c.nop	11
    2fd2:	0000                	unimp
    2fd4:	1008                	addi	a0,sp,32
    2fd6:	775f 0600 07b8      	.insn	6, 0x07b80600775f
    2fdc:	002d                	c.nop	11
    2fde:	0000                	unimp
    2fe0:	0b0c                	addi	a1,sp,400
    2fe2:	03dd                	addi	t2,t2,23
    2fe4:	0000                	unimp
    2fe6:	b906                	fsd	ft1,176(sp)
    2fe8:	6a09                	lui	s4,0x2
    2fea:	0000                	unimp
    2fec:	1000                	addi	s0,sp,32
    2fee:	0004a30b          	.insn	4, 0x0004a30b
    2ff2:	0600                	addi	s0,sp,768
    2ff4:	09ba                	slli	s3,s3,0xe
    2ff6:	006a                	c.slli	zero,0x1a
    2ff8:	0000                	unimp
    2ffa:	1012                	c.slli	zero,0x24
    2ffc:	625f 0066 bb06      	.insn	6, 0xbb060066625f
    3002:	0011                	c.nop	4
    3004:	18000003          	lb	zero,384(zero) # 180 <__stack_align+0x170>
    3008:	00036a0b          	.insn	4, 0x00036a0b
    300c:	0600                	addi	s0,sp,768
    300e:	07bc                	addi	a5,sp,968
    3010:	002d                	c.nop	11
    3012:	0000                	unimp
    3014:	0b28                	addi	a0,sp,408
    3016:	03cd                	addi	t2,t2,19
    3018:	0000                	unimp
    301a:	c306                	sw	ra,132(sp)
    301c:	360a                	fld	fa2,160(sp)
    301e:	0001                	nop
    3020:	3000                	fld	fs0,32(s0)
    3022:	0004770b          	.insn	4, 0x0004770b
    3026:	0600                	addi	s0,sp,768
    3028:	1dc5                	addi	s11,s11,-15
    302a:	000005e3          	beqz	zero,3834 <__stack_align+0x3824>
    302e:	0b38                	addi	a4,sp,408
    3030:	0504                	addi	s1,sp,640
    3032:	0000                	unimp
    3034:	c706                	sw	ra,140(sp)
    3036:	121d                	addi	tp,tp,-25 # ffffffffffffffe7 <__heap_end+0xffffffff7ffdcfe7>
    3038:	0006                	c.slli	zero,0x1
    303a:	4000                	lw	s0,0(s0)
    303c:	0006330b          	.insn	4, 0x0006330b
    3040:	0600                	addi	s0,sp,768
    3042:	0dca                	slli	s11,s11,0x12
    3044:	0636                	slli	a2,a2,0xd
    3046:	0000                	unimp
    3048:	0b48                	addi	a0,sp,404
    304a:	071a                	slli	a4,a4,0x6
    304c:	0000                	unimp
    304e:	cb06                	sw	ra,148(sp)
    3050:	5009                	c.li	zero,-30
    3052:	0006                	c.slli	zero,0x1
    3054:	5000                	lw	s0,32(s0)
    3056:	5f10                	lw	a2,56(a4)
    3058:	6275                	lui	tp,0x1d
    305a:	0600                	addi	s0,sp,768
    305c:	11ce                	slli	gp,gp,0x33
    305e:	0300                	addi	s0,sp,384
    3060:	0000                	unimp
    3062:	1058                	addi	a4,sp,36
    3064:	755f 0070 cf06      	.insn	6, 0xcf060070755f
    306a:	2812                	fld	fa6,256(sp)
    306c:	68000003          	lb	zero,1664(zero) # 680 <__stack_align+0x670>
    3070:	5f10                	lw	a2,56(a4)
    3072:	7275                	lui	tp,0xffffd
    3074:	0600                	addi	s0,sp,768
    3076:	07d0                	addi	a2,sp,964
    3078:	002d                	c.nop	11
    307a:	0000                	unimp
    307c:	0b70                	addi	a2,sp,412
    307e:	03a4                	addi	s1,sp,456
    3080:	0000                	unimp
    3082:	d306                	sw	ra,164(sp)
    3084:	5611                	li	a2,-28
    3086:	0006                	c.slli	zero,0x1
    3088:	7400                	ld	s0,40(s0)
    308a:	0006f20b          	.insn	4, 0x0006f20b
    308e:	0600                	addi	s0,sp,768
    3090:	11d4                	addi	a3,sp,228
    3092:	0666                	slli	a2,a2,0x19
    3094:	0000                	unimp
    3096:	6c5f1077          	.insn	4, 0x6c5f1077
    309a:	0062                	c.slli	zero,0x18
    309c:	d706                	sw	ra,172(sp)
    309e:	0011                	c.nop	4
    30a0:	78000003          	lb	zero,1920(zero) # 780 <__stack_align+0x770>
    30a4:	0004000b          	.insn	4, 0x0004000b
    30a8:	0600                	addi	s0,sp,768
    30aa:	07da                	slli	a5,a5,0x16
    30ac:	002d                	c.nop	11
    30ae:	0000                	unimp
    30b0:	0b88                	addi	a0,sp,464
    30b2:	0524                	addi	s1,sp,648
    30b4:	0000                	unimp
    30b6:	db06                	sw	ra,180(sp)
    30b8:	970a                	add	a4,a4,sp
    30ba:	0000                	unimp
    30bc:	9000                	.insn	2, 0x9000
    30be:	0001b30b          	.insn	4, 0x0001b30b
    30c2:	0600                	addi	s0,sp,768
    30c4:	12de                	slli	t0,t0,0x37
    30c6:	0000048f          	.insn	4, 0x048f
    30ca:	0b98                	addi	a4,sp,464
    30cc:	0761                	addi	a4,a4,24
    30ce:	0000                	unimp
    30d0:	e206                	sd	ra,256(sp)
    30d2:	2a0c                	fld	fa1,16(a2)
    30d4:	0001                	nop
    30d6:	a000                	fsd	fs0,0(s0)
    30d8:	0005b80b          	.insn	4, 0x0005b80b
    30dc:	0600                	addi	s0,sp,768
    30de:	0ee4                	addi	s1,sp,860
    30e0:	011e                	slli	sp,sp,0x7
    30e2:	0000                	unimp
    30e4:	0ba4                	addi	s1,sp,472
    30e6:	04fc                	addi	a5,sp,588
    30e8:	0000                	unimp
    30ea:	e506                	sd	ra,136(sp)
    30ec:	2d09                	addiw	s10,s10,2
    30ee:	0000                	unimp
    30f0:	ac00                	fsd	fs0,24(s0)
    30f2:	1400                	addi	s0,sp,544
    30f4:	000000af          	.insn	4, 0x00af
    30f8:	0000048f          	.insn	4, 0x048f
    30fc:	8f15                	sub	a4,a4,a3
    30fe:	0004                	.insn	2, 0x0004
    3100:	1500                	addi	s0,sp,672
    3102:	0136                	slli	sp,sp,0xd
    3104:	0000                	unimp
    3106:	3815                	addiw	a6,a6,-27
    3108:	0001                	nop
    310a:	1500                	addi	s0,sp,672
    310c:	002d                	c.nop	11
    310e:	0000                	unimp
    3110:	0d00                	addi	s0,sp,656
    3112:	9a08                	.insn	2, 0x9a08
    3114:	0004                	.insn	2, 0x0004
    3116:	0e00                	addi	s0,sp,784
    3118:	0000048f          	.insn	4, 0x048f
    311c:	1616                	slli	a2,a2,0x25
    311e:	0006                	c.slli	zero,0x1
    3120:	4800                	lw	s0,16(s0)
    3122:	02390607          	.insn	4, 0x02390607
    3126:	e308                	sd	a0,0(a4)
    3128:	0005                	c.nop	1
    312a:	1700                	addi	s0,sp,928
    312c:	07c9                	addi	a5,a5,18
    312e:	0000                	unimp
    3130:	3b06                	fld	fs6,96(sp)
    3132:	0702                	c.slli64	a4
    3134:	002d                	c.nop	11
    3136:	0000                	unimp
    3138:	1700                	addi	s0,sp,928
    313a:	03ec                	addi	a1,sp,460
    313c:	0000                	unimp
    313e:	4006                	.insn	2, 0x4006
    3140:	0b02                	c.slli64	s6
    3142:	06c2                	slli	a3,a3,0x10
    3144:	0000                	unimp
    3146:	1708                	addi	a0,sp,928
    3148:	00000493          	li	s1,0
    314c:	4006                	.insn	2, 0x4006
    314e:	1402                	slli	s0,s0,0x20
    3150:	06c2                	slli	a3,a3,0x10
    3152:	0000                	unimp
    3154:	1710                	addi	a2,sp,928
    3156:	0458                	addi	a4,sp,516
    3158:	0000                	unimp
    315a:	4006                	.insn	2, 0x4006
    315c:	1e02                	slli	t3,t3,0x20
    315e:	06c2                	slli	a3,a3,0x10
    3160:	0000                	unimp
    3162:	1718                	addi	a4,sp,928
    3164:	05d9                	addi	a1,a1,22
    3166:	0000                	unimp
    3168:	4206                	lw	tp,64(sp)
    316a:	0802                	c.slli64	a6
    316c:	002d                	c.nop	11
    316e:	0000                	unimp
    3170:	1720                	addi	s0,sp,936
    3172:	0328                	addi	a0,sp,392
    3174:	0000                	unimp
    3176:	4306                	lw	t1,64(sp)
    3178:	0802                	c.slli64	a6
    317a:	000008cb          	fnmsub.s	fa7,ft0,ft0,ft0,rne
    317e:	1724                	addi	s1,sp,936
    3180:	05f5                	addi	a1,a1,29
    3182:	0000                	unimp
    3184:	4606                	lw	a2,64(sp)
    3186:	0702                	c.slli64	a4
    3188:	002d                	c.nop	11
    318a:	0000                	unimp
    318c:	1740                	addi	s0,sp,932
    318e:	000005e3          	beqz	zero,3998 <__stack_align+0x3988>
    3192:	4706                	lw	a4,64(sp)
    3194:	1602                	slli	a2,a2,0x20
    3196:	08e0                	addi	s0,sp,92
    3198:	0000                	unimp
    319a:	1748                	addi	a0,sp,932
    319c:	0544                	addi	s1,sp,644
    319e:	0000                	unimp
    31a0:	4906                	lw	s2,64(sp)
    31a2:	0702                	c.slli64	a4
    31a4:	002d                	c.nop	11
    31a6:	0000                	unimp
    31a8:	1750                	addi	a2,sp,932
    31aa:	000005eb          	.insn	4, 0x05eb
    31ae:	4b06                	lw	s6,64(sp)
    31b0:	0a02                	c.slli64	s4
    31b2:	08f1                	addi	a7,a7,28
    31b4:	0000                	unimp
    31b6:	1758                	addi	a4,sp,932
    31b8:	04e0                	addi	s0,sp,588
    31ba:	0000                	unimp
    31bc:	4e06                	lw	t3,64(sp)
    31be:	1302                	slli	t1,t1,0x20
    31c0:	01b0                	addi	a2,sp,200
    31c2:	0000                	unimp
    31c4:	1760                	addi	s0,sp,940
    31c6:	047d                	addi	s0,s0,31
    31c8:	0000                	unimp
    31ca:	4f06                	lw	t5,64(sp)
    31cc:	0702                	c.slli64	a4
    31ce:	002d                	c.nop	11
    31d0:	0000                	unimp
    31d2:	1768                	addi	a0,sp,940
    31d4:	0734                	addi	a3,sp,904
    31d6:	0000                	unimp
    31d8:	5006                	.insn	2, 0x5006
    31da:	1302                	slli	t1,t1,0x20
    31dc:	01b0                	addi	a2,sp,200
    31de:	0000                	unimp
    31e0:	1770                	addi	a2,sp,940
    31e2:	0000054f          	fnmadd.s	fa0,ft0,ft0,ft0,rne
    31e6:	5106                	lw	sp,96(sp)
    31e8:	1402                	slli	s0,s0,0x20
    31ea:	000008f7          	.insn	4, 0x08f7
    31ee:	1778                	addi	a4,sp,940
    31f0:	0000049b          	sext.w	s1,zero
    31f4:	5406                	lw	s0,96(sp)
    31f6:	0702                	c.slli64	a4
    31f8:	002d                	c.nop	11
    31fa:	0000                	unimp
    31fc:	1780                	addi	s0,sp,992
    31fe:	0409                	addi	s0,s0,2
    3200:	0000                	unimp
    3202:	5506                	lw	a0,96(sp)
    3204:	0902                	c.slli64	s2
    3206:	0138                	addi	a4,sp,136
    3208:	0000                	unimp
    320a:	1788                	addi	a0,sp,992
    320c:	0579                	addi	a0,a0,30
    320e:	0000                	unimp
    3210:	7806                	ld	a6,96(sp)
    3212:	0702                	c.slli64	a4
    3214:	08a5                	addi	a7,a7,9
    3216:	0000                	unimp
    3218:	1890                	addi	a2,sp,112
    321a:	053c                	addi	a5,sp,648
    321c:	0000                	unimp
    321e:	7c06                	ld	s8,96(sp)
    3220:	1302                	slli	t1,t1,0x20
    3222:	000002e3          	beqz	zero,3a26 <__stack_align+0x3a16>
    3226:	01f8                	addi	a4,sp,204
    3228:	be18                	fsd	fa4,56(a2)
    322a:	0004                	.insn	2, 0x0004
    322c:	0600                	addi	s0,sp,768
    322e:	027d                	addi	tp,tp,31 # ffffffffffffd01f <__heap_end+0xffffffff7ffda01f>
    3230:	9f12                	add	t5,t5,tp
    3232:	0002                	c.slli64	zero
    3234:	0000                	unimp
    3236:	1802                	slli	a6,a6,0x20
    3238:	06e8                	addi	a0,sp,844
    323a:	0000                	unimp
    323c:	8106                	mv	sp,ra
    323e:	0c02                	c.slli64	s8
    3240:	0908                	addi	a0,sp,144
    3242:	0000                	unimp
    3244:	0518                	addi	a4,sp,640
    3246:	d518                	sw	a4,40(a0)
    3248:	06000003          	lb	zero,96(zero) # 60 <__stack_align+0x50>
    324c:	0286                	slli	t0,t0,0x1
    324e:	8310                	.insn	2, 0x8310
    3250:	0006                	c.slli	zero,0x1
    3252:	2000                	fld	fs0,0(s0)
    3254:	1805                	addi	a6,a6,-31
    3256:	03ba                	slli	t2,t2,0xe
    3258:	0000                	unimp
    325a:	8806                	mv	a6,ra
    325c:	0a02                	c.slli64	s4
    325e:	0914                	addi	a3,sp,144
    3260:	0000                	unimp
    3262:	0538                	addi	a4,sp,648
    3264:	0d00                	addi	s0,sp,656
    3266:	7108                	ld	a0,32(a0)
    3268:	0004                	.insn	2, 0x0004
    326a:	1400                	addi	s0,sp,544
    326c:	000000af          	.insn	4, 0x00af
    3270:	00000607          	.insn	4, 0x0607
    3274:	8f15                	sub	a4,a4,a3
    3276:	0004                	.insn	2, 0x0004
    3278:	1500                	addi	s0,sp,672
    327a:	0136                	slli	sp,sp,0xd
    327c:	0000                	unimp
    327e:	0715                	addi	a4,a4,5
    3280:	0006                	c.slli	zero,0x1
    3282:	1500                	addi	s0,sp,672
    3284:	002d                	c.nop	11
    3286:	0000                	unimp
    3288:	0d00                	addi	s0,sp,656
    328a:	4508                	lw	a0,8(a0)
    328c:	0001                	nop
    328e:	0e00                	addi	s0,sp,784
    3290:	00000607          	.insn	4, 0x0607
    3294:	080d                	addi	a6,a6,3
    3296:	05e9                	addi	a1,a1,26
    3298:	0000                	unimp
    329a:	a314                	fsd	fa3,0(a4)
    329c:	0000                	unimp
    329e:	3600                	fld	fs0,40(a2)
    32a0:	0006                	c.slli	zero,0x1
    32a2:	1500                	addi	s0,sp,672
    32a4:	0000048f          	.insn	4, 0x048f
    32a8:	3615                	addiw	a2,a2,-27
    32aa:	0001                	nop
    32ac:	1500                	addi	s0,sp,672
    32ae:	000000a3          	sb	zero,1(zero) # 1 <__boot_hart+0x1>
    32b2:	2d15                	addiw	s10,s10,5
    32b4:	0000                	unimp
    32b6:	0000                	unimp
    32b8:	080d                	addi	a6,a6,3
    32ba:	0618                	addi	a4,sp,768
    32bc:	0000                	unimp
    32be:	2d14                	fld	fa3,24(a0)
    32c0:	0000                	unimp
    32c2:	5000                	lw	s0,32(s0)
    32c4:	0006                	c.slli	zero,0x1
    32c6:	1500                	addi	s0,sp,672
    32c8:	0000048f          	.insn	4, 0x048f
    32cc:	3615                	addiw	a2,a2,-27
    32ce:	0001                	nop
    32d0:	0000                	unimp
    32d2:	080d                	addi	a6,a6,3
    32d4:	063c                	addi	a5,sp,776
    32d6:	0000                	unimp
    32d8:	6308                	ld	a0,0(a4)
    32da:	0000                	unimp
    32dc:	6600                	ld	s0,8(a2)
    32de:	0006                	c.slli	zero,0x1
    32e0:	0900                	addi	s0,sp,144
    32e2:	00000047          	fmsub.s	ft0,ft0,ft0,ft0,rne
    32e6:	0002                	c.slli64	zero
    32e8:	6308                	ld	a0,0(a4)
    32ea:	0000                	unimp
    32ec:	7600                	ld	s0,40(a2)
    32ee:	0006                	c.slli	zero,0x1
    32f0:	0900                	addi	s0,sp,144
    32f2:	00000047          	fmsub.s	ft0,ft0,ft0,ft0,rne
    32f6:	0000                	unimp
    32f8:	9e05                	subw	a2,a2,s1
    32fa:	0005                	c.nop	1
    32fc:	0600                	addi	s0,sp,768
    32fe:	011f 2e1a 0003      	.insn	6, 0x00032e1a011f
    3304:	1900                	addi	s0,sp,176
    3306:	06c4                	addi	s1,sp,836
    3308:	0000                	unimp
    330a:	0618                	addi	a4,sp,768
    330c:	bc080123          	sb	zero,-1086(a6)
    3310:	0006                	c.slli	zero,0x1
    3312:	1700                	addi	s0,sp,928
    3314:	05c6                	slli	a1,a1,0x11
    3316:	0000                	unimp
    3318:	2506                	fld	fa0,64(sp)
    331a:	1101                	addi	sp,sp,-32
    331c:	06bc                	addi	a5,sp,840
    331e:	0000                	unimp
    3320:	1700                	addi	s0,sp,928
    3322:	000004b7          	lui	s1,0x0
    3326:	2606                	fld	fa2,64(sp)
    3328:	0701                	addi	a4,a4,0
    332a:	002d                	c.nop	11
    332c:	0000                	unimp
    332e:	1708                	addi	a0,sp,928
    3330:	0598                	addi	a4,sp,704
    3332:	0000                	unimp
    3334:	2706                	fld	fa4,64(sp)
    3336:	0b01                	addi	s6,s6,0
    3338:	06c2                	slli	a3,a3,0x10
    333a:	0000                	unimp
    333c:	0010                	.insn	2, 0x0010
    333e:	080d                	addi	a6,a6,3
    3340:	00000683          	lb	a3,0(zero) # 0 <__boot_hart>
    3344:	080d                	addi	a6,a6,3
    3346:	0676                	slli	a2,a2,0x1d
    3348:	0000                	unimp
    334a:	2019                	.insn	2, 0x2019
    334c:	0e000003          	lb	zero,224(zero) # e0 <__stack_align+0xd0>
    3350:	3f06                	fld	ft10,96(sp)
    3352:	0801                	addi	a6,a6,0
    3354:	0701                	addi	a4,a4,0
    3356:	0000                	unimp
    3358:	00061d17          	auipc	s10,0x61
    335c:	0600                	addi	s0,sp,768
    335e:	0140                	addi	s0,sp,132
    3360:	0112                	slli	sp,sp,0x4
    3362:	00000007          	.insn	4, 0x0007
    3366:	00064a17          	auipc	s4,0x64
    336a:	0600                	addi	s0,sp,768
    336c:	0141                	addi	sp,sp,16
    336e:	0112                	slli	sp,sp,0x4
    3370:	06000007          	.insn	4, 0x06000007
    3374:	00067417          	auipc	s0,0x67
    3378:	0600                	addi	s0,sp,768
    337a:	0142                	slli	sp,sp,0x10
    337c:	7112                	ld	sp,288(sp)
    337e:	0000                	unimp
    3380:	0c00                	addi	s0,sp,528
    3382:	0800                	addi	s0,sp,16
    3384:	0071                	c.nop	28
    3386:	0000                	unimp
    3388:	0711                	addi	a4,a4,4
    338a:	0000                	unimp
    338c:	4709                	li	a4,2
    338e:	0000                	unimp
    3390:	0200                	addi	s0,sp,256
    3392:	1a00                	addi	s0,sp,304
    3394:	06d8                	addi	a4,sp,836
    3396:	0259                	addi	tp,tp,22 # 16 <__stack_align+0x6>
    3398:	00082607          	flw	fa2,0(a6)
    339c:	1700                	addi	s0,sp,928
    339e:	06a8                	addi	a0,sp,840
    33a0:	0000                	unimp
    33a2:	5b06                	lw	s6,96(sp)
    33a4:	1802                	slli	a6,a6,0x20
    33a6:	0078                	addi	a4,sp,12
    33a8:	0000                	unimp
    33aa:	1700                	addi	s0,sp,928
    33ac:	065e                	slli	a2,a2,0x17
    33ae:	0000                	unimp
    33b0:	5c06                	lw	s8,96(sp)
    33b2:	1202                	slli	tp,tp,0x20
    33b4:	0138                	addi	a4,sp,136
    33b6:	0000                	unimp
    33b8:	1708                	addi	a0,sp,928
    33ba:	000004d3          	fadd.s	fs1,ft0,ft0,rne
    33be:	5d06                	lw	s10,96(sp)
    33c0:	1002                	c.slli	zero,0x20
    33c2:	0826                	slli	a6,a6,0x9
    33c4:	0000                	unimp
    33c6:	1710                	addi	a2,sp,928
    33c8:	0000070b          	.insn	4, 0x070b
    33cc:	5e06                	lw	t3,96(sp)
    33ce:	1702                	slli	a4,a4,0x20
    33d0:	01c6                	slli	gp,gp,0x11
    33d2:	0000                	unimp
    33d4:	172c                	addi	a1,sp,936
    33d6:	0468                	addi	a0,sp,524
    33d8:	0000                	unimp
    33da:	5f06                	lw	t5,96(sp)
    33dc:	0f02                	c.slli64	t5
    33de:	002d                	c.nop	11
    33e0:	0000                	unimp
    33e2:	1750                	addi	a2,sp,932
    33e4:	05c1                	addi	a1,a1,16
    33e6:	0000                	unimp
    33e8:	6006                	.insn	2, 0x6006
    33ea:	2c02                	fld	fs8,0(sp)
    33ec:	0836                	slli	a6,a6,0xd
    33ee:	0000                	unimp
    33f0:	1758                	addi	a4,sp,932
    33f2:	0721                	addi	a4,a4,8
    33f4:	0000                	unimp
    33f6:	6106                	ld	sp,64(sp)
    33f8:	1a02                	slli	s4,s4,0x20
    33fa:	06c8                	addi	a0,sp,836
    33fc:	0000                	unimp
    33fe:	1760                	addi	s0,sp,940
    3400:	05cc                	addi	a1,sp,708
    3402:	0000                	unimp
    3404:	6206                	ld	tp,64(sp)
    3406:	1602                	slli	a2,a2,0x20
    3408:	011e                	slli	sp,sp,0x7
    340a:	0000                	unimp
    340c:	1770                	addi	a2,sp,940
    340e:	0726                	slli	a4,a4,0x9
    3410:	0000                	unimp
    3412:	6306                	ld	t1,64(sp)
    3414:	1602                	slli	a2,a2,0x20
    3416:	011e                	slli	sp,sp,0x7
    3418:	0000                	unimp
    341a:	1778                	addi	a4,sp,940
    341c:	038d                	addi	t2,t2,3
    341e:	0000                	unimp
    3420:	6406                	ld	s0,64(sp)
    3422:	1602                	slli	a2,a2,0x20
    3424:	011e                	slli	sp,sp,0x7
    3426:	0000                	unimp
    3428:	1780                	addi	s0,sp,992
    342a:	000006d3          	fadd.s	fa3,ft0,ft0,rne
    342e:	6506                	ld	a0,64(sp)
    3430:	1002                	c.slli	zero,0x20
    3432:	083d                	addi	a6,a6,15
    3434:	0000                	unimp
    3436:	1788                	addi	a0,sp,992
    3438:	000004c7          	fmsub.s	fs1,ft0,ft0,ft0,rne
    343c:	6606                	ld	a2,64(sp)
    343e:	1002                	c.slli	zero,0x20
    3440:	084d                	addi	a6,a6,19
    3442:	0000                	unimp
    3444:	1790                	addi	a2,sp,992
    3446:	0681                	addi	a3,a3,0
    3448:	0000                	unimp
    344a:	6706                	ld	a4,64(sp)
    344c:	0f02                	c.slli64	t5
    344e:	002d                	c.nop	11
    3450:	0000                	unimp
    3452:	17a8                	addi	a0,sp,1000
    3454:	0422                	slli	s0,s0,0x8
    3456:	0000                	unimp
    3458:	6806                	ld	a6,64(sp)
    345a:	1602                	slli	a2,a2,0x20
    345c:	011e                	slli	sp,sp,0x7
    345e:	0000                	unimp
    3460:	17ac                	addi	a1,sp,1000
    3462:	037e                	slli	t1,t1,0x1f
    3464:	0000                	unimp
    3466:	6906                	ld	s2,64(sp)
    3468:	1602                	slli	a2,a2,0x20
    346a:	011e                	slli	sp,sp,0x7
    346c:	0000                	unimp
    346e:	17b4                	addi	a3,sp,1000
    3470:	0411                	addi	s0,s0,4 # 6a378 <__heap_size+0x4a378>
    3472:	0000                	unimp
    3474:	6a06                	ld	s4,64(sp)
    3476:	1602                	slli	a2,a2,0x20
    3478:	011e                	slli	sp,sp,0x7
    347a:	0000                	unimp
    347c:	17bc                	addi	a5,sp,1000
    347e:	00000333          	add	t1,zero,zero
    3482:	6b06                	ld	s6,64(sp)
    3484:	1602                	slli	a2,a2,0x20
    3486:	011e                	slli	sp,sp,0x7
    3488:	0000                	unimp
    348a:	17c4                	addi	s1,sp,996
    348c:	0342                	slli	t1,t1,0x10
    348e:	0000                	unimp
    3490:	6c06                	ld	s8,64(sp)
    3492:	1602                	slli	a2,a2,0x20
    3494:	011e                	slli	sp,sp,0x7
    3496:	0000                	unimp
    3498:	17cc                	addi	a1,sp,996
    349a:	057e                	slli	a0,a0,0x1f
    349c:	0000                	unimp
    349e:	6d06                	ld	s10,64(sp)
    34a0:	0802                	c.slli64	a6
    34a2:	002d                	c.nop	11
    34a4:	0000                	unimp
    34a6:	00d4                	addi	a3,sp,68
    34a8:	3e08                	fld	fa0,56(a2)
    34aa:	0001                	nop
    34ac:	3600                	fld	fs0,40(a2)
    34ae:	0008                	.insn	2, 0x0008
    34b0:	0900                	addi	s0,sp,144
    34b2:	00000047          	fmsub.s	ft0,ft0,ft0,ft0,rne
    34b6:	0019                	c.nop	6
    34b8:	53070803          	lb	a6,1328(a4)
    34bc:	08000003          	lb	zero,128(zero) # 80 <__stack_align+0x70>
    34c0:	013e                	slli	sp,sp,0xf
    34c2:	0000                	unimp
    34c4:	084d                	addi	a6,a6,19
    34c6:	0000                	unimp
    34c8:	4709                	li	a4,2
    34ca:	0000                	unimp
    34cc:	0700                	addi	s0,sp,896
    34ce:	0800                	addi	s0,sp,16
    34d0:	013e                	slli	sp,sp,0xf
    34d2:	0000                	unimp
    34d4:	085d                	addi	a6,a6,23
    34d6:	0000                	unimp
    34d8:	4709                	li	a4,2
    34da:	0000                	unimp
    34dc:	1700                	addi	s0,sp,928
    34de:	1b00                	addi	s0,sp,432
    34e0:	0168                	addi	a0,sp,140
    34e2:	7206                	ld	tp,96(sp)
    34e4:	0702                	c.slli64	a4
    34e6:	0885                	addi	a7,a7,1
    34e8:	0000                	unimp
    34ea:	00052c17          	auipc	s8,0x52
    34ee:	0600                	addi	s0,sp,768
    34f0:	0275                	addi	tp,tp,29 # 1d <__stack_align+0xd>
    34f2:	0008851b          	sext.w	a0,a7
    34f6:	0000                	unimp
    34f8:	00051517          	auipc	a0,0x51
    34fc:	0600                	addi	s0,sp,768
    34fe:	0276                	slli	tp,tp,0x1d
    3500:	9518                	.insn	2, 0x9518
    3502:	0008                	.insn	2, 0x0008
    3504:	f000                	sd	s0,32(s0)
    3506:	0800                	addi	s0,sp,16
    3508:	0328                	addi	a0,sp,392
    350a:	0000                	unimp
    350c:	0895                	addi	a7,a7,5
    350e:	0000                	unimp
    3510:	4709                	li	a4,2
    3512:	0000                	unimp
    3514:	1d00                	addi	s0,sp,688
    3516:	0800                	addi	s0,sp,16
    3518:	0078                	addi	a4,sp,12
    351a:	0000                	unimp
    351c:	08a5                	addi	a7,a7,9
    351e:	0000                	unimp
    3520:	4709                	li	a4,2
    3522:	0000                	unimp
    3524:	1d00                	addi	s0,sp,688
    3526:	1c00                	addi	s0,sp,560
    3528:	0168                	addi	a0,sp,140
    352a:	5706                	lw	a4,96(sp)
    352c:	0302                	c.slli64	t1
    352e:	000008cb          	fnmsub.s	fa7,ft0,ft0,ft0,rne
    3532:	161d                	addi	a2,a2,-25
    3534:	0006                	c.slli	zero,0x1
    3536:	0600                	addi	s0,sp,768
    3538:	026e                	slli	tp,tp,0x1b
    353a:	0007110b          	.insn	4, 0x0007110b
    353e:	1d00                	addi	s0,sp,688
    3540:	06f8                	addi	a4,sp,844
    3542:	0000                	unimp
    3544:	7706                	ld	a4,96(sp)
    3546:	0b02                	c.slli64	s6
    3548:	085d                	addi	a6,a6,23
    354a:	0000                	unimp
    354c:	0800                	addi	s0,sp,16
    354e:	013e                	slli	sp,sp,0xf
    3550:	0000                	unimp
    3552:	000008db          	.insn	4, 0x08db
    3556:	4709                	li	a4,2
    3558:	0000                	unimp
    355a:	1800                	addi	s0,sp,48
    355c:	1e00                	addi	s0,sp,816
    355e:	00000373          	.insn	4, 0x0373
    3562:	080d                	addi	a6,a6,3
    3564:	000008db          	.insn	4, 0x08db
    3568:	f11f 0008 1500      	.insn	6, 0x15000008f11f
    356e:	0000048f          	.insn	4, 0x048f
    3572:	0d00                	addi	s0,sp,656
    3574:	e608                	sd	a0,8(a2)
    3576:	0008                	.insn	2, 0x0008
    3578:	0d00                	addi	s0,sp,656
    357a:	b008                	fsd	fa0,32(s0)
    357c:	0001                	nop
    357e:	1f00                	addi	s0,sp,944
    3580:	0908                	addi	a0,sp,144
    3582:	0000                	unimp
    3584:	2d15                	addiw	s10,s10,5 # 6435d <__heap_size+0x4435d>
    3586:	0000                	unimp
    3588:	0000                	unimp
    358a:	080d                	addi	a6,a6,3
    358c:	090e                	slli	s2,s2,0x3
    358e:	0000                	unimp
    3590:	080d                	addi	a6,a6,3
    3592:	08fd                	addi	a7,a7,31
    3594:	0000                	unimp
    3596:	7608                	ld	a0,40(a2)
    3598:	0006                	c.slli	zero,0x1
    359a:	2400                	fld	fs0,8(s0)
    359c:	0009                	c.nop	2
    359e:	0900                	addi	s0,sp,144
    35a0:	00000047          	fmsub.s	ft0,ft0,ft0,ft0,rne
    35a4:	0002                	c.slli64	zero
    35a6:	9520                	.insn	2, 0x9520
    35a8:	0006                	c.slli	zero,0x1
    35aa:	0600                	addi	s0,sp,768
    35ac:	8f170307          	.insn	4, 0x8f170307
    35b0:	0004                	.insn	2, 0x0004
    35b2:	2000                	fld	fs0,0(s0)
    35b4:	068e                	slli	a3,a3,0x3
    35b6:	0000                	unimp
    35b8:	0806                	slli	a6,a6,0x1
    35ba:	04951d03          	lh	s10,73(a0) # 54541 <__heap_size+0x34541>
    35be:	0000                	unimp
    35c0:	0d08                	addi	a0,sp,656
    35c2:	0006                	c.slli	zero,0x1
    35c4:	4900                	lw	s0,16(a0)
    35c6:	0009                	c.nop	2
    35c8:	2100                	fld	fs0,0(a0)
    35ca:	0e00                	addi	s0,sp,784
    35cc:	093e                	slli	s2,s2,0xf
    35ce:	0000                	unimp
    35d0:	d022                	sw	s0,32(sp)
    35d2:	07000007          	.insn	4, 0x07000007
    35d6:	2414                	fld	fa3,8(s0)
    35d8:	0949                	addi	s2,s2,18
    35da:	0000                	unimp
    35dc:	ec22                	sd	s0,24(sp)
    35de:	07000007          	.insn	4, 0x07000007
    35e2:	1515                	addi	a0,a0,-27
    35e4:	002d                	c.nop	11
    35e6:	0000                	unimp
    35e8:	dc04                	sw	s1,56(s0)
    35ea:	0002                	c.slli64	zero
    35ec:	0800                	addi	s0,sp,16
    35ee:	143c                	addi	a5,sp,552
    35f0:	007f 0000 6623 0009 	.insn	10, 0x0400000966230000007f
    35f8:	0400 
    35fa:	000006cb          	fnmsub.s	fa3,ft0,ft0,ft0,rne
    35fe:	c809                	beqz	s0,3610 <__stack_align+0x3600>
    3600:	af12                	fsd	ft4,408(sp)
    3602:	0000                	unimp
    3604:	2200                	fld	fs0,0(a2)
    3606:	021e                	slli	tp,tp,0x7
    3608:	0000                	unimp
    360a:	060a                	slli	a2,a2,0x2
    360c:	721a                	ld	tp,416(sp)
    360e:	0009                	c.nop	2
    3610:	2200                	fld	fs0,0(a2)
    3612:	02c5                	addi	t0,t0,17
    3614:	0000                	unimp
    3616:	070a                	slli	a4,a4,0x2
    3618:	721a                	ld	tp,416(sp)
    361a:	0009                	c.nop	2
    361c:	2400                	fld	fs0,8(s0)
    361e:	00000477          	.insn	4, 0x0477
    3622:	0501                	addi	a0,a0,0
    3624:	7709                	lui	a4,0xfffe2
    3626:	0009                	c.nop	2
    3628:	1400                	addi	s0,sp,544
    362a:	00800017          	auipc	zero,0x800
    362e:	0000                	unimp
    3630:	1600                	addi	s0,sp,800
    3632:	0000                	unimp
    3634:	0000                	unimp
    3636:	0000                	unimp
    3638:	0100                	addi	s0,sp,128
    363a:	fb9c                	sd	a5,48(a5)
    363c:	0009                	c.nop	2
    363e:	2500                	fld	fs0,8(a0)
    3640:	04a4                	addi	s1,sp,584
    3642:	0000                	unimp
    3644:	0501                	addi	a0,a0,0
    3646:	00002d13          	slti	s10,zero,0
    364a:	7800                	ld	s0,48(s0)
    364c:	0002                	c.slli64	zero
    364e:	2600                	fld	fs0,8(a2)
    3650:	7470                	ld	a2,232(s0)
    3652:	0072                	c.slli	zero,0x1c
    3654:	0501                	addi	a0,a0,0
    3656:	361f 0001 b100      	.insn	6, 0xb1000001361f
    365c:	0002                	c.slli64	zero
    365e:	2600                	fld	fs0,8(a2)
    3660:	656c                	ld	a1,200(a0)
    3662:	006e                	c.slli	zero,0x1b
    3664:	0501                	addi	a0,a0,0
    3666:	00003b2b          	.insn	4, 0x3b2b
    366a:	ea00                	sd	s0,16(a2)
    366c:	0002                	c.slli64	zero
    366e:	2700                	fld	fs0,8(a4)
    3670:	171c                	addi	a5,sp,928
    3672:	8000                	.insn	2, 0x8000
    3674:	0000                	unimp
    3676:	0000                	unimp
    3678:	000009fb          	.insn	4, 0x09fb
    367c:	2800                	fld	fs0,16(s0)
    367e:	07c8                	addi	a0,sp,964
    3680:	0000                	unimp
    3682:	07c8                	addi	a0,sp,964
    3684:	0000                	unimp
    3686:	000d0f07          	.insn	4, 0x000d0f07
    368a:	0a31                	addi	s4,s4,12 # 67372 <__heap_size+0x47372>
    368c:	0000                	unimp
    368e:	0004                	.insn	2, 0x0004
    3690:	0eaa                	slli	t4,t4,0xa
    3692:	0000                	unimp
    3694:	0108                	addi	a0,sp,128
    3696:	0260                	addi	s0,sp,268
    3698:	0000                	unimp
    369a:	390c                	fld	fa1,48(a0)
    369c:	0008                	.insn	2, 0x0008
    369e:	3300                	fld	fs0,32(a4)
    36a0:	0002                	c.slli64	zero
    36a2:	2a00                	fld	fs0,16(a2)
    36a4:	00800017          	auipc	zero,0x800
    36a8:	0000                	unimp
    36aa:	3a00                	fld	fs0,48(a2)
    36ac:	0000                	unimp
    36ae:	0000                	unimp
    36b0:	0000                	unimp
    36b2:	6500                	ld	s0,8(a0)
    36b4:	02000017          	auipc	zero,0x2000
    36b8:	00000847          	fmsub.s	fa6,ft0,ft0,ft0,rne
    36bc:	9502                	jalr	a0
    36be:	391a                	fld	fs2,416(sp)
    36c0:	0000                	unimp
    36c2:	0300                	addi	s0,sp,384
    36c4:	0508                	addi	a0,sp,640
    36c6:	0215                	addi	tp,tp,5 # 5 <__tbss_size+0x1>
    36c8:	0000                	unimp
    36ca:	58070803          	lb	a6,1408(a4) # fffffffffffe2580 <__heap_end+0xffffffff7ffbf580>
    36ce:	04000003          	lb	zero,64(zero) # 40 <__stack_align+0x30>
    36d2:	0504                	addi	s1,sp,640
    36d4:	6e69                	lui	t3,0x1a
    36d6:	0074                	addi	a3,sp,12
    36d8:	10050803          	lb	a6,256(a0)
    36dc:	0002                	c.slli64	zero
    36de:	0300                	addi	s0,sp,384
    36e0:	0410                	addi	a2,sp,512
    36e2:	02ce                	slli	t0,t0,0x13
    36e4:	0000                	unimp
    36e6:	45060103          	lb	sp,1104(a2)
    36ea:	0000                	unimp
    36ec:	0300                	addi	s0,sp,384
    36ee:	0801                	addi	a6,a6,0
    36f0:	00000043          	fmadd.s	ft0,ft0,ft0,ft0,rne
    36f4:	15050203          	lb	tp,336(a0)
    36f8:	0001                	nop
    36fa:	0300                	addi	s0,sp,384
    36fc:	0702                	c.slli64	a4
    36fe:	0051                	c.nop	20
    3700:	0000                	unimp
    3702:	5d070403          	lb	s0,1488(a4)
    3706:	02000003          	lb	zero,32(zero) # 20 <__stack_align+0x10>
    370a:	02da                	slli	t0,t0,0x16
    370c:	0000                	unimp
    370e:	40196903          	lwu	s2,1025(s2)
    3712:	0000                	unimp
    3714:	0200                	addi	s0,sp,256
    3716:	00000567          	jalr	a0,zero # 0 <__boot_hart>
    371a:	0c04                	addi	s1,sp,528
    371c:	470d                	li	a4,3
    371e:	0000                	unimp
    3720:	0200                	addi	s0,sp,256
    3722:	000007f7          	.insn	4, 0x07f7
    3726:	2c05                	addiw	s8,s8,1 # 554eb <__heap_size+0x354eb>
    3728:	390e                	fld	fs2,224(sp)
    372a:	0000                	unimp
    372c:	0200                	addi	s0,sp,256
    372e:	0639                	addi	a2,a2,14
    3730:	0000                	unimp
    3732:	7205                	lui	tp,0xfffe1
    3734:	390e                	fld	fs2,224(sp)
    3736:	0000                	unimp
    3738:	0200                	addi	s0,sp,256
    373a:	06ca                	slli	a3,a3,0x12
    373c:	0000                	unimp
    373e:	9105                	srli	a0,a0,0x21
    3740:	00003917          	auipc	s2,0x3
    3744:	0500                	addi	s0,sp,640
    3746:	04f5                	addi	s1,s1,29 # 1d <__stack_align+0xd>
    3748:	0000                	unimp
    374a:	6502                	ld	a0,0(sp)
    374c:	1701                	addi	a4,a4,-32
    374e:	0078                	addi	a4,sp,12
    3750:	0000                	unimp
    3752:	0406                	slli	s0,s0,0x1
    3754:	a605                	j	3a74 <__stack_align+0x3a64>
    3756:	0000ea03          	lwu	s4,0(ra)
    375a:	0700                	addi	s0,sp,896
    375c:	04e8                	addi	a0,sp,588
    375e:	0000                	unimp
    3760:	a805                	j	3790 <__stack_align+0x3780>
    3762:	bb0c                	fsd	fa1,48(a4)
    3764:	0000                	unimp
    3766:	0700                	addi	s0,sp,896
    3768:	048c                	addi	a1,sp,576
    376a:	0000                	unimp
    376c:	a905                	j	3b9c <__stack_align+0x3b8c>
    376e:	0000ea13          	ori	s4,ra,0
    3772:	0000                	unimp
    3774:	6308                	ld	a0,0(a4)
    3776:	0000                	unimp
    3778:	fa00                	sd	s0,48(a2)
    377a:	0000                	unimp
    377c:	0900                	addi	s0,sp,144
    377e:	0040                	addi	s0,sp,4
    3780:	0000                	unimp
    3782:	080a0003          	lb	zero,128(s4)
    3786:	a305                	j	3ca6 <__stack_align+0x3c96>
    3788:	1e09                	addi	t3,t3,-30 # 19fe2 <__stack_size+0x11fe2>
    378a:	0001                	nop
    378c:	0b00                	addi	s0,sp,400
    378e:	00000623          	sb	zero,12(zero) # c <__tcb_size+0x6>
    3792:	a505                	j	3db2 <__stack_align+0x3da2>
    3794:	00004707          	.insn	4, 0x4707
    3798:	0000                	unimp
    379a:	00062b0b          	.insn	4, 0x00062b0b
    379e:	0500                	addi	s0,sp,640
    37a0:	05aa                	slli	a1,a1,0xa
    37a2:	00c8                	addi	a0,sp,68
    37a4:	0000                	unimp
    37a6:	0004                	.insn	2, 0x0004
    37a8:	a502                	fsd	ft0,136(sp)
    37aa:	0005                	c.nop	1
    37ac:	0500                	addi	s0,sp,640
    37ae:	00fa03ab          	.insn	4, 0x00fa03ab
    37b2:	0000                	unimp
    37b4:	4f02                	lw	t5,0(sp)
    37b6:	0004                	.insn	2, 0x0004
    37b8:	0500                	addi	s0,sp,640
    37ba:	008b1baf          	.insn	4, 0x008b1baf
    37be:	0000                	unimp
    37c0:	080c                	addi	a1,sp,16
    37c2:	080d                	addi	a6,a6,3
    37c4:	013e                	slli	sp,sp,0xf
    37c6:	0000                	unimp
    37c8:	4c080103          	lb	sp,1216(a6)
    37cc:	0000                	unimp
    37ce:	0e00                	addi	s0,sp,784
    37d0:	013e                	slli	sp,sp,0xf
    37d2:	0000                	unimp
    37d4:	7902                	ld	s2,32(sp)
    37d6:	0006                	c.slli	zero,0x1
    37d8:	0600                	addi	s0,sp,768
    37da:	1919                	addi	s2,s2,-26 # 6726 <__stack_size_min+0x726>
    37dc:	0078                	addi	a4,sp,12
    37de:	0000                	unimp
    37e0:	0004600f          	.insn	4, 0x0004600f
    37e4:	2000                	fld	fs0,0(s0)
    37e6:	2f06                	fld	ft10,64(sp)
    37e8:	b008                	fsd	fa0,32(s0)
    37ea:	0001                	nop
    37ec:	0b00                	addi	s0,sp,400
    37ee:	05c6                	slli	a1,a1,0x11
    37f0:	0000                	unimp
    37f2:	3106                	fld	ft2,96(sp)
    37f4:	0001b013          	sltiu	zero,gp,0
    37f8:	0000                	unimp
    37fa:	5f10                	lw	a2,56(a4)
    37fc:	3206006b          	.insn	4, 0x3206006b
    3800:	00004707          	.insn	4, 0x4707
    3804:	0800                	addi	s0,sp,16
    3806:	00060e0b          	.insn	4, 0x00060e0b
    380a:	0600                	addi	s0,sp,768
    380c:	0b32                	slli	s6,s6,0xc
    380e:	00000047          	fmsub.s	ft0,ft0,ft0,ft0,rne
    3812:	0b0c                	addi	a1,sp,400
    3814:	0449                	addi	s0,s0,18
    3816:	0000                	unimp
    3818:	3206                	fld	ft4,96(sp)
    381a:	4714                	lw	a3,8(a4)
    381c:	0000                	unimp
    381e:	1000                	addi	s0,sp,32
    3820:	0006b50b          	.insn	4, 0x0006b50b
    3824:	0600                	addi	s0,sp,768
    3826:	1b32                	slli	s6,s6,0x2c
    3828:	00000047          	fmsub.s	ft0,ft0,ft0,ft0,rne
    382c:	1014                	addi	a3,sp,32
    382e:	785f 0600 0b33      	.insn	6, 0x0b330600785f
    3834:	01b6                	slli	gp,gp,0xd
    3836:	0000                	unimp
    3838:	0018                	.insn	2, 0x0018
    383a:	080d                	addi	a6,a6,3
    383c:	0156                	slli	sp,sp,0x15
    383e:	0000                	unimp
    3840:	4a08                	lw	a0,16(a2)
    3842:	0001                	nop
    3844:	c600                	sw	s0,8(a2)
    3846:	0001                	nop
    3848:	0900                	addi	s0,sp,144
    384a:	0040                	addi	s0,sp,4
    384c:	0000                	unimp
    384e:	0000                	unimp
    3850:	0004870f          	.insn	4, 0x0004870f
    3854:	2400                	fld	fs0,8(s0)
    3856:	3706                	fld	fa4,96(sp)
    3858:	4908                	lw	a0,16(a0)
    385a:	0002                	c.slli64	zero
    385c:	0b00                	addi	s0,sp,400
    385e:	0000039b          	sext.w	t2,zero
    3862:	3906                	fld	fs2,96(sp)
    3864:	4709                	li	a4,2
    3866:	0000                	unimp
    3868:	0000                	unimp
    386a:	0006410b          	.insn	4, 0x0006410b
    386e:	0600                	addi	s0,sp,768
    3870:	093a                	slli	s2,s2,0xe
    3872:	00000047          	fmsub.s	ft0,ft0,ft0,ft0,rne
    3876:	0b04                	addi	s1,sp,400
    3878:	03b0                	addi	a2,sp,456
    387a:	0000                	unimp
    387c:	3b06                	fld	fs6,96(sp)
    387e:	4709                	li	a4,2
    3880:	0000                	unimp
    3882:	0800                	addi	s0,sp,16
    3884:	0007390b          	.insn	4, 0x0007390b
    3888:	0600                	addi	s0,sp,768
    388a:	093c                	addi	a5,sp,152
    388c:	00000047          	fmsub.s	ft0,ft0,ft0,ft0,rne
    3890:	0b0c                	addi	a1,sp,400
    3892:	00000533          	add	a0,zero,zero
    3896:	3d06                	fld	fs10,96(sp)
    3898:	4709                	li	a4,2
    389a:	0000                	unimp
    389c:	1000                	addi	s0,sp,32
    389e:	00050b0b          	.insn	4, 0x00050b0b
    38a2:	0600                	addi	s0,sp,768
    38a4:	093e                	slli	s2,s2,0xf
    38a6:	00000047          	fmsub.s	ft0,ft0,ft0,ft0,rne
    38aa:	0b14                	addi	a3,sp,400
    38ac:	06ba                	slli	a3,a3,0xe
    38ae:	0000                	unimp
    38b0:	3f06                	fld	ft10,96(sp)
    38b2:	4709                	li	a4,2
    38b4:	0000                	unimp
    38b6:	1800                	addi	s0,sp,48
    38b8:	0005870b          	.insn	4, 0x0005870b
    38bc:	0600                	addi	s0,sp,768
    38be:	0940                	addi	s0,sp,148
    38c0:	00000047          	fmsub.s	ft0,ft0,ft0,ft0,rne
    38c4:	0b1c                	addi	a5,sp,400
    38c6:	0700                	addi	s0,sp,896
    38c8:	0000                	unimp
    38ca:	4106                	lw	sp,64(sp)
    38cc:	4709                	li	a4,2
    38ce:	0000                	unimp
    38d0:	2000                	fld	fs0,0(s0)
    38d2:	1100                	addi	s0,sp,160
    38d4:	000003bf 4a060208 	.insn	8, 0x4a060208000003bf
    38dc:	8f08                	.insn	2, 0x8f08
    38de:	0002                	c.slli64	zero
    38e0:	0b00                	addi	s0,sp,400
    38e2:	0430                	addi	a2,sp,520
    38e4:	0000                	unimp
    38e6:	4b06                	lw	s6,64(sp)
    38e8:	8f0a                	mv	t5,sp
    38ea:	0002                	c.slli64	zero
    38ec:	0000                	unimp
    38ee:	1412                	slli	s0,s0,0x24
    38f0:	06000003          	lb	zero,96(zero) # 60 <__stack_align+0x50>
    38f4:	094c                	addi	a1,sp,148
    38f6:	0000028f          	.insn	4, 0x028f
    38fa:	0100                	addi	s0,sp,128
    38fc:	6b12                	ld	s6,256(sp)
    38fe:	0006                	c.slli	zero,0x1
    3900:	0600                	addi	s0,sp,768
    3902:	0a4e                	slli	s4,s4,0x13
    3904:	014a                	slli	sp,sp,0x12
    3906:	0000                	unimp
    3908:	0200                	addi	s0,sp,256
    390a:	e412                	sd	tp,8(sp)
    390c:	06000003          	lb	zero,96(zero) # 60 <__stack_align+0x50>
    3910:	0a51                	addi	s4,s4,20
    3912:	014a                	slli	sp,sp,0x12
    3914:	0000                	unimp
    3916:	0204                	addi	s1,sp,256
    3918:	0800                	addi	s0,sp,16
    391a:	0136                	slli	sp,sp,0xd
    391c:	0000                	unimp
    391e:	029f 0000 4009      	.insn	6, 0x40090000029f
    3924:	0000                	unimp
    3926:	1f00                	addi	s0,sp,944
    3928:	1100                	addi	s0,sp,160
    392a:	053c                	addi	a5,sp,648
    392c:	0000                	unimp
    392e:	0318                	addi	a4,sp,384
    3930:	5d06                	lw	s10,96(sp)
    3932:	e308                	sd	a0,0(a4)
    3934:	0002                	c.slli64	zero
    3936:	0b00                	addi	s0,sp,400
    3938:	05c6                	slli	a1,a1,0x11
    393a:	0000                	unimp
    393c:	5e06                	lw	t3,96(sp)
    393e:	e312                	sd	tp,384(sp)
    3940:	0002                	c.slli64	zero
    3942:	0000                	unimp
    3944:	0005de0b          	.insn	4, 0x0005de0b
    3948:	0600                	addi	s0,sp,768
    394a:	065f 0047 0000      	.insn	6, 0x0047065f
    3950:	0b08                	addi	a0,sp,400
    3952:	0444                	addi	s1,sp,516
    3954:	0000                	unimp
    3956:	6106                	ld	sp,64(sp)
    3958:	e909                	bnez	a0,396a <__stack_align+0x395a>
    395a:	0002                	c.slli64	zero
    395c:	1000                	addi	s0,sp,32
    395e:	bf12                	fsd	ft4,440(sp)
    3960:	06000003          	lb	zero,96(zero) # 60 <__stack_align+0x50>
    3964:	1e62                	slli	t3,t3,0x38
    3966:	0249                	addi	tp,tp,18 # fffffffffffe1012 <__heap_end+0xffffffff7ffbe012>
    3968:	0000                	unimp
    396a:	0110                	addi	a2,sp,128
    396c:	0d00                	addi	s0,sp,656
    396e:	9f08                	.insn	2, 0x9f08
    3970:	0002                	c.slli64	zero
    3972:	0800                	addi	s0,sp,16
    3974:	02f9                	addi	t0,t0,30
    3976:	0000                	unimp
    3978:	02f9                	addi	t0,t0,30
    397a:	0000                	unimp
    397c:	4009                	c.li	zero,2
    397e:	0000                	unimp
    3980:	1f00                	addi	s0,sp,944
    3982:	0d00                	addi	s0,sp,656
    3984:	ff08                	sd	a0,56(a4)
    3986:	0002                	c.slli64	zero
    3988:	1300                	addi	s0,sp,416
    398a:	0005910f          	.insn	4, 0x0005910f
    398e:	1000                	addi	s0,sp,32
    3990:	7506                	ld	a0,96(sp)
    3992:	2808                	fld	fa0,16(s0)
    3994:	0b000003          	lb	zero,176(zero) # b0 <__stack_align+0xa0>
    3998:	03aa                	slli	t2,t2,0xa
    399a:	0000                	unimp
    399c:	7606                	ld	a2,96(sp)
    399e:	2811                	addiw	a6,a6,4
    39a0:	00000003          	lb	zero,0(zero) # 0 <__boot_hart>
    39a4:	0003fa0b          	.insn	4, 0x0003fa0b
    39a8:	0600                	addi	s0,sp,768
    39aa:	00470677          	.insn	4, 0x00470677
    39ae:	0000                	unimp
    39b0:	0008                	.insn	2, 0x0008
    39b2:	080d                	addi	a6,a6,3
    39b4:	00000063          	beqz	zero,39b4 <__stack_align+0x39a4>
    39b8:	0005b00f          	.insn	4, 0x0005b00f
    39bc:	b000                	fsd	fs0,32(s0)
    39be:	b506                	fsd	ft1,168(sp)
    39c0:	7108                	ld	a0,32(a0)
    39c2:	0004                	.insn	2, 0x0004
    39c4:	1000                	addi	s0,sp,32
    39c6:	705f 0600 12b6      	.insn	6, 0x12b60600705f
    39cc:	0328                	addi	a0,sp,392
    39ce:	0000                	unimp
    39d0:	1000                	addi	s0,sp,32
    39d2:	725f 0600 07b7      	.insn	6, 0x07b70600725f
    39d8:	00000047          	fmsub.s	ft0,ft0,ft0,ft0,rne
    39dc:	1008                	addi	a0,sp,32
    39de:	775f 0600 07b8      	.insn	6, 0x07b80600775f
    39e4:	00000047          	fmsub.s	ft0,ft0,ft0,ft0,rne
    39e8:	0b0c                	addi	a1,sp,400
    39ea:	03dd                	addi	t2,t2,23
    39ec:	0000                	unimp
    39ee:	b906                	fsd	ft1,176(sp)
    39f0:	6a09                	lui	s4,0x2
    39f2:	0000                	unimp
    39f4:	1000                	addi	s0,sp,32
    39f6:	0004a30b          	.insn	4, 0x0004a30b
    39fa:	0600                	addi	s0,sp,768
    39fc:	09ba                	slli	s3,s3,0xe
    39fe:	006a                	c.slli	zero,0x1a
    3a00:	0000                	unimp
    3a02:	1012                	c.slli	zero,0x24
    3a04:	625f 0066 bb06      	.insn	6, 0xbb060066625f
    3a0a:	0011                	c.nop	4
    3a0c:	18000003          	lb	zero,384(zero) # 180 <__stack_align+0x170>
    3a10:	00036a0b          	.insn	4, 0x00036a0b
    3a14:	0600                	addi	s0,sp,768
    3a16:	07bc                	addi	a5,sp,968
    3a18:	00000047          	fmsub.s	ft0,ft0,ft0,ft0,rne
    3a1c:	0b28                	addi	a0,sp,408
    3a1e:	03cd                	addi	t2,t2,19
    3a20:	0000                	unimp
    3a22:	c306                	sw	ra,132(sp)
    3a24:	360a                	fld	fa2,160(sp)
    3a26:	0001                	nop
    3a28:	3000                	fld	fs0,32(s0)
    3a2a:	0004770b          	.insn	4, 0x0004770b
    3a2e:	0600                	addi	s0,sp,768
    3a30:	1dc5                	addi	s11,s11,-15
    3a32:	000005e3          	beqz	zero,423c <__stack_align+0x422c>
    3a36:	0b38                	addi	a4,sp,408
    3a38:	0504                	addi	s1,sp,640
    3a3a:	0000                	unimp
    3a3c:	c706                	sw	ra,140(sp)
    3a3e:	121d                	addi	tp,tp,-25 # ffffffffffffffe7 <__heap_end+0xffffffff7ffdcfe7>
    3a40:	0006                	c.slli	zero,0x1
    3a42:	4000                	lw	s0,0(s0)
    3a44:	0006330b          	.insn	4, 0x0006330b
    3a48:	0600                	addi	s0,sp,768
    3a4a:	0dca                	slli	s11,s11,0x12
    3a4c:	0636                	slli	a2,a2,0xd
    3a4e:	0000                	unimp
    3a50:	0b48                	addi	a0,sp,404
    3a52:	071a                	slli	a4,a4,0x6
    3a54:	0000                	unimp
    3a56:	cb06                	sw	ra,148(sp)
    3a58:	5009                	c.li	zero,-30
    3a5a:	0006                	c.slli	zero,0x1
    3a5c:	5000                	lw	s0,32(s0)
    3a5e:	5f10                	lw	a2,56(a4)
    3a60:	6275                	lui	tp,0x1d
    3a62:	0600                	addi	s0,sp,768
    3a64:	11ce                	slli	gp,gp,0x33
    3a66:	0300                	addi	s0,sp,384
    3a68:	0000                	unimp
    3a6a:	1058                	addi	a4,sp,36
    3a6c:	755f 0070 cf06      	.insn	6, 0xcf060070755f
    3a72:	2812                	fld	fa6,256(sp)
    3a74:	68000003          	lb	zero,1664(zero) # 680 <__stack_align+0x670>
    3a78:	5f10                	lw	a2,56(a4)
    3a7a:	7275                	lui	tp,0xffffd
    3a7c:	0600                	addi	s0,sp,768
    3a7e:	07d0                	addi	a2,sp,964
    3a80:	00000047          	fmsub.s	ft0,ft0,ft0,ft0,rne
    3a84:	0b70                	addi	a2,sp,412
    3a86:	03a4                	addi	s1,sp,456
    3a88:	0000                	unimp
    3a8a:	d306                	sw	ra,164(sp)
    3a8c:	5611                	li	a2,-28
    3a8e:	0006                	c.slli	zero,0x1
    3a90:	7400                	ld	s0,40(s0)
    3a92:	0006f20b          	.insn	4, 0x0006f20b
    3a96:	0600                	addi	s0,sp,768
    3a98:	11d4                	addi	a3,sp,228
    3a9a:	0666                	slli	a2,a2,0x19
    3a9c:	0000                	unimp
    3a9e:	6c5f1077          	.insn	4, 0x6c5f1077
    3aa2:	0062                	c.slli	zero,0x18
    3aa4:	d706                	sw	ra,172(sp)
    3aa6:	0011                	c.nop	4
    3aa8:	78000003          	lb	zero,1920(zero) # 780 <__stack_align+0x770>
    3aac:	0004000b          	.insn	4, 0x0004000b
    3ab0:	0600                	addi	s0,sp,768
    3ab2:	07da                	slli	a5,a5,0x16
    3ab4:	00000047          	fmsub.s	ft0,ft0,ft0,ft0,rne
    3ab8:	0b88                	addi	a0,sp,464
    3aba:	0524                	addi	s1,sp,648
    3abc:	0000                	unimp
    3abe:	db06                	sw	ra,180(sp)
    3ac0:	970a                	add	a4,a4,sp
    3ac2:	0000                	unimp
    3ac4:	9000                	.insn	2, 0x9000
    3ac6:	0001b30b          	.insn	4, 0x0001b30b
    3aca:	0600                	addi	s0,sp,768
    3acc:	12de                	slli	t0,t0,0x37
    3ace:	0000048f          	.insn	4, 0x048f
    3ad2:	0b98                	addi	a4,sp,464
    3ad4:	0761                	addi	a4,a4,24
    3ad6:	0000                	unimp
    3ad8:	e206                	sd	ra,256(sp)
    3ada:	2a0c                	fld	fa1,16(a2)
    3adc:	0001                	nop
    3ade:	a000                	fsd	fs0,0(s0)
    3ae0:	0005b80b          	.insn	4, 0x0005b80b
    3ae4:	0600                	addi	s0,sp,768
    3ae6:	0ee4                	addi	s1,sp,860
    3ae8:	011e                	slli	sp,sp,0x7
    3aea:	0000                	unimp
    3aec:	0ba4                	addi	s1,sp,472
    3aee:	04fc                	addi	a5,sp,588
    3af0:	0000                	unimp
    3af2:	e506                	sd	ra,136(sp)
    3af4:	4709                	li	a4,2
    3af6:	0000                	unimp
    3af8:	ac00                	fsd	fs0,24(s0)
    3afa:	1400                	addi	s0,sp,544
    3afc:	000000af          	.insn	4, 0x00af
    3b00:	0000048f          	.insn	4, 0x048f
    3b04:	8f15                	sub	a4,a4,a3
    3b06:	0004                	.insn	2, 0x0004
    3b08:	1500                	addi	s0,sp,672
    3b0a:	0136                	slli	sp,sp,0xd
    3b0c:	0000                	unimp
    3b0e:	3815                	addiw	a6,a6,-27
    3b10:	0001                	nop
    3b12:	1500                	addi	s0,sp,672
    3b14:	00000047          	fmsub.s	ft0,ft0,ft0,ft0,rne
    3b18:	0d00                	addi	s0,sp,656
    3b1a:	9a08                	.insn	2, 0x9a08
    3b1c:	0004                	.insn	2, 0x0004
    3b1e:	0e00                	addi	s0,sp,784
    3b20:	0000048f          	.insn	4, 0x048f
    3b24:	1616                	slli	a2,a2,0x25
    3b26:	0006                	c.slli	zero,0x1
    3b28:	4800                	lw	s0,16(s0)
    3b2a:	02390607          	.insn	4, 0x02390607
    3b2e:	e308                	sd	a0,0(a4)
    3b30:	0005                	c.nop	1
    3b32:	1700                	addi	s0,sp,928
    3b34:	07c9                	addi	a5,a5,18
    3b36:	0000                	unimp
    3b38:	3b06                	fld	fs6,96(sp)
    3b3a:	0702                	c.slli64	a4
    3b3c:	00000047          	fmsub.s	ft0,ft0,ft0,ft0,rne
    3b40:	1700                	addi	s0,sp,928
    3b42:	03ec                	addi	a1,sp,460
    3b44:	0000                	unimp
    3b46:	4006                	.insn	2, 0x4006
    3b48:	0b02                	c.slli64	s6
    3b4a:	06c2                	slli	a3,a3,0x10
    3b4c:	0000                	unimp
    3b4e:	1708                	addi	a0,sp,928
    3b50:	00000493          	li	s1,0
    3b54:	4006                	.insn	2, 0x4006
    3b56:	1402                	slli	s0,s0,0x20
    3b58:	06c2                	slli	a3,a3,0x10
    3b5a:	0000                	unimp
    3b5c:	1710                	addi	a2,sp,928
    3b5e:	0458                	addi	a4,sp,516
    3b60:	0000                	unimp
    3b62:	4006                	.insn	2, 0x4006
    3b64:	1e02                	slli	t3,t3,0x20
    3b66:	06c2                	slli	a3,a3,0x10
    3b68:	0000                	unimp
    3b6a:	1718                	addi	a4,sp,928
    3b6c:	05d9                	addi	a1,a1,22
    3b6e:	0000                	unimp
    3b70:	4206                	lw	tp,64(sp)
    3b72:	0802                	c.slli64	a6
    3b74:	00000047          	fmsub.s	ft0,ft0,ft0,ft0,rne
    3b78:	1720                	addi	s0,sp,936
    3b7a:	0328                	addi	a0,sp,392
    3b7c:	0000                	unimp
    3b7e:	4306                	lw	t1,64(sp)
    3b80:	0802                	c.slli64	a6
    3b82:	000008cb          	fnmsub.s	fa7,ft0,ft0,ft0,rne
    3b86:	1724                	addi	s1,sp,936
    3b88:	05f5                	addi	a1,a1,29
    3b8a:	0000                	unimp
    3b8c:	4606                	lw	a2,64(sp)
    3b8e:	0702                	c.slli64	a4
    3b90:	00000047          	fmsub.s	ft0,ft0,ft0,ft0,rne
    3b94:	1740                	addi	s0,sp,932
    3b96:	000005e3          	beqz	zero,43a0 <__stack_align+0x4390>
    3b9a:	4706                	lw	a4,64(sp)
    3b9c:	1602                	slli	a2,a2,0x20
    3b9e:	08e0                	addi	s0,sp,92
    3ba0:	0000                	unimp
    3ba2:	1748                	addi	a0,sp,932
    3ba4:	0544                	addi	s1,sp,644
    3ba6:	0000                	unimp
    3ba8:	4906                	lw	s2,64(sp)
    3baa:	0702                	c.slli64	a4
    3bac:	00000047          	fmsub.s	ft0,ft0,ft0,ft0,rne
    3bb0:	1750                	addi	a2,sp,932
    3bb2:	000005eb          	.insn	4, 0x05eb
    3bb6:	4b06                	lw	s6,64(sp)
    3bb8:	0a02                	c.slli64	s4
    3bba:	08f1                	addi	a7,a7,28
    3bbc:	0000                	unimp
    3bbe:	1758                	addi	a4,sp,932
    3bc0:	04e0                	addi	s0,sp,588
    3bc2:	0000                	unimp
    3bc4:	4e06                	lw	t3,64(sp)
    3bc6:	1302                	slli	t1,t1,0x20
    3bc8:	01b0                	addi	a2,sp,200
    3bca:	0000                	unimp
    3bcc:	1760                	addi	s0,sp,940
    3bce:	047d                	addi	s0,s0,31
    3bd0:	0000                	unimp
    3bd2:	4f06                	lw	t5,64(sp)
    3bd4:	0702                	c.slli64	a4
    3bd6:	00000047          	fmsub.s	ft0,ft0,ft0,ft0,rne
    3bda:	1768                	addi	a0,sp,940
    3bdc:	0734                	addi	a3,sp,904
    3bde:	0000                	unimp
    3be0:	5006                	.insn	2, 0x5006
    3be2:	1302                	slli	t1,t1,0x20
    3be4:	01b0                	addi	a2,sp,200
    3be6:	0000                	unimp
    3be8:	1770                	addi	a2,sp,940
    3bea:	0000054f          	fnmadd.s	fa0,ft0,ft0,ft0,rne
    3bee:	5106                	lw	sp,96(sp)
    3bf0:	1402                	slli	s0,s0,0x20
    3bf2:	000008f7          	.insn	4, 0x08f7
    3bf6:	1778                	addi	a4,sp,940
    3bf8:	0000049b          	sext.w	s1,zero
    3bfc:	5406                	lw	s0,96(sp)
    3bfe:	0702                	c.slli64	a4
    3c00:	00000047          	fmsub.s	ft0,ft0,ft0,ft0,rne
    3c04:	1780                	addi	s0,sp,992
    3c06:	0409                	addi	s0,s0,2
    3c08:	0000                	unimp
    3c0a:	5506                	lw	a0,96(sp)
    3c0c:	0902                	c.slli64	s2
    3c0e:	0138                	addi	a4,sp,136
    3c10:	0000                	unimp
    3c12:	1788                	addi	a0,sp,992
    3c14:	0579                	addi	a0,a0,30
    3c16:	0000                	unimp
    3c18:	7806                	ld	a6,96(sp)
    3c1a:	0702                	c.slli64	a4
    3c1c:	08a5                	addi	a7,a7,9
    3c1e:	0000                	unimp
    3c20:	1890                	addi	a2,sp,112
    3c22:	053c                	addi	a5,sp,648
    3c24:	0000                	unimp
    3c26:	7c06                	ld	s8,96(sp)
    3c28:	1302                	slli	t1,t1,0x20
    3c2a:	000002e3          	beqz	zero,442e <__stack_align+0x441e>
    3c2e:	01f8                	addi	a4,sp,204
    3c30:	be18                	fsd	fa4,56(a2)
    3c32:	0004                	.insn	2, 0x0004
    3c34:	0600                	addi	s0,sp,768
    3c36:	027d                	addi	tp,tp,31 # ffffffffffffd01f <__heap_end+0xffffffff7ffda01f>
    3c38:	9f12                	add	t5,t5,tp
    3c3a:	0002                	c.slli64	zero
    3c3c:	0000                	unimp
    3c3e:	1802                	slli	a6,a6,0x20
    3c40:	06e8                	addi	a0,sp,844
    3c42:	0000                	unimp
    3c44:	8106                	mv	sp,ra
    3c46:	0c02                	c.slli64	s8
    3c48:	0908                	addi	a0,sp,144
    3c4a:	0000                	unimp
    3c4c:	0518                	addi	a4,sp,640
    3c4e:	d518                	sw	a4,40(a0)
    3c50:	06000003          	lb	zero,96(zero) # 60 <__stack_align+0x50>
    3c54:	0286                	slli	t0,t0,0x1
    3c56:	8310                	.insn	2, 0x8310
    3c58:	0006                	c.slli	zero,0x1
    3c5a:	2000                	fld	fs0,0(s0)
    3c5c:	1805                	addi	a6,a6,-31
    3c5e:	03ba                	slli	t2,t2,0xe
    3c60:	0000                	unimp
    3c62:	8806                	mv	a6,ra
    3c64:	0a02                	c.slli64	s4
    3c66:	0914                	addi	a3,sp,144
    3c68:	0000                	unimp
    3c6a:	0538                	addi	a4,sp,648
    3c6c:	0d00                	addi	s0,sp,656
    3c6e:	7108                	ld	a0,32(a0)
    3c70:	0004                	.insn	2, 0x0004
    3c72:	1400                	addi	s0,sp,544
    3c74:	000000af          	.insn	4, 0x00af
    3c78:	00000607          	.insn	4, 0x0607
    3c7c:	8f15                	sub	a4,a4,a3
    3c7e:	0004                	.insn	2, 0x0004
    3c80:	1500                	addi	s0,sp,672
    3c82:	0136                	slli	sp,sp,0xd
    3c84:	0000                	unimp
    3c86:	0715                	addi	a4,a4,5
    3c88:	0006                	c.slli	zero,0x1
    3c8a:	1500                	addi	s0,sp,672
    3c8c:	00000047          	fmsub.s	ft0,ft0,ft0,ft0,rne
    3c90:	0d00                	addi	s0,sp,656
    3c92:	4508                	lw	a0,8(a0)
    3c94:	0001                	nop
    3c96:	0e00                	addi	s0,sp,784
    3c98:	00000607          	.insn	4, 0x0607
    3c9c:	080d                	addi	a6,a6,3
    3c9e:	05e9                	addi	a1,a1,26
    3ca0:	0000                	unimp
    3ca2:	a314                	fsd	fa3,0(a4)
    3ca4:	0000                	unimp
    3ca6:	3600                	fld	fs0,40(a2)
    3ca8:	0006                	c.slli	zero,0x1
    3caa:	1500                	addi	s0,sp,672
    3cac:	0000048f          	.insn	4, 0x048f
    3cb0:	3615                	addiw	a2,a2,-27
    3cb2:	0001                	nop
    3cb4:	1500                	addi	s0,sp,672
    3cb6:	000000a3          	sb	zero,1(zero) # 1 <__boot_hart+0x1>
    3cba:	4715                	li	a4,5
    3cbc:	0000                	unimp
    3cbe:	0000                	unimp
    3cc0:	080d                	addi	a6,a6,3
    3cc2:	0618                	addi	a4,sp,768
    3cc4:	0000                	unimp
    3cc6:	4714                	lw	a3,8(a4)
    3cc8:	0000                	unimp
    3cca:	5000                	lw	s0,32(s0)
    3ccc:	0006                	c.slli	zero,0x1
    3cce:	1500                	addi	s0,sp,672
    3cd0:	0000048f          	.insn	4, 0x048f
    3cd4:	3615                	addiw	a2,a2,-27
    3cd6:	0001                	nop
    3cd8:	0000                	unimp
    3cda:	080d                	addi	a6,a6,3
    3cdc:	063c                	addi	a5,sp,776
    3cde:	0000                	unimp
    3ce0:	6308                	ld	a0,0(a4)
    3ce2:	0000                	unimp
    3ce4:	6600                	ld	s0,8(a2)
    3ce6:	0006                	c.slli	zero,0x1
    3ce8:	0900                	addi	s0,sp,144
    3cea:	0040                	addi	s0,sp,4
    3cec:	0000                	unimp
    3cee:	0002                	c.slli64	zero
    3cf0:	6308                	ld	a0,0(a4)
    3cf2:	0000                	unimp
    3cf4:	7600                	ld	s0,40(a2)
    3cf6:	0006                	c.slli	zero,0x1
    3cf8:	0900                	addi	s0,sp,144
    3cfa:	0040                	addi	s0,sp,4
    3cfc:	0000                	unimp
    3cfe:	0000                	unimp
    3d00:	9e05                	subw	a2,a2,s1
    3d02:	0005                	c.nop	1
    3d04:	0600                	addi	s0,sp,768
    3d06:	011f 2e1a 0003      	.insn	6, 0x00032e1a011f
    3d0c:	1900                	addi	s0,sp,176
    3d0e:	06c4                	addi	s1,sp,836
    3d10:	0000                	unimp
    3d12:	0618                	addi	a4,sp,768
    3d14:	bc080123          	sb	zero,-1086(a6)
    3d18:	0006                	c.slli	zero,0x1
    3d1a:	1700                	addi	s0,sp,928
    3d1c:	05c6                	slli	a1,a1,0x11
    3d1e:	0000                	unimp
    3d20:	2506                	fld	fa0,64(sp)
    3d22:	1101                	addi	sp,sp,-32
    3d24:	06bc                	addi	a5,sp,840
    3d26:	0000                	unimp
    3d28:	1700                	addi	s0,sp,928
    3d2a:	000004b7          	lui	s1,0x0
    3d2e:	2606                	fld	fa2,64(sp)
    3d30:	0701                	addi	a4,a4,0
    3d32:	00000047          	fmsub.s	ft0,ft0,ft0,ft0,rne
    3d36:	1708                	addi	a0,sp,928
    3d38:	0598                	addi	a4,sp,704
    3d3a:	0000                	unimp
    3d3c:	2706                	fld	fa4,64(sp)
    3d3e:	0b01                	addi	s6,s6,0
    3d40:	06c2                	slli	a3,a3,0x10
    3d42:	0000                	unimp
    3d44:	0010                	.insn	2, 0x0010
    3d46:	080d                	addi	a6,a6,3
    3d48:	00000683          	lb	a3,0(zero) # 0 <__boot_hart>
    3d4c:	080d                	addi	a6,a6,3
    3d4e:	0676                	slli	a2,a2,0x1d
    3d50:	0000                	unimp
    3d52:	2019                	.insn	2, 0x2019
    3d54:	0e000003          	lb	zero,224(zero) # e0 <__stack_align+0xd0>
    3d58:	3f06                	fld	ft10,96(sp)
    3d5a:	0801                	addi	a6,a6,0
    3d5c:	0701                	addi	a4,a4,0
    3d5e:	0000                	unimp
    3d60:	00061d17          	auipc	s10,0x61
    3d64:	0600                	addi	s0,sp,768
    3d66:	0140                	addi	s0,sp,132
    3d68:	0112                	slli	sp,sp,0x4
    3d6a:	00000007          	.insn	4, 0x0007
    3d6e:	00064a17          	auipc	s4,0x64
    3d72:	0600                	addi	s0,sp,768
    3d74:	0141                	addi	sp,sp,16
    3d76:	0112                	slli	sp,sp,0x4
    3d78:	06000007          	.insn	4, 0x06000007
    3d7c:	00067417          	auipc	s0,0x67
    3d80:	0600                	addi	s0,sp,768
    3d82:	0142                	slli	sp,sp,0x10
    3d84:	7112                	ld	sp,288(sp)
    3d86:	0000                	unimp
    3d88:	0c00                	addi	s0,sp,528
    3d8a:	0800                	addi	s0,sp,16
    3d8c:	0071                	c.nop	28
    3d8e:	0000                	unimp
    3d90:	0711                	addi	a4,a4,4
    3d92:	0000                	unimp
    3d94:	4009                	c.li	zero,2
    3d96:	0000                	unimp
    3d98:	0200                	addi	s0,sp,256
    3d9a:	1a00                	addi	s0,sp,304
    3d9c:	06d8                	addi	a4,sp,836
    3d9e:	0259                	addi	tp,tp,22 # 16 <__stack_align+0x6>
    3da0:	00082607          	flw	fa2,0(a6)
    3da4:	1700                	addi	s0,sp,928
    3da6:	06a8                	addi	a0,sp,840
    3da8:	0000                	unimp
    3daa:	5b06                	lw	s6,96(sp)
    3dac:	1802                	slli	a6,a6,0x20
    3dae:	0078                	addi	a4,sp,12
    3db0:	0000                	unimp
    3db2:	1700                	addi	s0,sp,928
    3db4:	065e                	slli	a2,a2,0x17
    3db6:	0000                	unimp
    3db8:	5c06                	lw	s8,96(sp)
    3dba:	1202                	slli	tp,tp,0x20
    3dbc:	0138                	addi	a4,sp,136
    3dbe:	0000                	unimp
    3dc0:	1708                	addi	a0,sp,928
    3dc2:	000004d3          	fadd.s	fs1,ft0,ft0,rne
    3dc6:	5d06                	lw	s10,96(sp)
    3dc8:	1002                	c.slli	zero,0x20
    3dca:	0826                	slli	a6,a6,0x9
    3dcc:	0000                	unimp
    3dce:	1710                	addi	a2,sp,928
    3dd0:	0000070b          	.insn	4, 0x070b
    3dd4:	5e06                	lw	t3,96(sp)
    3dd6:	1702                	slli	a4,a4,0x20
    3dd8:	01c6                	slli	gp,gp,0x11
    3dda:	0000                	unimp
    3ddc:	172c                	addi	a1,sp,936
    3dde:	0468                	addi	a0,sp,524
    3de0:	0000                	unimp
    3de2:	5f06                	lw	t5,96(sp)
    3de4:	0f02                	c.slli64	t5
    3de6:	00000047          	fmsub.s	ft0,ft0,ft0,ft0,rne
    3dea:	1750                	addi	a2,sp,932
    3dec:	05c1                	addi	a1,a1,16
    3dee:	0000                	unimp
    3df0:	6006                	.insn	2, 0x6006
    3df2:	2c02                	fld	fs8,0(sp)
    3df4:	0836                	slli	a6,a6,0xd
    3df6:	0000                	unimp
    3df8:	1758                	addi	a4,sp,932
    3dfa:	0721                	addi	a4,a4,8
    3dfc:	0000                	unimp
    3dfe:	6106                	ld	sp,64(sp)
    3e00:	1a02                	slli	s4,s4,0x20
    3e02:	06c8                	addi	a0,sp,836
    3e04:	0000                	unimp
    3e06:	1760                	addi	s0,sp,940
    3e08:	05cc                	addi	a1,sp,708
    3e0a:	0000                	unimp
    3e0c:	6206                	ld	tp,64(sp)
    3e0e:	1602                	slli	a2,a2,0x20
    3e10:	011e                	slli	sp,sp,0x7
    3e12:	0000                	unimp
    3e14:	1770                	addi	a2,sp,940
    3e16:	0726                	slli	a4,a4,0x9
    3e18:	0000                	unimp
    3e1a:	6306                	ld	t1,64(sp)
    3e1c:	1602                	slli	a2,a2,0x20
    3e1e:	011e                	slli	sp,sp,0x7
    3e20:	0000                	unimp
    3e22:	1778                	addi	a4,sp,940
    3e24:	038d                	addi	t2,t2,3
    3e26:	0000                	unimp
    3e28:	6406                	ld	s0,64(sp)
    3e2a:	1602                	slli	a2,a2,0x20
    3e2c:	011e                	slli	sp,sp,0x7
    3e2e:	0000                	unimp
    3e30:	1780                	addi	s0,sp,992
    3e32:	000006d3          	fadd.s	fa3,ft0,ft0,rne
    3e36:	6506                	ld	a0,64(sp)
    3e38:	1002                	c.slli	zero,0x20
    3e3a:	083d                	addi	a6,a6,15
    3e3c:	0000                	unimp
    3e3e:	1788                	addi	a0,sp,992
    3e40:	000004c7          	fmsub.s	fs1,ft0,ft0,ft0,rne
    3e44:	6606                	ld	a2,64(sp)
    3e46:	1002                	c.slli	zero,0x20
    3e48:	084d                	addi	a6,a6,19
    3e4a:	0000                	unimp
    3e4c:	1790                	addi	a2,sp,992
    3e4e:	0681                	addi	a3,a3,0
    3e50:	0000                	unimp
    3e52:	6706                	ld	a4,64(sp)
    3e54:	0f02                	c.slli64	t5
    3e56:	00000047          	fmsub.s	ft0,ft0,ft0,ft0,rne
    3e5a:	17a8                	addi	a0,sp,1000
    3e5c:	0422                	slli	s0,s0,0x8
    3e5e:	0000                	unimp
    3e60:	6806                	ld	a6,64(sp)
    3e62:	1602                	slli	a2,a2,0x20
    3e64:	011e                	slli	sp,sp,0x7
    3e66:	0000                	unimp
    3e68:	17ac                	addi	a1,sp,1000
    3e6a:	037e                	slli	t1,t1,0x1f
    3e6c:	0000                	unimp
    3e6e:	6906                	ld	s2,64(sp)
    3e70:	1602                	slli	a2,a2,0x20
    3e72:	011e                	slli	sp,sp,0x7
    3e74:	0000                	unimp
    3e76:	17b4                	addi	a3,sp,1000
    3e78:	0411                	addi	s0,s0,4 # 6ad80 <__heap_size+0x4ad80>
    3e7a:	0000                	unimp
    3e7c:	6a06                	ld	s4,64(sp)
    3e7e:	1602                	slli	a2,a2,0x20
    3e80:	011e                	slli	sp,sp,0x7
    3e82:	0000                	unimp
    3e84:	17bc                	addi	a5,sp,1000
    3e86:	00000333          	add	t1,zero,zero
    3e8a:	6b06                	ld	s6,64(sp)
    3e8c:	1602                	slli	a2,a2,0x20
    3e8e:	011e                	slli	sp,sp,0x7
    3e90:	0000                	unimp
    3e92:	17c4                	addi	s1,sp,996
    3e94:	0342                	slli	t1,t1,0x10
    3e96:	0000                	unimp
    3e98:	6c06                	ld	s8,64(sp)
    3e9a:	1602                	slli	a2,a2,0x20
    3e9c:	011e                	slli	sp,sp,0x7
    3e9e:	0000                	unimp
    3ea0:	17cc                	addi	a1,sp,996
    3ea2:	057e                	slli	a0,a0,0x1f
    3ea4:	0000                	unimp
    3ea6:	6d06                	ld	s10,64(sp)
    3ea8:	0802                	c.slli64	a6
    3eaa:	00000047          	fmsub.s	ft0,ft0,ft0,ft0,rne
    3eae:	00d4                	addi	a3,sp,68
    3eb0:	3e08                	fld	fa0,56(a2)
    3eb2:	0001                	nop
    3eb4:	3600                	fld	fs0,40(a2)
    3eb6:	0008                	.insn	2, 0x0008
    3eb8:	0900                	addi	s0,sp,144
    3eba:	0040                	addi	s0,sp,4
    3ebc:	0000                	unimp
    3ebe:	0019                	c.nop	6
    3ec0:	53070803          	lb	a6,1328(a4)
    3ec4:	08000003          	lb	zero,128(zero) # 80 <__stack_align+0x70>
    3ec8:	013e                	slli	sp,sp,0xf
    3eca:	0000                	unimp
    3ecc:	084d                	addi	a6,a6,19
    3ece:	0000                	unimp
    3ed0:	4009                	c.li	zero,2
    3ed2:	0000                	unimp
    3ed4:	0700                	addi	s0,sp,896
    3ed6:	0800                	addi	s0,sp,16
    3ed8:	013e                	slli	sp,sp,0xf
    3eda:	0000                	unimp
    3edc:	085d                	addi	a6,a6,23
    3ede:	0000                	unimp
    3ee0:	4009                	c.li	zero,2
    3ee2:	0000                	unimp
    3ee4:	1700                	addi	s0,sp,928
    3ee6:	1b00                	addi	s0,sp,432
    3ee8:	0168                	addi	a0,sp,140
    3eea:	7206                	ld	tp,96(sp)
    3eec:	0702                	c.slli64	a4
    3eee:	0885                	addi	a7,a7,1
    3ef0:	0000                	unimp
    3ef2:	00052c17          	auipc	s8,0x52
    3ef6:	0600                	addi	s0,sp,768
    3ef8:	0275                	addi	tp,tp,29 # 1d <__stack_align+0xd>
    3efa:	0008851b          	sext.w	a0,a7
    3efe:	0000                	unimp
    3f00:	00051517          	auipc	a0,0x51
    3f04:	0600                	addi	s0,sp,768
    3f06:	0276                	slli	tp,tp,0x1d
    3f08:	9518                	.insn	2, 0x9518
    3f0a:	0008                	.insn	2, 0x0008
    3f0c:	f000                	sd	s0,32(s0)
    3f0e:	0800                	addi	s0,sp,16
    3f10:	0328                	addi	a0,sp,392
    3f12:	0000                	unimp
    3f14:	0895                	addi	a7,a7,5
    3f16:	0000                	unimp
    3f18:	4009                	c.li	zero,2
    3f1a:	0000                	unimp
    3f1c:	1d00                	addi	s0,sp,688
    3f1e:	0800                	addi	s0,sp,16
    3f20:	0078                	addi	a4,sp,12
    3f22:	0000                	unimp
    3f24:	08a5                	addi	a7,a7,9
    3f26:	0000                	unimp
    3f28:	4009                	c.li	zero,2
    3f2a:	0000                	unimp
    3f2c:	1d00                	addi	s0,sp,688
    3f2e:	1c00                	addi	s0,sp,560
    3f30:	0168                	addi	a0,sp,140
    3f32:	5706                	lw	a4,96(sp)
    3f34:	0302                	c.slli64	t1
    3f36:	000008cb          	fnmsub.s	fa7,ft0,ft0,ft0,rne
    3f3a:	161d                	addi	a2,a2,-25
    3f3c:	0006                	c.slli	zero,0x1
    3f3e:	0600                	addi	s0,sp,768
    3f40:	026e                	slli	tp,tp,0x1b
    3f42:	0007110b          	.insn	4, 0x0007110b
    3f46:	1d00                	addi	s0,sp,688
    3f48:	06f8                	addi	a4,sp,844
    3f4a:	0000                	unimp
    3f4c:	7706                	ld	a4,96(sp)
    3f4e:	0b02                	c.slli64	s6
    3f50:	085d                	addi	a6,a6,23
    3f52:	0000                	unimp
    3f54:	0800                	addi	s0,sp,16
    3f56:	013e                	slli	sp,sp,0xf
    3f58:	0000                	unimp
    3f5a:	000008db          	.insn	4, 0x08db
    3f5e:	4009                	c.li	zero,2
    3f60:	0000                	unimp
    3f62:	1800                	addi	s0,sp,48
    3f64:	1e00                	addi	s0,sp,816
    3f66:	00000373          	.insn	4, 0x0373
    3f6a:	080d                	addi	a6,a6,3
    3f6c:	000008db          	.insn	4, 0x08db
    3f70:	f11f 0008 1500      	.insn	6, 0x15000008f11f
    3f76:	0000048f          	.insn	4, 0x048f
    3f7a:	0d00                	addi	s0,sp,656
    3f7c:	e608                	sd	a0,8(a2)
    3f7e:	0008                	.insn	2, 0x0008
    3f80:	0d00                	addi	s0,sp,656
    3f82:	b008                	fsd	fa0,32(s0)
    3f84:	0001                	nop
    3f86:	1f00                	addi	s0,sp,944
    3f88:	0908                	addi	a0,sp,144
    3f8a:	0000                	unimp
    3f8c:	4715                	li	a4,5
    3f8e:	0000                	unimp
    3f90:	0000                	unimp
    3f92:	080d                	addi	a6,a6,3
    3f94:	090e                	slli	s2,s2,0x3
    3f96:	0000                	unimp
    3f98:	080d                	addi	a6,a6,3
    3f9a:	08fd                	addi	a7,a7,31
    3f9c:	0000                	unimp
    3f9e:	7608                	ld	a0,40(a2)
    3fa0:	0006                	c.slli	zero,0x1
    3fa2:	2400                	fld	fs0,8(s0)
    3fa4:	0009                	c.nop	2
    3fa6:	0900                	addi	s0,sp,144
    3fa8:	0040                	addi	s0,sp,4
    3faa:	0000                	unimp
    3fac:	0002                	c.slli64	zero
    3fae:	9520                	.insn	2, 0x9520
    3fb0:	0006                	c.slli	zero,0x1
    3fb2:	0600                	addi	s0,sp,768
    3fb4:	8f170307          	.insn	4, 0x8f170307
    3fb8:	0004                	.insn	2, 0x0004
    3fba:	2000                	fld	fs0,0(s0)
    3fbc:	068e                	slli	a3,a3,0x3
    3fbe:	0000                	unimp
    3fc0:	0806                	slli	a6,a6,0x1
    3fc2:	04951d03          	lh	s10,73(a0) # 54f49 <__heap_size+0x34f49>
    3fc6:	0000                	unimp
    3fc8:	0d08                	addi	a0,sp,656
    3fca:	0006                	c.slli	zero,0x1
    3fcc:	4900                	lw	s0,16(a0)
    3fce:	0009                	c.nop	2
    3fd0:	2100                	fld	fs0,0(a0)
    3fd2:	0e00                	addi	s0,sp,784
    3fd4:	093e                	slli	s2,s2,0xf
    3fd6:	0000                	unimp
    3fd8:	d022                	sw	s0,32(sp)
    3fda:	07000007          	.insn	4, 0x07000007
    3fde:	2414                	fld	fa3,8(s0)
    3fe0:	0949                	addi	s2,s2,18
    3fe2:	0000                	unimp
    3fe4:	ec22                	sd	s0,24(sp)
    3fe6:	07000007          	.insn	4, 0x07000007
    3fea:	1515                	addi	a0,a0,-27
    3fec:	00000047          	fmsub.s	ft0,ft0,ft0,ft0,rne
    3ff0:	dc02                	sw	zero,56(sp)
    3ff2:	0002                	c.slli64	zero
    3ff4:	0800                	addi	s0,sp,16
    3ff6:	143c                	addi	a5,sp,552
    3ff8:	007f 0000 6623 0009 	.insn	10, 0x2200000966230000007f
    4000:	2200 
    4002:	021e                	slli	tp,tp,0x7
    4004:	0000                	unimp
    4006:	0609                	addi	a2,a2,2
    4008:	721a                	ld	tp,416(sp)
    400a:	0009                	c.nop	2
    400c:	2200                	fld	fs0,0(a2)
    400e:	02c5                	addi	t0,t0,17
    4010:	0000                	unimp
    4012:	0709                	addi	a4,a4,2
    4014:	721a                	ld	tp,416(sp)
    4016:	0009                	c.nop	2
    4018:	0800                	addi	s0,sp,16
    401a:	013e                	slli	sp,sp,0xf
    401c:	0000                	unimp
    401e:	099a                	slli	s3,s3,0x6
    4020:	0000                	unimp
    4022:	0021                	c.nop	8
    4024:	2f22                	fld	ft10,8(sp)
    4026:	0008                	.insn	2, 0x0008
    4028:	0100                	addi	s0,sp,128
    402a:	0d06                	slli	s10,s10,0x1
    402c:	0000098f          	.insn	4, 0x098f
    4030:	2224                	fld	fs1,64(a2)
    4032:	0008                	.insn	2, 0x0008
    4034:	0100                	addi	s0,sp,128
    4036:	01380e07          	.insn	4, 0x01380e07
    403a:	0000                	unimp
    403c:	0309                	addi	t1,t1,2
    403e:	2598                	fld	fa4,8(a1)
    4040:	8000                	.insn	2, 0x8000
    4042:	0000                	unimp
    4044:	0000                	unimp
    4046:	5f25                	li	t5,-23
    4048:	0008                	.insn	2, 0x0008
    404a:	0100                	addi	s0,sp,128
    404c:	0709                	addi	a4,a4,2
    404e:	0136                	slli	sp,sp,0xd
    4050:	0000                	unimp
    4052:	172a                	slli	a4,a4,0x2a
    4054:	8000                	.insn	2, 0x8000
    4056:	0000                	unimp
    4058:	0000                	unimp
    405a:	003a                	c.slli	zero,0xe
    405c:	0000                	unimp
    405e:	0000                	unimp
    4060:	0000                	unimp
    4062:	9c01                	subw	s0,s0,s0
    4064:	0a28                	addi	a0,sp,280
    4066:	0000                	unimp
    4068:	3426                	fld	fs0,104(sp)
    406a:	0008                	.insn	2, 0x0008
    406c:	0100                	addi	s0,sp,128
    406e:	1709                	addi	a4,a4,-30
    4070:	002d                	c.nop	11
    4072:	0000                	unimp
    4074:	00000323          	sb	zero,6(zero) # 6 <__tcb_size>
    4078:	2922                	fld	fs2,8(sp)
    407a:	0008                	.insn	2, 0x0008
    407c:	0100                	addi	s0,sp,128
    407e:	098f110b          	.insn	4, 0x098f110b
    4082:	0000                	unimp
    4084:	00085827          	.insn	4, 0x00085827
    4088:	0100                	addi	s0,sp,128
    408a:	0b0c                	addi	a1,sp,400
    408c:	0138                	addi	a4,sp,136
    408e:	0000                	unimp
    4090:	035c                	addi	a5,sp,388
    4092:	0000                	unimp
    4094:	00085127          	.insn	4, 0x00085127
    4098:	0100                	addi	s0,sp,128
    409a:	0b0d                	addi	s6,s6,3
    409c:	0138                	addi	a4,sp,136
    409e:	0000                	unimp
    40a0:	03ad                	addi	t2,t2,11
    40a2:	0000                	unimp
    40a4:	5628                	lw	a0,104(a2)
    40a6:	00800017          	auipc	zero,0x800
    40aa:	0000                	unimp
    40ac:	2800                	fld	fs0,16(s0)
    40ae:	000a                	c.slli	zero,0x2
    40b0:	0000                	unimp
    40b2:	c829                	beqz	s0,4104 <__stack_align+0x40f4>
    40b4:	c8000007          	.insn	4, 0xc8000007
    40b8:	07000007          	.insn	4, 0x07000007
    40bc:	85000d0f          	.insn	4, 0x85000d0f
    40c0:	000a                	c.slli	zero,0x2
    40c2:	0400                	addi	s0,sp,512
    40c4:	e900                	sd	s0,16(a0)
    40c6:	0010                	.insn	2, 0x0010
    40c8:	0800                	addi	s0,sp,16
    40ca:	6001                	.insn	2, 0x6001
    40cc:	0002                	c.slli64	zero
    40ce:	0c00                	addi	s0,sp,528
    40d0:	0865                	addi	a6,a6,25
    40d2:	0000                	unimp
    40d4:	00000233          	add	tp,zero,zero
    40d8:	1764                	addi	s1,sp,940
    40da:	8000                	.insn	2, 0x8000
    40dc:	0000                	unimp
    40de:	0000                	unimp
    40e0:	0008                	.insn	2, 0x0008
    40e2:	0000                	unimp
    40e4:	0000                	unimp
    40e6:	0000                	unimp
    40e8:	00001967          	.insn	4, 0x1967
    40ec:	0402                	c.slli64	s0
    40ee:	6905                	lui	s2,0x1
    40f0:	746e                	ld	s0,248(sp)
    40f2:	0300                	addi	s0,sp,384
    40f4:	0508                	addi	a0,sp,640
    40f6:	0215                	addi	tp,tp,5 # 5 <__tbss_size+0x1>
    40f8:	0000                	unimp
    40fa:	cc04                	sw	s1,24(s0)
    40fc:	0006                	c.slli	zero,0x1
    40fe:	0200                	addi	s0,sp,256
    4100:	17d8                	addi	a4,sp,996
    4102:	00000047          	fmsub.s	ft0,ft0,ft0,ft0,rne
    4106:	58070803          	lb	a6,1408(a4)
    410a:	03000003          	lb	zero,48(zero) # 30 <__stack_align+0x20>
    410e:	0508                	addi	a0,sp,640
    4110:	0210                	addi	a2,sp,256
    4112:	0000                	unimp
    4114:	ce041003          	lh	zero,-800(s0)
    4118:	0002                	c.slli64	zero
    411a:	0300                	addi	s0,sp,384
    411c:	0601                	addi	a2,a2,0
    411e:	0045                	c.nop	17
    4120:	0000                	unimp
    4122:	43080103          	lb	sp,1072(a6)
    4126:	0000                	unimp
    4128:	0300                	addi	s0,sp,384
    412a:	0502                	c.slli64	a0
    412c:	0115                	addi	sp,sp,5
    412e:	0000                	unimp
    4130:	51070203          	lb	tp,1296(a4)
    4134:	0000                	unimp
    4136:	0300                	addi	s0,sp,384
    4138:	0704                	addi	s1,sp,896
    413a:	035d                	addi	t1,t1,23
    413c:	0000                	unimp
    413e:	da04                	sw	s1,48(a2)
    4140:	0002                	c.slli64	zero
    4142:	0300                	addi	s0,sp,384
    4144:	1969                	addi	s2,s2,-6 # ffa <__stack_align+0xfea>
    4146:	00000047          	fmsub.s	ft0,ft0,ft0,ft0,rne
    414a:	dd04                	sw	s1,56(a0)
    414c:	0001                	nop
    414e:	0300                	addi	s0,sp,384
    4150:	1ae8                	addi	a0,sp,380
    4152:	00000047          	fmsub.s	ft0,ft0,ft0,ft0,rne
    4156:	6704                	ld	s1,8(a4)
    4158:	0005                	c.nop	1
    415a:	0400                	addi	s0,sp,512
    415c:	0d0c                	addi	a1,sp,656
    415e:	002d                	c.nop	11
    4160:	0000                	unimp
    4162:	f704                	sd	s1,40(a4)
    4164:	05000007          	.insn	4, 0x05000007
    4168:	0e2c                	addi	a1,sp,792
    416a:	0034                	addi	a3,sp,8
    416c:	0000                	unimp
    416e:	3904                	fld	fs1,48(a0)
    4170:	0006                	c.slli	zero,0x1
    4172:	0500                	addi	s0,sp,640
    4174:	0e72                	slli	t3,t3,0x1c
    4176:	0034                	addi	a3,sp,8
    4178:	0000                	unimp
    417a:	ca04                	sw	s1,16(a2)
    417c:	0006                	c.slli	zero,0x1
    417e:	0500                	addi	s0,sp,640
    4180:	1791                	addi	a5,a5,-28
    4182:	0034                	addi	a3,sp,8
    4184:	0000                	unimp
    4186:	f505                	bnez	a0,40ae <__stack_align+0x409e>
    4188:	0004                	.insn	2, 0x0004
    418a:	0200                	addi	s0,sp,256
    418c:	0165                	addi	sp,sp,25
    418e:	00007817          	auipc	a6,0x7
    4192:	0600                	addi	s0,sp,768
    4194:	0504                	addi	s1,sp,640
    4196:	03a6                	slli	t2,t2,0x9
    4198:	00f6                	slli	ra,ra,0x1d
    419a:	0000                	unimp
    419c:	0004e807          	.insn	4, 0x0004e807
    41a0:	0500                	addi	s0,sp,640
    41a2:	0ca8                	addi	a0,sp,600
    41a4:	000000c7          	fmsub.s	ft1,ft0,ft0,ft0,rne
    41a8:	00048c07          	.insn	4, 0x00048c07
    41ac:	0500                	addi	s0,sp,640
    41ae:	13a9                	addi	t2,t2,-22
    41b0:	00f6                	slli	ra,ra,0x1d
    41b2:	0000                	unimp
    41b4:	0800                	addi	s0,sp,16
    41b6:	00000063          	beqz	zero,41b6 <__stack_align+0x41a6>
    41ba:	0106                	slli	sp,sp,0x1
    41bc:	0000                	unimp
    41be:	4709                	li	a4,2
    41c0:	0000                	unimp
    41c2:	0300                	addi	s0,sp,384
    41c4:	0a00                	addi	s0,sp,272
    41c6:	0508                	addi	a0,sp,640
    41c8:	012a09a3          	sb	s2,19(s4) # 67d81 <__heap_size+0x47d81>
    41cc:	0000                	unimp
    41ce:	0006230b          	.insn	4, 0x0006230b
    41d2:	0500                	addi	s0,sp,640
    41d4:	07a5                	addi	a5,a5,9
    41d6:	002d                	c.nop	11
    41d8:	0000                	unimp
    41da:	0b00                	addi	s0,sp,400
    41dc:	0000062b          	.insn	4, 0x062b
    41e0:	aa05                	j	4310 <__stack_align+0x4300>
    41e2:	d405                	beqz	s0,410a <__stack_align+0x40fa>
    41e4:	0000                	unimp
    41e6:	0400                	addi	s0,sp,512
    41e8:	0400                	addi	s0,sp,512
    41ea:	05a5                	addi	a1,a1,9
    41ec:	0000                	unimp
    41ee:	ab05                	j	471e <__stack_align+0x470e>
    41f0:	00010603          	lb	a2,0(sp)
    41f4:	0400                	addi	s0,sp,512
    41f6:	0000044f          	fnmadd.s	fs0,ft0,ft0,ft0,rne
    41fa:	af05                	j	492a <__stack_align+0x491a>
    41fc:	0000971b          	slliw	a4,ra,0x0
    4200:	0c00                	addi	s0,sp,528
    4202:	0d08                	addi	a0,sp,656
    4204:	4a08                	lw	a0,16(a2)
    4206:	0001                	nop
    4208:	0300                	addi	s0,sp,384
    420a:	0801                	addi	a6,a6,0 # b18e <__stack_size+0x318e>
    420c:	004c                	addi	a1,sp,4
    420e:	0000                	unimp
    4210:	4a0e                	lw	s4,192(sp)
    4212:	0001                	nop
    4214:	0400                	addi	s0,sp,512
    4216:	0679                	addi	a2,a2,30
    4218:	0000                	unimp
    421a:	1906                	slli	s2,s2,0x21
    421c:	7819                	lui	a6,0xfffe6
    421e:	0000                	unimp
    4220:	0f00                	addi	s0,sp,912
    4222:	0460                	addi	s0,sp,524
    4224:	0000                	unimp
    4226:	0620                	addi	s0,sp,776
    4228:	01bc082f          	.insn	4, 0x01bc082f
    422c:	0000                	unimp
    422e:	0005c60b          	.insn	4, 0x0005c60b
    4232:	0600                	addi	s0,sp,768
    4234:	1331                	addi	t1,t1,-20
    4236:	01bc                	addi	a5,sp,200
    4238:	0000                	unimp
    423a:	1000                	addi	s0,sp,32
    423c:	6b5f 0600 0732      	.insn	6, 0x073206006b5f
    4242:	002d                	c.nop	11
    4244:	0000                	unimp
    4246:	0b08                	addi	a0,sp,400
    4248:	060e                	slli	a2,a2,0x3
    424a:	0000                	unimp
    424c:	3206                	fld	ft4,96(sp)
    424e:	00002d0b          	.insn	4, 0x2d0b
    4252:	0c00                	addi	s0,sp,528
    4254:	0004490b          	.insn	4, 0x0004490b
    4258:	0600                	addi	s0,sp,768
    425a:	1432                	slli	s0,s0,0x2c
    425c:	002d                	c.nop	11
    425e:	0000                	unimp
    4260:	0b10                	addi	a2,sp,400
    4262:	06b5                	addi	a3,a3,13
    4264:	0000                	unimp
    4266:	3206                	fld	ft4,96(sp)
    4268:	00002d1b          	.insn	4, 0x2d1b
    426c:	1400                	addi	s0,sp,544
    426e:	5f10                	lw	a2,56(a4)
    4270:	0078                	addi	a4,sp,12
    4272:	3306                	fld	ft6,96(sp)
    4274:	0001c20b          	.insn	4, 0x0001c20b
    4278:	1800                	addi	s0,sp,48
    427a:	0d00                	addi	s0,sp,656
    427c:	6208                	ld	a0,0(a2)
    427e:	0001                	nop
    4280:	0800                	addi	s0,sp,16
    4282:	0156                	slli	sp,sp,0x15
    4284:	0000                	unimp
    4286:	01d2                	slli	gp,gp,0x14
    4288:	0000                	unimp
    428a:	4709                	li	a4,2
    428c:	0000                	unimp
    428e:	0000                	unimp
    4290:	0f00                	addi	s0,sp,912
    4292:	00000487          	.insn	4, 0x0487
    4296:	0624                	addi	s1,sp,776
    4298:	02550837          	lui	a6,0x2550
    429c:	0000                	unimp
    429e:	00039b0b          	.insn	4, 0x00039b0b
    42a2:	0600                	addi	s0,sp,768
    42a4:	0939                	addi	s2,s2,14
    42a6:	002d                	c.nop	11
    42a8:	0000                	unimp
    42aa:	0b00                	addi	s0,sp,400
    42ac:	0641                	addi	a2,a2,16
    42ae:	0000                	unimp
    42b0:	3a06                	fld	fs4,96(sp)
    42b2:	2d09                	addiw	s10,s10,2 # 64d62 <__heap_size+0x44d62>
    42b4:	0000                	unimp
    42b6:	0400                	addi	s0,sp,512
    42b8:	0003b00b          	.insn	4, 0x0003b00b
    42bc:	0600                	addi	s0,sp,768
    42be:	002d093b          	addw	s2,s10,sp
    42c2:	0000                	unimp
    42c4:	0b08                	addi	a0,sp,400
    42c6:	0739                	addi	a4,a4,14
    42c8:	0000                	unimp
    42ca:	3c06                	fld	fs8,96(sp)
    42cc:	2d09                	addiw	s10,s10,2
    42ce:	0000                	unimp
    42d0:	0c00                	addi	s0,sp,528
    42d2:	0005330b          	.insn	4, 0x0005330b
    42d6:	0600                	addi	s0,sp,768
    42d8:	093d                	addi	s2,s2,15
    42da:	002d                	c.nop	11
    42dc:	0000                	unimp
    42de:	0b10                	addi	a2,sp,400
    42e0:	0000050b          	.insn	4, 0x050b
    42e4:	3e06                	fld	ft8,96(sp)
    42e6:	2d09                	addiw	s10,s10,2
    42e8:	0000                	unimp
    42ea:	1400                	addi	s0,sp,544
    42ec:	0006ba0b          	.insn	4, 0x0006ba0b
    42f0:	0600                	addi	s0,sp,768
    42f2:	002d093f 0b180000 	.insn	8, 0x0b180000002d093f
    42fa:	00000587          	.insn	4, 0x0587
    42fe:	4006                	.insn	2, 0x4006
    4300:	2d09                	addiw	s10,s10,2
    4302:	0000                	unimp
    4304:	1c00                	addi	s0,sp,560
    4306:	0007000b          	.insn	4, 0x0007000b
    430a:	0600                	addi	s0,sp,768
    430c:	0941                	addi	s2,s2,16
    430e:	002d                	c.nop	11
    4310:	0000                	unimp
    4312:	0020                	addi	s0,sp,8
    4314:	bf11                	j	4228 <__stack_align+0x4218>
    4316:	08000003          	lb	zero,128(zero) # 80 <__stack_align+0x70>
    431a:	0602                	c.slli64	a2
    431c:	084a                	slli	a6,a6,0x12
    431e:	0000029b          	sext.w	t0,zero
    4322:	0004300b          	.insn	4, 0x0004300b
    4326:	0600                	addi	s0,sp,768
    4328:	029b0a4b          	fnmsub.d	fs4,fs6,fs1,ft0,rne
    432c:	0000                	unimp
    432e:	1200                	addi	s0,sp,288
    4330:	0314                	addi	a3,sp,384
    4332:	0000                	unimp
    4334:	4c06                	lw	s8,64(sp)
    4336:	9b09                	andi	a4,a4,-30
    4338:	0002                	c.slli64	zero
    433a:	0000                	unimp
    433c:	1201                	addi	tp,tp,-32 # ffffffffffffffe0 <__heap_end+0xffffffff7ffdcfe0>
    433e:	0000066b          	.insn	4, 0x066b
    4342:	4e06                	lw	t3,64(sp)
    4344:	560a                	lw	a2,160(sp)
    4346:	0001                	nop
    4348:	0000                	unimp
    434a:	1202                	slli	tp,tp,0x20
    434c:	03e4                	addi	s1,sp,460
    434e:	0000                	unimp
    4350:	5106                	lw	sp,96(sp)
    4352:	560a                	lw	a2,160(sp)
    4354:	0001                	nop
    4356:	0400                	addi	s0,sp,512
    4358:	0002                	c.slli64	zero
    435a:	4208                	lw	a0,0(a2)
    435c:	0001                	nop
    435e:	ab00                	fsd	fs0,16(a4)
    4360:	0002                	c.slli64	zero
    4362:	0900                	addi	s0,sp,144
    4364:	00000047          	fmsub.s	ft0,ft0,ft0,ft0,rne
    4368:	001f 3c11 0005      	.insn	6, 0x00053c11001f
    436e:	1800                	addi	s0,sp,48
    4370:	085d0603          	lb	a2,133(s10)
    4374:	000002ef          	jal	t0,4374 <__stack_align+0x4364>
    4378:	0005c60b          	.insn	4, 0x0005c60b
    437c:	0600                	addi	s0,sp,768
    437e:	125e                	slli	tp,tp,0x37
    4380:	000002ef          	jal	t0,4380 <__stack_align+0x4370>
    4384:	0b00                	addi	s0,sp,400
    4386:	05de                	slli	a1,a1,0x17
    4388:	0000                	unimp
    438a:	5f06                	lw	t5,96(sp)
    438c:	2d06                	fld	fs10,64(sp)
    438e:	0000                	unimp
    4390:	0800                	addi	s0,sp,16
    4392:	0004440b          	.insn	4, 0x0004440b
    4396:	0600                	addi	s0,sp,768
    4398:	0961                	addi	s2,s2,24
    439a:	02f5                	addi	t0,t0,29
    439c:	0000                	unimp
    439e:	1210                	addi	a2,sp,288
    43a0:	000003bf 551e6206 	.insn	8, 0x551e6206000003bf
    43a8:	0002                	c.slli64	zero
    43aa:	1000                	addi	s0,sp,32
    43ac:	0001                	nop
    43ae:	080d                	addi	a6,a6,3 # 2550003 <__heap_size+0x2530003>
    43b0:	000002ab          	.insn	4, 0x02ab
    43b4:	0508                	addi	a0,sp,640
    43b6:	05000003          	lb	zero,80(zero) # 50 <__stack_align+0x40>
    43ba:	09000003          	lb	zero,144(zero) # 90 <__stack_align+0x80>
    43be:	00000047          	fmsub.s	ft0,ft0,ft0,ft0,rne
    43c2:	001f 080d 030b      	.insn	6, 0x030b080d001f
    43c8:	0000                	unimp
    43ca:	05910f13          	addi	t5,sp,89
    43ce:	0000                	unimp
    43d0:	0610                	addi	a2,sp,768
    43d2:	0875                	addi	a6,a6,29
    43d4:	0334                	addi	a3,sp,392
    43d6:	0000                	unimp
    43d8:	0003aa0b          	.insn	4, 0x0003aa0b
    43dc:	0600                	addi	s0,sp,768
    43de:	1176                	slli	sp,sp,0x3d
    43e0:	0334                	addi	a3,sp,392
    43e2:	0000                	unimp
    43e4:	0b00                	addi	s0,sp,400
    43e6:	03fa                	slli	t2,t2,0x1e
    43e8:	0000                	unimp
    43ea:	7706                	ld	a4,96(sp)
    43ec:	2d06                	fld	fs10,64(sp)
    43ee:	0000                	unimp
    43f0:	0800                	addi	s0,sp,16
    43f2:	0d00                	addi	s0,sp,656
    43f4:	6308                	ld	a0,0(a4)
    43f6:	0000                	unimp
    43f8:	0f00                	addi	s0,sp,912
    43fa:	05b0                	addi	a2,sp,712
    43fc:	0000                	unimp
    43fe:	06b0                	addi	a2,sp,840
    4400:	08b5                	addi	a7,a7,13
    4402:	047d                	addi	s0,s0,31
    4404:	0000                	unimp
    4406:	5f10                	lw	a2,56(a4)
    4408:	0070                	addi	a2,sp,12
    440a:	b606                	fsd	ft1,296(sp)
    440c:	3412                	fld	fs0,288(sp)
    440e:	00000003          	lb	zero,0(zero) # 0 <__boot_hart>
    4412:	5f10                	lw	a2,56(a4)
    4414:	0072                	c.slli	zero,0x1c
    4416:	b706                	fsd	ft1,424(sp)
    4418:	00002d07          	flw	fs10,0(zero) # 0 <__boot_hart>
    441c:	0800                	addi	s0,sp,16
    441e:	5f10                	lw	a2,56(a4)
    4420:	b8060077          	.insn	4, 0xb8060077
    4424:	00002d07          	flw	fs10,0(zero) # 0 <__boot_hart>
    4428:	0c00                	addi	s0,sp,528
    442a:	0003dd0b          	.insn	4, 0x0003dd0b
    442e:	0600                	addi	s0,sp,768
    4430:	09b9                	addi	s3,s3,14
    4432:	006a                	c.slli	zero,0x1a
    4434:	0000                	unimp
    4436:	0b10                	addi	a2,sp,400
    4438:	000004a3          	sb	zero,9(zero) # 9 <__tcb_size+0x3>
    443c:	ba06                	fsd	ft1,304(sp)
    443e:	6a09                	lui	s4,0x2
    4440:	0000                	unimp
    4442:	1200                	addi	s0,sp,288
    4444:	5f10                	lw	a2,56(a4)
    4446:	6662                	ld	a2,24(sp)
    4448:	0600                	addi	s0,sp,768
    444a:	030c11bb          	.insn	4, 0x030c11bb
    444e:	0000                	unimp
    4450:	0b18                	addi	a4,sp,400
    4452:	036a                	slli	t1,t1,0x1a
    4454:	0000                	unimp
    4456:	bc06                	fsd	ft1,56(sp)
    4458:	00002d07          	flw	fs10,0(zero) # 0 <__boot_hart>
    445c:	2800                	fld	fs0,16(s0)
    445e:	0003cd0b          	.insn	4, 0x0003cd0b
    4462:	0600                	addi	s0,sp,768
    4464:	01420ac3          	fmadd.s	fs5,ft4,fs4,ft0,rne
    4468:	0000                	unimp
    446a:	0b30                	addi	a2,sp,408
    446c:	00000477          	.insn	4, 0x0477
    4470:	c506                	sw	ra,136(sp)
    4472:	ef1d                	bnez	a4,44b0 <__stack_align+0x44a0>
    4474:	0005                	c.nop	1
    4476:	3800                	fld	fs0,48(s0)
    4478:	0005040b          	.insn	4, 0x0005040b
    447c:	0600                	addi	s0,sp,768
    447e:	061e1dc7          	.insn	4, 0x061e1dc7
    4482:	0000                	unimp
    4484:	0b40                	addi	s0,sp,404
    4486:	00000633          	add	a2,zero,zero
    448a:	ca06                	sw	ra,20(sp)
    448c:	420d                	li	tp,3
    448e:	0006                	c.slli	zero,0x1
    4490:	4800                	lw	s0,16(s0)
    4492:	00071a0b          	.insn	4, 0x00071a0b
    4496:	0600                	addi	s0,sp,768
    4498:	065c09cb          	.insn	4, 0x065c09cb
    449c:	0000                	unimp
    449e:	1050                	addi	a2,sp,36
    44a0:	755f 0062 ce06      	.insn	6, 0xce060062755f
    44a6:	0c11                	addi	s8,s8,4 # 55ef6 <__heap_size+0x35ef6>
    44a8:	58000003          	lb	zero,1408(zero) # 580 <__stack_align+0x570>
    44ac:	5f10                	lw	a2,56(a4)
    44ae:	7075                	c.lui	zero,0xffffd
    44b0:	0600                	addi	s0,sp,768
    44b2:	033412cf          	fnmadd.d	ft5,fs0,fs3,ft0,rtz
    44b6:	0000                	unimp
    44b8:	1068                	addi	a0,sp,44
    44ba:	755f 0072 d006      	.insn	6, 0xd0060072755f
    44c0:	00002d07          	flw	fs10,0(zero) # 0 <__boot_hart>
    44c4:	7000                	ld	s0,32(s0)
    44c6:	0003a40b          	.insn	4, 0x0003a40b
    44ca:	0600                	addi	s0,sp,768
    44cc:	066211d3          	.insn	4, 0x066211d3
    44d0:	0000                	unimp
    44d2:	0b74                	addi	a3,sp,412
    44d4:	06f2                	slli	a3,a3,0x1c
    44d6:	0000                	unimp
    44d8:	d406                	sw	ra,40(sp)
    44da:	7211                	lui	tp,0xfffe4
    44dc:	0006                	c.slli	zero,0x1
    44de:	7700                	ld	s0,40(a4)
    44e0:	5f10                	lw	a2,56(a4)
    44e2:	626c                	ld	a1,192(a2)
    44e4:	0600                	addi	s0,sp,768
    44e6:	030c11d7          	.insn	4, 0x030c11d7
    44ea:	0000                	unimp
    44ec:	0b78                	addi	a4,sp,412
    44ee:	0400                	addi	s0,sp,512
    44f0:	0000                	unimp
    44f2:	da06                	sw	ra,52(sp)
    44f4:	00002d07          	flw	fs10,0(zero) # 0 <__boot_hart>
    44f8:	8800                	.insn	2, 0x8800
    44fa:	0005240b          	.insn	4, 0x0005240b
    44fe:	0600                	addi	s0,sp,768
    4500:	00a30adb          	.insn	4, 0x00a30adb
    4504:	0000                	unimp
    4506:	0b90                	addi	a2,sp,464
    4508:	000001b3          	add	gp,zero,zero
    450c:	de06                	sw	ra,60(sp)
    450e:	9b12                	add	s6,s6,tp
    4510:	0004                	.insn	2, 0x0004
    4512:	9800                	.insn	2, 0x9800
    4514:	0007610b          	.insn	4, 0x0007610b
    4518:	0600                	addi	s0,sp,768
    451a:	0ce2                	slli	s9,s9,0x18
    451c:	0136                	slli	sp,sp,0xd
    451e:	0000                	unimp
    4520:	0ba0                	addi	s0,sp,472
    4522:	05b8                	addi	a4,sp,712
    4524:	0000                	unimp
    4526:	e406                	sd	ra,8(sp)
    4528:	2a0e                	fld	fs4,192(sp)
    452a:	0001                	nop
    452c:	a400                	fsd	fs0,8(s0)
    452e:	0004fc0b          	.insn	4, 0x0004fc0b
    4532:	0600                	addi	s0,sp,768
    4534:	09e5                	addi	s3,s3,25
    4536:	002d                	c.nop	11
    4538:	0000                	unimp
    453a:	00ac                	addi	a1,sp,72
    453c:	bb14                	fsd	fa3,48(a4)
    453e:	0000                	unimp
    4540:	9b00                	.insn	2, 0x9b00
    4542:	0004                	.insn	2, 0x0004
    4544:	1500                	addi	s0,sp,672
    4546:	0000049b          	sext.w	s1,zero
    454a:	4215                	li	tp,5
    454c:	0001                	nop
    454e:	1500                	addi	s0,sp,672
    4550:	0144                	addi	s1,sp,132
    4552:	0000                	unimp
    4554:	2d15                	addiw	s10,s10,5
    4556:	0000                	unimp
    4558:	0000                	unimp
    455a:	080d                	addi	a6,a6,3
    455c:	04a6                	slli	s1,s1,0x9
    455e:	0000                	unimp
    4560:	9b0e                	add	s6,s6,gp
    4562:	0004                	.insn	2, 0x0004
    4564:	1600                	addi	s0,sp,800
    4566:	0616                	slli	a2,a2,0x5
    4568:	0000                	unimp
    456a:	0748                	addi	a0,sp,900
    456c:	3906                	fld	fs2,96(sp)
    456e:	0802                	c.slli64	a6
    4570:	000005ef          	jal	a1,4570 <__stack_align+0x4560>
    4574:	0007c917          	auipc	s2,0x7c
    4578:	0600                	addi	s0,sp,768
    457a:	2d07023b          	.insn	4, 0x2d07023b
    457e:	0000                	unimp
    4580:	0000                	unimp
    4582:	0003ec17          	auipc	s8,0x3e
    4586:	0600                	addi	s0,sp,768
    4588:	0240                	addi	s0,sp,260
    458a:	0006ce0b          	.insn	4, 0x0006ce0b
    458e:	0800                	addi	s0,sp,16
    4590:	00049317          	auipc	t1,0x49
    4594:	0600                	addi	s0,sp,768
    4596:	0240                	addi	s0,sp,260
    4598:	ce14                	sw	a3,24(a2)
    459a:	0006                	c.slli	zero,0x1
    459c:	1000                	addi	s0,sp,32
    459e:	00045817          	auipc	a6,0x45
    45a2:	0600                	addi	s0,sp,768
    45a4:	0240                	addi	s0,sp,260
    45a6:	ce1e                	sw	t2,28(sp)
    45a8:	0006                	c.slli	zero,0x1
    45aa:	1800                	addi	s0,sp,48
    45ac:	0005d917          	auipc	s2,0x5d
    45b0:	0600                	addi	s0,sp,768
    45b2:	0242                	slli	tp,tp,0x10
    45b4:	2d08                	fld	fa0,24(a0)
    45b6:	0000                	unimp
    45b8:	2000                	fld	fs0,0(s0)
    45ba:	00032817          	auipc	a6,0x32
    45be:	0600                	addi	s0,sp,768
    45c0:	d7080243          	.insn	4, 0xd7080243
    45c4:	0008                	.insn	2, 0x0008
    45c6:	2400                	fld	fs0,8(s0)
    45c8:	0005f517          	auipc	a0,0x5f
    45cc:	0600                	addi	s0,sp,768
    45ce:	0246                	slli	tp,tp,0x11
    45d0:	00002d07          	flw	fs10,0(zero) # 0 <__boot_hart>
    45d4:	4000                	lw	s0,0(s0)
    45d6:	0005e317          	auipc	t1,0x5e
    45da:	0600                	addi	s0,sp,768
    45dc:	ec160247          	.insn	4, 0xec160247
    45e0:	0008                	.insn	2, 0x0008
    45e2:	4800                	lw	s0,16(s0)
    45e4:	00054417          	auipc	s0,0x54
    45e8:	0600                	addi	s0,sp,768
    45ea:	0249                	addi	tp,tp,18 # fffffffffffe4012 <__heap_end+0xffffffff7ffc1012>
    45ec:	00002d07          	flw	fs10,0(zero) # 0 <__boot_hart>
    45f0:	5000                	lw	s0,32(s0)
    45f2:	0005eb17          	auipc	s6,0x5e
    45f6:	0600                	addi	s0,sp,768
    45f8:	fd0a024b          	.insn	4, 0xfd0a024b
    45fc:	0008                	.insn	2, 0x0008
    45fe:	5800                	lw	s0,48(s0)
    4600:	0004e017          	auipc	zero,0x4e
    4604:	0600                	addi	s0,sp,768
    4606:	024e                	slli	tp,tp,0x13
    4608:	0001bc13          	sltiu	s8,gp,0
    460c:	6000                	ld	s0,0(s0)
    460e:	00047d17          	auipc	s10,0x47
    4612:	0600                	addi	s0,sp,768
    4614:	2d07024f          	.insn	4, 0x2d07024f
    4618:	0000                	unimp
    461a:	6800                	ld	s0,16(s0)
    461c:	00073417          	auipc	s0,0x73
    4620:	0600                	addi	s0,sp,768
    4622:	0250                	addi	a2,sp,260
    4624:	0001bc13          	sltiu	s8,gp,0
    4628:	7000                	ld	s0,32(s0)
    462a:	00054f17          	auipc	t5,0x54
    462e:	0600                	addi	s0,sp,768
    4630:	0251                	addi	tp,tp,20 # 14 <__stack_align+0x4>
    4632:	0314                	addi	a3,sp,384
    4634:	0009                	c.nop	2
    4636:	7800                	ld	s0,48(s0)
    4638:	00049b17          	auipc	s6,0x49
    463c:	0600                	addi	s0,sp,768
    463e:	0254                	addi	a3,sp,260
    4640:	00002d07          	flw	fs10,0(zero) # 0 <__boot_hart>
    4644:	8000                	.insn	2, 0x8000
    4646:	00040917          	auipc	s2,0x40
    464a:	0600                	addi	s0,sp,768
    464c:	0255                	addi	tp,tp,21 # 15 <__stack_align+0x5>
    464e:	4409                	li	s0,2
    4650:	0001                	nop
    4652:	8800                	.insn	2, 0x8800
    4654:	00057917          	auipc	s2,0x57
    4658:	0600                	addi	s0,sp,768
    465a:	0278                	addi	a4,sp,268
    465c:	0008b107          	fld	ft2,0(a7)
    4660:	9000                	.insn	2, 0x9000
    4662:	3c18                	fld	fa4,56(s0)
    4664:	0005                	c.nop	1
    4666:	0600                	addi	s0,sp,768
    4668:	027c                	addi	a5,sp,268
    466a:	0002ef13          	ori	t5,t0,0
    466e:	f800                	sd	s0,48(s0)
    4670:	1801                	addi	a6,a6,-32 # 3659a <__heap_size+0x1659a>
    4672:	04be                	slli	s1,s1,0xf
    4674:	0000                	unimp
    4676:	7d06                	ld	s10,96(sp)
    4678:	1202                	slli	tp,tp,0x20
    467a:	000002ab          	.insn	4, 0x02ab
    467e:	0200                	addi	s0,sp,256
    4680:	e818                	sd	a4,16(s0)
    4682:	0006                	c.slli	zero,0x1
    4684:	0600                	addi	s0,sp,768
    4686:	0281                	addi	t0,t0,0
    4688:	140c                	addi	a1,sp,544
    468a:	0009                	c.nop	2
    468c:	1800                	addi	s0,sp,48
    468e:	1805                	addi	a6,a6,-31
    4690:	03d5                	addi	t2,t2,21
    4692:	0000                	unimp
    4694:	8606                	mv	a2,ra
    4696:	1002                	c.slli	zero,0x20
    4698:	0000068f          	.insn	4, 0x068f
    469c:	0520                	addi	s0,sp,648
    469e:	ba18                	fsd	fa4,48(a2)
    46a0:	06000003          	lb	zero,96(zero) # 60 <__stack_align+0x50>
    46a4:	0288                	addi	a0,sp,320
    46a6:	200a                	fld	ft0,128(sp)
    46a8:	0009                	c.nop	2
    46aa:	3800                	fld	fs0,48(s0)
    46ac:	0005                	c.nop	1
    46ae:	080d                	addi	a6,a6,3
    46b0:	047d                	addi	s0,s0,31 # 7763b <__heap_size+0x5763b>
    46b2:	0000                	unimp
    46b4:	bb14                	fsd	fa3,48(a4)
    46b6:	0000                	unimp
    46b8:	1300                	addi	s0,sp,416
    46ba:	0006                	c.slli	zero,0x1
    46bc:	1500                	addi	s0,sp,672
    46be:	0000049b          	sext.w	s1,zero
    46c2:	4215                	li	tp,5
    46c4:	0001                	nop
    46c6:	1500                	addi	s0,sp,672
    46c8:	00000613          	li	a2,0
    46cc:	2d15                	addiw	s10,s10,5 # 4b613 <__heap_size+0x2b613>
    46ce:	0000                	unimp
    46d0:	0000                	unimp
    46d2:	080d                	addi	a6,a6,3
    46d4:	0151                	addi	sp,sp,20
    46d6:	0000                	unimp
    46d8:	130e                	slli	t1,t1,0x23
    46da:	0006                	c.slli	zero,0x1
    46dc:	0d00                	addi	s0,sp,656
    46de:	f508                	sd	a0,40(a0)
    46e0:	0005                	c.nop	1
    46e2:	1400                	addi	s0,sp,544
    46e4:	000000af          	.insn	4, 0x00af
    46e8:	0642                	slli	a2,a2,0x10
    46ea:	0000                	unimp
    46ec:	9b15                	andi	a4,a4,-27
    46ee:	0004                	.insn	2, 0x0004
    46f0:	1500                	addi	s0,sp,672
    46f2:	0142                	slli	sp,sp,0x10
    46f4:	0000                	unimp
    46f6:	af15                	j	4e2a <__stack_align+0x4e1a>
    46f8:	0000                	unimp
    46fa:	1500                	addi	s0,sp,672
    46fc:	002d                	c.nop	11
    46fe:	0000                	unimp
    4700:	0d00                	addi	s0,sp,656
    4702:	2408                	fld	fa0,8(s0)
    4704:	0006                	c.slli	zero,0x1
    4706:	1400                	addi	s0,sp,544
    4708:	002d                	c.nop	11
    470a:	0000                	unimp
    470c:	065c                	addi	a5,sp,772
    470e:	0000                	unimp
    4710:	9b15                	andi	a4,a4,-27
    4712:	0004                	.insn	2, 0x0004
    4714:	1500                	addi	s0,sp,672
    4716:	0142                	slli	sp,sp,0x10
    4718:	0000                	unimp
    471a:	0d00                	addi	s0,sp,656
    471c:	4808                	lw	a0,16(s0)
    471e:	0006                	c.slli	zero,0x1
    4720:	0800                	addi	s0,sp,16
    4722:	00000063          	beqz	zero,4722 <__stack_align+0x4712>
    4726:	0672                	slli	a2,a2,0x1c
    4728:	0000                	unimp
    472a:	4709                	li	a4,2
    472c:	0000                	unimp
    472e:	0200                	addi	s0,sp,256
    4730:	0800                	addi	s0,sp,16
    4732:	00000063          	beqz	zero,4732 <__stack_align+0x4722>
    4736:	0682                	c.slli64	a3
    4738:	0000                	unimp
    473a:	4709                	li	a4,2
    473c:	0000                	unimp
    473e:	0000                	unimp
    4740:	0500                	addi	s0,sp,640
    4742:	059e                	slli	a1,a1,0x7
    4744:	0000                	unimp
    4746:	1f06                	slli	t5,t5,0x21
    4748:	1a01                	addi	s4,s4,-32 # 1fe0 <__stack_align+0x1fd0>
    474a:	033a                	slli	t1,t1,0xe
    474c:	0000                	unimp
    474e:	c419                	beqz	s0,475c <__stack_align+0x474c>
    4750:	0006                	c.slli	zero,0x1
    4752:	1800                	addi	s0,sp,48
    4754:	2306                	fld	ft6,64(sp)
    4756:	0801                	addi	a6,a6,0
    4758:	06c8                	addi	a0,sp,836
    475a:	0000                	unimp
    475c:	0005c617          	auipc	a2,0x5c
    4760:	0600                	addi	s0,sp,768
    4762:	0125                	addi	sp,sp,9
    4764:	c811                	beqz	s0,4778 <__stack_align+0x4768>
    4766:	0006                	c.slli	zero,0x1
    4768:	0000                	unimp
    476a:	0004b717          	auipc	a4,0x4b
    476e:	0600                	addi	s0,sp,768
    4770:	0126                	slli	sp,sp,0x9
    4772:	00002d07          	flw	fs10,0(zero) # 0 <__boot_hart>
    4776:	0800                	addi	s0,sp,16
    4778:	00059817          	auipc	a6,0x59
    477c:	0600                	addi	s0,sp,768
    477e:	ce0b0127          	.insn	4, 0xce0b0127
    4782:	0006                	c.slli	zero,0x1
    4784:	1000                	addi	s0,sp,32
    4786:	0d00                	addi	s0,sp,656
    4788:	8f08                	.insn	2, 0x8f08
    478a:	0006                	c.slli	zero,0x1
    478c:	0d00                	addi	s0,sp,656
    478e:	8208                	.insn	2, 0x8208
    4790:	0006                	c.slli	zero,0x1
    4792:	1900                	addi	s0,sp,176
    4794:	0320                	addi	s0,sp,392
    4796:	0000                	unimp
    4798:	060e                	slli	a2,a2,0x3
    479a:	0d08013f 17000007 	.insn	8, 0x170000070d08013f
    47a2:	061d                	addi	a2,a2,7 # 60763 <__heap_size+0x40763>
    47a4:	0000                	unimp
    47a6:	4006                	.insn	2, 0x4006
    47a8:	1201                	addi	tp,tp,-32 # ffffffffffffffe0 <__heap_end+0xffffffff7ffdcfe0>
    47aa:	070d                	addi	a4,a4,3 # 4f76d <__heap_size+0x2f76d>
    47ac:	0000                	unimp
    47ae:	1700                	addi	s0,sp,928
    47b0:	064a                	slli	a2,a2,0x12
    47b2:	0000                	unimp
    47b4:	4106                	lw	sp,64(sp)
    47b6:	1201                	addi	tp,tp,-32 # ffffffffffffffe0 <__heap_end+0xffffffff7ffdcfe0>
    47b8:	070d                	addi	a4,a4,3
    47ba:	0000                	unimp
    47bc:	1706                	slli	a4,a4,0x21
    47be:	0674                	addi	a3,sp,780
    47c0:	0000                	unimp
    47c2:	4206                	lw	tp,64(sp)
    47c4:	1201                	addi	tp,tp,-32 # ffffffffffffffe0 <__heap_end+0xffffffff7ffdcfe0>
    47c6:	0071                	c.nop	28
    47c8:	0000                	unimp
    47ca:	000c                	.insn	2, 0x000c
    47cc:	7108                	ld	a0,32(a0)
    47ce:	0000                	unimp
    47d0:	1d00                	addi	s0,sp,688
    47d2:	09000007          	.insn	4, 0x09000007
    47d6:	00000047          	fmsub.s	ft0,ft0,ft0,ft0,rne
    47da:	0002                	c.slli64	zero
    47dc:	d81a                	sw	t1,48(sp)
    47de:	5906                	lw	s2,96(sp)
    47e0:	0702                	c.slli64	a4
    47e2:	0832                	slli	a6,a6,0xc
    47e4:	0000                	unimp
    47e6:	0006a817          	auipc	a6,0x6a
    47ea:	0600                	addi	s0,sp,768
    47ec:	7818025b          	.insn	4, 0x7818025b
    47f0:	0000                	unimp
    47f2:	0000                	unimp
    47f4:	00065e17          	auipc	t3,0x65
    47f8:	0600                	addi	s0,sp,768
    47fa:	025c                	addi	a5,sp,260
    47fc:	4412                	lw	s0,4(sp)
    47fe:	0001                	nop
    4800:	0800                	addi	s0,sp,16
    4802:	0004d317          	auipc	t1,0x4d
    4806:	0600                	addi	s0,sp,768
    4808:	025d                	addi	tp,tp,23 # 17 <__stack_align+0x7>
    480a:	3210                	fld	fa2,32(a2)
    480c:	0008                	.insn	2, 0x0008
    480e:	1000                	addi	s0,sp,32
    4810:	00070b17          	auipc	s6,0x70
    4814:	0600                	addi	s0,sp,768
    4816:	025e                	slli	tp,tp,0x17
    4818:	0001d217          	auipc	tp,0x1d
    481c:	2c00                	fld	fs0,24(s0)
    481e:	00046817          	auipc	a6,0x46
    4822:	0600                	addi	s0,sp,768
    4824:	025f 2d0f 0000      	.insn	6, 0x2d0f025f
    482a:	5000                	lw	s0,32(s0)
    482c:	0005c117          	auipc	sp,0x5c
    4830:	0600                	addi	s0,sp,768
    4832:	0260                	addi	s0,sp,268
    4834:	422c                	lw	a1,64(a2)
    4836:	0008                	.insn	2, 0x0008
    4838:	5800                	lw	s0,48(s0)
    483a:	00072117          	auipc	sp,0x72
    483e:	0600                	addi	s0,sp,768
    4840:	0261                	addi	tp,tp,24 # 21830 <__heap_size+0x1830>
    4842:	d41a                	sw	t1,40(sp)
    4844:	0006                	c.slli	zero,0x1
    4846:	6000                	ld	s0,0(s0)
    4848:	0005cc17          	auipc	s8,0x5c
    484c:	0600                	addi	s0,sp,768
    484e:	0262                	slli	tp,tp,0x18
    4850:	2a16                	fld	fs4,320(sp)
    4852:	0001                	nop
    4854:	7000                	ld	s0,32(s0)
    4856:	00072617          	auipc	a2,0x72
    485a:	0600                	addi	s0,sp,768
    485c:	2a160263          	beq	a2,ra,4b00 <__stack_align+0x4af0>
    4860:	0001                	nop
    4862:	7800                	ld	s0,48(s0)
    4864:	00038d17          	auipc	s10,0x38
    4868:	0600                	addi	s0,sp,768
    486a:	0264                	addi	s1,sp,268
    486c:	2a16                	fld	fs4,320(sp)
    486e:	0001                	nop
    4870:	8000                	.insn	2, 0x8000
    4872:	0006d317          	auipc	t1,0x6d
    4876:	0600                	addi	s0,sp,768
    4878:	0265                	addi	tp,tp,25 # 19 <__stack_align+0x9>
    487a:	4910                	lw	a2,16(a0)
    487c:	0008                	.insn	2, 0x0008
    487e:	8800                	.insn	2, 0x8800
    4880:	0004c717          	auipc	a4,0x4c
    4884:	0600                	addi	s0,sp,768
    4886:	0266                	slli	tp,tp,0x19
    4888:	5910                	lw	a2,48(a0)
    488a:	0008                	.insn	2, 0x0008
    488c:	9000                	.insn	2, 0x9000
    488e:	00068117          	auipc	sp,0x68
    4892:	0600                	addi	s0,sp,768
    4894:	2d0f0267          	jalr	tp,720(t5) # 588fa <__heap_size+0x388fa>
    4898:	0000                	unimp
    489a:	a800                	fsd	fs0,16(s0)
    489c:	00042217          	auipc	tp,0x42
    48a0:	0600                	addi	s0,sp,768
    48a2:	0268                	addi	a0,sp,268
    48a4:	2a16                	fld	fs4,320(sp)
    48a6:	0001                	nop
    48a8:	ac00                	fsd	fs0,24(s0)
    48aa:	00037e17          	auipc	t3,0x37
    48ae:	0600                	addi	s0,sp,768
    48b0:	0269                	addi	tp,tp,26 # 468b6 <__heap_size+0x268b6>
    48b2:	2a16                	fld	fs4,320(sp)
    48b4:	0001                	nop
    48b6:	b400                	fsd	fs0,40(s0)
    48b8:	00041117          	auipc	sp,0x41
    48bc:	0600                	addi	s0,sp,768
    48be:	026a                	slli	tp,tp,0x1a
    48c0:	2a16                	fld	fs4,320(sp)
    48c2:	0001                	nop
    48c4:	bc00                	fsd	fs0,56(s0)
    48c6:	00033317          	auipc	t1,0x33
    48ca:	0600                	addi	s0,sp,768
    48cc:	2a16026b          	.insn	4, 0x2a16026b
    48d0:	0001                	nop
    48d2:	c400                	sw	s0,8(s0)
    48d4:	00034217          	auipc	tp,0x34
    48d8:	0600                	addi	s0,sp,768
    48da:	026c                	addi	a1,sp,268
    48dc:	2a16                	fld	fs4,320(sp)
    48de:	0001                	nop
    48e0:	cc00                	sw	s0,24(s0)
    48e2:	00057e17          	auipc	t3,0x57
    48e6:	0600                	addi	s0,sp,768
    48e8:	026d                	addi	tp,tp,27 # 388ef <__heap_size+0x188ef>
    48ea:	2d08                	fld	fa0,24(a0)
    48ec:	0000                	unimp
    48ee:	d400                	sw	s0,40(s0)
    48f0:	0800                	addi	s0,sp,16
    48f2:	014a                	slli	sp,sp,0x12
    48f4:	0000                	unimp
    48f6:	0842                	slli	a6,a6,0x10
    48f8:	0000                	unimp
    48fa:	4709                	li	a4,2
    48fc:	0000                	unimp
    48fe:	1900                	addi	s0,sp,176
    4900:	0300                	addi	s0,sp,384
    4902:	0708                	addi	a0,sp,896
    4904:	00000353          	fadd.s	ft6,ft0,ft0,rne
    4908:	4a08                	lw	a0,16(a2)
    490a:	0001                	nop
    490c:	5900                	lw	s0,48(a0)
    490e:	0008                	.insn	2, 0x0008
    4910:	0900                	addi	s0,sp,144
    4912:	00000047          	fmsub.s	ft0,ft0,ft0,ft0,rne
    4916:	4a080007          	.insn	4, 0x4a080007
    491a:	0001                	nop
    491c:	6900                	ld	s0,16(a0)
    491e:	0008                	.insn	2, 0x0008
    4920:	0900                	addi	s0,sp,144
    4922:	00000047          	fmsub.s	ft0,ft0,ft0,ft0,rne
    4926:	681b0017          	auipc	zero,0x681b0
    492a:	0601                	addi	a2,a2,0 # 76856 <__heap_size+0x56856>
    492c:	0272                	slli	tp,tp,0x1c
    492e:	00089107          	.insn	4, 0x00089107
    4932:	1700                	addi	s0,sp,928
    4934:	052c                	addi	a1,sp,648
    4936:	0000                	unimp
    4938:	7506                	ld	a0,96(sp)
    493a:	1b02                	slli	s6,s6,0x20
    493c:	0891                	addi	a7,a7,4
    493e:	0000                	unimp
    4940:	1700                	addi	s0,sp,928
    4942:	0515                	addi	a0,a0,5 # 635cd <__heap_size+0x435cd>
    4944:	0000                	unimp
    4946:	7606                	ld	a2,96(sp)
    4948:	1802                	slli	a6,a6,0x20
    494a:	08a1                	addi	a7,a7,8
    494c:	0000                	unimp
    494e:	00f0                	addi	a2,sp,76
    4950:	3408                	fld	fa0,40(s0)
    4952:	a1000003          	lb	zero,-1520(zero) # fffffffffffffa10 <__heap_end+0xffffffff7ffdca10>
    4956:	0008                	.insn	2, 0x0008
    4958:	0900                	addi	s0,sp,144
    495a:	00000047          	fmsub.s	ft0,ft0,ft0,ft0,rne
    495e:	001d                	c.nop	7
    4960:	7808                	ld	a0,48(s0)
    4962:	0000                	unimp
    4964:	b100                	fsd	fs0,32(a0)
    4966:	0008                	.insn	2, 0x0008
    4968:	0900                	addi	s0,sp,144
    496a:	00000047          	fmsub.s	ft0,ft0,ft0,ft0,rne
    496e:	001d                	c.nop	7
    4970:	681c                	ld	a5,16(s0)
    4972:	0601                	addi	a2,a2,0
    4974:	d7030257          	.insn	4, 0xd7030257
    4978:	0008                	.insn	2, 0x0008
    497a:	1d00                	addi	s0,sp,688
    497c:	0616                	slli	a2,a2,0x5
    497e:	0000                	unimp
    4980:	6e06                	ld	t3,64(sp)
    4982:	0b02                	c.slli64	s6
    4984:	071d                	addi	a4,a4,7 # 50887 <__heap_size+0x30887>
    4986:	0000                	unimp
    4988:	f81d                	bnez	s0,48be <__stack_align+0x48ae>
    498a:	0006                	c.slli	zero,0x1
    498c:	0600                	addi	s0,sp,768
    498e:	690b0277          	.insn	4, 0x690b0277
    4992:	0008                	.insn	2, 0x0008
    4994:	0000                	unimp
    4996:	4a08                	lw	a0,16(a2)
    4998:	0001                	nop
    499a:	e700                	sd	s0,8(a4)
    499c:	0008                	.insn	2, 0x0008
    499e:	0900                	addi	s0,sp,144
    49a0:	00000047          	fmsub.s	ft0,ft0,ft0,ft0,rne
    49a4:	0018                	.insn	2, 0x0018
    49a6:	731e                	ld	t1,480(sp)
    49a8:	0d000003          	lb	zero,208(zero) # d0 <__stack_align+0xc0>
    49ac:	e708                	sd	a0,8(a4)
    49ae:	0008                	.insn	2, 0x0008
    49b0:	1f00                	addi	s0,sp,944
    49b2:	08fd                	addi	a7,a7,31
    49b4:	0000                	unimp
    49b6:	9b15                	andi	a4,a4,-27
    49b8:	0004                	.insn	2, 0x0004
    49ba:	0000                	unimp
    49bc:	080d                	addi	a6,a6,3 # 4a821 <__heap_size+0x2a821>
    49be:	08f2                	slli	a7,a7,0x1c
    49c0:	0000                	unimp
    49c2:	080d                	addi	a6,a6,3
    49c4:	01bc                	addi	a5,sp,200
    49c6:	0000                	unimp
    49c8:	141f 0009 1500      	.insn	6, 0x15000009141f
    49ce:	002d                	c.nop	11
    49d0:	0000                	unimp
    49d2:	0d00                	addi	s0,sp,656
    49d4:	1a08                	addi	a0,sp,304
    49d6:	0009                	c.nop	2
    49d8:	0d00                	addi	s0,sp,656
    49da:	0908                	addi	a0,sp,144
    49dc:	0009                	c.nop	2
    49de:	0800                	addi	s0,sp,16
    49e0:	0682                	c.slli64	a3
    49e2:	0000                	unimp
    49e4:	0930                	addi	a2,sp,152
    49e6:	0000                	unimp
    49e8:	4709                	li	a4,2
    49ea:	0000                	unimp
    49ec:	0200                	addi	s0,sp,256
    49ee:	2000                	fld	fs0,0(s0)
    49f0:	0695                	addi	a3,a3,5
    49f2:	0000                	unimp
    49f4:	0706                	slli	a4,a4,0x1
    49f6:	049b1703          	lh	a4,73(s6) # 74859 <__heap_size+0x54859>
    49fa:	0000                	unimp
    49fc:	8e20                	.insn	2, 0x8e20
    49fe:	0006                	c.slli	zero,0x1
    4a00:	0600                	addi	s0,sp,768
    4a02:	0308                	addi	a0,sp,384
    4a04:	a11d                	j	4e2a <__stack_align+0x4e1a>
    4a06:	0004                	.insn	2, 0x0004
    4a08:	0800                	addi	s0,sp,16
    4a0a:	0619                	addi	a2,a2,6
    4a0c:	0000                	unimp
    4a0e:	0955                	addi	s2,s2,21 # 5b669 <__heap_size+0x3b669>
    4a10:	0000                	unimp
    4a12:	0021                	c.nop	8
    4a14:	4a0e                	lw	s4,192(sp)
    4a16:	0009                	c.nop	2
    4a18:	2200                	fld	fs0,0(a2)
    4a1a:	07d0                	addi	a2,sp,964
    4a1c:	0000                	unimp
    4a1e:	55241407          	.insn	4, 0x55241407
    4a22:	0009                	c.nop	2
    4a24:	2200                	fld	fs0,0(a2)
    4a26:	07ec                	addi	a1,sp,972
    4a28:	0000                	unimp
    4a2a:	2d151507          	.insn	4, 0x2d151507
    4a2e:	0000                	unimp
    4a30:	0400                	addi	s0,sp,512
    4a32:	02dc                	addi	a5,sp,324
    4a34:	0000                	unimp
    4a36:	3c08                	fld	fa0,56(s0)
    4a38:	7f14                	ld	a3,56(a4)
    4a3a:	0000                	unimp
    4a3c:	2300                	fld	fs0,0(a4)
    4a3e:	0972                	slli	s2,s2,0x1c
    4a40:	0000                	unimp
    4a42:	df04                	sw	s1,56(a4)
    4a44:	0001                	nop
    4a46:	0800                	addi	s0,sp,16
    4a48:	1552                	slli	a0,a0,0x34
    4a4a:	0000008b          	.insn	4, 0x008b
    4a4e:	cb04                	sw	s1,16(a4)
    4a50:	0006                	c.slli	zero,0x1
    4a52:	0900                	addi	s0,sp,144
    4a54:	12c8                	addi	a0,sp,356
    4a56:	000000bb          	addw	ra,zero,zero
    4a5a:	7422                	ld	s0,40(sp)
    4a5c:	0008                	.insn	2, 0x0008
    4a5e:	0a00                	addi	s0,sp,272
    4a60:	0f10                	addi	a2,sp,912
    4a62:	000009a7          	.insn	4, 0x09a7
    4a66:	080d                	addi	a6,a6,3
    4a68:	0144                	addi	s1,sp,132
    4a6a:	0000                	unimp
    4a6c:	8522                	mv	a0,s0
    4a6e:	0008                	.insn	2, 0x0008
    4a70:	0a00                	addi	s0,sp,272
    4a72:	0efc                	addi	a5,sp,860
    4a74:	0144                	addi	s1,sp,132
    4a76:	0000                	unimp
    4a78:	8c22                	mv	s8,s0
    4a7a:	0008                	.insn	2, 0x0008
    4a7c:	0a00                	addi	s0,sp,272
    4a7e:	0cfd                	addi	s9,s9,31 # 401f <__stack_align+0x400f>
    4a80:	002d                	c.nop	11
    4a82:	0000                	unimp
    4a84:	9322                	add	t1,t1,s0
    4a86:	0008                	.insn	2, 0x0008
    4a88:	0a00                	addi	s0,sp,272
    4a8a:	14fd                	addi	s1,s1,-1 # ffffffffffffffff <__heap_end+0xffffffff7ffdcfff>
    4a8c:	002d                	c.nop	11
    4a8e:	0000                	unimp
    4a90:	9a22                	add	s4,s4,s0
    4a92:	0008                	.insn	2, 0x0008
    4a94:	0a00                	addi	s0,sp,272
    4a96:	1cfd                	addi	s9,s9,-1
    4a98:	002d                	c.nop	11
    4a9a:	0000                	unimp
    4a9c:	7c22                	ld	s8,40(sp)
    4a9e:	0008                	.insn	2, 0x0008
    4aa0:	0a00                	addi	s0,sp,272
    4aa2:	0cff 002d 0000 1e22 	.insn	10, 0x00021e220000002d0cff
    4aaa:	0002 
    4aac:	0b00                	addi	s0,sp,400
    4aae:	1a06                	slli	s4,s4,0x21
    4ab0:	097e                	slli	s2,s2,0x1f
    4ab2:	0000                	unimp
    4ab4:	c522                	sw	s0,136(sp)
    4ab6:	0002                	c.slli64	zero
    4ab8:	0b00                	addi	s0,sp,400
    4aba:	097e1a07          	.insn	4, 0x097e1a07
    4abe:	0000                	unimp
    4ac0:	0424                	addi	s1,sp,520
    4ac2:	0005                	c.nop	1
    4ac4:	0100                	addi	s0,sp,128
    4ac6:	0906                	slli	s2,s2,0x1
    4ac8:	0000098f          	.insn	4, 0x098f
    4acc:	1764                	addi	s1,sp,940
    4ace:	8000                	.insn	2, 0x8000
    4ad0:	0000                	unimp
    4ad2:	0000                	unimp
    4ad4:	0008                	.insn	2, 0x0008
    4ad6:	0000                	unimp
    4ad8:	0000                	unimp
    4ada:	0000                	unimp
    4adc:	9c01                	subw	s0,s0,s0
    4ade:	0a75                	addi	s4,s4,29
    4ae0:	0000                	unimp
    4ae2:	6625                	lui	a2,0x9
    4ae4:	0064                	addi	s1,sp,12
    4ae6:	0601                	addi	a2,a2,0 # 9000 <__stack_size+0x1000>
    4ae8:	2d14                	fld	fa3,24(a0)
    4aea:	0000                	unimp
    4aec:	d000                	sw	s0,32(s0)
    4aee:	25000003          	lb	zero,592(zero) # 250 <__stack_align+0x240>
    4af2:	7470                	ld	a2,232(s0)
    4af4:	0072                	c.slli	zero,0x1c
    4af6:	0601                	addi	a2,a2,0
    4af8:	7524                	ld	s1,104(a0)
    4afa:	000a                	c.slli	zero,0x2
    4afc:	0900                	addi	s0,sp,144
    4afe:	0004                	.insn	2, 0x0004
    4b00:	2500                	fld	fs0,8(a0)
    4b02:	656c                	ld	a1,200(a0)
    4b04:	006e                	c.slli	zero,0x1b
    4b06:	0601                	addi	a2,a2,0
    4b08:	3b30                	fld	fa2,112(a4)
    4b0a:	0000                	unimp
    4b0c:	4200                	lw	s0,0(a2)
    4b0e:	0004                	.insn	2, 0x0004
    4b10:	2600                	fld	fs0,8(a2)
    4b12:	176c                	addi	a1,sp,940
    4b14:	8000                	.insn	2, 0x8000
    4b16:	0000                	unimp
    4b18:	0000                	unimp
    4b1a:	0a7c                	addi	a5,sp,284
    4b1c:	0000                	unimp
    4b1e:	035b0127          	.insn	4, 0x035b0127
    4b22:	275b01f3          	.insn	4, 0x275b01f3
    4b26:	5c01                	li	s8,-32
    4b28:	5c01f303          	.insn	4, 0x5c01f303
    4b2c:	025d0127          	.insn	4, 0x025d0127
    4b30:	4008                	lw	a0,0(s0)
    4b32:	0000                	unimp
    4b34:	080d                	addi	a6,a6,3
    4b36:	00000a7b          	.insn	4, 0x0a7b
    4b3a:	2928                	fld	fa0,80(a0)
    4b3c:	00000767          	jalr	a4,zero # 0 <__boot_hart>
    4b40:	00000767          	jalr	a4,zero # 0 <__boot_hart>
    4b44:	000d1a0b          	.insn	4, 0x000d1a0b

Disassembly of section .debug_abbrev:

0000000000000000 <.debug_abbrev>:
       0:	3401                	addiw	s0,s0,-32
       2:	0300                	addi	s0,sp,384
       4:	3a08                	fld	fa0,48(a2)
       6:	390b3b0b          	.insn	4, 0x390b3b0b
       a:	0213490b          	.insn	4, 0x0213490b
       e:	0018                	.insn	2, 0x0018
      10:	0200                	addi	s0,sp,256
      12:	0024                	addi	s1,sp,8
      14:	0b3e0b0b          	.insn	4, 0x0b3e0b0b
      18:	00000e03          	lb	t3,0(zero) # 0 <__boot_hart>
      1c:	03001603          	lh	a2,48(zero) # 30 <__stack_align+0x20>
      20:	3a0e                	fld	fs4,224(sp)
      22:	390b3b0b          	.insn	4, 0x390b3b0b
      26:	0013490b          	.insn	4, 0x0013490b
      2a:	0400                	addi	s0,sp,512
      2c:	0034                	addi	a3,sp,8
      2e:	0b3a0e03          	lb	t3,179(s4)
      32:	0b390b3b          	.insn	4, 0x0b390b3b
      36:	1349                	addi	t1,t1,-14 # 378b8 <__heap_size+0x178b8>
      38:	1802                	slli	a6,a6,0x20
      3a:	0000                	unimp
      3c:	0505                	addi	a0,a0,1
      3e:	0300                	addi	s0,sp,384
      40:	3a08                	fld	fa0,48(a2)
      42:	390b3b0b          	.insn	4, 0x390b3b0b
      46:	0213490b          	.insn	4, 0x0213490b
      4a:	0018                	.insn	2, 0x0018
      4c:	0600                	addi	s0,sp,768
      4e:	0111010b          	.insn	4, 0x0111010b
      52:	0712                	slli	a4,a4,0x4
      54:	0000                	unimp
      56:	0b000f07          	.insn	4, 0x0b000f07
      5a:	0821                	addi	a6,a6,8
      5c:	1349                	addi	t1,t1,-14
      5e:	0000                	unimp
      60:	2608                	fld	fa0,8(a2)
      62:	4900                	lw	s0,16(a0)
      64:	09000013          	li	zero,144
      68:	012e                	slli	sp,sp,0xb
      6a:	0e03193f 3b02213a 	.insn	8, 0x3b02213a0e03193f
      72:	0621390b          	.insn	4, 0x0621390b
      76:	01111927          	.insn	4, 0x01111927
      7a:	0712                	slli	a4,a4,0x4
      7c:	1840                	addi	s0,sp,52
      7e:	197c                	addi	a5,sp,188
      80:	1301                	addi	t1,t1,-32
      82:	0000                	unimp
      84:	0b0a                	slli	s6,s6,0x2
      86:	1101                	addi	sp,sp,-32 # 45898 <__heap_size+0x25898>
      88:	1201                	addi	tp,tp,-32 # ffffffffffffffe0 <__heap_end+0xffffffff7ffdcfe0>
      8a:	00130107          	.insn	4, 0x00130107
      8e:	0b00                	addi	s0,sp,400
      90:	0111                	addi	sp,sp,4
      92:	0e25                	addi	t3,t3,9 # 5b8eb <__heap_size+0x3b8eb>
      94:	1f030b13          	addi	s6,t1,496
      98:	01111f1b          	slliw	t5,sp,0x11
      9c:	0712                	slli	a4,a4,0x4
      9e:	1710                	addi	a2,sp,928
      a0:	0000                	unimp
      a2:	0f0c                	addi	a1,sp,912
      a4:	0b00                	addi	s0,sp,400
      a6:	000e030b          	.insn	4, 0x000e030b
      aa:	0d00                	addi	s0,sp,656
      ac:	0024                	addi	s1,sp,8
      ae:	0b3e0b0b          	.insn	4, 0x0b3e0b0b
      b2:	00000803          	lb	a6,0(zero) # 0 <__boot_hart>
      b6:	350e                	fld	fa0,224(sp)
      b8:	4900                	lw	s0,16(a0)
      ba:	0f000013          	li	zero,240
      be:	0018                	.insn	2, 0x0018
      c0:	0000                	unimp
      c2:	0110                	addi	a2,sp,128
      c4:	4901                	li	s2,0
      c6:	00130113          	addi	sp,t1,1
      ca:	1100                	addi	s0,sp,160
      cc:	0021                	c.nop	8
      ce:	1349                	addi	t1,t1,-14
      d0:	00000b2f          	.insn	4, 0x0b2f
      d4:	2e12                	fld	ft8,256(sp)
      d6:	0301                	addi	t1,t1,0
      d8:	3a0e                	fld	fs4,224(sp)
      da:	390b3b0b          	.insn	4, 0x390b3b0b
      de:	1119270b          	.insn	4, 0x1119270b
      e2:	1201                	addi	tp,tp,-32 # ffffffffffffffe0 <__heap_end+0xffffffff7ffdcfe0>
      e4:	7c184007          	.insn	4, 0x7c184007
      e8:	0119                	addi	sp,sp,6
      ea:	13000013          	li	zero,304
      ee:	012e                	slli	sp,sp,0xb
      f0:	0b3a0e03          	lb	t3,179(s4)
      f4:	0b390b3b          	.insn	4, 0x0b390b3b
      f8:	01111927          	.insn	4, 0x01111927
      fc:	0712                	slli	a4,a4,0x4
      fe:	1840                	addi	s0,sp,52
     100:	197a                	slli	s2,s2,0x3e
     102:	0000                	unimp
     104:	0100                	addi	s0,sp,128
     106:	0034                	addi	a3,sp,8
     108:	0b3a0e03          	lb	t3,179(s4)
     10c:	0b390b3b          	.insn	4, 0x0b390b3b
     110:	1349                	addi	t1,t1,-14
     112:	1802                	slli	a6,a6,0x20
     114:	0000                	unimp
     116:	3402                	fld	fs0,32(sp)
     118:	0300                	addi	s0,sp,384
     11a:	3a08                	fld	fa0,48(a2)
     11c:	390b3b0b          	.insn	4, 0x390b3b0b
     120:	0213490b          	.insn	4, 0x0213490b
     124:	0018                	.insn	2, 0x0018
     126:	0300                	addi	s0,sp,384
     128:	0024                	addi	s1,sp,8
     12a:	0b3e0b0b          	.insn	4, 0x0b3e0b0b
     12e:	00000e03          	lb	t3,0(zero) # 0 <__boot_hart>
     132:	0f04                	addi	s1,sp,912
     134:	0b00                	addi	s0,sp,400
     136:	0821                	addi	a6,a6,8
     138:	1349                	addi	t1,t1,-14
     13a:	0000                	unimp
     13c:	0b05                	addi	s6,s6,1
     13e:	1101                	addi	sp,sp,-32
     140:	1201                	addi	tp,tp,-32 # ffffffffffffffe0 <__heap_end+0xffffffff7ffdcfe0>
     142:	00130107          	.insn	4, 0x00130107
     146:	0600                	addi	s0,sp,768
     148:	0111010b          	.insn	4, 0x0111010b
     14c:	0712                	slli	a4,a4,0x4
     14e:	0000                	unimp
     150:	03000507          	.insn	4, 0x03000507
     154:	3a0e                	fld	fs4,224(sp)
     156:	390b3b0b          	.insn	4, 0x390b3b0b
     15a:	0213490b          	.insn	4, 0x0213490b
     15e:	0018                	.insn	2, 0x0018
     160:	0800                	addi	s0,sp,16
     162:	0005                	c.nop	1
     164:	0b3a0803          	lb	a6,179(s4)
     168:	0b390b3b          	.insn	4, 0x0b390b3b
     16c:	1349                	addi	t1,t1,-14
     16e:	1802                	slli	a6,a6,0x20
     170:	0000                	unimp
     172:	2609                	addiw	a2,a2,2
     174:	4900                	lw	s0,16(a0)
     176:	0a000013          	li	zero,160
     17a:	0035                	c.nop	13
     17c:	1349                	addi	t1,t1,-14
     17e:	0000                	unimp
     180:	0300160b          	.insn	4, 0x0300160b
     184:	3a0e                	fld	fs4,224(sp)
     186:	390b3b0b          	.insn	4, 0x390b3b0b
     18a:	0013490b          	.insn	4, 0x0013490b
     18e:	0c00                	addi	s0,sp,528
     190:	012e                	slli	sp,sp,0xb
     192:	0e03193f 3b02213a 	.insn	8, 0x3b02213a0e03193f
     19a:	0621390b          	.insn	4, 0x0621390b
     19e:	01111927          	.insn	4, 0x01111927
     1a2:	0712                	slli	a4,a4,0x4
     1a4:	1840                	addi	s0,sp,52
     1a6:	197a                	slli	s2,s2,0x3e
     1a8:	1301                	addi	t1,t1,-32
     1aa:	0000                	unimp
     1ac:	110d                	addi	sp,sp,-29
     1ae:	2501                	sext.w	a0,a0
     1b0:	130e                	slli	t1,t1,0x23
     1b2:	1b1f030b          	.insn	4, 0x1b1f030b
     1b6:	111f 1201 1007      	.insn	6, 0x10071201111f
     1bc:	0e000017          	auipc	zero,0xe000
     1c0:	0024                	addi	s1,sp,8
     1c2:	0b3e0b0b          	.insn	4, 0x0b3e0b0b
     1c6:	00000803          	lb	a6,0(zero) # 0 <__boot_hart>
     1ca:	4901010f          	.insn	4, 0x4901010f
     1ce:	00130113          	addi	sp,t1,1
     1d2:	1000                	addi	s0,sp,32
     1d4:	0021                	c.nop	8
     1d6:	1349                	addi	t1,t1,-14
     1d8:	00000b2f          	.insn	4, 0x0b2f
     1dc:	2e11                	addiw	t3,t3,4
     1de:	3f01                	addiw	t5,t5,-32
     1e0:	0319                	addi	t1,t1,6
     1e2:	3a0e                	fld	fs4,224(sp)
     1e4:	390b3b0b          	.insn	4, 0x390b3b0b
     1e8:	3c19270b          	.insn	4, 0x3c19270b
     1ec:	0119                	addi	sp,sp,6
     1ee:	12000013          	li	zero,288
     1f2:	0005                	c.nop	1
     1f4:	1349                	addi	t1,t1,-14
     1f6:	0000                	unimp
     1f8:	00001813          	slli	a6,zero,0x0
     1fc:	1400                	addi	s0,sp,544
     1fe:	012e                	slli	sp,sp,0xb
     200:	0e03193f 0b3b0b3a 	.insn	8, 0x0b3b0b3a0e03193f
     208:	0b39                	addi	s6,s6,14
     20a:	13491927          	.insn	4, 0x13491927
     20e:	0111                	addi	sp,sp,4
     210:	0712                	slli	a4,a4,0x4
     212:	1840                	addi	s0,sp,52
     214:	197c                	addi	a5,sp,188
     216:	1301                	addi	t1,t1,-32
     218:	0000                	unimp
     21a:	2e15                	addiw	t3,t3,5
     21c:	3f01                	addiw	t5,t5,-32
     21e:	0319                	addi	t1,t1,6
     220:	3a0e                	fld	fs4,224(sp)
     222:	390b3b0b          	.insn	4, 0x390b3b0b
     226:	1119270b          	.insn	4, 0x1119270b
     22a:	1201                	addi	tp,tp,-32 # ffffffffffffffe0 <__heap_end+0xffffffff7ffdcfe0>
     22c:	7c184007          	.insn	4, 0x7c184007
     230:	0119                	addi	sp,sp,6
     232:	16000013          	li	zero,352
     236:	012e                	slli	sp,sp,0xb
     238:	0b3a0e03          	lb	t3,179(s4)
     23c:	0b390b3b          	.insn	4, 0x0b390b3b
     240:	01111927          	.insn	4, 0x01111927
     244:	0712                	slli	a4,a4,0x4
     246:	1840                	addi	s0,sp,52
     248:	197a                	slli	s2,s2,0x3e
     24a:	1301                	addi	t1,t1,-32
     24c:	0000                	unimp
     24e:	03003417          	auipc	s0,0x3003
     252:	3a0e                	fld	fs4,224(sp)
     254:	390b3b0b          	.insn	4, 0x390b3b0b
     258:	0013490b          	.insn	4, 0x0013490b
     25c:	1800                	addi	s0,sp,48
     25e:	012e                	slli	sp,sp,0xb
     260:	0b3a0e03          	lb	t3,179(s4)
     264:	0b390b3b          	.insn	4, 0x0b390b3b
     268:	13491927          	.insn	4, 0x13491927
     26c:	0111                	addi	sp,sp,4
     26e:	0712                	slli	a4,a4,0x4
     270:	1840                	addi	s0,sp,52
     272:	197a                	slli	s2,s2,0x3e
     274:	1301                	addi	t1,t1,-32
     276:	0000                	unimp
     278:	0100                	addi	s0,sp,128
     27a:	0024                	addi	s1,sp,8
     27c:	0b3e0b0b          	.insn	4, 0x0b3e0b0b
     280:	00000e03          	lb	t3,0(zero) # 0 <__boot_hart>
     284:	1602                	slli	a2,a2,0x20
     286:	0300                	addi	s0,sp,384
     288:	3a0e                	fld	fs4,224(sp)
     28a:	390b3b0b          	.insn	4, 0x390b3b0b
     28e:	0013490b          	.insn	4, 0x0013490b
     292:	0300                	addi	s0,sp,384
     294:	0034                	addi	a3,sp,8
     296:	0b3a0e03          	lb	t3,179(s4)
     29a:	0b390b3b          	.insn	4, 0x0b390b3b
     29e:	1349                	addi	t1,t1,-14
     2a0:	1802                	slli	a6,a6,0x20
     2a2:	0000                	unimp
     2a4:	0f04                	addi	s1,sp,912
     2a6:	0b00                	addi	s0,sp,400
     2a8:	0821                	addi	a6,a6,8
     2aa:	1349                	addi	t1,t1,-14
     2ac:	0000                	unimp
     2ae:	0505                	addi	a0,a0,1
     2b0:	0300                	addi	s0,sp,384
     2b2:	3a0e                	fld	fs4,224(sp)
     2b4:	0121                	addi	sp,sp,8
     2b6:	390b213b          	.insn	4, 0x390b213b
     2ba:	0213490b          	.insn	4, 0x0213490b
     2be:	0018                	.insn	2, 0x0018
     2c0:	0600                	addi	s0,sp,768
     2c2:	0026                	c.slli	zero,0x9
     2c4:	1349                	addi	t1,t1,-14
     2c6:	0000                	unimp
     2c8:	49000507          	.insn	4, 0x49000507
     2cc:	08000013          	li	zero,128
     2d0:	0018                	.insn	2, 0x0018
     2d2:	0000                	unimp
     2d4:	0b09                	addi	s6,s6,2
     2d6:	1101                	addi	sp,sp,-32
     2d8:	1201                	addi	tp,tp,-32 # ffffffffffffffe0 <__heap_end+0xffffffff7ffdcfe0>
     2da:	0a000007          	.insn	4, 0x0a000007
     2de:	0111                	addi	sp,sp,4
     2e0:	0e25                	addi	t3,t3,9
     2e2:	1f030b13          	addi	s6,t1,496
     2e6:	01111f1b          	slliw	t5,sp,0x11
     2ea:	0712                	slli	a4,a4,0x4
     2ec:	1710                	addi	a2,sp,928
     2ee:	0000                	unimp
     2f0:	0b00240b          	.insn	4, 0x0b00240b
     2f4:	030b3e0b          	.insn	4, 0x030b3e0b
     2f8:	0008                	.insn	2, 0x0008
     2fa:	0c00                	addi	s0,sp,528
     2fc:	0035                	c.nop	13
     2fe:	1349                	addi	t1,t1,-14
     300:	0000                	unimp
     302:	2e0d                	addiw	t3,t3,3
     304:	3f01                	addiw	t5,t5,-32
     306:	0319                	addi	t1,t1,6
     308:	3a0e                	fld	fs4,224(sp)
     30a:	390b3b0b          	.insn	4, 0x390b3b0b
     30e:	8719270b          	.insn	4, 0x8719270b
     312:	1901                	addi	s2,s2,-32
     314:	193c                	addi	a5,sp,184
     316:	1301                	addi	t1,t1,-32
     318:	0000                	unimp
     31a:	2e0e                	fld	ft8,192(sp)
     31c:	3f01                	addiw	t5,t5,-32
     31e:	0319                	addi	t1,t1,6
     320:	3a0e                	fld	fs4,224(sp)
     322:	390b3b0b          	.insn	4, 0x390b3b0b
     326:	3c19270b          	.insn	4, 0x3c19270b
     32a:	0119                	addi	sp,sp,6
     32c:	0f000013          	li	zero,240
     330:	012e                	slli	sp,sp,0xb
     332:	0e03193f 0b3b0b3a 	.insn	8, 0x0b3b0b3a0e03193f
     33a:	0b39                	addi	s6,s6,14
     33c:	193c                	addi	a5,sp,184
     33e:	1301                	addi	t1,t1,-32
     340:	0000                	unimp
     342:	2e10                	fld	fa2,24(a2)
     344:	3f01                	addiw	t5,t5,-32
     346:	0319                	addi	t1,t1,6
     348:	3a0e                	fld	fs4,224(sp)
     34a:	390b3b0b          	.insn	4, 0x390b3b0b
     34e:	4919270b          	.insn	4, 0x4919270b
     352:	12011113          	.insn	4, 0x12011113
     356:	7c184007          	.insn	4, 0x7c184007
     35a:	0119                	addi	sp,sp,6
     35c:	11000013          	li	zero,272
     360:	0005                	c.nop	1
     362:	0b3a0803          	lb	a6,179(s4)
     366:	0b390b3b          	.insn	4, 0x0b390b3b
     36a:	1349                	addi	t1,t1,-14
     36c:	1802                	slli	a6,a6,0x20
     36e:	0000                	unimp
     370:	0b12                	slli	s6,s6,0x4
     372:	1101                	addi	sp,sp,-32
     374:	1201                	addi	tp,tp,-32 # ffffffffffffffe0 <__heap_end+0xffffffff7ffdcfe0>
     376:	00130107          	.insn	4, 0x00130107
     37a:	0000                	unimp
     37c:	1101                	addi	sp,sp,-32
     37e:	2501                	sext.w	a0,a0
     380:	130e                	slli	t1,t1,0x23
     382:	1b0e030b          	.insn	4, 0x1b0e030b
     386:	110e                	slli	sp,sp,0x23
     388:	1201                	addi	tp,tp,-32 # ffffffffffffffe0 <__heap_end+0xffffffff7ffdcfe0>
     38a:	00171007          	.insn	4, 0x00171007
     38e:	0200                	addi	s0,sp,256
     390:	0024                	addi	s1,sp,8
     392:	0b3e0b0b          	.insn	4, 0x0b3e0b0b
     396:	00000e03          	lb	t3,0(zero) # 0 <__boot_hart>
     39a:	0b002403          	lw	s0,176(zero) # b0 <__stack_align+0xa0>
     39e:	030b3e0b          	.insn	4, 0x030b3e0b
     3a2:	0008                	.insn	2, 0x0008
     3a4:	0400                	addi	s0,sp,512
     3a6:	0016                	c.slli	zero,0x5
     3a8:	0b3a0e03          	lb	t3,179(s4)
     3ac:	0b390b3b          	.insn	4, 0x0b390b3b
     3b0:	1349                	addi	t1,t1,-14
     3b2:	0000                	unimp
     3b4:	3505                	addiw	a0,a0,-31
     3b6:	4900                	lw	s0,16(a0)
     3b8:	06000013          	li	zero,96
     3bc:	0034                	addi	a3,sp,8
     3be:	0b3a0e03          	lb	t3,179(s4)
     3c2:	0b390b3b          	.insn	4, 0x0b390b3b
     3c6:	1349                	addi	t1,t1,-14
     3c8:	193c193f 2e070000 	.insn	8, 0x2e070000193c193f
     3d0:	3f01                	addiw	t5,t5,-32
     3d2:	0319                	addi	t1,t1,6
     3d4:	3a0e                	fld	fs4,224(sp)
     3d6:	390b3b0b          	.insn	4, 0x390b3b0b
     3da:	8719270b          	.insn	4, 0x8719270b
     3de:	1901                	addi	s2,s2,-32
     3e0:	0111                	addi	sp,sp,4
     3e2:	0712                	slli	a4,a4,0x4
     3e4:	1840                	addi	s0,sp,52
     3e6:	00194297          	auipc	t0,0x194
     3ea:	0800                	addi	s0,sp,16
     3ec:	0005                	c.nop	1
     3ee:	0b3a0e03          	lb	t3,179(s4)
     3f2:	0b390b3b          	.insn	4, 0x0b390b3b
     3f6:	1349                	addi	t1,t1,-14
     3f8:	1802                	slli	a6,a6,0x20
     3fa:	0000                	unimp
     3fc:	3409                	addiw	s0,s0,-30 # 3003230 <__heap_size+0x2fe3230>
     3fe:	0300                	addi	s0,sp,384
     400:	3a08                	fld	fa0,48(a2)
     402:	390b3b0b          	.insn	4, 0x390b3b0b
     406:	0213490b          	.insn	4, 0x0213490b
     40a:	0018                	.insn	2, 0x0018
     40c:	0000                	unimp
     40e:	1101                	addi	sp,sp,-32
     410:	1000                	addi	s0,sp,32
     412:	1106                	slli	sp,sp,0x21
     414:	1201                	addi	tp,tp,-32 # ffffffffffffffe0 <__heap_end+0xffffffff7ffdcfe0>
     416:	0301                	addi	t1,t1,0
     418:	1b0e                	slli	s6,s6,0x23
     41a:	250e                	fld	fa0,192(sp)
     41c:	130e                	slli	t1,t1,0x23
     41e:	0005                	c.nop	1
     420:	0000                	unimp
     422:	1101                	addi	sp,sp,-32
     424:	1000                	addi	s0,sp,32
     426:	1106                	slli	sp,sp,0x21
     428:	1201                	addi	tp,tp,-32 # ffffffffffffffe0 <__heap_end+0xffffffff7ffdcfe0>
     42a:	0301                	addi	t1,t1,0
     42c:	1b0e                	slli	s6,s6,0x23
     42e:	250e                	fld	fa0,192(sp)
     430:	130e                	slli	t1,t1,0x23
     432:	0005                	c.nop	1
     434:	0000                	unimp
     436:	1101                	addi	sp,sp,-32
     438:	2501                	sext.w	a0,a0
     43a:	130e                	slli	t1,t1,0x23
     43c:	1b0e030b          	.insn	4, 0x1b0e030b
     440:	110e                	slli	sp,sp,0x23
     442:	1201                	addi	tp,tp,-32 # ffffffffffffffe0 <__heap_end+0xffffffff7ffdcfe0>
     444:	00171007          	.insn	4, 0x00171007
     448:	0200                	addi	s0,sp,256
     44a:	0024                	addi	s1,sp,8
     44c:	0b3e0b0b          	.insn	4, 0x0b3e0b0b
     450:	00000e03          	lb	t3,0(zero) # 0 <__boot_hart>
     454:	03001603          	lh	a2,48(zero) # 30 <__stack_align+0x20>
     458:	3a0e                	fld	fs4,224(sp)
     45a:	390b3b0b          	.insn	4, 0x390b3b0b
     45e:	0013490b          	.insn	4, 0x0013490b
     462:	0400                	addi	s0,sp,512
     464:	0024                	addi	s1,sp,8
     466:	0b3e0b0b          	.insn	4, 0x0b3e0b0b
     46a:	00000803          	lb	a6,0(zero) # 0 <__boot_hart>
     46e:	1605                	addi	a2,a2,-31
     470:	0300                	addi	s0,sp,384
     472:	3a0e                	fld	fs4,224(sp)
     474:	39053b0b          	.insn	4, 0x39053b0b
     478:	0013490b          	.insn	4, 0x0013490b
     47c:	0600                	addi	s0,sp,768
     47e:	0b0b0117          	auipc	sp,0xb0b0
     482:	0b3a                	slli	s6,s6,0xe
     484:	0b390b3b          	.insn	4, 0x0b390b3b
     488:	1301                	addi	t1,t1,-32
     48a:	0000                	unimp
     48c:	03000d07          	.insn	4, 0x03000d07
     490:	3a0e                	fld	fs4,224(sp)
     492:	390b3b0b          	.insn	4, 0x390b3b0b
     496:	0013490b          	.insn	4, 0x0013490b
     49a:	0800                	addi	s0,sp,16
     49c:	0101                	addi	sp,sp,0 # b0b047e <__heap_size+0xb09047e>
     49e:	1349                	addi	t1,t1,-14
     4a0:	1301                	addi	t1,t1,-32
     4a2:	0000                	unimp
     4a4:	2109                	addiw	sp,sp,2
     4a6:	4900                	lw	s0,16(a0)
     4a8:	000b2f13          	slti	t5,s6,0
     4ac:	0a00                	addi	s0,sp,272
     4ae:	0b0b0113          	addi	sp,s6,176
     4b2:	0b3a                	slli	s6,s6,0xe
     4b4:	0b390b3b          	.insn	4, 0x0b390b3b
     4b8:	1301                	addi	t1,t1,-32
     4ba:	0000                	unimp
     4bc:	03000d0b          	.insn	4, 0x03000d0b
     4c0:	3a0e                	fld	fs4,224(sp)
     4c2:	390b3b0b          	.insn	4, 0x390b3b0b
     4c6:	3813490b          	.insn	4, 0x3813490b
     4ca:	0c00000b          	.insn	4, 0x0c00000b
     4ce:	0b0b000f          	.insn	4, 0x0b0b000f
     4d2:	0000                	unimp
     4d4:	0f0d                	addi	t5,t5,3
     4d6:	0b00                	addi	s0,sp,400
     4d8:	0013490b          	.insn	4, 0x0013490b
     4dc:	0e00                	addi	s0,sp,784
     4de:	0026                	c.slli	zero,0x9
     4e0:	1349                	addi	t1,t1,-14
     4e2:	0000                	unimp
     4e4:	0301130f          	.insn	4, 0x0301130f
     4e8:	0b0e                	slli	s6,s6,0x3
     4ea:	3b0b3a0b          	.insn	4, 0x3b0b3a0b
     4ee:	010b390b          	.insn	4, 0x010b390b
     4f2:	10000013          	li	zero,256
     4f6:	000d                	c.nop	3
     4f8:	0b3a0803          	lb	a6,179(s4)
     4fc:	0b390b3b          	.insn	4, 0x0b390b3b
     500:	1349                	addi	t1,t1,-14
     502:	0b38                	addi	a4,sp,408
     504:	0000                	unimp
     506:	1311                	addi	t1,t1,-28
     508:	0301                	addi	t1,t1,0
     50a:	0b0e                	slli	s6,s6,0x3
     50c:	3a05                	addiw	s4,s4,-31
     50e:	390b3b0b          	.insn	4, 0x390b3b0b
     512:	0013010b          	.insn	4, 0x0013010b
     516:	1200                	addi	s0,sp,288
     518:	000d                	c.nop	3
     51a:	0b3a0e03          	lb	t3,179(s4)
     51e:	0b390b3b          	.insn	4, 0x0b390b3b
     522:	1349                	addi	t1,t1,-14
     524:	0538                	addi	a4,sp,648
     526:	0000                	unimp
     528:	27001513          	.insn	4, 0x27001513
     52c:	0019                	c.nop	6
     52e:	1400                	addi	s0,sp,544
     530:	0115                	addi	sp,sp,5
     532:	13491927          	.insn	4, 0x13491927
     536:	1301                	addi	t1,t1,-32
     538:	0000                	unimp
     53a:	0515                	addi	a0,a0,5
     53c:	4900                	lw	s0,16(a0)
     53e:	16000013          	li	zero,352
     542:	0e030113          	addi	sp,t1,224
     546:	0b3a050b          	.insn	4, 0x0b3a050b
     54a:	0b39053b          	.insn	4, 0x0b39053b
     54e:	1301                	addi	t1,t1,-32
     550:	0000                	unimp
     552:	03000d17          	auipc	s10,0x3000
     556:	3a0e                	fld	fs4,224(sp)
     558:	39053b0b          	.insn	4, 0x39053b0b
     55c:	3813490b          	.insn	4, 0x3813490b
     560:	1800000b          	.insn	4, 0x1800000b
     564:	000d                	c.nop	3
     566:	0b3a0e03          	lb	t3,179(s4)
     56a:	0b39053b          	.insn	4, 0x0b39053b
     56e:	1349                	addi	t1,t1,-14
     570:	0538                	addi	a4,sp,648
     572:	0000                	unimp
     574:	1319                	addi	t1,t1,-26
     576:	0301                	addi	t1,t1,0
     578:	0b0e                	slli	s6,s6,0x3
     57a:	3b0b3a0b          	.insn	4, 0x3b0b3a0b
     57e:	3905                	addiw	s2,s2,-31
     580:	0013010b          	.insn	4, 0x0013010b
     584:	1a00                	addi	s0,sp,304
     586:	0b0b0113          	addi	sp,s6,176
     58a:	0b3a                	slli	s6,s6,0xe
     58c:	0b39053b          	.insn	4, 0x0b39053b
     590:	1301                	addi	t1,t1,-32
     592:	0000                	unimp
     594:	0b01131b          	.insn	4, 0x0b01131b
     598:	3a05                	addiw	s4,s4,-31
     59a:	39053b0b          	.insn	4, 0x39053b0b
     59e:	0013010b          	.insn	4, 0x0013010b
     5a2:	1c00                	addi	s0,sp,560
     5a4:	050b0117          	auipc	sp,0x50b0
     5a8:	0b3a                	slli	s6,s6,0xe
     5aa:	0b39053b          	.insn	4, 0x0b39053b
     5ae:	1301                	addi	t1,t1,-32
     5b0:	0000                	unimp
     5b2:	0d1d                	addi	s10,s10,7 # 3000559 <__heap_size+0x2fe0559>
     5b4:	0300                	addi	s0,sp,384
     5b6:	3a0e                	fld	fs4,224(sp)
     5b8:	39053b0b          	.insn	4, 0x39053b0b
     5bc:	0013490b          	.insn	4, 0x0013490b
     5c0:	1e00                	addi	s0,sp,816
     5c2:	0e030013          	addi	zero,t1,224
     5c6:	193c                	addi	a5,sp,184
     5c8:	0000                	unimp
     5ca:	151f 2701 0119      	.insn	6, 0x01192701151f
     5d0:	20000013          	li	zero,512
     5d4:	0034                	addi	a3,sp,8
     5d6:	0b3a0e03          	lb	t3,179(s4)
     5da:	0b39053b          	.insn	4, 0x0b39053b
     5de:	1349                	addi	t1,t1,-14
     5e0:	193c193f 2e210000 	.insn	8, 0x2e210000193c193f
     5e8:	3f01                	addiw	t5,t5,-32
     5ea:	0319                	addi	t1,t1,6
     5ec:	3a0e                	fld	fs4,224(sp)
     5ee:	390b3b0b          	.insn	4, 0x390b3b0b
     5f2:	1119270b          	.insn	4, 0x1119270b
     5f6:	1201                	addi	tp,tp,-32 # ffffffffffffffe0 <__heap_end+0xffffffff7ffdcfe0>
     5f8:	97184007          	.insn	4, 0x97184007
     5fc:	1942                	slli	s2,s2,0x30
     5fe:	1301                	addi	t1,t1,-32
     600:	0000                	unimp
     602:	3422                	fld	fs0,40(sp)
     604:	0300                	addi	s0,sp,384
     606:	3a0e                	fld	fs4,224(sp)
     608:	390b3b0b          	.insn	4, 0x390b3b0b
     60c:	0213490b          	.insn	4, 0x0213490b
     610:	0018                	.insn	2, 0x0018
     612:	2300                	fld	fs0,0(a4)
     614:	0034                	addi	a3,sp,8
     616:	0b3a0e03          	lb	t3,179(s4)
     61a:	0b390b3b          	.insn	4, 0x0b390b3b
     61e:	1349                	addi	t1,t1,-14
     620:	193c193f 89240000 	.insn	8, 0x89240000193c193f
     628:	0182                	c.slli64	gp
     62a:	1101                	addi	sp,sp,-32 # 50b0584 <__heap_size+0x5090584>
     62c:	3101                	addiw	sp,sp,-32
     62e:	00130113          	addi	sp,t1,1
     632:	2500                	fld	fs0,8(a0)
     634:	828a                	mv	t0,sp
     636:	0001                	nop
     638:	1802                	slli	a6,a6,0x20
     63a:	4291                	li	t0,4
     63c:	0018                	.insn	2, 0x0018
     63e:	2600                	fld	fs0,8(a2)
     640:	8289                	srli	a3,a3,0x2
     642:	0101                	addi	sp,sp,0
     644:	0111                	addi	sp,sp,4
     646:	4295                	li	t0,5
     648:	3119                	addiw	sp,sp,-26
     64a:	27000013          	li	zero,624
     64e:	0021                	c.nop	8
     650:	0000                	unimp
     652:	2e28                	fld	fa0,88(a2)
     654:	3f00                	fld	fs0,56(a4)
     656:	3c19                	addiw	s8,s8,-26 # 6082e <__heap_size+0x4082e>
     658:	6e19                	lui	t3,0x6
     65a:	030e                	slli	t1,t1,0x3
     65c:	3a0e                	fld	fs4,224(sp)
     65e:	390b3b0b          	.insn	4, 0x390b3b0b
     662:	0000000b          	.insn	4, 0x000b
     666:	1101                	addi	sp,sp,-32
     668:	2501                	sext.w	a0,a0
     66a:	130e                	slli	t1,t1,0x23
     66c:	1b0e030b          	.insn	4, 0x1b0e030b
     670:	110e                	slli	sp,sp,0x23
     672:	1201                	addi	tp,tp,-32 # ffffffffffffffe0 <__heap_end+0xffffffff7ffdcfe0>
     674:	00171007          	.insn	4, 0x00171007
     678:	0200                	addi	s0,sp,256
     67a:	0024                	addi	s1,sp,8
     67c:	0b3e0b0b          	.insn	4, 0x0b3e0b0b
     680:	00000e03          	lb	t3,0(zero) # 0 <__boot_hart>
     684:	03001603          	lh	a2,48(zero) # 30 <__stack_align+0x20>
     688:	3a0e                	fld	fs4,224(sp)
     68a:	390b3b0b          	.insn	4, 0x390b3b0b
     68e:	0013490b          	.insn	4, 0x0013490b
     692:	0400                	addi	s0,sp,512
     694:	0024                	addi	s1,sp,8
     696:	0b3e0b0b          	.insn	4, 0x0b3e0b0b
     69a:	00000803          	lb	a6,0(zero) # 0 <__boot_hart>
     69e:	3505                	addiw	a0,a0,-31
     6a0:	4900                	lw	s0,16(a0)
     6a2:	06000013          	li	zero,96
     6a6:	0026                	c.slli	zero,0x9
     6a8:	1349                	addi	t1,t1,-14
     6aa:	0000                	unimp
     6ac:	0b011307          	.insn	4, 0x0b011307
     6b0:	3b0b3a0b          	.insn	4, 0x3b0b3a0b
     6b4:	010b390b          	.insn	4, 0x010b390b
     6b8:	08000013          	li	zero,128
     6bc:	000d                	c.nop	3
     6be:	0b3a0e03          	lb	t3,179(s4)
     6c2:	0b390b3b          	.insn	4, 0x0b390b3b
     6c6:	1349                	addi	t1,t1,-14
     6c8:	0b38                	addi	a4,sp,408
     6ca:	0000                	unimp
     6cc:	3409                	addiw	s0,s0,-30
     6ce:	0300                	addi	s0,sp,384
     6d0:	3a0e                	fld	fs4,224(sp)
     6d2:	390b3b0b          	.insn	4, 0x390b3b0b
     6d6:	3f13490b          	.insn	4, 0x3f13490b
     6da:	3c19                	addiw	s8,s8,-26
     6dc:	0019                	c.nop	6
     6de:	0a00                	addi	s0,sp,272
     6e0:	0034                	addi	a3,sp,8
     6e2:	0b3a1347          	fmsub.d	ft6,fs4,fs3,ft1,rtz
     6e6:	0b390b3b          	.insn	4, 0x0b390b3b
     6ea:	1802                	slli	a6,a6,0x20
     6ec:	0000                	unimp
     6ee:	0300340b          	.insn	4, 0x0300340b
     6f2:	3a0e                	fld	fs4,224(sp)
     6f4:	390b3b0b          	.insn	4, 0x390b3b0b
     6f8:	0213490b          	.insn	4, 0x0213490b
     6fc:	0018                	.insn	2, 0x0018
     6fe:	0c00                	addi	s0,sp,528
     700:	012e                	slli	sp,sp,0xb
     702:	0e03193f 0b3b0b3a 	.insn	8, 0x0b3b0b3a0e03193f
     70a:	0b39                	addi	s6,s6,14
     70c:	13491927          	.insn	4, 0x13491927
     710:	0111                	addi	sp,sp,4
     712:	0712                	slli	a4,a4,0x4
     714:	1840                	addi	s0,sp,52
     716:	01194297          	auipc	t0,0x1194
     71a:	0d000013          	li	zero,208
     71e:	0005                	c.nop	1
     720:	0b3a0803          	lb	a6,179(s4)
     724:	0b390b3b          	.insn	4, 0x0b390b3b
     728:	1349                	addi	t1,t1,-14
     72a:	1702                	slli	a4,a4,0x20
     72c:	0000                	unimp
     72e:	050e                	slli	a0,a0,0x3
     730:	0300                	addi	s0,sp,384
     732:	3a08                	fld	fa0,48(a2)
     734:	390b3b0b          	.insn	4, 0x390b3b0b
     738:	0213490b          	.insn	4, 0x0213490b
     73c:	0018                	.insn	2, 0x0018
     73e:	0f00                	addi	s0,sp,912
     740:	0034                	addi	a3,sp,8
     742:	0b3a0803          	lb	a6,179(s4)
     746:	0b390b3b          	.insn	4, 0x0b390b3b
     74a:	1349                	addi	t1,t1,-14
     74c:	1802                	slli	a6,a6,0x20
     74e:	0000                	unimp
     750:	1d10                	addi	a2,sp,688
     752:	3101                	addiw	sp,sp,-32
     754:	12011113          	.insn	4, 0x12011113
     758:	590b5807          	.insn	4, 0x590b5807
     75c:	010b570b          	.insn	4, 0x010b570b
     760:	11000013          	li	zero,272
     764:	0005                	c.nop	1
     766:	1331                	addi	t1,t1,-20
     768:	1702                	slli	a4,a4,0x20
     76a:	0000                	unimp
     76c:	1d12                	slli	s10,s10,0x24
     76e:	3101                	addiw	sp,sp,-32
     770:	55015213          	.insn	4, 0x55015213
     774:	590b5817          	auipc	a6,0x590b5
     778:	010b570b          	.insn	4, 0x010b570b
     77c:	13000013          	li	zero,304
     780:	1755010b          	.insn	4, 0x1755010b
     784:	0000                	unimp
     786:	3414                	fld	fa3,40(s0)
     788:	3100                	fld	fs0,32(a0)
     78a:	15000013          	li	zero,336
     78e:	011d                	addi	sp,sp,7
     790:	1331                	addi	t1,t1,-20
     792:	0111                	addi	sp,sp,4
     794:	0712                	slli	a4,a4,0x4
     796:	0b58                	addi	a4,sp,404
     798:	0b59                	addi	s6,s6,22
     79a:	00000b57          	.insn	4, 0x0b57
     79e:	1d16                	slli	s10,s10,0x25
     7a0:	3100                	fld	fs0,32(a0)
     7a2:	12011113          	.insn	4, 0x12011113
     7a6:	590b5807          	.insn	4, 0x590b5807
     7aa:	000b570b          	.insn	4, 0x000b570b
     7ae:	1700                	addi	s0,sp,928
     7b0:	0101                	addi	sp,sp,0
     7b2:	1349                	addi	t1,t1,-14
     7b4:	1301                	addi	t1,t1,-32
     7b6:	0000                	unimp
     7b8:	2118                	fld	fa4,0(a0)
     7ba:	4900                	lw	s0,16(a0)
     7bc:	000b2f13          	slti	t5,s6,0
     7c0:	1900                	addi	s0,sp,176
     7c2:	012e                	slli	sp,sp,0xb
     7c4:	0b3a0e03          	lb	t3,179(s4)
     7c8:	0b390b3b          	.insn	4, 0x0b390b3b
     7cc:	0b201927          	.insn	4, 0x0b201927
     7d0:	1301                	addi	t1,t1,-32
     7d2:	0000                	unimp
     7d4:	051a                	slli	a0,a0,0x6
     7d6:	0300                	addi	s0,sp,384
     7d8:	3a0e                	fld	fs4,224(sp)
     7da:	390b3b0b          	.insn	4, 0x390b3b0b
     7de:	0013490b          	.insn	4, 0x0013490b
     7e2:	1b00                	addi	s0,sp,432
     7e4:	0b0b000f          	.insn	4, 0x0b0b000f
     7e8:	1349                	addi	t1,t1,-14
     7ea:	0000                	unimp
     7ec:	051c                	addi	a5,sp,640
     7ee:	0300                	addi	s0,sp,384
     7f0:	3a08                	fld	fa0,48(a2)
     7f2:	390b3b0b          	.insn	4, 0x390b3b0b
     7f6:	0013490b          	.insn	4, 0x0013490b
     7fa:	1d00                	addi	s0,sp,688
     7fc:	012e                	slli	sp,sp,0xb
     7fe:	0b3a0e03          	lb	t3,179(s4)
     802:	0b390b3b          	.insn	4, 0x0b390b3b
     806:	13491927          	.insn	4, 0x13491927
     80a:	0b20                	addi	s0,sp,408
     80c:	1301                	addi	t1,t1,-32
     80e:	0000                	unimp
     810:	341e                	fld	fs0,480(sp)
     812:	0300                	addi	s0,sp,384
     814:	3a08                	fld	fa0,48(a2)
     816:	390b3b0b          	.insn	4, 0x390b3b0b
     81a:	0013490b          	.insn	4, 0x0013490b
     81e:	1f00                	addi	s0,sp,944
     820:	002e                	c.slli	zero,0xb
     822:	0b3a0803          	lb	a6,179(s4)
     826:	0b390b3b          	.insn	4, 0x0b390b3b
     82a:	0b201927          	.insn	4, 0x0b201927
     82e:	0000                	unimp
     830:	0100                	addi	s0,sp,128
     832:	0111                	addi	sp,sp,4
     834:	0e25                	addi	t3,t3,9 # 6009 <__stack_size_min+0x9>
     836:	0e030b13          	addi	s6,t1,224
     83a:	01110e1b          	addiw	t3,sp,17
     83e:	0712                	slli	a4,a4,0x4
     840:	1710                	addi	a2,sp,928
     842:	0000                	unimp
     844:	2402                	fld	fs0,0(sp)
     846:	0b00                	addi	s0,sp,400
     848:	030b3e0b          	.insn	4, 0x030b3e0b
     84c:	0008                	.insn	2, 0x0008
     84e:	0300                	addi	s0,sp,384
     850:	0024                	addi	s1,sp,8
     852:	0b3e0b0b          	.insn	4, 0x0b3e0b0b
     856:	00000e03          	lb	t3,0(zero) # 0 <__boot_hart>
     85a:	1604                	addi	s1,sp,800
     85c:	0300                	addi	s0,sp,384
     85e:	3a0e                	fld	fs4,224(sp)
     860:	390b3b0b          	.insn	4, 0x390b3b0b
     864:	0013490b          	.insn	4, 0x0013490b
     868:	0500                	addi	s0,sp,640
     86a:	0016                	c.slli	zero,0x5
     86c:	0b3a0e03          	lb	t3,179(s4)
     870:	0b39053b          	.insn	4, 0x0b39053b
     874:	1349                	addi	t1,t1,-14
     876:	0000                	unimp
     878:	1706                	slli	a4,a4,0x21
     87a:	0b01                	addi	s6,s6,0
     87c:	3b0b3a0b          	.insn	4, 0x3b0b3a0b
     880:	010b390b          	.insn	4, 0x010b390b
     884:	07000013          	li	zero,112
     888:	000d                	c.nop	3
     88a:	0b3a0e03          	lb	t3,179(s4)
     88e:	0b390b3b          	.insn	4, 0x0b390b3b
     892:	1349                	addi	t1,t1,-14
     894:	0000                	unimp
     896:	0108                	addi	a0,sp,128
     898:	4901                	li	s2,0
     89a:	00130113          	addi	sp,t1,1
     89e:	0900                	addi	s0,sp,144
     8a0:	0021                	c.nop	8
     8a2:	1349                	addi	t1,t1,-14
     8a4:	00000b2f          	.insn	4, 0x0b2f
     8a8:	130a                	slli	t1,t1,0x22
     8aa:	0b01                	addi	s6,s6,0
     8ac:	3b0b3a0b          	.insn	4, 0x3b0b3a0b
     8b0:	010b390b          	.insn	4, 0x010b390b
     8b4:	0b000013          	li	zero,176
     8b8:	000d                	c.nop	3
     8ba:	0b3a0e03          	lb	t3,179(s4)
     8be:	0b390b3b          	.insn	4, 0x0b390b3b
     8c2:	1349                	addi	t1,t1,-14
     8c4:	0b38                	addi	a4,sp,408
     8c6:	0000                	unimp
     8c8:	0f0c                	addi	a1,sp,912
     8ca:	0b00                	addi	s0,sp,400
     8cc:	0d00000b          	.insn	4, 0x0d00000b
     8d0:	0b0b000f          	.insn	4, 0x0b0b000f
     8d4:	1349                	addi	t1,t1,-14
     8d6:	0000                	unimp
     8d8:	260e                	fld	fa2,192(sp)
     8da:	4900                	lw	s0,16(a0)
     8dc:	0f000013          	li	zero,240
     8e0:	0e030113          	addi	sp,t1,224
     8e4:	0b3a0b0b          	.insn	4, 0x0b3a0b0b
     8e8:	0b390b3b          	.insn	4, 0x0b390b3b
     8ec:	1301                	addi	t1,t1,-32
     8ee:	0000                	unimp
     8f0:	0d10                	addi	a2,sp,656
     8f2:	0300                	addi	s0,sp,384
     8f4:	3a08                	fld	fa0,48(a2)
     8f6:	390b3b0b          	.insn	4, 0x390b3b0b
     8fa:	3813490b          	.insn	4, 0x3813490b
     8fe:	1100000b          	.insn	4, 0x1100000b
     902:	0e030113          	addi	sp,t1,224
     906:	0b3a050b          	.insn	4, 0x0b3a050b
     90a:	0b390b3b          	.insn	4, 0x0b390b3b
     90e:	1301                	addi	t1,t1,-32
     910:	0000                	unimp
     912:	0d12                	slli	s10,s10,0x4
     914:	0300                	addi	s0,sp,384
     916:	3a0e                	fld	fs4,224(sp)
     918:	390b3b0b          	.insn	4, 0x390b3b0b
     91c:	3813490b          	.insn	4, 0x3813490b
     920:	0005                	c.nop	1
     922:	1300                	addi	s0,sp,416
     924:	0015                	c.nop	5
     926:	00001927          	.insn	4, 0x1927
     92a:	1514                	addi	a3,sp,672
     92c:	2701                	sext.w	a4,a4
     92e:	4919                	li	s2,6
     930:	00130113          	addi	sp,t1,1
     934:	1500                	addi	s0,sp,672
     936:	0005                	c.nop	1
     938:	1349                	addi	t1,t1,-14
     93a:	0000                	unimp
     93c:	1316                	slli	t1,t1,0x25
     93e:	0301                	addi	t1,t1,0
     940:	0b0e                	slli	s6,s6,0x3
     942:	3a05                	addiw	s4,s4,-31
     944:	39053b0b          	.insn	4, 0x39053b0b
     948:	0013010b          	.insn	4, 0x0013010b
     94c:	1700                	addi	s0,sp,928
     94e:	000d                	c.nop	3
     950:	0b3a0e03          	lb	t3,179(s4)
     954:	0b39053b          	.insn	4, 0x0b39053b
     958:	1349                	addi	t1,t1,-14
     95a:	0b38                	addi	a4,sp,408
     95c:	0000                	unimp
     95e:	0d18                	addi	a4,sp,656
     960:	0300                	addi	s0,sp,384
     962:	3a0e                	fld	fs4,224(sp)
     964:	39053b0b          	.insn	4, 0x39053b0b
     968:	3813490b          	.insn	4, 0x3813490b
     96c:	0005                	c.nop	1
     96e:	1900                	addi	s0,sp,176
     970:	0e030113          	addi	sp,t1,224
     974:	0b3a0b0b          	.insn	4, 0x0b3a0b0b
     978:	0b39053b          	.insn	4, 0x0b39053b
     97c:	1301                	addi	t1,t1,-32
     97e:	0000                	unimp
     980:	131a                	slli	t1,t1,0x26
     982:	0b01                	addi	s6,s6,0
     984:	3b0b3a0b          	.insn	4, 0x3b0b3a0b
     988:	3905                	addiw	s2,s2,-31
     98a:	0013010b          	.insn	4, 0x0013010b
     98e:	1b00                	addi	s0,sp,432
     990:	050b0113          	addi	sp,s6,80
     994:	0b3a                	slli	s6,s6,0xe
     996:	0b39053b          	.insn	4, 0x0b39053b
     99a:	1301                	addi	t1,t1,-32
     99c:	0000                	unimp
     99e:	171c                	addi	a5,sp,928
     9a0:	0b01                	addi	s6,s6,0
     9a2:	3a05                	addiw	s4,s4,-31
     9a4:	39053b0b          	.insn	4, 0x39053b0b
     9a8:	0013010b          	.insn	4, 0x0013010b
     9ac:	1d00                	addi	s0,sp,688
     9ae:	000d                	c.nop	3
     9b0:	0b3a0e03          	lb	t3,179(s4)
     9b4:	0b39053b          	.insn	4, 0x0b39053b
     9b8:	1349                	addi	t1,t1,-14
     9ba:	0000                	unimp
     9bc:	131e                	slli	t1,t1,0x27
     9be:	0300                	addi	s0,sp,384
     9c0:	3c0e                	fld	fs8,224(sp)
     9c2:	0019                	c.nop	6
     9c4:	1f00                	addi	s0,sp,944
     9c6:	0115                	addi	sp,sp,5
     9c8:	13011927          	.insn	4, 0x13011927
     9cc:	0000                	unimp
     9ce:	3420                	fld	fs0,104(s0)
     9d0:	0300                	addi	s0,sp,384
     9d2:	3a0e                	fld	fs4,224(sp)
     9d4:	39053b0b          	.insn	4, 0x39053b0b
     9d8:	3f13490b          	.insn	4, 0x3f13490b
     9dc:	3c19                	addiw	s8,s8,-26
     9de:	0019                	c.nop	6
     9e0:	2100                	fld	fs0,0(a0)
     9e2:	0021                	c.nop	8
     9e4:	0000                	unimp
     9e6:	3422                	fld	fs0,40(sp)
     9e8:	0300                	addi	s0,sp,384
     9ea:	3a0e                	fld	fs4,224(sp)
     9ec:	390b3b0b          	.insn	4, 0x390b3b0b
     9f0:	3f13490b          	.insn	4, 0x3f13490b
     9f4:	3c19                	addiw	s8,s8,-26
     9f6:	0019                	c.nop	6
     9f8:	2300                	fld	fs0,0(a4)
     9fa:	0035                	c.nop	13
     9fc:	1349                	addi	t1,t1,-14
     9fe:	0000                	unimp
     a00:	2e24                	fld	fs1,88(a2)
     a02:	3f01                	addiw	t5,t5,-32
     a04:	0319                	addi	t1,t1,6
     a06:	3a0e                	fld	fs4,224(sp)
     a08:	390b3b0b          	.insn	4, 0x390b3b0b
     a0c:	4919270b          	.insn	4, 0x4919270b
     a10:	12011113          	.insn	4, 0x12011113
     a14:	97184007          	.insn	4, 0x97184007
     a18:	1942                	slli	s2,s2,0x30
     a1a:	1301                	addi	t1,t1,-32
     a1c:	0000                	unimp
     a1e:	0525                	addi	a0,a0,9
     a20:	0300                	addi	s0,sp,384
     a22:	3a0e                	fld	fs4,224(sp)
     a24:	390b3b0b          	.insn	4, 0x390b3b0b
     a28:	0213490b          	.insn	4, 0x0213490b
     a2c:	26000017          	auipc	zero,0x26000
     a30:	8289                	srli	a3,a3,0x2
     a32:	0001                	nop
     a34:	0111                	addi	sp,sp,4
     a36:	1331                	addi	t1,t1,-20
     a38:	0000                	unimp
     a3a:	3f002e27          	fsw	fa6,1020(zero) # 3fc <__stack_align+0x3ec>
     a3e:	3c19                	addiw	s8,s8,-26
     a40:	6e19                	lui	t3,0x6
     a42:	030e                	slli	t1,t1,0x3
     a44:	3a0e                	fld	fs4,224(sp)
     a46:	390b3b0b          	.insn	4, 0x390b3b0b
     a4a:	0000000b          	.insn	4, 0x000b
     a4e:	1101                	addi	sp,sp,-32
     a50:	2501                	sext.w	a0,a0
     a52:	130e                	slli	t1,t1,0x23
     a54:	1b0e030b          	.insn	4, 0x1b0e030b
     a58:	110e                	slli	sp,sp,0x23
     a5a:	1201                	addi	tp,tp,-32 # ffffffffffffffe0 <__heap_end+0xffffffff7ffdcfe0>
     a5c:	00171007          	.insn	4, 0x00171007
     a60:	0200                	addi	s0,sp,256
     a62:	0024                	addi	s1,sp,8
     a64:	0b3e0b0b          	.insn	4, 0x0b3e0b0b
     a68:	00000803          	lb	a6,0(zero) # 0 <__boot_hart>
     a6c:	0b002403          	lw	s0,176(zero) # b0 <__stack_align+0xa0>
     a70:	030b3e0b          	.insn	4, 0x030b3e0b
     a74:	000e                	c.slli	zero,0x3
     a76:	0400                	addi	s0,sp,512
     a78:	0016                	c.slli	zero,0x5
     a7a:	0b3a0e03          	lb	t3,179(s4)
     a7e:	0b390b3b          	.insn	4, 0x0b390b3b
     a82:	1349                	addi	t1,t1,-14
     a84:	0000                	unimp
     a86:	1605                	addi	a2,a2,-31
     a88:	0300                	addi	s0,sp,384
     a8a:	3a0e                	fld	fs4,224(sp)
     a8c:	39053b0b          	.insn	4, 0x39053b0b
     a90:	0013490b          	.insn	4, 0x0013490b
     a94:	0600                	addi	s0,sp,768
     a96:	0b0b0117          	auipc	sp,0xb0b0
     a9a:	0b3a                	slli	s6,s6,0xe
     a9c:	0b390b3b          	.insn	4, 0x0b390b3b
     aa0:	1301                	addi	t1,t1,-32
     aa2:	0000                	unimp
     aa4:	03000d07          	.insn	4, 0x03000d07
     aa8:	3a0e                	fld	fs4,224(sp)
     aaa:	390b3b0b          	.insn	4, 0x390b3b0b
     aae:	0013490b          	.insn	4, 0x0013490b
     ab2:	0800                	addi	s0,sp,16
     ab4:	0101                	addi	sp,sp,0 # b0b0a96 <__heap_size+0xb090a96>
     ab6:	1349                	addi	t1,t1,-14
     ab8:	1301                	addi	t1,t1,-32
     aba:	0000                	unimp
     abc:	2109                	addiw	sp,sp,2
     abe:	4900                	lw	s0,16(a0)
     ac0:	000b2f13          	slti	t5,s6,0
     ac4:	0a00                	addi	s0,sp,272
     ac6:	0b0b0113          	addi	sp,s6,176
     aca:	0b3a                	slli	s6,s6,0xe
     acc:	0b390b3b          	.insn	4, 0x0b390b3b
     ad0:	1301                	addi	t1,t1,-32
     ad2:	0000                	unimp
     ad4:	03000d0b          	.insn	4, 0x03000d0b
     ad8:	3a0e                	fld	fs4,224(sp)
     ada:	390b3b0b          	.insn	4, 0x390b3b0b
     ade:	3813490b          	.insn	4, 0x3813490b
     ae2:	0c00000b          	.insn	4, 0x0c00000b
     ae6:	0b0b000f          	.insn	4, 0x0b0b000f
     aea:	0000                	unimp
     aec:	0f0d                	addi	t5,t5,3
     aee:	0b00                	addi	s0,sp,400
     af0:	0013490b          	.insn	4, 0x0013490b
     af4:	0e00                	addi	s0,sp,784
     af6:	0026                	c.slli	zero,0x9
     af8:	1349                	addi	t1,t1,-14
     afa:	0000                	unimp
     afc:	0301130f          	.insn	4, 0x0301130f
     b00:	0b0e                	slli	s6,s6,0x3
     b02:	3b0b3a0b          	.insn	4, 0x3b0b3a0b
     b06:	010b390b          	.insn	4, 0x010b390b
     b0a:	10000013          	li	zero,256
     b0e:	000d                	c.nop	3
     b10:	0b3a0803          	lb	a6,179(s4)
     b14:	0b390b3b          	.insn	4, 0x0b390b3b
     b18:	1349                	addi	t1,t1,-14
     b1a:	0b38                	addi	a4,sp,408
     b1c:	0000                	unimp
     b1e:	1311                	addi	t1,t1,-28
     b20:	0301                	addi	t1,t1,0
     b22:	0b0e                	slli	s6,s6,0x3
     b24:	3a05                	addiw	s4,s4,-31
     b26:	390b3b0b          	.insn	4, 0x390b3b0b
     b2a:	0013010b          	.insn	4, 0x0013010b
     b2e:	1200                	addi	s0,sp,288
     b30:	000d                	c.nop	3
     b32:	0b3a0e03          	lb	t3,179(s4)
     b36:	0b390b3b          	.insn	4, 0x0b390b3b
     b3a:	1349                	addi	t1,t1,-14
     b3c:	0538                	addi	a4,sp,648
     b3e:	0000                	unimp
     b40:	27001513          	.insn	4, 0x27001513
     b44:	0019                	c.nop	6
     b46:	1400                	addi	s0,sp,544
     b48:	0115                	addi	sp,sp,5
     b4a:	13491927          	.insn	4, 0x13491927
     b4e:	1301                	addi	t1,t1,-32
     b50:	0000                	unimp
     b52:	0515                	addi	a0,a0,5
     b54:	4900                	lw	s0,16(a0)
     b56:	16000013          	li	zero,352
     b5a:	0e030113          	addi	sp,t1,224
     b5e:	0b3a050b          	.insn	4, 0x0b3a050b
     b62:	0b39053b          	.insn	4, 0x0b39053b
     b66:	1301                	addi	t1,t1,-32
     b68:	0000                	unimp
     b6a:	03000d17          	auipc	s10,0x3000
     b6e:	3a0e                	fld	fs4,224(sp)
     b70:	39053b0b          	.insn	4, 0x39053b0b
     b74:	3813490b          	.insn	4, 0x3813490b
     b78:	1800000b          	.insn	4, 0x1800000b
     b7c:	000d                	c.nop	3
     b7e:	0b3a0e03          	lb	t3,179(s4)
     b82:	0b39053b          	.insn	4, 0x0b39053b
     b86:	1349                	addi	t1,t1,-14
     b88:	0538                	addi	a4,sp,648
     b8a:	0000                	unimp
     b8c:	1319                	addi	t1,t1,-26
     b8e:	0301                	addi	t1,t1,0
     b90:	0b0e                	slli	s6,s6,0x3
     b92:	3b0b3a0b          	.insn	4, 0x3b0b3a0b
     b96:	3905                	addiw	s2,s2,-31
     b98:	0013010b          	.insn	4, 0x0013010b
     b9c:	1a00                	addi	s0,sp,304
     b9e:	0b0b0113          	addi	sp,s6,176
     ba2:	0b3a                	slli	s6,s6,0xe
     ba4:	0b39053b          	.insn	4, 0x0b39053b
     ba8:	1301                	addi	t1,t1,-32
     baa:	0000                	unimp
     bac:	0b01131b          	.insn	4, 0x0b01131b
     bb0:	3a05                	addiw	s4,s4,-31
     bb2:	39053b0b          	.insn	4, 0x39053b0b
     bb6:	0013010b          	.insn	4, 0x0013010b
     bba:	1c00                	addi	s0,sp,560
     bbc:	050b0117          	auipc	sp,0x50b0
     bc0:	0b3a                	slli	s6,s6,0xe
     bc2:	0b39053b          	.insn	4, 0x0b39053b
     bc6:	1301                	addi	t1,t1,-32
     bc8:	0000                	unimp
     bca:	0d1d                	addi	s10,s10,7 # 3000b71 <__heap_size+0x2fe0b71>
     bcc:	0300                	addi	s0,sp,384
     bce:	3a0e                	fld	fs4,224(sp)
     bd0:	39053b0b          	.insn	4, 0x39053b0b
     bd4:	0013490b          	.insn	4, 0x0013490b
     bd8:	1e00                	addi	s0,sp,816
     bda:	0e030013          	addi	zero,t1,224
     bde:	193c                	addi	a5,sp,184
     be0:	0000                	unimp
     be2:	151f 2701 0119      	.insn	6, 0x01192701151f
     be8:	20000013          	li	zero,512
     bec:	0034                	addi	a3,sp,8
     bee:	0b3a0e03          	lb	t3,179(s4)
     bf2:	0b39053b          	.insn	4, 0x0b39053b
     bf6:	1349                	addi	t1,t1,-14
     bf8:	193c193f 21210000 	.insn	8, 0x21210000193c193f
     c00:	0000                	unimp
     c02:	2200                	fld	fs0,0(a2)
     c04:	0034                	addi	a3,sp,8
     c06:	0b3a0e03          	lb	t3,179(s4)
     c0a:	0b390b3b          	.insn	4, 0x0b390b3b
     c0e:	1349                	addi	t1,t1,-14
     c10:	193c193f 35230000 	.insn	8, 0x35230000193c193f
     c18:	4900                	lw	s0,16(a0)
     c1a:	24000013          	li	zero,576
     c1e:	012e                	slli	sp,sp,0xb
     c20:	0e03193f 0b3b0b3a 	.insn	8, 0x0b3b0b3a0e03193f
     c28:	0b39                	addi	s6,s6,14
     c2a:	13491927          	.insn	4, 0x13491927
     c2e:	0111                	addi	sp,sp,4 # 50b0bc0 <__heap_size+0x5090bc0>
     c30:	0712                	slli	a4,a4,0x4
     c32:	1840                	addi	s0,sp,52
     c34:	01194297          	auipc	t0,0x1194
     c38:	25000013          	li	zero,592
     c3c:	0005                	c.nop	1
     c3e:	0b3a0e03          	lb	t3,179(s4)
     c42:	0b390b3b          	.insn	4, 0x0b390b3b
     c46:	1349                	addi	t1,t1,-14
     c48:	1702                	slli	a4,a4,0x20
     c4a:	0000                	unimp
     c4c:	0526                	slli	a0,a0,0x9
     c4e:	0300                	addi	s0,sp,384
     c50:	3a08                	fld	fa0,48(a2)
     c52:	390b3b0b          	.insn	4, 0x390b3b0b
     c56:	0213490b          	.insn	4, 0x0213490b
     c5a:	27000017          	auipc	zero,0x27000
     c5e:	8289                	srli	a3,a3,0x2
     c60:	0001                	nop
     c62:	0111                	addi	sp,sp,4
     c64:	1331                	addi	t1,t1,-20
     c66:	0000                	unimp
     c68:	2e28                	fld	fa0,88(a2)
     c6a:	3f00                	fld	fs0,56(a4)
     c6c:	3c19                	addiw	s8,s8,-26
     c6e:	6e19                	lui	t3,0x6
     c70:	030e                	slli	t1,t1,0x3
     c72:	3a0e                	fld	fs4,224(sp)
     c74:	390b3b0b          	.insn	4, 0x390b3b0b
     c78:	0000000b          	.insn	4, 0x000b
     c7c:	1101                	addi	sp,sp,-32
     c7e:	2501                	sext.w	a0,a0
     c80:	130e                	slli	t1,t1,0x23
     c82:	1b0e030b          	.insn	4, 0x1b0e030b
     c86:	110e                	slli	sp,sp,0x23
     c88:	1201                	addi	tp,tp,-32 # ffffffffffffffe0 <__heap_end+0xffffffff7ffdcfe0>
     c8a:	00171007          	.insn	4, 0x00171007
     c8e:	0200                	addi	s0,sp,256
     c90:	0024                	addi	s1,sp,8
     c92:	0b3e0b0b          	.insn	4, 0x0b3e0b0b
     c96:	00000803          	lb	a6,0(zero) # 0 <__boot_hart>
     c9a:	0b002403          	lw	s0,176(zero) # b0 <__stack_align+0xa0>
     c9e:	030b3e0b          	.insn	4, 0x030b3e0b
     ca2:	000e                	c.slli	zero,0x3
     ca4:	0400                	addi	s0,sp,512
     ca6:	0016                	c.slli	zero,0x5
     ca8:	0b3a0e03          	lb	t3,179(s4)
     cac:	0b390b3b          	.insn	4, 0x0b390b3b
     cb0:	1349                	addi	t1,t1,-14
     cb2:	0000                	unimp
     cb4:	1605                	addi	a2,a2,-31
     cb6:	0300                	addi	s0,sp,384
     cb8:	3a0e                	fld	fs4,224(sp)
     cba:	39053b0b          	.insn	4, 0x39053b0b
     cbe:	0013490b          	.insn	4, 0x0013490b
     cc2:	0600                	addi	s0,sp,768
     cc4:	0b0b0117          	auipc	sp,0xb0b0
     cc8:	0b3a                	slli	s6,s6,0xe
     cca:	0b390b3b          	.insn	4, 0x0b390b3b
     cce:	1301                	addi	t1,t1,-32
     cd0:	0000                	unimp
     cd2:	03000d07          	.insn	4, 0x03000d07
     cd6:	3a0e                	fld	fs4,224(sp)
     cd8:	390b3b0b          	.insn	4, 0x390b3b0b
     cdc:	0013490b          	.insn	4, 0x0013490b
     ce0:	0800                	addi	s0,sp,16
     ce2:	0101                	addi	sp,sp,0 # b0b0cc4 <__heap_size+0xb090cc4>
     ce4:	1349                	addi	t1,t1,-14
     ce6:	1301                	addi	t1,t1,-32
     ce8:	0000                	unimp
     cea:	2109                	addiw	sp,sp,2
     cec:	4900                	lw	s0,16(a0)
     cee:	000b2f13          	slti	t5,s6,0
     cf2:	0a00                	addi	s0,sp,272
     cf4:	0b0b0113          	addi	sp,s6,176
     cf8:	0b3a                	slli	s6,s6,0xe
     cfa:	0b390b3b          	.insn	4, 0x0b390b3b
     cfe:	1301                	addi	t1,t1,-32
     d00:	0000                	unimp
     d02:	03000d0b          	.insn	4, 0x03000d0b
     d06:	3a0e                	fld	fs4,224(sp)
     d08:	390b3b0b          	.insn	4, 0x390b3b0b
     d0c:	3813490b          	.insn	4, 0x3813490b
     d10:	0c00000b          	.insn	4, 0x0c00000b
     d14:	0b0b000f          	.insn	4, 0x0b0b000f
     d18:	0000                	unimp
     d1a:	0f0d                	addi	t5,t5,3
     d1c:	0b00                	addi	s0,sp,400
     d1e:	0013490b          	.insn	4, 0x0013490b
     d22:	0e00                	addi	s0,sp,784
     d24:	0026                	c.slli	zero,0x9
     d26:	1349                	addi	t1,t1,-14
     d28:	0000                	unimp
     d2a:	0301130f          	.insn	4, 0x0301130f
     d2e:	0b0e                	slli	s6,s6,0x3
     d30:	3b0b3a0b          	.insn	4, 0x3b0b3a0b
     d34:	010b390b          	.insn	4, 0x010b390b
     d38:	10000013          	li	zero,256
     d3c:	000d                	c.nop	3
     d3e:	0b3a0803          	lb	a6,179(s4)
     d42:	0b390b3b          	.insn	4, 0x0b390b3b
     d46:	1349                	addi	t1,t1,-14
     d48:	0b38                	addi	a4,sp,408
     d4a:	0000                	unimp
     d4c:	1311                	addi	t1,t1,-28
     d4e:	0301                	addi	t1,t1,0
     d50:	0b0e                	slli	s6,s6,0x3
     d52:	3a05                	addiw	s4,s4,-31
     d54:	390b3b0b          	.insn	4, 0x390b3b0b
     d58:	0013010b          	.insn	4, 0x0013010b
     d5c:	1200                	addi	s0,sp,288
     d5e:	000d                	c.nop	3
     d60:	0b3a0e03          	lb	t3,179(s4)
     d64:	0b390b3b          	.insn	4, 0x0b390b3b
     d68:	1349                	addi	t1,t1,-14
     d6a:	0538                	addi	a4,sp,648
     d6c:	0000                	unimp
     d6e:	27001513          	.insn	4, 0x27001513
     d72:	0019                	c.nop	6
     d74:	1400                	addi	s0,sp,544
     d76:	0115                	addi	sp,sp,5
     d78:	13491927          	.insn	4, 0x13491927
     d7c:	1301                	addi	t1,t1,-32
     d7e:	0000                	unimp
     d80:	0515                	addi	a0,a0,5
     d82:	4900                	lw	s0,16(a0)
     d84:	16000013          	li	zero,352
     d88:	0e030113          	addi	sp,t1,224
     d8c:	0b3a050b          	.insn	4, 0x0b3a050b
     d90:	0b39053b          	.insn	4, 0x0b39053b
     d94:	1301                	addi	t1,t1,-32
     d96:	0000                	unimp
     d98:	03000d17          	auipc	s10,0x3000
     d9c:	3a0e                	fld	fs4,224(sp)
     d9e:	39053b0b          	.insn	4, 0x39053b0b
     da2:	3813490b          	.insn	4, 0x3813490b
     da6:	1800000b          	.insn	4, 0x1800000b
     daa:	000d                	c.nop	3
     dac:	0b3a0e03          	lb	t3,179(s4)
     db0:	0b39053b          	.insn	4, 0x0b39053b
     db4:	1349                	addi	t1,t1,-14
     db6:	0538                	addi	a4,sp,648
     db8:	0000                	unimp
     dba:	1319                	addi	t1,t1,-26
     dbc:	0301                	addi	t1,t1,0
     dbe:	0b0e                	slli	s6,s6,0x3
     dc0:	3b0b3a0b          	.insn	4, 0x3b0b3a0b
     dc4:	3905                	addiw	s2,s2,-31
     dc6:	0013010b          	.insn	4, 0x0013010b
     dca:	1a00                	addi	s0,sp,304
     dcc:	0b0b0113          	addi	sp,s6,176
     dd0:	0b3a                	slli	s6,s6,0xe
     dd2:	0b39053b          	.insn	4, 0x0b39053b
     dd6:	1301                	addi	t1,t1,-32
     dd8:	0000                	unimp
     dda:	0b01131b          	.insn	4, 0x0b01131b
     dde:	3a05                	addiw	s4,s4,-31
     de0:	39053b0b          	.insn	4, 0x39053b0b
     de4:	0013010b          	.insn	4, 0x0013010b
     de8:	1c00                	addi	s0,sp,560
     dea:	050b0117          	auipc	sp,0x50b0
     dee:	0b3a                	slli	s6,s6,0xe
     df0:	0b39053b          	.insn	4, 0x0b39053b
     df4:	1301                	addi	t1,t1,-32
     df6:	0000                	unimp
     df8:	0d1d                	addi	s10,s10,7 # 3000d9f <__heap_size+0x2fe0d9f>
     dfa:	0300                	addi	s0,sp,384
     dfc:	3a0e                	fld	fs4,224(sp)
     dfe:	39053b0b          	.insn	4, 0x39053b0b
     e02:	0013490b          	.insn	4, 0x0013490b
     e06:	1e00                	addi	s0,sp,816
     e08:	0e030013          	addi	zero,t1,224
     e0c:	193c                	addi	a5,sp,184
     e0e:	0000                	unimp
     e10:	151f 2701 0119      	.insn	6, 0x01192701151f
     e16:	20000013          	li	zero,512
     e1a:	0034                	addi	a3,sp,8
     e1c:	0b3a0e03          	lb	t3,179(s4)
     e20:	0b39053b          	.insn	4, 0x0b39053b
     e24:	1349                	addi	t1,t1,-14
     e26:	193c193f 21210000 	.insn	8, 0x21210000193c193f
     e2e:	0000                	unimp
     e30:	2200                	fld	fs0,0(a2)
     e32:	0034                	addi	a3,sp,8
     e34:	0b3a0e03          	lb	t3,179(s4)
     e38:	0b390b3b          	.insn	4, 0x0b390b3b
     e3c:	1349                	addi	t1,t1,-14
     e3e:	193c193f 35230000 	.insn	8, 0x35230000193c193f
     e46:	4900                	lw	s0,16(a0)
     e48:	24000013          	li	zero,576
     e4c:	012e                	slli	sp,sp,0xb
     e4e:	0e03193f 0b3b0b3a 	.insn	8, 0x0b3b0b3a0e03193f
     e56:	0b39                	addi	s6,s6,14
     e58:	13491927          	.insn	4, 0x13491927
     e5c:	0111                	addi	sp,sp,4 # 50b0dee <__heap_size+0x5090dee>
     e5e:	0712                	slli	a4,a4,0x4
     e60:	1840                	addi	s0,sp,52
     e62:	01194297          	auipc	t0,0x1194
     e66:	25000013          	li	zero,592
     e6a:	0005                	c.nop	1
     e6c:	0b3a0e03          	lb	t3,179(s4)
     e70:	0b390b3b          	.insn	4, 0x0b390b3b
     e74:	1349                	addi	t1,t1,-14
     e76:	1702                	slli	a4,a4,0x20
     e78:	0000                	unimp
     e7a:	0526                	slli	a0,a0,0x9
     e7c:	0300                	addi	s0,sp,384
     e7e:	3a08                	fld	fa0,48(a2)
     e80:	390b3b0b          	.insn	4, 0x390b3b0b
     e84:	0213490b          	.insn	4, 0x0213490b
     e88:	27000017          	auipc	zero,0x27000
     e8c:	8289                	srli	a3,a3,0x2
     e8e:	0001                	nop
     e90:	0111                	addi	sp,sp,4
     e92:	1331                	addi	t1,t1,-20
     e94:	0000                	unimp
     e96:	2e28                	fld	fa0,88(a2)
     e98:	3f00                	fld	fs0,56(a4)
     e9a:	3c19                	addiw	s8,s8,-26
     e9c:	6e19                	lui	t3,0x6
     e9e:	030e                	slli	t1,t1,0x3
     ea0:	3a0e                	fld	fs4,224(sp)
     ea2:	390b3b0b          	.insn	4, 0x390b3b0b
     ea6:	0000000b          	.insn	4, 0x000b
     eaa:	1101                	addi	sp,sp,-32
     eac:	2501                	sext.w	a0,a0
     eae:	130e                	slli	t1,t1,0x23
     eb0:	1b0e030b          	.insn	4, 0x1b0e030b
     eb4:	110e                	slli	sp,sp,0x23
     eb6:	1201                	addi	tp,tp,-32 # ffffffffffffffe0 <__heap_end+0xffffffff7ffdcfe0>
     eb8:	00171007          	.insn	4, 0x00171007
     ebc:	0200                	addi	s0,sp,256
     ebe:	0016                	c.slli	zero,0x5
     ec0:	0b3a0e03          	lb	t3,179(s4)
     ec4:	0b390b3b          	.insn	4, 0x0b390b3b
     ec8:	1349                	addi	t1,t1,-14
     eca:	0000                	unimp
     ecc:	0b002403          	lw	s0,176(zero) # b0 <__stack_align+0xa0>
     ed0:	030b3e0b          	.insn	4, 0x030b3e0b
     ed4:	000e                	c.slli	zero,0x3
     ed6:	0400                	addi	s0,sp,512
     ed8:	0024                	addi	s1,sp,8
     eda:	0b3e0b0b          	.insn	4, 0x0b3e0b0b
     ede:	00000803          	lb	a6,0(zero) # 0 <__boot_hart>
     ee2:	1605                	addi	a2,a2,-31
     ee4:	0300                	addi	s0,sp,384
     ee6:	3a0e                	fld	fs4,224(sp)
     ee8:	39053b0b          	.insn	4, 0x39053b0b
     eec:	0013490b          	.insn	4, 0x0013490b
     ef0:	0600                	addi	s0,sp,768
     ef2:	0b0b0117          	auipc	sp,0xb0b0
     ef6:	0b3a                	slli	s6,s6,0xe
     ef8:	0b390b3b          	.insn	4, 0x0b390b3b
     efc:	1301                	addi	t1,t1,-32
     efe:	0000                	unimp
     f00:	03000d07          	.insn	4, 0x03000d07
     f04:	3a0e                	fld	fs4,224(sp)
     f06:	390b3b0b          	.insn	4, 0x390b3b0b
     f0a:	0013490b          	.insn	4, 0x0013490b
     f0e:	0800                	addi	s0,sp,16
     f10:	0101                	addi	sp,sp,0 # b0b0ef2 <__heap_size+0xb090ef2>
     f12:	1349                	addi	t1,t1,-14
     f14:	1301                	addi	t1,t1,-32
     f16:	0000                	unimp
     f18:	2109                	addiw	sp,sp,2
     f1a:	4900                	lw	s0,16(a0)
     f1c:	000b2f13          	slti	t5,s6,0
     f20:	0a00                	addi	s0,sp,272
     f22:	0b0b0113          	addi	sp,s6,176
     f26:	0b3a                	slli	s6,s6,0xe
     f28:	0b390b3b          	.insn	4, 0x0b390b3b
     f2c:	1301                	addi	t1,t1,-32
     f2e:	0000                	unimp
     f30:	03000d0b          	.insn	4, 0x03000d0b
     f34:	3a0e                	fld	fs4,224(sp)
     f36:	390b3b0b          	.insn	4, 0x390b3b0b
     f3a:	3813490b          	.insn	4, 0x3813490b
     f3e:	0c00000b          	.insn	4, 0x0c00000b
     f42:	0b0b000f          	.insn	4, 0x0b0b000f
     f46:	0000                	unimp
     f48:	0f0d                	addi	t5,t5,3
     f4a:	0b00                	addi	s0,sp,400
     f4c:	0013490b          	.insn	4, 0x0013490b
     f50:	0e00                	addi	s0,sp,784
     f52:	0026                	c.slli	zero,0x9
     f54:	1349                	addi	t1,t1,-14
     f56:	0000                	unimp
     f58:	0301130f          	.insn	4, 0x0301130f
     f5c:	0b0e                	slli	s6,s6,0x3
     f5e:	3b0b3a0b          	.insn	4, 0x3b0b3a0b
     f62:	010b390b          	.insn	4, 0x010b390b
     f66:	10000013          	li	zero,256
     f6a:	000d                	c.nop	3
     f6c:	0b3a0803          	lb	a6,179(s4)
     f70:	0b390b3b          	.insn	4, 0x0b390b3b
     f74:	1349                	addi	t1,t1,-14
     f76:	0b38                	addi	a4,sp,408
     f78:	0000                	unimp
     f7a:	1311                	addi	t1,t1,-28
     f7c:	0301                	addi	t1,t1,0
     f7e:	0b0e                	slli	s6,s6,0x3
     f80:	3a05                	addiw	s4,s4,-31
     f82:	390b3b0b          	.insn	4, 0x390b3b0b
     f86:	0013010b          	.insn	4, 0x0013010b
     f8a:	1200                	addi	s0,sp,288
     f8c:	000d                	c.nop	3
     f8e:	0b3a0e03          	lb	t3,179(s4)
     f92:	0b390b3b          	.insn	4, 0x0b390b3b
     f96:	1349                	addi	t1,t1,-14
     f98:	0538                	addi	a4,sp,648
     f9a:	0000                	unimp
     f9c:	27001513          	.insn	4, 0x27001513
     fa0:	0019                	c.nop	6
     fa2:	1400                	addi	s0,sp,544
     fa4:	0115                	addi	sp,sp,5
     fa6:	13491927          	.insn	4, 0x13491927
     faa:	1301                	addi	t1,t1,-32
     fac:	0000                	unimp
     fae:	0515                	addi	a0,a0,5
     fb0:	4900                	lw	s0,16(a0)
     fb2:	16000013          	li	zero,352
     fb6:	0e030113          	addi	sp,t1,224
     fba:	0b3a050b          	.insn	4, 0x0b3a050b
     fbe:	0b39053b          	.insn	4, 0x0b39053b
     fc2:	1301                	addi	t1,t1,-32
     fc4:	0000                	unimp
     fc6:	03000d17          	auipc	s10,0x3000
     fca:	3a0e                	fld	fs4,224(sp)
     fcc:	39053b0b          	.insn	4, 0x39053b0b
     fd0:	3813490b          	.insn	4, 0x3813490b
     fd4:	1800000b          	.insn	4, 0x1800000b
     fd8:	000d                	c.nop	3
     fda:	0b3a0e03          	lb	t3,179(s4)
     fde:	0b39053b          	.insn	4, 0x0b39053b
     fe2:	1349                	addi	t1,t1,-14
     fe4:	0538                	addi	a4,sp,648
     fe6:	0000                	unimp
     fe8:	1319                	addi	t1,t1,-26
     fea:	0301                	addi	t1,t1,0
     fec:	0b0e                	slli	s6,s6,0x3
     fee:	3b0b3a0b          	.insn	4, 0x3b0b3a0b
     ff2:	3905                	addiw	s2,s2,-31
     ff4:	0013010b          	.insn	4, 0x0013010b
     ff8:	1a00                	addi	s0,sp,304
     ffa:	0b0b0113          	addi	sp,s6,176
     ffe:	0b3a                	slli	s6,s6,0xe
    1000:	0b39053b          	.insn	4, 0x0b39053b
    1004:	1301                	addi	t1,t1,-32
    1006:	0000                	unimp
    1008:	0b01131b          	.insn	4, 0x0b01131b
    100c:	3a05                	addiw	s4,s4,-31
    100e:	39053b0b          	.insn	4, 0x39053b0b
    1012:	0013010b          	.insn	4, 0x0013010b
    1016:	1c00                	addi	s0,sp,560
    1018:	050b0117          	auipc	sp,0x50b0
    101c:	0b3a                	slli	s6,s6,0xe
    101e:	0b39053b          	.insn	4, 0x0b39053b
    1022:	1301                	addi	t1,t1,-32
    1024:	0000                	unimp
    1026:	0d1d                	addi	s10,s10,7 # 3000fcd <__heap_size+0x2fe0fcd>
    1028:	0300                	addi	s0,sp,384
    102a:	3a0e                	fld	fs4,224(sp)
    102c:	39053b0b          	.insn	4, 0x39053b0b
    1030:	0013490b          	.insn	4, 0x0013490b
    1034:	1e00                	addi	s0,sp,816
    1036:	0e030013          	addi	zero,t1,224
    103a:	193c                	addi	a5,sp,184
    103c:	0000                	unimp
    103e:	151f 2701 0119      	.insn	6, 0x01192701151f
    1044:	20000013          	li	zero,512
    1048:	0034                	addi	a3,sp,8
    104a:	0b3a0e03          	lb	t3,179(s4)
    104e:	0b39053b          	.insn	4, 0x0b39053b
    1052:	1349                	addi	t1,t1,-14
    1054:	193c193f 21210000 	.insn	8, 0x21210000193c193f
    105c:	0000                	unimp
    105e:	2200                	fld	fs0,0(a2)
    1060:	0034                	addi	a3,sp,8
    1062:	0b3a0e03          	lb	t3,179(s4)
    1066:	0b390b3b          	.insn	4, 0x0b390b3b
    106a:	1349                	addi	t1,t1,-14
    106c:	193c193f 35230000 	.insn	8, 0x35230000193c193f
    1074:	4900                	lw	s0,16(a0)
    1076:	24000013          	li	zero,576
    107a:	0034                	addi	a3,sp,8
    107c:	0b3a0e03          	lb	t3,179(s4)
    1080:	0b390b3b          	.insn	4, 0x0b390b3b
    1084:	1349                	addi	t1,t1,-14
    1086:	1802                	slli	a6,a6,0x20
    1088:	0000                	unimp
    108a:	2e25                	addiw	t3,t3,9 # 6009 <__stack_size_min+0x9>
    108c:	3f01                	addiw	t5,t5,-32
    108e:	0319                	addi	t1,t1,6
    1090:	3a0e                	fld	fs4,224(sp)
    1092:	390b3b0b          	.insn	4, 0x390b3b0b
    1096:	4919270b          	.insn	4, 0x4919270b
    109a:	12011113          	.insn	4, 0x12011113
    109e:	97184007          	.insn	4, 0x97184007
    10a2:	1942                	slli	s2,s2,0x30
    10a4:	1301                	addi	t1,t1,-32
    10a6:	0000                	unimp
    10a8:	0526                	slli	a0,a0,0x9
    10aa:	0300                	addi	s0,sp,384
    10ac:	3a0e                	fld	fs4,224(sp)
    10ae:	390b3b0b          	.insn	4, 0x390b3b0b
    10b2:	0213490b          	.insn	4, 0x0213490b
    10b6:	27000017          	auipc	zero,0x27000
    10ba:	0034                	addi	a3,sp,8
    10bc:	0b3a0e03          	lb	t3,179(s4)
    10c0:	0b390b3b          	.insn	4, 0x0b390b3b
    10c4:	1349                	addi	t1,t1,-14
    10c6:	1702                	slli	a4,a4,0x20
    10c8:	0000                	unimp
    10ca:	8928                	.insn	2, 0x8928
    10cc:	0182                	c.slli64	gp
    10ce:	1100                	addi	s0,sp,160
    10d0:	3101                	addiw	sp,sp,-32 # 50b0ff8 <__heap_size+0x5090ff8>
    10d2:	29000013          	li	zero,656
    10d6:	002e                	c.slli	zero,0xb
    10d8:	193c193f 0e030e6e 	.insn	8, 0x0e030e6e193c193f
    10e0:	0b3a                	slli	s6,s6,0xe
    10e2:	0b390b3b          	.insn	4, 0x0b390b3b
    10e6:	0000                	unimp
    10e8:	0100                	addi	s0,sp,128
    10ea:	0111                	addi	sp,sp,4
    10ec:	0e25                	addi	t3,t3,9
    10ee:	0e030b13          	addi	s6,t1,224
    10f2:	01110e1b          	addiw	t3,sp,17
    10f6:	0712                	slli	a4,a4,0x4
    10f8:	1710                	addi	a2,sp,928
    10fa:	0000                	unimp
    10fc:	2402                	fld	fs0,0(sp)
    10fe:	0b00                	addi	s0,sp,400
    1100:	030b3e0b          	.insn	4, 0x030b3e0b
    1104:	0008                	.insn	2, 0x0008
    1106:	0300                	addi	s0,sp,384
    1108:	0024                	addi	s1,sp,8
    110a:	0b3e0b0b          	.insn	4, 0x0b3e0b0b
    110e:	00000e03          	lb	t3,0(zero) # 0 <__boot_hart>
    1112:	1604                	addi	s1,sp,800
    1114:	0300                	addi	s0,sp,384
    1116:	3a0e                	fld	fs4,224(sp)
    1118:	390b3b0b          	.insn	4, 0x390b3b0b
    111c:	0013490b          	.insn	4, 0x0013490b
    1120:	0500                	addi	s0,sp,640
    1122:	0016                	c.slli	zero,0x5
    1124:	0b3a0e03          	lb	t3,179(s4)
    1128:	0b39053b          	.insn	4, 0x0b39053b
    112c:	1349                	addi	t1,t1,-14
    112e:	0000                	unimp
    1130:	1706                	slli	a4,a4,0x21
    1132:	0b01                	addi	s6,s6,0
    1134:	3b0b3a0b          	.insn	4, 0x3b0b3a0b
    1138:	010b390b          	.insn	4, 0x010b390b
    113c:	07000013          	li	zero,112
    1140:	000d                	c.nop	3
    1142:	0b3a0e03          	lb	t3,179(s4)
    1146:	0b390b3b          	.insn	4, 0x0b390b3b
    114a:	1349                	addi	t1,t1,-14
    114c:	0000                	unimp
    114e:	0108                	addi	a0,sp,128
    1150:	4901                	li	s2,0
    1152:	00130113          	addi	sp,t1,1
    1156:	0900                	addi	s0,sp,144
    1158:	0021                	c.nop	8
    115a:	1349                	addi	t1,t1,-14
    115c:	00000b2f          	.insn	4, 0x0b2f
    1160:	130a                	slli	t1,t1,0x22
    1162:	0b01                	addi	s6,s6,0
    1164:	3b0b3a0b          	.insn	4, 0x3b0b3a0b
    1168:	010b390b          	.insn	4, 0x010b390b
    116c:	0b000013          	li	zero,176
    1170:	000d                	c.nop	3
    1172:	0b3a0e03          	lb	t3,179(s4)
    1176:	0b390b3b          	.insn	4, 0x0b390b3b
    117a:	1349                	addi	t1,t1,-14
    117c:	0b38                	addi	a4,sp,408
    117e:	0000                	unimp
    1180:	0f0c                	addi	a1,sp,912
    1182:	0b00                	addi	s0,sp,400
    1184:	0d00000b          	.insn	4, 0x0d00000b
    1188:	0b0b000f          	.insn	4, 0x0b0b000f
    118c:	1349                	addi	t1,t1,-14
    118e:	0000                	unimp
    1190:	260e                	fld	fa2,192(sp)
    1192:	4900                	lw	s0,16(a0)
    1194:	0f000013          	li	zero,240
    1198:	0e030113          	addi	sp,t1,224
    119c:	0b3a0b0b          	.insn	4, 0x0b3a0b0b
    11a0:	0b390b3b          	.insn	4, 0x0b390b3b
    11a4:	1301                	addi	t1,t1,-32
    11a6:	0000                	unimp
    11a8:	0d10                	addi	a2,sp,656
    11aa:	0300                	addi	s0,sp,384
    11ac:	3a08                	fld	fa0,48(a2)
    11ae:	390b3b0b          	.insn	4, 0x390b3b0b
    11b2:	3813490b          	.insn	4, 0x3813490b
    11b6:	1100000b          	.insn	4, 0x1100000b
    11ba:	0e030113          	addi	sp,t1,224
    11be:	0b3a050b          	.insn	4, 0x0b3a050b
    11c2:	0b390b3b          	.insn	4, 0x0b390b3b
    11c6:	1301                	addi	t1,t1,-32
    11c8:	0000                	unimp
    11ca:	0d12                	slli	s10,s10,0x4
    11cc:	0300                	addi	s0,sp,384
    11ce:	3a0e                	fld	fs4,224(sp)
    11d0:	390b3b0b          	.insn	4, 0x390b3b0b
    11d4:	3813490b          	.insn	4, 0x3813490b
    11d8:	0005                	c.nop	1
    11da:	1300                	addi	s0,sp,416
    11dc:	0015                	c.nop	5
    11de:	00001927          	.insn	4, 0x1927
    11e2:	1514                	addi	a3,sp,672
    11e4:	2701                	sext.w	a4,a4
    11e6:	4919                	li	s2,6
    11e8:	00130113          	addi	sp,t1,1
    11ec:	1500                	addi	s0,sp,672
    11ee:	0005                	c.nop	1
    11f0:	1349                	addi	t1,t1,-14
    11f2:	0000                	unimp
    11f4:	1316                	slli	t1,t1,0x25
    11f6:	0301                	addi	t1,t1,0
    11f8:	0b0e                	slli	s6,s6,0x3
    11fa:	3a05                	addiw	s4,s4,-31
    11fc:	39053b0b          	.insn	4, 0x39053b0b
    1200:	0013010b          	.insn	4, 0x0013010b
    1204:	1700                	addi	s0,sp,928
    1206:	000d                	c.nop	3
    1208:	0b3a0e03          	lb	t3,179(s4)
    120c:	0b39053b          	.insn	4, 0x0b39053b
    1210:	1349                	addi	t1,t1,-14
    1212:	0b38                	addi	a4,sp,408
    1214:	0000                	unimp
    1216:	0d18                	addi	a4,sp,656
    1218:	0300                	addi	s0,sp,384
    121a:	3a0e                	fld	fs4,224(sp)
    121c:	39053b0b          	.insn	4, 0x39053b0b
    1220:	3813490b          	.insn	4, 0x3813490b
    1224:	0005                	c.nop	1
    1226:	1900                	addi	s0,sp,176
    1228:	0e030113          	addi	sp,t1,224
    122c:	0b3a0b0b          	.insn	4, 0x0b3a0b0b
    1230:	0b39053b          	.insn	4, 0x0b39053b
    1234:	1301                	addi	t1,t1,-32
    1236:	0000                	unimp
    1238:	131a                	slli	t1,t1,0x26
    123a:	0b01                	addi	s6,s6,0
    123c:	3b0b3a0b          	.insn	4, 0x3b0b3a0b
    1240:	3905                	addiw	s2,s2,-31
    1242:	0013010b          	.insn	4, 0x0013010b
    1246:	1b00                	addi	s0,sp,432
    1248:	050b0113          	addi	sp,s6,80
    124c:	0b3a                	slli	s6,s6,0xe
    124e:	0b39053b          	.insn	4, 0x0b39053b
    1252:	1301                	addi	t1,t1,-32
    1254:	0000                	unimp
    1256:	171c                	addi	a5,sp,928
    1258:	0b01                	addi	s6,s6,0
    125a:	3a05                	addiw	s4,s4,-31
    125c:	39053b0b          	.insn	4, 0x39053b0b
    1260:	0013010b          	.insn	4, 0x0013010b
    1264:	1d00                	addi	s0,sp,688
    1266:	000d                	c.nop	3
    1268:	0b3a0e03          	lb	t3,179(s4)
    126c:	0b39053b          	.insn	4, 0x0b39053b
    1270:	1349                	addi	t1,t1,-14
    1272:	0000                	unimp
    1274:	131e                	slli	t1,t1,0x27
    1276:	0300                	addi	s0,sp,384
    1278:	3c0e                	fld	fs8,224(sp)
    127a:	0019                	c.nop	6
    127c:	1f00                	addi	s0,sp,944
    127e:	0115                	addi	sp,sp,5
    1280:	13011927          	.insn	4, 0x13011927
    1284:	0000                	unimp
    1286:	3420                	fld	fs0,104(s0)
    1288:	0300                	addi	s0,sp,384
    128a:	3a0e                	fld	fs4,224(sp)
    128c:	39053b0b          	.insn	4, 0x39053b0b
    1290:	3f13490b          	.insn	4, 0x3f13490b
    1294:	3c19                	addiw	s8,s8,-26
    1296:	0019                	c.nop	6
    1298:	2100                	fld	fs0,0(a0)
    129a:	0021                	c.nop	8
    129c:	0000                	unimp
    129e:	3422                	fld	fs0,40(sp)
    12a0:	0300                	addi	s0,sp,384
    12a2:	3a0e                	fld	fs4,224(sp)
    12a4:	390b3b0b          	.insn	4, 0x390b3b0b
    12a8:	3f13490b          	.insn	4, 0x3f13490b
    12ac:	3c19                	addiw	s8,s8,-26
    12ae:	0019                	c.nop	6
    12b0:	2300                	fld	fs0,0(a4)
    12b2:	0035                	c.nop	13
    12b4:	1349                	addi	t1,t1,-14
    12b6:	0000                	unimp
    12b8:	2e24                	fld	fs1,88(a2)
    12ba:	3f01                	addiw	t5,t5,-32
    12bc:	0319                	addi	t1,t1,6
    12be:	3a0e                	fld	fs4,224(sp)
    12c0:	390b3b0b          	.insn	4, 0x390b3b0b
    12c4:	4919270b          	.insn	4, 0x4919270b
    12c8:	12011113          	.insn	4, 0x12011113
    12cc:	97184007          	.insn	4, 0x97184007
    12d0:	1942                	slli	s2,s2,0x30
    12d2:	1301                	addi	t1,t1,-32
    12d4:	0000                	unimp
    12d6:	0525                	addi	a0,a0,9
    12d8:	0300                	addi	s0,sp,384
    12da:	3a08                	fld	fa0,48(a2)
    12dc:	390b3b0b          	.insn	4, 0x390b3b0b
    12e0:	0213490b          	.insn	4, 0x0213490b
    12e4:	26000017          	auipc	zero,0x26000
    12e8:	8289                	srli	a3,a3,0x2
    12ea:	0101                	addi	sp,sp,0
    12ec:	0111                	addi	sp,sp,4
    12ee:	4295                	li	t0,5
    12f0:	3119                	addiw	sp,sp,-26
    12f2:	27000013          	li	zero,624
    12f6:	828a                	mv	t0,sp
    12f8:	0001                	nop
    12fa:	1802                	slli	a6,a6,0x20
    12fc:	4291                	li	t0,4
    12fe:	0018                	.insn	2, 0x0018
    1300:	2800                	fld	fs0,16(s0)
    1302:	0026                	c.slli	zero,0x9
    1304:	0000                	unimp
    1306:	2e29                	addiw	t3,t3,10
    1308:	3f00                	fld	fs0,56(a4)
    130a:	3c19                	addiw	s8,s8,-26
    130c:	6e19                	lui	t3,0x6
    130e:	030e                	slli	t1,t1,0x3
    1310:	3a0e                	fld	fs4,224(sp)
    1312:	390b3b0b          	.insn	4, 0x390b3b0b
    1316:	0000000b          	.insn	4, 0x000b

Disassembly of section .debug_aranges:

0000000000000000 <.debug_aranges>:
   0:	002c                	addi	a1,sp,8
   2:	0000                	unimp
   4:	0002                	c.slli64	zero
   6:	0000                	unimp
   8:	0000                	unimp
   a:	0008                	.insn	2, 0x0008
   c:	0000                	unimp
   e:	0000                	unimp
  10:	023e                	slli	tp,tp,0xf
  12:	8000                	.insn	2, 0x8000
  14:	0000                	unimp
  16:	0000                	unimp
  18:	03d8                	addi	a4,sp,452
	...
  2e:	0000                	unimp
  30:	002c                	addi	a1,sp,8
  32:	0000                	unimp
  34:	0002                	c.slli64	zero
  36:	0000031b          	sext.w	t1,zero
  3a:	0008                	.insn	2, 0x0008
  3c:	0000                	unimp
  3e:	0000                	unimp
  40:	0616                	slli	a2,a2,0x5
  42:	8000                	.insn	2, 0x8000
  44:	0000                	unimp
  46:	0000                	unimp
  48:	04b6                	slli	s1,s1,0xd
	...
  5e:	0000                	unimp
  60:	002c                	addi	a1,sp,8
  62:	0000                	unimp
  64:	0002                	c.slli64	zero
  66:	0828                	addi	a0,sp,24
  68:	0000                	unimp
  6a:	0008                	.insn	2, 0x0008
  6c:	0000                	unimp
  6e:	0000                	unimp
  70:	0acc                	addi	a1,sp,340
  72:	8000                	.insn	2, 0x8000
  74:	0000                	unimp
  76:	0000                	unimp
  78:	00c2                	slli	ra,ra,0x10
	...
  8e:	0000                	unimp
  90:	002c                	addi	a1,sp,8
  92:	0000                	unimp
  94:	0002                	c.slli64	zero
  96:	0a16                	slli	s4,s4,0x5
  98:	0000                	unimp
  9a:	0008                	.insn	2, 0x0008
  9c:	0000                	unimp
  9e:	0000                	unimp
  a0:	0b8e                	slli	s7,s7,0x3
  a2:	8000                	.insn	2, 0x8000
  a4:	0000                	unimp
  a6:	0000                	unimp
  a8:	0020                	addi	s0,sp,8
	...
  be:	0000                	unimp
  c0:	002c                	addi	a1,sp,8
  c2:	0000                	unimp
  c4:	0002                	c.slli64	zero
  c6:	0afd                	addi	s5,s5,31
  c8:	0000                	unimp
  ca:	0008                	.insn	2, 0x0008
  cc:	0000                	unimp
  ce:	0000                	unimp
  d0:	0000                	unimp
  d2:	8000                	.insn	2, 0x8000
  d4:	0000                	unimp
  d6:	0000                	unimp
  d8:	01f4                	addi	a3,sp,204
	...
  ee:	0000                	unimp
  f0:	002c                	addi	a1,sp,8
  f2:	0000                	unimp
  f4:	0002                	c.slli64	zero
  f6:	00000b2b          	.insn	4, 0x0b2b
  fa:	0008                	.insn	2, 0x0008
  fc:	0000                	unimp
  fe:	0000                	unimp
 100:	01f4                	addi	a3,sp,204
 102:	8000                	.insn	2, 0x8000
 104:	0000                	unimp
 106:	0000                	unimp
 108:	004a                	c.slli	zero,0x12
	...
 11e:	0000                	unimp
 120:	002c                	addi	a1,sp,8
 122:	0000                	unimp
 124:	0002                	c.slli64	zero
 126:	0b59                	addi	s6,s6,22
 128:	0000                	unimp
 12a:	0008                	.insn	2, 0x0008
 12c:	0000                	unimp
 12e:	0000                	unimp
 130:	0bae                	slli	s7,s7,0xb
 132:	8000                	.insn	2, 0x8000
 134:	0000                	unimp
 136:	0000                	unimp
 138:	002e                	c.slli	zero,0xb
	...
 14e:	0000                	unimp
 150:	002c                	addi	a1,sp,8
 152:	0000                	unimp
 154:	0002                	c.slli64	zero
 156:	1532                	slli	a0,a0,0x2c
 158:	0000                	unimp
 15a:	0008                	.insn	2, 0x0008
 15c:	0000                	unimp
 15e:	0000                	unimp
 160:	0bdc                	addi	a5,sp,468
 162:	8000                	.insn	2, 0x8000
 164:	0000                	unimp
 166:	0000                	unimp
 168:	0052                	c.slli	zero,0x14
	...
 17e:	0000                	unimp
 180:	002c                	addi	a1,sp,8
 182:	0000                	unimp
 184:	0002                	c.slli64	zero
 186:	18aa                	slli	a7,a7,0x2a
 188:	0000                	unimp
 18a:	0008                	.insn	2, 0x0008
 18c:	0000                	unimp
 18e:	0000                	unimp
 190:	16ec                	addi	a1,sp,876
 192:	8000                	.insn	2, 0x8000
 194:	0000                	unimp
 196:	0000                	unimp
 198:	0014                	.insn	2, 0x0014
	...
 1ae:	0000                	unimp
 1b0:	002c                	addi	a1,sp,8
 1b2:	0000                	unimp
 1b4:	0002                	c.slli64	zero
 1b6:	227a                	fld	ft4,408(sp)
 1b8:	0000                	unimp
 1ba:	0008                	.insn	2, 0x0008
 1bc:	0000                	unimp
 1be:	0000                	unimp
 1c0:	1700                	addi	s0,sp,928
 1c2:	8000                	.insn	2, 0x8000
 1c4:	0000                	unimp
 1c6:	0000                	unimp
 1c8:	0014                	.insn	2, 0x0014
	...
 1de:	0000                	unimp
 1e0:	002c                	addi	a1,sp,8
 1e2:	0000                	unimp
 1e4:	0002                	c.slli64	zero
 1e6:	2c82                	fld	fs9,0(sp)
 1e8:	0000                	unimp
 1ea:	0008                	.insn	2, 0x0008
 1ec:	0000                	unimp
 1ee:	0000                	unimp
 1f0:	1714                	addi	a3,sp,928
 1f2:	8000                	.insn	2, 0x8000
 1f4:	0000                	unimp
 1f6:	0000                	unimp
 1f8:	0016                	c.slli	zero,0x5
	...
 20e:	0000                	unimp
 210:	002c                	addi	a1,sp,8
 212:	0000                	unimp
 214:	0002                	c.slli64	zero
 216:	368a                	fld	fa3,160(sp)
 218:	0000                	unimp
 21a:	0008                	.insn	2, 0x0008
 21c:	0000                	unimp
 21e:	0000                	unimp
 220:	172a                	slli	a4,a4,0x2a
 222:	8000                	.insn	2, 0x8000
 224:	0000                	unimp
 226:	0000                	unimp
 228:	003a                	c.slli	zero,0xe
	...
 23e:	0000                	unimp
 240:	002c                	addi	a1,sp,8
 242:	0000                	unimp
 244:	0002                	c.slli64	zero
 246:	000040bf 00000008 	.insn	8, 0x0008000040bf
 24e:	0000                	unimp
 250:	1764                	addi	s1,sp,940
 252:	8000                	.insn	2, 0x8000
 254:	0000                	unimp
 256:	0000                	unimp
 258:	0008                	.insn	2, 0x0008
	...

Disassembly of section .debug_line:

0000000000000000 <.debug_line>:
       0:	03f2                	slli	t2,t2,0x1c
       2:	0000                	unimp
       4:	0005                	c.nop	1
       6:	0008                	.insn	2, 0x0008
       8:	0052                	c.slli	zero,0x14
       a:	0000                	unimp
       c:	0101                	addi	sp,sp,0
       e:	fb01                	bnez	a4,ffffffffffffff1e <__heap_end+0xffffffff7ffdcf1e>
      10:	0d0e                	slli	s10,s10,0x3
      12:	0100                	addi	s0,sp,128
      14:	0101                	addi	sp,sp,0
      16:	0001                	nop
      18:	0000                	unimp
      1a:	0001                	nop
      1c:	0100                	addi	s0,sp,128
      1e:	0101                	addi	sp,sp,0
      20:	061f 003b 0000      	.insn	6, 0x003b061f
      26:	0068                	addi	a0,sp,12
      28:	0000                	unimp
      2a:	0099                	addi	ra,ra,6
      2c:	0000                	unimp
      2e:	000000cf          	fnmadd.s	ft1,ft0,ft0,ft0,rne
      32:	0124                	addi	s1,sp,136
      34:	0000                	unimp
      36:	0172                	slli	sp,sp,0x1c
      38:	0000                	unimp
      3a:	0102                	c.slli64	sp
      3c:	021f 060f 0031      	.insn	6, 0x0031060f021f
      42:	0000                	unimp
      44:	bc01                	j	fffffffffffffa54 <__heap_end+0xffffffff7ffdca54>
      46:	0001                	nop
      48:	0200                	addi	s0,sp,256
      4a:	0031                	c.nop	12
      4c:	0000                	unimp
      4e:	c601                	beqz	a2,56 <__stack_align+0x46>
      50:	0001                	nop
      52:	0300                	addi	s0,sp,384
      54:	000001cf          	fnmadd.s	ft3,ft0,ft0,ft0,rne
      58:	e004                	sd	s1,0(s0)
      5a:	0001                	nop
      5c:	0500                	addi	s0,sp,640
      5e:	0105                	addi	sp,sp,1
      60:	0900                	addi	s0,sp,144
      62:	3e02                	fld	ft8,32(sp)
      64:	0002                	c.slli64	zero
      66:	0080                	addi	s0,sp,64
      68:	0000                	unimp
      6a:	0300                	addi	s0,sp,384
      6c:	0115                	addi	sp,sp,5
      6e:	1505                	addi	a0,a0,-31
      70:	0c090103          	lb	sp,192(s2)
      74:	0100                	addi	s0,sp,128
      76:	0305                	addi	t1,t1,1
      78:	08090403          	lb	s0,128(s2)
      7c:	0100                	addi	s0,sp,128
      7e:	0d05                	addi	s10,s10,1
      80:	0200                	addi	s0,sp,256
      82:	0104                	addi	s1,sp,128
      84:	16090403          	lb	s0,352(s2)
      88:	0100                	addi	s0,sp,128
      8a:	0105                	addi	sp,sp,1
      8c:	0a090503          	lb	a0,160(s2)
      90:	0100                	addi	s0,sp,128
      92:	0204                	addi	s1,sp,256
      94:	0a096503          	lwu	a0,160(s2)
      98:	0100                	addi	s0,sp,128
      9a:	0205                	addi	tp,tp,1 # 1 <__boot_hart+0x1>
      9c:	0c090203          	lb	tp,192(s2)
      a0:	0100                	addi	s0,sp,128
      a2:	0305                	addi	t1,t1,1
      a4:	02090103          	lb	sp,32(s2)
      a8:	0100                	addi	s0,sp,128
      aa:	1c05                	addi	s8,s8,-31
      ac:	0200                	addi	s0,sp,256
      ae:	0204                	addi	s1,sp,256
      b0:	0a097f03          	.insn	4, 0x0a097f03
      b4:	0100                	addi	s0,sp,128
      b6:	0c05                	addi	s8,s8,1
      b8:	0200                	addi	s0,sp,256
      ba:	0104                	addi	s1,sp,128
      bc:	0a090003          	lb	zero,160(s2)
      c0:	0100                	addi	s0,sp,128
      c2:	1205                	addi	tp,tp,-31 # ffffffffffffffe1 <__heap_end+0xffffffff7ffdcfe1>
      c4:	0200                	addi	s0,sp,256
      c6:	0104                	addi	s1,sp,128
      c8:	0c090003          	lb	zero,192(s2)
      cc:	0100                	addi	s0,sp,128
      ce:	0105                	addi	sp,sp,1
      d0:	0a090203          	lb	tp,160(s2)
      d4:	0100                	addi	s0,sp,128
      d6:	0c090303          	lb	t1,192(s2)
      da:	0100                	addi	s0,sp,128
      dc:	0205                	addi	tp,tp,1 # 1 <__boot_hart+0x1>
      de:	0c090103          	lb	sp,192(s2)
      e2:	0100                	addi	s0,sp,128
      e4:	08090103          	lb	sp,128(s2)
      e8:	0100                	addi	s0,sp,128
      ea:	06090103          	lb	sp,96(s2)
      ee:	0100                	addi	s0,sp,128
      f0:	0105                	addi	sp,sp,1
      f2:	06090103          	lb	sp,96(s2)
      f6:	0100                	addi	s0,sp,128
      f8:	0a090303          	lb	t1,160(s2)
      fc:	0100                	addi	s0,sp,128
      fe:	0505                	addi	a0,a0,1
     100:	1e090503          	lb	a0,480(s2)
     104:	0100                	addi	s0,sp,128
     106:	0f05                	addi	t5,t5,1
     108:	14090103          	lb	sp,320(s2)
     10c:	0100                	addi	s0,sp,128
     10e:	0d05                	addi	s10,s10,1
     110:	04090103          	lb	sp,64(s2)
     114:	0100                	addi	s0,sp,128
     116:	04090103          	lb	sp,64(s2)
     11a:	0100                	addi	s0,sp,128
     11c:	0b05                	addi	s6,s6,1
     11e:	04090203          	lb	tp,64(s2)
     122:	0100                	addi	s0,sp,128
     124:	0c05                	addi	s8,s8,1
     126:	02090103          	lb	sp,32(s2)
     12a:	0100                	addi	s0,sp,128
     12c:	0d05                	addi	s10,s10,1
     12e:	0c090103          	lb	sp,192(s2)
     132:	0100                	addi	s0,sp,128
     134:	1905                	addi	s2,s2,-31
     136:	3a090203          	lb	tp,928(s2)
     13a:	0100                	addi	s0,sp,128
     13c:	1105                	addi	sp,sp,-31
     13e:	06090103          	lb	sp,96(s2)
     142:	0100                	addi	s0,sp,128
     144:	1905                	addi	s2,s2,-31
     146:	02090203          	lb	tp,32(s2)
     14a:	0100                	addi	s0,sp,128
     14c:	1105                	addi	sp,sp,-31
     14e:	06090103          	lb	sp,96(s2)
     152:	0100                	addi	s0,sp,128
     154:	1405                	addi	s0,s0,-31
     156:	02090403          	lb	s0,32(s2)
     15a:	0100                	addi	s0,sp,128
     15c:	1705                	addi	a4,a4,-31
     15e:	0a090103          	lb	sp,160(s2)
     162:	0100                	addi	s0,sp,128
     164:	12090103          	lb	sp,288(s2)
     168:	0100                	addi	s0,sp,128
     16a:	1905                	addi	s2,s2,-31
     16c:	0a090203          	lb	tp,160(s2)
     170:	0100                	addi	s0,sp,128
     172:	1705                	addi	a4,a4,-31
     174:	0200                	addi	s0,sp,256
     176:	0104                	addi	s1,sp,128
     178:	0e090003          	lb	zero,224(s2)
     17c:	0100                	addi	s0,sp,128
     17e:	2505                	addiw	a0,a0,1
     180:	08090103          	lb	sp,128(s2)
     184:	0100                	addi	s0,sp,128
     186:	0200                	addi	s0,sp,256
     188:	0104                	addi	s1,sp,128
     18a:	0306                	slli	t1,t1,0x1
     18c:	0900                	addi	s0,sp,144
     18e:	000a                	c.slli	zero,0x2
     190:	0001                	nop
     192:	0402                	c.slli64	s0
     194:	0302                	c.slli64	t1
     196:	0900                	addi	s0,sp,144
     198:	0004                	.insn	2, 0x0004
     19a:	0501                	addi	a0,a0,0
     19c:	04020017          	auipc	zero,0x4020
     1a0:	0604                	addi	s1,sp,768
     1a2:	02090003          	lb	zero,32(s2)
     1a6:	0100                	addi	s0,sp,128
     1a8:	1105                	addi	sp,sp,-31
     1aa:	04090203          	lb	tp,64(s2)
     1ae:	0100                	addi	s0,sp,128
     1b0:	2105                	addiw	sp,sp,1
     1b2:	02090103          	lb	sp,32(s2)
     1b6:	0100                	addi	s0,sp,128
     1b8:	1a05                	addi	s4,s4,-31
     1ba:	10090003          	lb	zero,256(s2)
     1be:	0100                	addi	s0,sp,128
     1c0:	1505                	addi	a0,a0,-31
     1c2:	06090103          	lb	sp,96(s2)
     1c6:	0100                	addi	s0,sp,128
     1c8:	2805                	addiw	a6,a6,1 # 590b5775 <__heap_size+0x59095775>
     1ca:	0200                	addi	s0,sp,256
     1cc:	0104                	addi	s1,sp,128
     1ce:	0a090003          	lb	zero,160(s2)
     1d2:	0100                	addi	s0,sp,128
     1d4:	1505                	addi	a0,a0,-31
     1d6:	0200                	addi	s0,sp,256
     1d8:	0104                	addi	s1,sp,128
     1da:	08090003          	lb	zero,128(s2)
     1de:	0100                	addi	s0,sp,128
     1e0:	3605                	addiw	a2,a2,-31
     1e2:	0200                	addi	s0,sp,256
     1e4:	0204                	addi	s1,sp,256
     1e6:	0a090003          	lb	zero,160(s2)
     1ea:	0100                	addi	s0,sp,128
     1ec:	1505                	addi	a0,a0,-31
     1ee:	0200                	addi	s0,sp,256
     1f0:	0204                	addi	s1,sp,256
     1f2:	08090003          	lb	zero,128(s2)
     1f6:	0100                	addi	s0,sp,128
     1f8:	0200                	addi	s0,sp,256
     1fa:	0404                	addi	s1,sp,512
     1fc:	0306                	slli	t1,t1,0x1
     1fe:	0900                	addi	s0,sp,144
     200:	0008                	.insn	2, 0x0008
     202:	0501                	addi	a0,a0,0
     204:	0622                	slli	a2,a2,0x8
     206:	06097e03          	.insn	4, 0x06097e03
     20a:	0100                	addi	s0,sp,128
     20c:	1a05                	addi	s4,s4,-31
     20e:	0200                	addi	s0,sp,256
     210:	0104                	addi	s1,sp,128
     212:	0a090003          	lb	zero,160(s2)
     216:	0100                	addi	s0,sp,128
     218:	1105                	addi	sp,sp,-31
     21a:	08090403          	lb	s0,128(s2)
     21e:	0100                	addi	s0,sp,128
     220:	1405                	addi	s0,s0,-31
     222:	02090403          	lb	s0,32(s2)
     226:	0100                	addi	s0,sp,128
     228:	1905                	addi	s2,s2,-31
     22a:	0a090103          	lb	sp,160(s2)
     22e:	0100                	addi	s0,sp,128
     230:	1b05                	addi	s6,s6,-31
     232:	14090203          	lb	tp,320(s2)
     236:	0100                	addi	s0,sp,128
     238:	1905                	addi	s2,s2,-31
     23a:	0200                	addi	s0,sp,256
     23c:	0104                	addi	s1,sp,128
     23e:	0e090003          	lb	zero,224(s2)
     242:	0100                	addi	s0,sp,128
     244:	1805                	addi	a6,a6,-31
     246:	04090103          	lb	sp,64(s2)
     24a:	0100                	addi	s0,sp,128
     24c:	1f05                	addi	t5,t5,-31
     24e:	0a090103          	lb	sp,160(s2)
     252:	0100                	addi	s0,sp,128
     254:	1d05                	addi	s10,s10,-31
     256:	0c090003          	lb	zero,192(s2)
     25a:	0100                	addi	s0,sp,128
     25c:	1405                	addi	s0,s0,-31
     25e:	04090403          	lb	s0,64(s2)
     262:	0100                	addi	s0,sp,128
     264:	1505                	addi	a0,a0,-31
     266:	08090103          	lb	sp,128(s2)
     26a:	0100                	addi	s0,sp,128
     26c:	1905                	addi	s2,s2,-31
     26e:	08090103          	lb	sp,128(s2)
     272:	0100                	addi	s0,sp,128
     274:	1505                	addi	a0,a0,-31
     276:	0c090403          	lb	s0,192(s2)
     27a:	0100                	addi	s0,sp,128
     27c:	3005                	.insn	2, 0x3005
     27e:	04090203          	lb	tp,64(s2)
     282:	0100                	addi	s0,sp,128
     284:	2905                	addiw	s2,s2,1
     286:	0a090003          	lb	zero,160(s2)
     28a:	0100                	addi	s0,sp,128
     28c:	1f05                	addi	t5,t5,-31
     28e:	04090003          	lb	zero,64(s2)
     292:	0100                	addi	s0,sp,128
     294:	2905                	addiw	s2,s2,1
     296:	0c090003          	lb	zero,192(s2)
     29a:	0100                	addi	s0,sp,128
     29c:	2305                	addiw	t1,t1,1
     29e:	08090003          	lb	zero,128(s2)
     2a2:	0100                	addi	s0,sp,128
     2a4:	1905                	addi	s2,s2,-31
     2a6:	08090103          	lb	sp,128(s2)
     2aa:	0100                	addi	s0,sp,128
     2ac:	2205                	addiw	tp,tp,1 # 1 <__boot_hart+0x1>
     2ae:	0200                	addi	s0,sp,256
     2b0:	0204                	addi	s1,sp,256
     2b2:	0e090103          	lb	sp,224(s2)
     2b6:	0100                	addi	s0,sp,128
     2b8:	0200                	addi	s0,sp,256
     2ba:	0104                	addi	s1,sp,128
     2bc:	0306                	slli	t1,t1,0x1
     2be:	0900                	addi	s0,sp,144
     2c0:	0008                	.insn	2, 0x0008
     2c2:	0501                	addi	a0,a0,0
     2c4:	02030617          	auipc	a2,0x2030
     2c8:	0e09                	addi	t3,t3,2 # 6002 <__stack_size_min+0x2>
     2ca:	0100                	addi	s0,sp,128
     2cc:	1505                	addi	a0,a0,-31
     2ce:	02090103          	lb	sp,32(s2)
     2d2:	0100                	addi	s0,sp,128
     2d4:	1c05                	addi	s8,s8,-31
     2d6:	1c097f03          	.insn	4, 0x1c097f03
     2da:	0100                	addi	s0,sp,128
     2dc:	1105                	addi	sp,sp,-31
     2de:	0a090303          	lb	t1,160(s2)
     2e2:	0100                	addi	s0,sp,128
     2e4:	02090303          	lb	t1,32(s2)
     2e8:	0100                	addi	s0,sp,128
     2ea:	0200                	addi	s0,sp,256
     2ec:	0104                	addi	s1,sp,128
     2ee:	0306                	slli	t1,t1,0x1
     2f0:	0900                	addi	s0,sp,144
     2f2:	000e                	c.slli	zero,0x3
     2f4:	0601                	addi	a2,a2,0 # 20302c4 <__heap_size+0x20102c4>
     2f6:	06090103          	lb	sp,96(s2)
     2fa:	0100                	addi	s0,sp,128
     2fc:	1705                	addi	a4,a4,-31
     2fe:	02090203          	lb	tp,32(s2)
     302:	0100                	addi	s0,sp,128
     304:	1105                	addi	sp,sp,-31
     306:	0200                	addi	s0,sp,256
     308:	0104                	addi	s1,sp,128
     30a:	0e090003          	lb	zero,224(s2)
     30e:	0100                	addi	s0,sp,128
     310:	0a090103          	lb	sp,160(s2)
     314:	0100                	addi	s0,sp,128
     316:	1e05                	addi	t3,t3,-31
     318:	02090203          	lb	tp,32(s2)
     31c:	0100                	addi	s0,sp,128
     31e:	1a05                	addi	s4,s4,-31
     320:	12090103          	lb	sp,288(s2)
     324:	0100                	addi	s0,sp,128
     326:	1105                	addi	sp,sp,-31
     328:	06090003          	lb	zero,96(s2)
     32c:	0100                	addi	s0,sp,128
     32e:	2905                	addiw	s2,s2,1
     330:	02090103          	lb	sp,32(s2)
     334:	0100                	addi	s0,sp,128
     336:	2205                	addiw	tp,tp,1 # 1 <__boot_hart+0x1>
     338:	0e090003          	lb	zero,224(s2)
     33c:	0100                	addi	s0,sp,128
     33e:	1505                	addi	a0,a0,-31
     340:	06090103          	lb	sp,96(s2)
     344:	0100                	addi	s0,sp,128
     346:	2805                	addiw	a6,a6,1
     348:	0200                	addi	s0,sp,256
     34a:	0104                	addi	s1,sp,128
     34c:	0e090003          	lb	zero,224(s2)
     350:	0100                	addi	s0,sp,128
     352:	1505                	addi	a0,a0,-31
     354:	0200                	addi	s0,sp,256
     356:	0104                	addi	s1,sp,128
     358:	08090003          	lb	zero,128(s2)
     35c:	0100                	addi	s0,sp,128
     35e:	3605                	addiw	a2,a2,-31
     360:	0200                	addi	s0,sp,256
     362:	0204                	addi	s1,sp,256
     364:	0a090003          	lb	zero,160(s2)
     368:	0100                	addi	s0,sp,128
     36a:	1505                	addi	a0,a0,-31
     36c:	0200                	addi	s0,sp,256
     36e:	0204                	addi	s1,sp,256
     370:	08090003          	lb	zero,128(s2)
     374:	0100                	addi	s0,sp,128
     376:	0200                	addi	s0,sp,256
     378:	0404                	addi	s1,sp,512
     37a:	0306                	slli	t1,t1,0x1
     37c:	0900                	addi	s0,sp,144
     37e:	0008                	.insn	2, 0x0008
     380:	0501                	addi	a0,a0,0
     382:	002c                	addi	a1,sp,8
     384:	0402                	c.slli64	s0
     386:	0602                	c.slli64	a2
     388:	06097e03          	.insn	4, 0x06097e03
     38c:	0100                	addi	s0,sp,128
     38e:	2405                	addiw	s0,s0,1
     390:	0200                	addi	s0,sp,256
     392:	0104                	addi	s1,sp,128
     394:	0a090003          	lb	zero,160(s2)
     398:	0100                	addi	s0,sp,128
     39a:	1105                	addi	sp,sp,-31
     39c:	0a090403          	lb	s0,160(s2)
     3a0:	0100                	addi	s0,sp,128
     3a2:	1705                	addi	a4,a4,-31
     3a4:	02090303          	lb	t1,32(s2)
     3a8:	0100                	addi	s0,sp,128
     3aa:	04090103          	lb	sp,64(s2)
     3ae:	0100                	addi	s0,sp,128
     3b0:	04090103          	lb	sp,64(s2)
     3b4:	0100                	addi	s0,sp,128
     3b6:	1305                	addi	t1,t1,-31
     3b8:	06090103          	lb	sp,96(s2)
     3bc:	0100                	addi	s0,sp,128
     3be:	1705                	addi	a4,a4,-31
     3c0:	10090103          	lb	sp,256(s2)
     3c4:	0100                	addi	s0,sp,128
     3c6:	0d05                	addi	s10,s10,1
     3c8:	08090203          	lb	tp,128(s2)
     3cc:	0100                	addi	s0,sp,128
     3ce:	1505                	addi	a0,a0,-31
     3d0:	097fb603          	ld	a2,151(t6) # 4097 <__stack_align+0x4087>
     3d4:	000a                	c.slli	zero,0x2
     3d6:	0501                	addi	a0,a0,0
     3d8:	0900030f          	.insn	4, 0x0900030f
     3dc:	000c                	.insn	2, 0x000c
     3de:	0501                	addi	a0,a0,0
     3e0:	0319                	addi	t1,t1,6
     3e2:	0900                	addi	s0,sp,144
     3e4:	0008                	.insn	2, 0x0008
     3e6:	0501                	addi	a0,a0,0
     3e8:	0301                	addi	t1,t1,0
     3ea:	0c0900cf          	.insn	4, 0x0c0900cf
     3ee:	0100                	addi	s0,sp,128
     3f0:	0c09                	addi	s8,s8,2
     3f2:	0000                	unimp
     3f4:	0101                	addi	sp,sp,0
     3f6:	044d                	addi	s0,s0,19
     3f8:	0000                	unimp
     3fa:	0005                	c.nop	1
     3fc:	0008                	.insn	2, 0x0008
     3fe:	00000053          	fadd.s	ft0,ft0,ft0,rne
     402:	0101                	addi	sp,sp,0
     404:	fb01                	bnez	a4,314 <__stack_align+0x304>
     406:	0d0e                	slli	s10,s10,0x3
     408:	0100                	addi	s0,sp,128
     40a:	0101                	addi	sp,sp,0
     40c:	0001                	nop
     40e:	0000                	unimp
     410:	0001                	nop
     412:	0100                	addi	s0,sp,128
     414:	0101                	addi	sp,sp,0
     416:	051f 003b 0000      	.insn	6, 0x003b051f
     41c:	0068                	addi	a0,sp,12
     41e:	0000                	unimp
     420:	0099                	addi	ra,ra,6
     422:	0000                	unimp
     424:	0124                	addi	s1,sp,136
     426:	0000                	unimp
     428:	0172                	slli	sp,sp,0x1c
     42a:	0000                	unimp
     42c:	0102                	c.slli64	sp
     42e:	021f 070f 021b      	.insn	6, 0x021b070f021f
     434:	0000                	unimp
     436:	2401                	sext.w	s0,s0
     438:	0002                	c.slli64	zero
     43a:	0200                	addi	s0,sp,256
     43c:	0000021b          	sext.w	tp,zero
     440:	cf01                	beqz	a4,458 <__stack_align+0x448>
     442:	0001                	nop
     444:	0300                	addi	s0,sp,384
     446:	01e0                	addi	s0,sp,204
     448:	0000                	unimp
     44a:	bc04                	fsd	fs1,56(s0)
     44c:	0001                	nop
     44e:	0200                	addi	s0,sp,256
     450:	0000022b          	.insn	4, 0x022b
     454:	0502                	c.slli64	a0
     456:	0001                	nop
     458:	0209                	addi	tp,tp,2 # 2 <__tbss_offset>
     45a:	0616                	slli	a2,a2,0x5
     45c:	8000                	.insn	2, 0x8000
     45e:	0000                	unimp
     460:	0000                	unimp
     462:	0518                	addi	a4,sp,640
     464:	030a                	slli	t1,t1,0x2
     466:	00140903          	lb	s2,1(s0)
     46a:	0501                	addi	a0,a0,0
     46c:	09000303          	lb	t1,144(zero) # 90 <__stack_align+0x80>
     470:	0004                	.insn	2, 0x0004
     472:	0501                	addi	a0,a0,0
     474:	0312                	slli	t1,t1,0x4
     476:	0902                	c.slli64	s2
     478:	0002                	c.slli64	zero
     47a:	0501                	addi	a0,a0,0
     47c:	0309                	addi	t1,t1,2
     47e:	0900                	addi	s0,sp,144
     480:	000c                	.insn	2, 0x000c
     482:	0501                	addi	a0,a0,0
     484:	0320                	addi	s0,sp,392
     486:	0900                	addi	s0,sp,144
     488:	0006                	c.slli	zero,0x1
     48a:	0501                	addi	a0,a0,0
     48c:	09000317          	auipc	t1,0x9000
     490:	000e                	c.slli	zero,0x3
     492:	0501                	addi	a0,a0,0
     494:	0314                	addi	a3,sp,384
     496:	0901                	addi	s2,s2,0
     498:	0006                	c.slli	zero,0x1
     49a:	0501                	addi	a0,a0,0
     49c:	0309                	addi	t1,t1,2 # 900048e <__heap_size+0x8fe048e>
     49e:	0900                	addi	s0,sp,144
     4a0:	000c                	.insn	2, 0x000c
     4a2:	0501                	addi	a0,a0,0
     4a4:	0324                	addi	s1,sp,392
     4a6:	0900                	addi	s0,sp,144
     4a8:	0006                	c.slli	zero,0x1
     4aa:	0501                	addi	a0,a0,0
     4ac:	0319                	addi	t1,t1,6
     4ae:	0900                	addi	s0,sp,144
     4b0:	000e                	c.slli	zero,0x3
     4b2:	0501                	addi	a0,a0,0
     4b4:	0308                	addi	a0,sp,384
     4b6:	0901                	addi	s2,s2,0
     4b8:	0006                	c.slli	zero,0x1
     4ba:	0501                	addi	a0,a0,0
     4bc:	0402001b          	addiw	zero,tp,64 # 40 <__stack_align+0x30>
     4c0:	0301                	addi	t1,t1,0
     4c2:	0900                	addi	s0,sp,144
     4c4:	0012                	c.slli	zero,0x4
     4c6:	0601                	addi	a2,a2,0
     4c8:	08090003          	lb	zero,128(s2)
     4cc:	0100                	addi	s0,sp,128
     4ce:	0805                	addi	a6,a6,1
     4d0:	0306                	slli	t1,t1,0x1
     4d2:	0901                	addi	s2,s2,0
     4d4:	0002                	c.slli64	zero
     4d6:	0501                	addi	a0,a0,0
     4d8:	0402001b          	addiw	zero,tp,64 # 40 <__stack_align+0x30>
     4dc:	0301                	addi	t1,t1,0
     4de:	0900                	addi	s0,sp,144
     4e0:	0012                	c.slli	zero,0x4
     4e2:	0601                	addi	a2,a2,0
     4e4:	08090003          	lb	zero,128(s2)
     4e8:	0100                	addi	s0,sp,128
     4ea:	0200                	addi	s0,sp,256
     4ec:	0204                	addi	s1,sp,256
     4ee:	0306                	slli	t1,t1,0x1
     4f0:	0002097b          	.insn	4, 0x0002097b
     4f4:	0501                	addi	a0,a0,0
     4f6:	0014                	.insn	2, 0x0014
     4f8:	0402                	c.slli64	s0
     4fa:	0301                	addi	t1,t1,0
     4fc:	0900                	addi	s0,sp,144
     4fe:	000a                	c.slli	zero,0x2
     500:	0501                	addi	a0,a0,0
     502:	0016                	c.slli	zero,0x5
     504:	0402                	c.slli64	s0
     506:	0301                	addi	t1,t1,0
     508:	0900                	addi	s0,sp,144
     50a:	0010                	.insn	2, 0x0010
     50c:	0501                	addi	a0,a0,0
     50e:	0011                	c.nop	4
     510:	0402                	c.slli64	s0
     512:	0301                	addi	t1,t1,0
     514:	0900                	addi	s0,sp,144
     516:	0008                	.insn	2, 0x0008
     518:	0501                	addi	a0,a0,0
     51a:	030d                	addi	t1,t1,3
     51c:	000a0907          	.insn	4, 0x000a0907
     520:	0501                	addi	a0,a0,0
     522:	0306                	slli	t1,t1,0x1
     524:	0900                	addi	s0,sp,144
     526:	0008                	.insn	2, 0x0008
     528:	0501                	addi	a0,a0,0
     52a:	0019                	c.nop	6
     52c:	0402                	c.slli64	s0
     52e:	0301                	addi	t1,t1,0
     530:	0900                	addi	s0,sp,144
     532:	0002                	c.slli64	zero
     534:	0501                	addi	a0,a0,0
     536:	0028                	addi	a0,sp,8
     538:	0402                	c.slli64	s0
     53a:	0301                	addi	t1,t1,0
     53c:	0900                	addi	s0,sp,144
     53e:	0014                	.insn	2, 0x0014
     540:	0501                	addi	a0,a0,0
     542:	001f 0402 0301      	.insn	6, 0x03010402001f
     548:	0900                	addi	s0,sp,144
     54a:	000e                	c.slli	zero,0x3
     54c:	0501                	addi	a0,a0,0
     54e:	0012                	c.slli	zero,0x4
     550:	0402                	c.slli64	s0
     552:	0301                	addi	t1,t1,0
     554:	0900                	addi	s0,sp,144
     556:	0002                	c.slli64	zero
     558:	0501                	addi	a0,a0,0
     55a:	030c                	addi	a1,sp,384
     55c:	0901                	addi	s2,s2,0
     55e:	0006                	c.slli	zero,0x1
     560:	0501                	addi	a0,a0,0
     562:	030a                	slli	t1,t1,0x2
     564:	0901                	addi	s2,s2,0
     566:	0006                	c.slli	zero,0x1
     568:	0501                	addi	a0,a0,0
     56a:	0301                	addi	t1,t1,0
     56c:	0901                	addi	s2,s2,0
     56e:	0002                	c.slli64	zero
     570:	0301                	addi	t1,t1,0
     572:	00080903          	lb	s2,0(a6)
     576:	0501                	addi	a0,a0,0
     578:	09050303          	lb	t1,144(a0)
     57c:	000c                	.insn	2, 0x000c
     57e:	0501                	addi	a0,a0,0
     580:	0311                	addi	t1,t1,4
     582:	0902                	c.slli64	s2
     584:	0004                	.insn	2, 0x0004
     586:	0501                	addi	a0,a0,0
     588:	0900030f          	.insn	4, 0x0900030f
     58c:	0010                	.insn	2, 0x0010
     58e:	0501                	addi	a0,a0,0
     590:	09010307          	.insn	4, 0x09010307
     594:	0004                	.insn	2, 0x0004
     596:	0001                	nop
     598:	0402                	c.slli64	s0
     59a:	0601                	addi	a2,a2,0
     59c:	12090003          	lb	zero,288(s2)
     5a0:	0100                	addi	s0,sp,128
     5a2:	3005                	.insn	2, 0x3005
     5a4:	0200                	addi	s0,sp,256
     5a6:	0104                	addi	s1,sp,128
     5a8:	0306                	slli	t1,t1,0x1
     5aa:	0900                	addi	s0,sp,144
     5ac:	0004                	.insn	2, 0x0004
     5ae:	0501                	addi	a0,a0,0
     5b0:	0006                	c.slli	zero,0x1
     5b2:	0402                	c.slli64	s0
     5b4:	0301                	addi	t1,t1,0
     5b6:	0900                	addi	s0,sp,144
     5b8:	0008                	.insn	2, 0x0008
     5ba:	0501                	addi	a0,a0,0
     5bc:	0902030b          	.insn	4, 0x0902030b
     5c0:	0004                	.insn	2, 0x0004
     5c2:	0301                	addi	t1,t1,0
     5c4:	0901                	addi	s2,s2,0
     5c6:	0008                	.insn	2, 0x0008
     5c8:	0501                	addi	a0,a0,0
     5ca:	030d                	addi	t1,t1,3
     5cc:	0902                	c.slli64	s2
     5ce:	000c                	.insn	2, 0x000c
     5d0:	0501                	addi	a0,a0,0
     5d2:	0014                	.insn	2, 0x0014
     5d4:	0402                	c.slli64	s0
     5d6:	0301                	addi	t1,t1,0
     5d8:	0900                	addi	s0,sp,144
     5da:	0002                	c.slli64	zero
     5dc:	0501                	addi	a0,a0,0
     5de:	09030303          	lb	t1,144(t1)
     5e2:	0012                	c.slli	zero,0x4
     5e4:	0501                	addi	a0,a0,0
     5e6:	0301                	addi	t1,t1,0
     5e8:	0901                	addi	s2,s2,0
     5ea:	0004                	.insn	2, 0x0004
     5ec:	0401                	addi	s0,s0,0
     5ee:	0302                	c.slli64	t1
     5f0:	0965                	addi	s2,s2,25
     5f2:	0008                	.insn	2, 0x0008
     5f4:	0501                	addi	a0,a0,0
     5f6:	09020307          	.insn	4, 0x09020307
     5fa:	0024                	addi	s1,sp,8
     5fc:	0301                	addi	t1,t1,0
     5fe:	0901                	addi	s2,s2,0
     600:	0012                	c.slli	zero,0x4
     602:	0501                	addi	a0,a0,0
     604:	030a                	slli	t1,t1,0x2
     606:	0902                	c.slli64	s2
     608:	0012                	c.slli	zero,0x4
     60a:	0501                	addi	a0,a0,0
     60c:	09000303          	lb	t1,144(zero) # 90 <__stack_align+0x80>
     610:	0004                	.insn	2, 0x0004
     612:	0501                	addi	a0,a0,0
     614:	030c                	addi	a1,sp,384
     616:	0901                	addi	s2,s2,0
     618:	0002                	c.slli64	zero
     61a:	0501                	addi	a0,a0,0
     61c:	0305                	addi	t1,t1,1
     61e:	0900                	addi	s0,sp,144
     620:	0008                	.insn	2, 0x0008
     622:	0501                	addi	a0,a0,0
     624:	0901030b          	.insn	4, 0x0901030b
     628:	0002                	c.slli64	zero
     62a:	0501                	addi	a0,a0,0
     62c:	030e                	slli	t1,t1,0x3
     62e:	0901                	addi	s2,s2,0
     630:	0004                	.insn	2, 0x0004
     632:	0501                	addi	a0,a0,0
     634:	09000307          	.insn	4, 0x09000307
     638:	0004                	.insn	2, 0x0004
     63a:	0501                	addi	a0,a0,0
     63c:	09010313          	addi	t1,sp,144
     640:	0002                	c.slli64	zero
     642:	0501                	addi	a0,a0,0
     644:	0318                	addi	a4,sp,384
     646:	0900                	addi	s0,sp,144
     648:	0010                	.insn	2, 0x0010
     64a:	0501                	addi	a0,a0,0
     64c:	0311                	addi	t1,t1,4
     64e:	0900                	addi	s0,sp,144
     650:	0008                	.insn	2, 0x0008
     652:	0501                	addi	a0,a0,0
     654:	0322                	slli	t1,t1,0x8
     656:	0900                	addi	s0,sp,144
     658:	000a                	c.slli	zero,0x2
     65a:	0501                	addi	a0,a0,0
     65c:	09000327          	.insn	4, 0x09000327
     660:	0010                	.insn	2, 0x0010
     662:	0501                	addi	a0,a0,0
     664:	0320                	addi	s0,sp,392
     666:	0900                	addi	s0,sp,144
     668:	0008                	.insn	2, 0x0008
     66a:	0501                	addi	a0,a0,0
     66c:	031d                	addi	t1,t1,7
     66e:	0900                	addi	s0,sp,144
     670:	000a                	c.slli	zero,0x2
     672:	0501                	addi	a0,a0,0
     674:	030d                	addi	t1,t1,3
     676:	0900                	addi	s0,sp,144
     678:	0006                	c.slli	zero,0x1
     67a:	0501                	addi	a0,a0,0
     67c:	001d                	c.nop	7
     67e:	0402                	c.slli64	s0
     680:	097f0303          	lb	t1,151(t5)
     684:	000a                	c.slli	zero,0x2
     686:	0501                	addi	a0,a0,0
     688:	0015                	c.nop	5
     68a:	0402                	c.slli64	s0
     68c:	0301                	addi	t1,t1,0
     68e:	0900                	addi	s0,sp,144
     690:	000a                	c.slli	zero,0x2
     692:	0501                	addi	a0,a0,0
     694:	030e                	slli	t1,t1,0x3
     696:	0902                	c.slli64	s2
     698:	0012                	c.slli	zero,0x4
     69a:	0501                	addi	a0,a0,0
     69c:	0900030b          	.insn	4, 0x0900030b
     6a0:	0010                	.insn	2, 0x0010
     6a2:	0501                	addi	a0,a0,0
     6a4:	0308                	addi	a0,sp,384
     6a6:	0900                	addi	s0,sp,144
     6a8:	0008                	.insn	2, 0x0008
     6aa:	0501                	addi	a0,a0,0
     6ac:	0314                	addi	a3,sp,384
     6ae:	0900                	addi	s0,sp,144
     6b0:	0008                	.insn	2, 0x0008
     6b2:	0501                	addi	a0,a0,0
     6b4:	0029                	c.nop	10
     6b6:	0402                	c.slli64	s0
     6b8:	0302                	c.slli64	t1
     6ba:	097c                	addi	a5,sp,156
     6bc:	0006                	c.slli	zero,0x1
     6be:	0501                	addi	a0,a0,0
     6c0:	001f 0402 0301      	.insn	6, 0x03010402001f
     6c6:	0900                	addi	s0,sp,144
     6c8:	000a                	c.slli	zero,0x2
     6ca:	0501                	addi	a0,a0,0
     6cc:	04020017          	auipc	zero,0x4020
     6d0:	0301                	addi	t1,t1,0
     6d2:	0900                	addi	s0,sp,144
     6d4:	0010                	.insn	2, 0x0010
     6d6:	0501                	addi	a0,a0,0
     6d8:	0019                	c.nop	6
     6da:	0402                	c.slli64	s0
     6dc:	0302                	c.slli64	t1
     6de:	097f 000a 0501 0011 	.insn	10, 0x040200110501000a097f
     6e6:	0402 
     6e8:	0301                	addi	t1,t1,0
     6ea:	0900                	addi	s0,sp,144
     6ec:	000a                	c.slli	zero,0x2
     6ee:	0501                	addi	a0,a0,0
     6f0:	0301                	addi	t1,t1,0
     6f2:	0908                	addi	a0,sp,144
     6f4:	0012                	c.slli	zero,0x4
     6f6:	0501                	addi	a0,a0,0
     6f8:	09030317          	auipc	t1,0x9030
     6fc:	000a                	c.slli	zero,0x2
     6fe:	0501                	addi	a0,a0,0
     700:	0316                	slli	t1,t1,0x5
     702:	0901                	addi	s2,s2,0
     704:	0008                	.insn	2, 0x0008
     706:	0501                	addi	a0,a0,0
     708:	030c                	addi	a1,sp,384
     70a:	0900                	addi	s0,sp,144
     70c:	000c                	.insn	2, 0x000c
     70e:	0501                	addi	a0,a0,0
     710:	09020303          	lb	t1,144(tp) # 90 <__stack_align+0x80>
     714:	0004                	.insn	2, 0x0004
     716:	0301                	addi	t1,t1,0 # 90306f8 <__heap_size+0x90106f8>
     718:	0901                	addi	s2,s2,0
     71a:	0030                	addi	a2,sp,8
     71c:	0501                	addi	a0,a0,0
     71e:	0301                	addi	t1,t1,0
     720:	0901                	addi	s2,s2,0
     722:	0012                	c.slli	zero,0x4
     724:	0501                	addi	a0,a0,0
     726:	09030313          	addi	t1,t1,144
     72a:	000a                	c.slli	zero,0x2
     72c:	0501                	addi	a0,a0,0
     72e:	0316                	slli	t1,t1,0x5
     730:	0901                	addi	s2,s2,0
     732:	0006                	c.slli	zero,0x1
     734:	0501                	addi	a0,a0,0
     736:	030c                	addi	a1,sp,384
     738:	0900                	addi	s0,sp,144
     73a:	000c                	.insn	2, 0x000c
     73c:	0501                	addi	a0,a0,0
     73e:	0901030f          	.insn	4, 0x0901030f
     742:	0004                	.insn	2, 0x0004
     744:	0501                	addi	a0,a0,0
     746:	0306                	slli	t1,t1,0x1
     748:	0900                	addi	s0,sp,144
     74a:	000a                	c.slli	zero,0x2
     74c:	0501                	addi	a0,a0,0
     74e:	0321                	addi	t1,t1,8
     750:	0900                	addi	s0,sp,144
     752:	000a                	c.slli	zero,0x2
     754:	0501                	addi	a0,a0,0
     756:	09030303          	lb	t1,144(t1)
     75a:	0004                	.insn	2, 0x0004
     75c:	0301                	addi	t1,t1,0
     75e:	0902                	c.slli64	s2
     760:	0014                	.insn	2, 0x0014
     762:	0501                	addi	a0,a0,0
     764:	0005                	c.nop	1
     766:	0402                	c.slli64	s0
     768:	0301                	addi	t1,t1,0
     76a:	00140903          	lb	s2,1(s0)
     76e:	0501                	addi	a0,a0,0
     770:	0310                	addi	a2,sp,384
     772:	0905                	addi	s2,s2,1
     774:	0006                	c.slli	zero,0x1
     776:	0501                	addi	a0,a0,0
     778:	0316                	slli	t1,t1,0x5
     77a:	0901                	addi	s2,s2,0
     77c:	0008                	.insn	2, 0x0008
     77e:	0501                	addi	a0,a0,0
     780:	030c                	addi	a1,sp,384
     782:	0900                	addi	s0,sp,144
     784:	000c                	.insn	2, 0x000c
     786:	0501                	addi	a0,a0,0
     788:	0315                	addi	t1,t1,5
     78a:	0902                	c.slli64	s2
     78c:	0004                	.insn	2, 0x0004
     78e:	0501                	addi	a0,a0,0
     790:	09000303          	lb	t1,144(zero) # 90 <__stack_align+0x80>
     794:	0004                	.insn	2, 0x0004
     796:	0501                	addi	a0,a0,0
     798:	002a                	c.slli	zero,0xa
     79a:	0402                	c.slli64	s0
     79c:	09000303          	lb	t1,144(zero) # 90 <__stack_align+0x80>
     7a0:	0002                	c.slli64	zero
     7a2:	0501                	addi	a0,a0,0
     7a4:	001e                	c.slli	zero,0x7
     7a6:	0402                	c.slli64	s0
     7a8:	0301                	addi	t1,t1,0
     7aa:	0900                	addi	s0,sp,144
     7ac:	000e                	c.slli	zero,0x3
     7ae:	0501                	addi	a0,a0,0
     7b0:	09020317          	auipc	t1,0x9020
     7b4:	0014                	.insn	2, 0x0014
     7b6:	0501                	addi	a0,a0,0
     7b8:	0311                	addi	t1,t1,4 # 90207b4 <__heap_size+0x90007b4>
     7ba:	0900                	addi	s0,sp,144
     7bc:	000c                	.insn	2, 0x000c
     7be:	0501                	addi	a0,a0,0
     7c0:	09030303          	lb	t1,144(t1)
     7c4:	0008                	.insn	2, 0x0008
     7c6:	0501                	addi	a0,a0,0
     7c8:	031a                	slli	t1,t1,0x6
     7ca:	0900                	addi	s0,sp,144
     7cc:	0006                	c.slli	zero,0x1
     7ce:	0501                	addi	a0,a0,0
     7d0:	09010303          	lb	t1,144(sp)
     7d4:	0004                	.insn	2, 0x0004
     7d6:	0501                	addi	a0,a0,0
     7d8:	031a                	slli	t1,t1,0x6
     7da:	0900                	addi	s0,sp,144
     7dc:	0006                	c.slli	zero,0x1
     7de:	0501                	addi	a0,a0,0
     7e0:	09010303          	lb	t1,144(sp)
     7e4:	0004                	.insn	2, 0x0004
     7e6:	0501                	addi	a0,a0,0
     7e8:	031a                	slli	t1,t1,0x6
     7ea:	0900                	addi	s0,sp,144
     7ec:	0006                	c.slli	zero,0x1
     7ee:	0501                	addi	a0,a0,0
     7f0:	09020303          	lb	t1,144(tp) # 90 <__stack_align+0x80>
     7f4:	0004                	.insn	2, 0x0004
     7f6:	0301                	addi	t1,t1,0
     7f8:	0901                	addi	s2,s2,0
     7fa:	0030                	addi	a2,sp,8
     7fc:	0501                	addi	a0,a0,0
     7fe:	0309                	addi	t1,t1,2
     800:	0901                	addi	s2,s2,0
     802:	0012                	c.slli	zero,0x4
     804:	0501                	addi	a0,a0,0
     806:	0306                	slli	t1,t1,0x1
     808:	0900                	addi	s0,sp,144
     80a:	000c                	.insn	2, 0x000c
     80c:	0501                	addi	a0,a0,0
     80e:	09030303          	lb	t1,144(t1)
     812:	000a                	c.slli	zero,0x2
     814:	0501                	addi	a0,a0,0
     816:	030d                	addi	t1,t1,3
     818:	0904                	addi	s1,sp,144
     81a:	0010                	.insn	2, 0x0010
     81c:	0501                	addi	a0,a0,0
     81e:	0305                	addi	t1,t1,1
     820:	0901                	addi	s2,s2,0
     822:	001e                	c.slli	zero,0x7
     824:	0301                	addi	t1,t1,0
     826:	0901                	addi	s2,s2,0
     828:	0008                	.insn	2, 0x0008
     82a:	0301                	addi	t1,t1,0
     82c:	0902                	c.slli64	s2
     82e:	000e                	c.slli	zero,0x3
     830:	0501                	addi	a0,a0,0
     832:	030a                	slli	t1,t1,0x2
     834:	0902                	c.slli64	s2
     836:	0012                	c.slli	zero,0x4
     838:	0501                	addi	a0,a0,0
     83a:	0301                	addi	t1,t1,0
     83c:	0901                	addi	s2,s2,0
     83e:	0002                	c.slli64	zero
     840:	0901                	addi	s2,s2,0
     842:	000a                	c.slli	zero,0x2
     844:	0100                	addi	s0,sp,128
     846:	ff01                	bnez	a4,75e <__stack_align+0x74e>
     848:	0000                	unimp
     84a:	0500                	addi	s0,sp,640
     84c:	0800                	addi	s0,sp,16
     84e:	4900                	lw	s0,16(a0)
     850:	0000                	unimp
     852:	0100                	addi	s0,sp,128
     854:	0101                	addi	sp,sp,0
     856:	000d0efb          	.insn	4, 0x000d0efb
     85a:	0101                	addi	sp,sp,0
     85c:	0101                	addi	sp,sp,0
     85e:	0000                	unimp
     860:	0100                	addi	s0,sp,128
     862:	0000                	unimp
     864:	0101                	addi	sp,sp,0
     866:	1f01                	addi	t5,t5,-32
     868:	3b05                	addiw	s6,s6,-31
     86a:	0000                	unimp
     86c:	6800                	ld	s0,16(s0)
     86e:	0000                	unimp
     870:	2400                	fld	fs0,8(s0)
     872:	0001                	nop
     874:	7200                	ld	s0,32(a2)
     876:	0001                	nop
     878:	9900                	.insn	2, 0x9900
     87a:	0000                	unimp
     87c:	0200                	addi	s0,sp,256
     87e:	1f01                	addi	t5,t5,-32
     880:	0f02                	c.slli64	t5
     882:	6605                	lui	a2,0x1
     884:	0002                	c.slli64	zero
     886:	0100                	addi	s0,sp,128
     888:	0266                	slli	tp,tp,0x19
     88a:	0000                	unimp
     88c:	cf01                	beqz	a4,8a4 <__stack_align+0x894>
     88e:	0001                	nop
     890:	0200                	addi	s0,sp,256
     892:	01e0                	addi	s0,sp,204
     894:	0000                	unimp
     896:	0001bc03          	ld	s8,0(gp) # 80002d78 <__global_pointer$>
     89a:	0400                	addi	s0,sp,512
     89c:	5b05                	li	s6,-31
     89e:	0900                	addi	s0,sp,144
     8a0:	cc02                	sw	zero,24(sp)
     8a2:	000a                	c.slli	zero,0x2
     8a4:	0080                	addi	s0,sp,64
     8a6:	0000                	unimp
     8a8:	0300                	addi	s0,sp,384
     8aa:	010a                	slli	sp,sp,0x2
     8ac:	0605                	addi	a2,a2,1 # 1001 <__stack_align+0xff1>
     8ae:	18090103          	lb	sp,384(s2)
     8b2:	0100                	addi	s0,sp,128
     8b4:	1805                	addi	a6,a6,-31
     8b6:	0e090103          	lb	sp,224(s2)
     8ba:	0100                	addi	s0,sp,128
     8bc:	0e05                	addi	t3,t3,1
     8be:	0c090003          	lb	zero,192(s2)
     8c2:	0100                	addi	s0,sp,128
     8c4:	0505                	addi	a0,a0,1
     8c6:	04090303          	lb	t1,64(s2)
     8ca:	0100                	addi	s0,sp,128
     8cc:	2e05                	addiw	t3,t3,1
     8ce:	16090003          	lb	zero,352(s2)
     8d2:	0100                	addi	s0,sp,128
     8d4:	0505                	addi	a0,a0,1
     8d6:	04090203          	lb	tp,64(s2)
     8da:	0100                	addi	s0,sp,128
     8dc:	0c05                	addi	s8,s8,1
     8de:	04090203          	lb	tp,64(s2)
     8e2:	0100                	addi	s0,sp,128
     8e4:	1405                	addi	s0,s0,-31
     8e6:	06090303          	lb	t1,96(s2)
     8ea:	0100                	addi	s0,sp,128
     8ec:	0705                	addi	a4,a4,1
     8ee:	08090003          	lb	zero,128(s2)
     8f2:	0100                	addi	s0,sp,128
     8f4:	0b05                	addi	s6,s6,1
     8f6:	0e090103          	lb	sp,224(s2)
     8fa:	0100                	addi	s0,sp,128
     8fc:	2805                	addiw	a6,a6,1
     8fe:	04090003          	lb	zero,64(s2)
     902:	0100                	addi	s0,sp,128
     904:	0200                	addi	s0,sp,256
     906:	0104                	addi	s1,sp,128
     908:	0306                	slli	t1,t1,0x1
     90a:	0900                	addi	s0,sp,144
     90c:	0004                	.insn	2, 0x0004
     90e:	0001                	nop
     910:	0402                	c.slli64	s0
     912:	0302                	c.slli64	t1
     914:	0900                	addi	s0,sp,144
     916:	000c                	.insn	2, 0x000c
     918:	0501                	addi	a0,a0,0
     91a:	0008                	.insn	2, 0x0008
     91c:	0402                	c.slli64	s0
     91e:	0604                	addi	s1,sp,768
     920:	04090003          	lb	zero,64(s2)
     924:	0100                	addi	s0,sp,128
     926:	0b05                	addi	s6,s6,1
     928:	04090203          	lb	tp,64(s2)
     92c:	0100                	addi	s0,sp,128
     92e:	0305                	addi	t1,t1,1
     930:	0c097f03          	.insn	4, 0x0c097f03
     934:	0100                	addi	s0,sp,128
     936:	16090403          	lb	s0,352(s2)
     93a:	0100                	addi	s0,sp,128
     93c:	0105                	addi	sp,sp,1
     93e:	0a090203          	lb	tp,160(s2)
     942:	0100                	addi	s0,sp,128
     944:	0a09                	addi	s4,s4,2
     946:	0000                	unimp
     948:	0101                	addi	sp,sp,0
     94a:	00000127          	.insn	4, 0x0127
     94e:	0002                	c.slli64	zero
     950:	00b4                	addi	a3,sp,72
     952:	0000                	unimp
     954:	0101                	addi	sp,sp,0
     956:	000d0efb          	.insn	4, 0x000d0efb
     95a:	0101                	addi	sp,sp,0
     95c:	0101                	addi	sp,sp,0
     95e:	0000                	unimp
     960:	0100                	addi	s0,sp,128
     962:	0000                	unimp
     964:	2e01                	sext.w	t3,t3
     966:	2f2e                	fld	ft10,200(sp)
     968:	00737973          	csrrci	s2,0x7,6
     96c:	74706f2f          	.insn	4, 0x74706f2f
     970:	7369722f          	.insn	4, 0x7369722f
     974:	722f7663          	bgeu	t5,sp,10a0 <__stack_align+0x1090>
     978:	7369                	lui	t1,0xffffa
     97a:	34367663          	bgeu	a2,gp,cc6 <__stack_align+0xcb6>
     97e:	752d                	lui	a0,0xfffeb
     980:	6b6e                	ld	s6,216(sp)
     982:	6f6e                	ld	t5,216(sp)
     984:	652d6e77          	.insn	4, 0x652d6e77
     988:	666c                	ld	a1,200(a2)
     98a:	636e692f          	.insn	4, 0x636e692f
     98e:	756c                	ld	a1,232(a0)
     990:	6564                	ld	s1,200(a0)
     992:	63616d2f          	.insn	4, 0x63616d2f
     996:	6968                	ld	a0,208(a0)
     998:	656e                	ld	a0,216(sp)
     99a:	2f00                	fld	fs0,24(a4)
     99c:	2f74706f          	j	48492 <__heap_size+0x28492>
     9a0:	6972                	ld	s2,280(sp)
     9a2:	2f766373          	csrrsi	t1,0x2f7,12
     9a6:	6972                	ld	s2,280(sp)
     9a8:	36766373          	csrrsi	t1,0x367,12
     9ac:	2d34                	fld	fa3,88(a0)
     9ae:	6e75                	lui	t3,0x1d
     9b0:	776f6e6b          	.insn	4, 0x776f6e6b
     9b4:	2d6e                	fld	fs10,216(sp)
     9b6:	6c65                	lui	s8,0x19
     9b8:	2f66                	fld	ft10,88(sp)
     9ba:	6e69                	lui	t3,0x1a
     9bc:	64756c63          	bltu	a0,t2,1014 <__stack_align+0x1004>
     9c0:	2f65                	addiw	t5,t5,25
     9c2:	00737973          	csrrci	s2,0x7,6
     9c6:	2e2e                	fld	ft8,200(sp)
     9c8:	636e692f          	.insn	4, 0x636e692f
     9cc:	756c                	ld	a1,232(a0)
     9ce:	6564                	ld	s1,200(a0)
     9d0:	0000                	unimp
     9d2:	7865                	lui	a6,0xffff9
     9d4:	7469                	lui	s0,0xffffa
     9d6:	632e                	ld	t1,200(sp)
     9d8:	0100                	addi	s0,sp,128
     9da:	0000                	unimp
     9dc:	645f 6665 7561      	.insn	6, 0x75616665645f
     9e2:	746c                	ld	a1,232(s0)
     9e4:	745f 7079 7365      	.insn	6, 0x73657079745f
     9ea:	682e                	ld	a6,200(sp)
     9ec:	0200                	addi	s0,sp,256
     9ee:	0000                	unimp
     9f0:	735f 6474 6e69      	.insn	6, 0x6e696474735f
     9f6:	2e74                	fld	fa3,216(a2)
     9f8:	0068                	addi	a0,sp,12
     9fa:	68000003          	lb	zero,1664(zero) # 680 <__stack_align+0x670>
     9fe:	6974                	ld	a3,208(a0)
     a00:	2e66                	fld	ft8,88(sp)
     a02:	0068                	addi	a0,sp,12
     a04:	0004                	.insn	2, 0x0004
     a06:	0000                	unimp
     a08:	0105                	addi	sp,sp,1
     a0a:	0900                	addi	s0,sp,144
     a0c:	8e02                	jr	t3
     a0e:	0080000b          	.insn	4, 0x0080000b
     a12:	0000                	unimp
     a14:	1600                	addi	s0,sp,800
     a16:	0505                	addi	a0,a0,1 # fffffffffffeb001 <__heap_end+0xffffffff7ffc8001>
     a18:	00090103          	lb	sp,0(s2)
     a1c:	0100                	addi	s0,sp,128
     a1e:	1405                	addi	s0,s0,-31 # ffffffffffff9fe1 <__heap_end+0xffffffff7ffd6fe1>
     a20:	0306                	slli	t1,t1,0x1
     a22:	0900                	addi	s0,sp,144
     a24:	0000                	unimp
     a26:	0501                	addi	a0,a0,0
     a28:	030e                	slli	t1,t1,0x3
     a2a:	0900                	addi	s0,sp,144
     a2c:	000a                	c.slli	zero,0x2
     a2e:	0501                	addi	a0,a0,0
     a30:	0005                	c.nop	1
     a32:	0402                	c.slli64	s0
     a34:	0601                	addi	a2,a2,0
     a36:	04090103          	lb	sp,64(s2)
     a3a:	0100                	addi	s0,sp,128
     a3c:	0905                	addi	s2,s2,1
     a3e:	0200                	addi	s0,sp,256
     a40:	0104                	addi	s1,sp,128
     a42:	00090103          	lb	sp,0(s2)
     a46:	0100                	addi	s0,sp,128
     a48:	1205                	addi	tp,tp,-31 # ffffffffffffffe1 <__heap_end+0xffffffff7ffdcfe1>
     a4a:	0200                	addi	s0,sp,256
     a4c:	0104                	addi	s1,sp,128
     a4e:	0306                	slli	t1,t1,0x1
     a50:	0900                	addi	s0,sp,144
     a52:	0000                	unimp
     a54:	0501                	addi	a0,a0,0
     a56:	0009                	c.nop	2
     a58:	0402                	c.slli64	s0
     a5a:	0601                	addi	a2,a2,0
     a5c:	08090103          	lb	sp,128(s2)
     a60:	0100                	addi	s0,sp,128
     a62:	1005                	c.nop	-31
     a64:	0200                	addi	s0,sp,256
     a66:	0104                	addi	s1,sp,128
     a68:	0306                	slli	t1,t1,0x1
     a6a:	0900                	addi	s0,sp,144
     a6c:	0000                	unimp
     a6e:	0901                	addi	s2,s2,0
     a70:	000a                	c.slli	zero,0x2
     a72:	0100                	addi	s0,sp,128
     a74:	2301                	sext.w	t1,t1
     a76:	0004                	.insn	2, 0x0004
     a78:	0200                	addi	s0,sp,256
     a7a:	2500                	fld	fs0,8(a0)
     a7c:	0000                	unimp
     a7e:	0100                	addi	s0,sp,128
     a80:	fb01                	bnez	a4,990 <__stack_align+0x980>
     a82:	0d0e                	slli	s10,s10,0x3
     a84:	0100                	addi	s0,sp,128
     a86:	0101                	addi	sp,sp,0
     a88:	0001                	nop
     a8a:	0000                	unimp
     a8c:	0001                	nop
     a8e:	0100                	addi	s0,sp,128
     a90:	2e2e                	fld	ft8,200(sp)
     a92:	73696d2f          	.insn	4, 0x73696d2f
     a96:	63000063          	beq	zero,a6,10b6 <__stack_align+0x10a6>
     a9a:	7472                	ld	s0,312(sp)
     a9c:	2e30                	fld	fa2,88(a2)
     a9e:	00010053          	fadd.s	ft0,ft2,ft0,rne
     aa2:	0000                	unimp
     aa4:	0900                	addi	s0,sp,144
     aa6:	0002                	c.slli64	zero
     aa8:	0000                	unimp
     aaa:	0080                	addi	s0,sp,64
     aac:	0000                	unimp
     aae:	0300                	addi	s0,sp,384
     ab0:	0109                	addi	sp,sp,2
     ab2:	02090103          	lb	sp,32(s2)
     ab6:	0100                	addi	s0,sp,128
     ab8:	02090103          	lb	sp,32(s2)
     abc:	0100                	addi	s0,sp,128
     abe:	02090103          	lb	sp,32(s2)
     ac2:	0100                	addi	s0,sp,128
     ac4:	02090103          	lb	sp,32(s2)
     ac8:	0100                	addi	s0,sp,128
     aca:	02090103          	lb	sp,32(s2)
     ace:	0100                	addi	s0,sp,128
     ad0:	02090103          	lb	sp,32(s2)
     ad4:	0100                	addi	s0,sp,128
     ad6:	02090103          	lb	sp,32(s2)
     ada:	0100                	addi	s0,sp,128
     adc:	02090103          	lb	sp,32(s2)
     ae0:	0100                	addi	s0,sp,128
     ae2:	02090103          	lb	sp,32(s2)
     ae6:	0100                	addi	s0,sp,128
     ae8:	02090103          	lb	sp,32(s2)
     aec:	0100                	addi	s0,sp,128
     aee:	02090103          	lb	sp,32(s2)
     af2:	0100                	addi	s0,sp,128
     af4:	02090103          	lb	sp,32(s2)
     af8:	0100                	addi	s0,sp,128
     afa:	02090103          	lb	sp,32(s2)
     afe:	0100                	addi	s0,sp,128
     b00:	02090103          	lb	sp,32(s2)
     b04:	0100                	addi	s0,sp,128
     b06:	02090103          	lb	sp,32(s2)
     b0a:	0100                	addi	s0,sp,128
     b0c:	02090103          	lb	sp,32(s2)
     b10:	0100                	addi	s0,sp,128
     b12:	02090103          	lb	sp,32(s2)
     b16:	0100                	addi	s0,sp,128
     b18:	02090103          	lb	sp,32(s2)
     b1c:	0100                	addi	s0,sp,128
     b1e:	02090103          	lb	sp,32(s2)
     b22:	0100                	addi	s0,sp,128
     b24:	02090103          	lb	sp,32(s2)
     b28:	0100                	addi	s0,sp,128
     b2a:	02090103          	lb	sp,32(s2)
     b2e:	0100                	addi	s0,sp,128
     b30:	02090103          	lb	sp,32(s2)
     b34:	0100                	addi	s0,sp,128
     b36:	02090103          	lb	sp,32(s2)
     b3a:	0100                	addi	s0,sp,128
     b3c:	02090103          	lb	sp,32(s2)
     b40:	0100                	addi	s0,sp,128
     b42:	02090103          	lb	sp,32(s2)
     b46:	0100                	addi	s0,sp,128
     b48:	02090103          	lb	sp,32(s2)
     b4c:	0100                	addi	s0,sp,128
     b4e:	02090103          	lb	sp,32(s2)
     b52:	0100                	addi	s0,sp,128
     b54:	02090103          	lb	sp,32(s2)
     b58:	0100                	addi	s0,sp,128
     b5a:	02090103          	lb	sp,32(s2)
     b5e:	0100                	addi	s0,sp,128
     b60:	02090103          	lb	sp,32(s2)
     b64:	0100                	addi	s0,sp,128
     b66:	02090203          	lb	tp,32(s2)
     b6a:	0100                	addi	s0,sp,128
     b6c:	08090103          	lb	sp,128(s2)
     b70:	0100                	addi	s0,sp,128
     b72:	04090403          	lb	s0,64(s2)
     b76:	0100                	addi	s0,sp,128
     b78:	08090103          	lb	sp,128(s2)
     b7c:	0100                	addi	s0,sp,128
     b7e:	04090203          	lb	tp,64(s2)
     b82:	0100                	addi	s0,sp,128
     b84:	04090103          	lb	sp,64(s2)
     b88:	0100                	addi	s0,sp,128
     b8a:	04090103          	lb	sp,64(s2)
     b8e:	0100                	addi	s0,sp,128
     b90:	04090103          	lb	sp,64(s2)
     b94:	0100                	addi	s0,sp,128
     b96:	04090103          	lb	sp,64(s2)
     b9a:	0100                	addi	s0,sp,128
     b9c:	04090103          	lb	sp,64(s2)
     ba0:	0100                	addi	s0,sp,128
     ba2:	04090103          	lb	sp,64(s2)
     ba6:	0100                	addi	s0,sp,128
     ba8:	04090103          	lb	sp,64(s2)
     bac:	0100                	addi	s0,sp,128
     bae:	04090103          	lb	sp,64(s2)
     bb2:	0100                	addi	s0,sp,128
     bb4:	04090103          	lb	sp,64(s2)
     bb8:	0100                	addi	s0,sp,128
     bba:	04090103          	lb	sp,64(s2)
     bbe:	0100                	addi	s0,sp,128
     bc0:	04090103          	lb	sp,64(s2)
     bc4:	0100                	addi	s0,sp,128
     bc6:	04090103          	lb	sp,64(s2)
     bca:	0100                	addi	s0,sp,128
     bcc:	04090103          	lb	sp,64(s2)
     bd0:	0100                	addi	s0,sp,128
     bd2:	04090103          	lb	sp,64(s2)
     bd6:	0100                	addi	s0,sp,128
     bd8:	04090103          	lb	sp,64(s2)
     bdc:	0100                	addi	s0,sp,128
     bde:	04090103          	lb	sp,64(s2)
     be2:	0100                	addi	s0,sp,128
     be4:	04090103          	lb	sp,64(s2)
     be8:	0100                	addi	s0,sp,128
     bea:	04090103          	lb	sp,64(s2)
     bee:	0100                	addi	s0,sp,128
     bf0:	04090103          	lb	sp,64(s2)
     bf4:	0100                	addi	s0,sp,128
     bf6:	04090103          	lb	sp,64(s2)
     bfa:	0100                	addi	s0,sp,128
     bfc:	04090103          	lb	sp,64(s2)
     c00:	0100                	addi	s0,sp,128
     c02:	04090103          	lb	sp,64(s2)
     c06:	0100                	addi	s0,sp,128
     c08:	04090103          	lb	sp,64(s2)
     c0c:	0100                	addi	s0,sp,128
     c0e:	04090103          	lb	sp,64(s2)
     c12:	0100                	addi	s0,sp,128
     c14:	04090103          	lb	sp,64(s2)
     c18:	0100                	addi	s0,sp,128
     c1a:	04090103          	lb	sp,64(s2)
     c1e:	0100                	addi	s0,sp,128
     c20:	04090103          	lb	sp,64(s2)
     c24:	0100                	addi	s0,sp,128
     c26:	04090103          	lb	sp,64(s2)
     c2a:	0100                	addi	s0,sp,128
     c2c:	04090103          	lb	sp,64(s2)
     c30:	0100                	addi	s0,sp,128
     c32:	04090103          	lb	sp,64(s2)
     c36:	0100                	addi	s0,sp,128
     c38:	04090103          	lb	sp,64(s2)
     c3c:	0100                	addi	s0,sp,128
     c3e:	04090103          	lb	sp,64(s2)
     c42:	0100                	addi	s0,sp,128
     c44:	04090803          	lb	a6,64(s2)
     c48:	0100                	addi	s0,sp,128
     c4a:	08090403          	lb	s0,128(s2)
     c4e:	0100                	addi	s0,sp,128
     c50:	04090103          	lb	sp,64(s2)
     c54:	0100                	addi	s0,sp,128
     c56:	00090103          	lb	sp,0(s2)
     c5a:	0100                	addi	s0,sp,128
     c5c:	04090103          	lb	sp,64(s2)
     c60:	0100                	addi	s0,sp,128
     c62:	08090103          	lb	sp,128(s2)
     c66:	0100                	addi	s0,sp,128
     c68:	04090103          	lb	sp,64(s2)
     c6c:	0100                	addi	s0,sp,128
     c6e:	02090303          	lb	t1,32(s2)
     c72:	0100                	addi	s0,sp,128
     c74:	02090103          	lb	sp,32(s2)
     c78:	0100                	addi	s0,sp,128
     c7a:	04090103          	lb	sp,64(s2)
     c7e:	0100                	addi	s0,sp,128
     c80:	04090303          	lb	t1,64(s2)
     c84:	0100                	addi	s0,sp,128
     c86:	08090103          	lb	sp,128(s2)
     c8a:	0100                	addi	s0,sp,128
     c8c:	04090303          	lb	t1,64(s2)
     c90:	0100                	addi	s0,sp,128
     c92:	04090303          	lb	t1,64(s2)
     c96:	0100                	addi	s0,sp,128
     c98:	04090103          	lb	sp,64(s2)
     c9c:	0100                	addi	s0,sp,128
     c9e:	08090303          	lb	t1,128(s2)
     ca2:	0100                	addi	s0,sp,128
     ca4:	04090103          	lb	sp,64(s2)
     ca8:	0100                	addi	s0,sp,128
     caa:	04090103          	lb	sp,64(s2)
     cae:	0100                	addi	s0,sp,128
     cb0:	04090203          	lb	tp,64(s2)
     cb4:	0100                	addi	s0,sp,128
     cb6:	04090103          	lb	sp,64(s2)
     cba:	0100                	addi	s0,sp,128
     cbc:	02090103          	lb	sp,32(s2)
     cc0:	0100                	addi	s0,sp,128
     cc2:	04090403          	lb	s0,64(s2)
     cc6:	0100                	addi	s0,sp,128
     cc8:	08090103          	lb	sp,128(s2)
     ccc:	0100                	addi	s0,sp,128
     cce:	04090103          	lb	sp,64(s2)
     cd2:	0100                	addi	s0,sp,128
     cd4:	04090303          	lb	t1,64(s2)
     cd8:	0100                	addi	s0,sp,128
     cda:	04090703          	lb	a4,64(s2)
     cde:	0100                	addi	s0,sp,128
     ce0:	04090103          	lb	sp,64(s2)
     ce4:	0100                	addi	s0,sp,128
     ce6:	02090303          	lb	t1,32(s2)
     cea:	0100                	addi	s0,sp,128
     cec:	02090103          	lb	sp,32(s2)
     cf0:	0100                	addi	s0,sp,128
     cf2:	04090103          	lb	sp,64(s2)
     cf6:	0100                	addi	s0,sp,128
     cf8:	02090103          	lb	sp,32(s2)
     cfc:	0100                	addi	s0,sp,128
     cfe:	02090103          	lb	sp,32(s2)
     d02:	0100                	addi	s0,sp,128
     d04:	02090103          	lb	sp,32(s2)
     d08:	0100                	addi	s0,sp,128
     d0a:	02090103          	lb	sp,32(s2)
     d0e:	0100                	addi	s0,sp,128
     d10:	02090103          	lb	sp,32(s2)
     d14:	0100                	addi	s0,sp,128
     d16:	02090103          	lb	sp,32(s2)
     d1a:	0100                	addi	s0,sp,128
     d1c:	02090103          	lb	sp,32(s2)
     d20:	0100                	addi	s0,sp,128
     d22:	02090103          	lb	sp,32(s2)
     d26:	0100                	addi	s0,sp,128
     d28:	02090103          	lb	sp,32(s2)
     d2c:	0100                	addi	s0,sp,128
     d2e:	02090103          	lb	sp,32(s2)
     d32:	0100                	addi	s0,sp,128
     d34:	02090103          	lb	sp,32(s2)
     d38:	0100                	addi	s0,sp,128
     d3a:	02090103          	lb	sp,32(s2)
     d3e:	0100                	addi	s0,sp,128
     d40:	02090103          	lb	sp,32(s2)
     d44:	0100                	addi	s0,sp,128
     d46:	02090103          	lb	sp,32(s2)
     d4a:	0100                	addi	s0,sp,128
     d4c:	02090103          	lb	sp,32(s2)
     d50:	0100                	addi	s0,sp,128
     d52:	02090103          	lb	sp,32(s2)
     d56:	0100                	addi	s0,sp,128
     d58:	02090103          	lb	sp,32(s2)
     d5c:	0100                	addi	s0,sp,128
     d5e:	02090103          	lb	sp,32(s2)
     d62:	0100                	addi	s0,sp,128
     d64:	02090103          	lb	sp,32(s2)
     d68:	0100                	addi	s0,sp,128
     d6a:	02090103          	lb	sp,32(s2)
     d6e:	0100                	addi	s0,sp,128
     d70:	02090103          	lb	sp,32(s2)
     d74:	0100                	addi	s0,sp,128
     d76:	02090103          	lb	sp,32(s2)
     d7a:	0100                	addi	s0,sp,128
     d7c:	02090103          	lb	sp,32(s2)
     d80:	0100                	addi	s0,sp,128
     d82:	02090103          	lb	sp,32(s2)
     d86:	0100                	addi	s0,sp,128
     d88:	02090103          	lb	sp,32(s2)
     d8c:	0100                	addi	s0,sp,128
     d8e:	02090103          	lb	sp,32(s2)
     d92:	0100                	addi	s0,sp,128
     d94:	02090103          	lb	sp,32(s2)
     d98:	0100                	addi	s0,sp,128
     d9a:	02090103          	lb	sp,32(s2)
     d9e:	0100                	addi	s0,sp,128
     da0:	02090103          	lb	sp,32(s2)
     da4:	0100                	addi	s0,sp,128
     da6:	02090303          	lb	t1,32(s2)
     daa:	0100                	addi	s0,sp,128
     dac:	04090103          	lb	sp,64(s2)
     db0:	0100                	addi	s0,sp,128
     db2:	04090103          	lb	sp,64(s2)
     db6:	0100                	addi	s0,sp,128
     db8:	04090103          	lb	sp,64(s2)
     dbc:	0100                	addi	s0,sp,128
     dbe:	02090103          	lb	sp,32(s2)
     dc2:	0100                	addi	s0,sp,128
     dc4:	04090103          	lb	sp,64(s2)
     dc8:	0100                	addi	s0,sp,128
     dca:	04090303          	lb	t1,64(s2)
     dce:	0100                	addi	s0,sp,128
     dd0:	08090103          	lb	sp,128(s2)
     dd4:	0100                	addi	s0,sp,128
     dd6:	04090203          	lb	tp,64(s2)
     dda:	0100                	addi	s0,sp,128
     ddc:	02090103          	lb	sp,32(s2)
     de0:	0100                	addi	s0,sp,128
     de2:	02090103          	lb	sp,32(s2)
     de6:	0100                	addi	s0,sp,128
     de8:	02090103          	lb	sp,32(s2)
     dec:	0100                	addi	s0,sp,128
     dee:	02090103          	lb	sp,32(s2)
     df2:	0100                	addi	s0,sp,128
     df4:	02090103          	lb	sp,32(s2)
     df8:	0100                	addi	s0,sp,128
     dfa:	02090103          	lb	sp,32(s2)
     dfe:	0100                	addi	s0,sp,128
     e00:	02090103          	lb	sp,32(s2)
     e04:	0100                	addi	s0,sp,128
     e06:	02090103          	lb	sp,32(s2)
     e0a:	0100                	addi	s0,sp,128
     e0c:	02090103          	lb	sp,32(s2)
     e10:	0100                	addi	s0,sp,128
     e12:	02090103          	lb	sp,32(s2)
     e16:	0100                	addi	s0,sp,128
     e18:	02090103          	lb	sp,32(s2)
     e1c:	0100                	addi	s0,sp,128
     e1e:	02090103          	lb	sp,32(s2)
     e22:	0100                	addi	s0,sp,128
     e24:	02090103          	lb	sp,32(s2)
     e28:	0100                	addi	s0,sp,128
     e2a:	02090103          	lb	sp,32(s2)
     e2e:	0100                	addi	s0,sp,128
     e30:	02090103          	lb	sp,32(s2)
     e34:	0100                	addi	s0,sp,128
     e36:	02090103          	lb	sp,32(s2)
     e3a:	0100                	addi	s0,sp,128
     e3c:	02090103          	lb	sp,32(s2)
     e40:	0100                	addi	s0,sp,128
     e42:	02090103          	lb	sp,32(s2)
     e46:	0100                	addi	s0,sp,128
     e48:	02090103          	lb	sp,32(s2)
     e4c:	0100                	addi	s0,sp,128
     e4e:	02090103          	lb	sp,32(s2)
     e52:	0100                	addi	s0,sp,128
     e54:	02090103          	lb	sp,32(s2)
     e58:	0100                	addi	s0,sp,128
     e5a:	02090103          	lb	sp,32(s2)
     e5e:	0100                	addi	s0,sp,128
     e60:	02090103          	lb	sp,32(s2)
     e64:	0100                	addi	s0,sp,128
     e66:	02090103          	lb	sp,32(s2)
     e6a:	0100                	addi	s0,sp,128
     e6c:	02090103          	lb	sp,32(s2)
     e70:	0100                	addi	s0,sp,128
     e72:	02090103          	lb	sp,32(s2)
     e76:	0100                	addi	s0,sp,128
     e78:	02090103          	lb	sp,32(s2)
     e7c:	0100                	addi	s0,sp,128
     e7e:	02090103          	lb	sp,32(s2)
     e82:	0100                	addi	s0,sp,128
     e84:	02090103          	lb	sp,32(s2)
     e88:	0100                	addi	s0,sp,128
     e8a:	02090203          	lb	tp,32(s2)
     e8e:	0100                	addi	s0,sp,128
     e90:	02090203          	lb	tp,32(s2)
     e94:	0100                	addi	s0,sp,128
     e96:	0409                	addi	s0,s0,2
     e98:	0000                	unimp
     e9a:	0101                	addi	sp,sp,0
     e9c:	0054                	addi	a3,sp,4
     e9e:	0000                	unimp
     ea0:	0002                	c.slli64	zero
     ea2:	0028                	addi	a0,sp,8
     ea4:	0000                	unimp
     ea6:	0101                	addi	sp,sp,0
     ea8:	000d0efb          	.insn	4, 0x000d0efb
     eac:	0101                	addi	sp,sp,0
     eae:	0101                	addi	sp,sp,0
     eb0:	0000                	unimp
     eb2:	0100                	addi	s0,sp,128
     eb4:	0000                	unimp
     eb6:	2e01                	sext.w	t3,t3
     eb8:	2f2e                	fld	ft10,200(sp)
     eba:	696d                	lui	s2,0x1b
     ebc:	00006373          	csrrsi	t1,ustatus,0
     ec0:	6d747263          	bgeu	s0,s7,1584 <__stack_align+0x1574>
     ec4:	6961                	lui	s2,0x18
     ec6:	2e6e                	fld	ft8,216(sp)
     ec8:	00010053          	fadd.s	ft0,ft2,ft0,rne
     ecc:	0000                	unimp
     ece:	0900                	addi	s0,sp,144
     ed0:	f402                	sd	zero,40(sp)
     ed2:	0001                	nop
     ed4:	0080                	addi	s0,sp,64
     ed6:	0000                	unimp
     ed8:	0300                	addi	s0,sp,384
     eda:	0110                	addi	a2,sp,128
     edc:	0a090103          	lb	sp,160(s2) # 180a0 <__stack_size+0x100a0>
     ee0:	0100                	addi	s0,sp,128
     ee2:	1a090603          	lb	a2,416(s2)
     ee6:	0100                	addi	s0,sp,128
     ee8:	0c090103          	lb	sp,192(s2)
     eec:	0100                	addi	s0,sp,128
     eee:	1a09                	addi	s4,s4,-30
     ef0:	0000                	unimp
     ef2:	0101                	addi	sp,sp,0
     ef4:	017d                	addi	sp,sp,31
     ef6:	0000                	unimp
     ef8:	0002                	c.slli64	zero
     efa:	00e4                	addi	s1,sp,76
     efc:	0000                	unimp
     efe:	0101                	addi	sp,sp,0
     f00:	000d0efb          	.insn	4, 0x000d0efb
     f04:	0101                	addi	sp,sp,0
     f06:	0101                	addi	sp,sp,0
     f08:	0000                	unimp
     f0a:	0100                	addi	s0,sp,128
     f0c:	0000                	unimp
     f0e:	2e01                	sext.w	t3,t3
     f10:	2f2e                	fld	ft10,200(sp)
     f12:	696d                	lui	s2,0x1b
     f14:	2f006373          	csrrsi	t1,0x2f0,0
     f18:	2f74706f          	j	48a0e <__heap_size+0x28a0e>
     f1c:	6972                	ld	s2,280(sp)
     f1e:	2f766373          	csrrsi	t1,0x2f7,12
     f22:	696c                	ld	a1,208(a0)
     f24:	2f62                	fld	ft10,24(sp)
     f26:	2f636367          	.insn	4, 0x2f636367
     f2a:	6972                	ld	s2,280(sp)
     f2c:	36766373          	csrrsi	t1,0x367,12
     f30:	2d34                	fld	fa3,88(a0)
     f32:	6e75                	lui	t3,0x1d
     f34:	776f6e6b          	.insn	4, 0x776f6e6b
     f38:	2d6e                	fld	fs10,216(sp)
     f3a:	6c65                	lui	s8,0x19
     f3c:	2f66                	fld	ft10,88(sp)
     f3e:	2e38                	fld	fa4,88(a2)
     f40:	2e32                	fld	ft8,264(sp)
     f42:	2f30                	fld	fa2,88(a4)
     f44:	6e69                	lui	t3,0x1a
     f46:	64756c63          	bltu	a0,t2,159e <__stack_align+0x158e>
     f4a:	0065                	c.nop	25
     f4c:	74706f2f          	.insn	4, 0x74706f2f
     f50:	7369722f          	.insn	4, 0x7369722f
     f54:	722f7663          	bgeu	t5,sp,1680 <__stack_align+0x1670>
     f58:	7369                	lui	t1,0xffffa
     f5a:	34367663          	bgeu	a2,gp,12a6 <__stack_align+0x1296>
     f5e:	752d                	lui	a0,0xfffeb
     f60:	6b6e                	ld	s6,216(sp)
     f62:	6f6e                	ld	t5,216(sp)
     f64:	652d6e77          	.insn	4, 0x652d6e77
     f68:	666c                	ld	a1,200(a2)
     f6a:	636e692f          	.insn	4, 0x636e692f
     f6e:	756c                	ld	a1,232(a0)
     f70:	6564                	ld	s1,200(a0)
     f72:	7379732f          	.insn	4, 0x7379732f
     f76:	2f00                	fld	fs0,24(a4)
     f78:	2f74706f          	j	48a6e <__heap_size+0x28a6e>
     f7c:	6972                	ld	s2,280(sp)
     f7e:	2f766373          	csrrsi	t1,0x2f7,12
     f82:	6972                	ld	s2,280(sp)
     f84:	36766373          	csrrsi	t1,0x367,12
     f88:	2d34                	fld	fa3,88(a0)
     f8a:	6e75                	lui	t3,0x1d
     f8c:	776f6e6b          	.insn	4, 0x776f6e6b
     f90:	2d6e                	fld	fs10,216(sp)
     f92:	6c65                	lui	s8,0x19
     f94:	2f66                	fld	ft10,88(sp)
     f96:	6e69                	lui	t3,0x1a
     f98:	64756c63          	bltu	a0,t2,15f0 <__stack_align+0x15e0>
     f9c:	0065                	c.nop	25
     f9e:	7400                	ld	s0,40(s0)
     fa0:	736c                	ld	a1,224(a4)
     fa2:	632e                	ld	t1,200(sp)
     fa4:	0100                	addi	s0,sp,128
     fa6:	0000                	unimp
     fa8:	64647473          	csrrci	s0,hviprio1,8
     fac:	6665                	lui	a2,0x19
     fae:	682e                	ld	a6,200(sp)
     fb0:	0200                	addi	s0,sp,256
     fb2:	0000                	unimp
     fb4:	6f6c                	ld	a1,216(a4)
     fb6:	682e6b63          	bltu	t3,sp,164c <__stack_align+0x163c>
     fba:	0300                	addi	s0,sp,384
     fbc:	0000                	unimp
     fbe:	745f 7079 7365      	.insn	6, 0x73657079745f
     fc4:	682e                	ld	a6,200(sp)
     fc6:	0300                	addi	s0,sp,384
     fc8:	0000                	unimp
     fca:	6572                	ld	a0,280(sp)
     fcc:	6e65                	lui	t3,0x19
     fce:	2e74                	fld	fa3,216(a2)
     fd0:	0068                	addi	a0,sp,12
     fd2:	73000003          	lb	zero,1840(zero) # 730 <__stack_align+0x720>
     fd6:	7274                	ld	a3,224(a2)
     fd8:	6e69                	lui	t3,0x1a
     fda:	00682e67          	.insn	4, 0x00682e67
     fde:	0004                	.insn	2, 0x0004
     fe0:	0000                	unimp
     fe2:	0105                	addi	sp,sp,1
     fe4:	0900                	addi	s0,sp,144
     fe6:	ae02                	fsd	ft0,280(sp)
     fe8:	0080000b          	.insn	4, 0x0080000b
     fec:	0000                	unimp
     fee:	1500                	addi	s0,sp,672
     ff0:	0505                	addi	a0,a0,1 # fffffffffffeb001 <__heap_end+0xffffffff7ffc8001>
     ff2:	00090103          	lb	sp,0(s2) # 1b000 <__stack_size+0x13000>
     ff6:	0100                	addi	s0,sp,128
     ff8:	00090103          	lb	sp,0(s2)
     ffc:	0100                	addi	s0,sp,128
     ffe:	00090103          	lb	sp,0(s2)
    1002:	0100                	addi	s0,sp,128
    1004:	00090103          	lb	sp,0(s2)
    1008:	0100                	addi	s0,sp,128
    100a:	00090103          	lb	sp,0(s2)
    100e:	0100                	addi	s0,sp,128
    1010:	00090203          	lb	tp,0(s2)
    1014:	0100                	addi	s0,sp,128
    1016:	0105                	addi	sp,sp,1
    1018:	0306                	slli	t1,t1,0x1
    101a:	0979                	addi	s2,s2,30
    101c:	0000                	unimp
    101e:	0501                	addi	a0,a0,0
    1020:	0305                	addi	t1,t1,1 # ffffffffffffa001 <__heap_end+0xffffffff7ffd7001>
    1022:	00020907          	.insn	4, 0x00020907
    1026:	0501                	addi	a0,a0,0
    1028:	0301                	addi	t1,t1,0
    102a:	0979                	addi	s2,s2,30
    102c:	000e                	c.slli	zero,0x3
    102e:	0501                	addi	a0,a0,0
    1030:	0305                	addi	t1,t1,1
    1032:	00040907          	.insn	4, 0x00040907
    1036:	0601                	addi	a2,a2,0 # 19000 <__stack_size+0x11000>
    1038:	06090103          	lb	sp,96(s2)
    103c:	0100                	addi	s0,sp,128
    103e:	0105                	addi	sp,sp,1
    1040:	0306                	slli	t1,t1,0x1
    1042:	0901                	addi	s2,s2,0
    1044:	0006                	c.slli	zero,0x1
    1046:	0501                	addi	a0,a0,0
    1048:	0305                	addi	t1,t1,1
    104a:	097f 0004 0501 0301 	.insn	10, 0x0901030105010004097f
    1052:	0901 
    1054:	0004                	.insn	2, 0x0004
    1056:	0501                	addi	a0,a0,0
    1058:	0305                	addi	t1,t1,1
    105a:	097f 0000 0501 0301 	.insn	10, 0x0901030105010000097f
    1062:	0901 
    1064:	0002                	c.slli64	zero
    1066:	0501                	addi	a0,a0,0
    1068:	0305                	addi	t1,t1,1
    106a:	097f 0002 0901 0002 	.insn	10, 0x0100000209010002097f
    1072:	0100 
    1074:	6601                	.insn	2, 0x6601
    1076:	0002                	c.slli64	zero
    1078:	0200                	addi	s0,sp,256
    107a:	cf00                	sw	s0,24(a4)
    107c:	0000                	unimp
    107e:	0100                	addi	s0,sp,128
    1080:	fb01                	bnez	a4,f90 <__stack_align+0xf80>
    1082:	0d0e                	slli	s10,s10,0x3
    1084:	0100                	addi	s0,sp,128
    1086:	0101                	addi	sp,sp,0
    1088:	0001                	nop
    108a:	0000                	unimp
    108c:	0001                	nop
    108e:	0100                	addi	s0,sp,128
    1090:	2e2e                	fld	ft8,200(sp)
    1092:	73696d2f          	.insn	4, 0x73696d2f
    1096:	2e2e0063          	beq	t3,sp,1376 <__stack_align+0x1366>
    109a:	636e692f          	.insn	4, 0x636e692f
    109e:	756c                	ld	a1,232(a0)
    10a0:	6564                	ld	s1,200(a0)
    10a2:	2f00                	fld	fs0,24(a4)
    10a4:	2f74706f          	j	48b9a <__heap_size+0x28b9a>
    10a8:	6972                	ld	s2,280(sp)
    10aa:	2f766373          	csrrsi	t1,0x2f7,12
    10ae:	6972                	ld	s2,280(sp)
    10b0:	36766373          	csrrsi	t1,0x367,12
    10b4:	2d34                	fld	fa3,88(a0)
    10b6:	6e75                	lui	t3,0x1d
    10b8:	776f6e6b          	.insn	4, 0x776f6e6b
    10bc:	2d6e                	fld	fs10,216(sp)
    10be:	6c65                	lui	s8,0x19
    10c0:	2f66                	fld	ft10,88(sp)
    10c2:	6e69                	lui	t3,0x1a
    10c4:	64756c63          	bltu	a0,t2,171c <__stack_align+0x170c>
    10c8:	2f65                	addiw	t5,t5,25
    10ca:	616d                	addi	sp,sp,240
    10cc:	6e696863          	bltu	s2,t1,17bc <__stack_align+0x17ac>
    10d0:	0065                	c.nop	25
    10d2:	74706f2f          	.insn	4, 0x74706f2f
    10d6:	7369722f          	.insn	4, 0x7369722f
    10da:	722f7663          	bgeu	t5,sp,1806 <__stack_align+0x17f6>
    10de:	7369                	lui	t1,0xffffa
    10e0:	34367663          	bgeu	a2,gp,142c <__stack_align+0x141c>
    10e4:	752d                	lui	a0,0xfffeb
    10e6:	6b6e                	ld	s6,216(sp)
    10e8:	6f6e                	ld	t5,216(sp)
    10ea:	652d6e77          	.insn	4, 0x652d6e77
    10ee:	666c                	ld	a1,200(a2)
    10f0:	636e692f          	.insn	4, 0x636e692f
    10f4:	756c                	ld	a1,232(a0)
    10f6:	6564                	ld	s1,200(a0)
    10f8:	7379732f          	.insn	4, 0x7379732f
    10fc:	0000                	unimp
    10fe:	7468                	ld	a0,232(s0)
    1100:	6669                	lui	a2,0x1a
    1102:	632e                	ld	t1,200(sp)
    1104:	0100                	addi	s0,sp,128
    1106:	0000                	unimp
    1108:	7461                	lui	s0,0xffff8
    110a:	63696d6f          	jal	s10,97740 <__heap_size+0x77740>
    110e:	682e                	ld	a6,200(sp)
    1110:	0200                	addi	s0,sp,256
    1112:	0000                	unimp
    1114:	6e697073          	csrci	0x6e6,18
    1118:	6f6c                	ld	a1,216(a4)
    111a:	682e6b63          	bltu	t3,sp,17b0 <__stack_align+0x17a0>
    111e:	0200                	addi	s0,sp,256
    1120:	0000                	unimp
    1122:	645f 6665 7561      	.insn	6, 0x75616665645f
    1128:	746c                	ld	a1,232(s0)
    112a:	745f 7079 7365      	.insn	6, 0x73657079745f
    1130:	682e                	ld	a6,200(sp)
    1132:	0300                	addi	s0,sp,384
    1134:	0000                	unimp
    1136:	735f 6474 6e69      	.insn	6, 0x6e696474735f
    113c:	2e74                	fld	fa3,216(a2)
    113e:	0068                	addi	a0,sp,12
    1140:	0004                	.insn	2, 0x0004
    1142:	6800                	ld	s0,16(s0)
    1144:	6974                	ld	a3,208(a0)
    1146:	2e66                	fld	ft8,88(sp)
    1148:	0068                	addi	a0,sp,12
    114a:	0002                	c.slli64	zero
    114c:	0000                	unimp
    114e:	0105                	addi	sp,sp,1
    1150:	0900                	addi	s0,sp,144
    1152:	dc02                	sw	zero,56(sp)
    1154:	0080000b          	.insn	4, 0x0080000b
    1158:	0000                	unimp
    115a:	0300                	addi	s0,sp,384
    115c:	010c                	addi	a1,sp,128
    115e:	0505                	addi	a0,a0,1 # fffffffffffeb001 <__heap_end+0xffffffff7ffc8001>
    1160:	00090103          	lb	sp,0(s2)
    1164:	0100                	addi	s0,sp,128
    1166:	00090103          	lb	sp,0(s2)
    116a:	0100                	addi	s0,sp,128
    116c:	00090203          	lb	tp,0(s2)
    1170:	0100                	addi	s0,sp,128
    1172:	0105                	addi	sp,sp,1
    1174:	0306                	slli	t1,t1,0x1
    1176:	097c                	addi	a5,sp,156
    1178:	0000                	unimp
    117a:	0501                	addi	a0,a0,0
    117c:	030c                	addi	a1,sp,384
    117e:	0904                	addi	s1,sp,144
    1180:	0002                	c.slli64	zero
    1182:	0501                	addi	a0,a0,0
    1184:	0605                	addi	a2,a2,1 # 1a001 <__stack_size+0x12001>
    1186:	02090103          	lb	sp,32(s2)
    118a:	0100                	addi	s0,sp,128
    118c:	0c05                	addi	s8,s8,1 # 19001 <__stack_size+0x11001>
    118e:	0306                	slli	t1,t1,0x1
    1190:	0900                	addi	s0,sp,144
    1192:	0000                	unimp
    1194:	0501                	addi	a0,a0,0
    1196:	0605                	addi	a2,a2,1
    1198:	02090103          	lb	sp,32(s2)
    119c:	0100                	addi	s0,sp,128
    119e:	0c05                	addi	s8,s8,1
    11a0:	0306                	slli	t1,t1,0x1
    11a2:	0900                	addi	s0,sp,144
    11a4:	0000                	unimp
    11a6:	0501                	addi	a0,a0,0
    11a8:	0605                	addi	a2,a2,1
    11aa:	02090103          	lb	sp,32(s2)
    11ae:	0100                	addi	s0,sp,128
    11b0:	0805                	addi	a6,a6,1 # ffffffffffff9001 <__heap_end+0xffffffff7ffd6001>
    11b2:	0306                	slli	t1,t1,0x1
    11b4:	0902                	c.slli64	s2
    11b6:	0000                	unimp
    11b8:	0501                	addi	a0,a0,0
    11ba:	030c                	addi	a1,sp,384
    11bc:	097e                	slli	s2,s2,0x1f
    11be:	0002                	c.slli64	zero
    11c0:	0501                	addi	a0,a0,0
    11c2:	0605                	addi	a2,a2,1
    11c4:	02090203          	lb	tp,32(s2)
    11c8:	0100                	addi	s0,sp,128
    11ca:	0805                	addi	a6,a6,1
    11cc:	0306                	slli	t1,t1,0x1
    11ce:	0900                	addi	s0,sp,144
    11d0:	0000                	unimp
    11d2:	0501                	addi	a0,a0,0
    11d4:	0605                	addi	a2,a2,1
    11d6:	06090103          	lb	sp,96(s2)
    11da:	0100                	addi	s0,sp,128
    11dc:	0204                	addi	s1,sp,256
    11de:	0306                	slli	t1,t1,0x1
    11e0:	0915                	addi	s2,s2,5
    11e2:	0004                	.insn	2, 0x0004
    11e4:	0401                	addi	s0,s0,0 # ffffffffffff8000 <__heap_end+0xffffffff7ffd5000>
    11e6:	06290503          	lb	a0,98(s2)
    11ea:	02096403          	lwu	s0,32(s2)
    11ee:	0100                	addi	s0,sp,128
    11f0:	0204                	addi	s1,sp,256
    11f2:	0505                	addi	a0,a0,1
    11f4:	00091003          	lh	zero,0(s2)
    11f8:	0100                	addi	s0,sp,128
    11fa:	0c05                	addi	s8,s8,1
    11fc:	0306                	slli	t1,t1,0x1
    11fe:	0900                	addi	s0,sp,144
    1200:	0000                	unimp
    1202:	0401                	addi	s0,s0,0
    1204:	030f0503          	lb	a0,48(t5)
    1208:	0970                	addi	a2,sp,156
    120a:	0004                	.insn	2, 0x0004
    120c:	0401                	addi	s0,s0,0
    120e:	0502                	c.slli64	a0
    1210:	0605                	addi	a2,a2,1
    1212:	02091a03          	lh	s4,32(s2)
    1216:	0100                	addi	s0,sp,128
    1218:	00090203          	lb	tp,0(s2)
    121c:	0100                	addi	s0,sp,128
    121e:	04090d03          	lb	s10,64(s2)
    1222:	0100                	addi	s0,sp,128
    1224:	0304                	addi	s1,sp,384
    1226:	0306                	slli	t1,t1,0x1
    1228:	0959                	addi	s2,s2,22
    122a:	0000                	unimp
    122c:	0401                	addi	s0,s0,0
    122e:	0601                	addi	a2,a2,0
    1230:	02090603          	lb	a2,32(s2)
    1234:	0100                	addi	s0,sp,128
    1236:	0204                	addi	s1,sp,256
    1238:	2005                	.insn	2, 0x2005
    123a:	00097e03          	.insn	4, 0x00097e03
    123e:	0100                	addi	s0,sp,128
    1240:	0104                	addi	s1,sp,128
    1242:	0505                	addi	a0,a0,1
    1244:	04090303          	lb	t1,64(s2)
    1248:	0100                	addi	s0,sp,128
    124a:	0c05                	addi	s8,s8,1
    124c:	0306                	slli	t1,t1,0x1
    124e:	0900                	addi	s0,sp,144
    1250:	0008                	.insn	2, 0x0008
    1252:	0501                	addi	a0,a0,0
    1254:	0605                	addi	a2,a2,1
    1256:	08090103          	lb	sp,128(s2)
    125a:	0100                	addi	s0,sp,128
    125c:	1a05                	addi	s4,s4,-31
    125e:	0200                	addi	s0,sp,256
    1260:	0104                	addi	s1,sp,128
    1262:	00090003          	lb	zero,0(s2)
    1266:	0100                	addi	s0,sp,128
    1268:	1505                	addi	a0,a0,-31
    126a:	0200                	addi	s0,sp,256
    126c:	0104                	addi	s1,sp,128
    126e:	0306                	slli	t1,t1,0x1
    1270:	0900                	addi	s0,sp,144
    1272:	0000                	unimp
    1274:	0501                	addi	a0,a0,0
    1276:	0402000b          	.insn	4, 0x0402000b
    127a:	0301                	addi	t1,t1,0 # ffffffffffffa000 <__heap_end+0xffffffff7ffd7000>
    127c:	0900                	addi	s0,sp,144
    127e:	0002                	c.slli64	zero
    1280:	0501                	addi	a0,a0,0
    1282:	0605                	addi	a2,a2,1
    1284:	02090103          	lb	sp,32(s2)
    1288:	0100                	addi	s0,sp,128
    128a:	0e05                	addi	t3,t3,1 # 1a001 <__stack_size+0x12001>
    128c:	0306                	slli	t1,t1,0x1
    128e:	0900                	addi	s0,sp,144
    1290:	0000                	unimp
    1292:	0501                	addi	a0,a0,0
    1294:	0605                	addi	a2,a2,1
    1296:	08090103          	lb	sp,128(s2)
    129a:	0100                	addi	s0,sp,128
    129c:	0304                	addi	s1,sp,384
    129e:	00097b03          	.insn	4, 0x00097b03
    12a2:	0100                	addi	s0,sp,128
    12a4:	0204                	addi	s1,sp,256
    12a6:	00092803          	lw	a6,0(s2)
    12aa:	0100                	addi	s0,sp,128
    12ac:	0104                	addi	s1,sp,128
    12ae:	04095f03          	lhu	t5,64(s2)
    12b2:	0100                	addi	s0,sp,128
    12b4:	0204                	addi	s1,sp,256
    12b6:	2005                	.insn	2, 0x2005
    12b8:	00097703          	.insn	4, 0x00097703
    12bc:	0100                	addi	s0,sp,128
    12be:	0104                	addi	s1,sp,128
    12c0:	0505                	addi	a0,a0,1
    12c2:	04090a03          	lb	s4,64(s2)
    12c6:	0100                	addi	s0,sp,128
    12c8:	0f05                	addi	t5,t5,1
    12ca:	0306                	slli	t1,t1,0x1
    12cc:	0900                	addi	s0,sp,144
    12ce:	0000                	unimp
    12d0:	0501                	addi	a0,a0,0
    12d2:	0301                	addi	t1,t1,0
    12d4:	0901                	addi	s2,s2,0
    12d6:	0002                	c.slli64	zero
    12d8:	0901                	addi	s2,s2,0
    12da:	0004                	.insn	2, 0x0004
    12dc:	0100                	addi	s0,sp,128
    12de:	7701                	lui	a4,0xfffe0
    12e0:	0001                	nop
    12e2:	0200                	addi	s0,sp,256
    12e4:	2200                	fld	fs0,0(a2)
    12e6:	0001                	nop
    12e8:	0100                	addi	s0,sp,128
    12ea:	fb01                	bnez	a4,11fa <__stack_align+0x11ea>
    12ec:	0d0e                	slli	s10,s10,0x3
    12ee:	0100                	addi	s0,sp,128
    12f0:	0101                	addi	sp,sp,0
    12f2:	0001                	nop
    12f4:	0000                	unimp
    12f6:	0001                	nop
    12f8:	0100                	addi	s0,sp,128
    12fa:	2e2e                	fld	ft8,200(sp)
    12fc:	7379732f          	.insn	4, 0x7379732f
    1300:	2f00                	fld	fs0,24(a4)
    1302:	2f74706f          	j	48df8 <__heap_size+0x28df8>
    1306:	6972                	ld	s2,280(sp)
    1308:	2f766373          	csrrsi	t1,0x2f7,12
    130c:	6972                	ld	s2,280(sp)
    130e:	36766373          	csrrsi	t1,0x367,12
    1312:	2d34                	fld	fa3,88(a0)
    1314:	6e75                	lui	t3,0x1d
    1316:	776f6e6b          	.insn	4, 0x776f6e6b
    131a:	2d6e                	fld	fs10,216(sp)
    131c:	6c65                	lui	s8,0x19
    131e:	2f66                	fld	ft10,88(sp)
    1320:	6e69                	lui	t3,0x1a
    1322:	64756c63          	bltu	a0,t2,197a <__stack_align+0x196a>
    1326:	2f65                	addiw	t5,t5,25
    1328:	616d                	addi	sp,sp,240
    132a:	6e696863          	bltu	s2,t1,1a1a <__stack_align+0x1a0a>
    132e:	0065                	c.nop	25
    1330:	74706f2f          	.insn	4, 0x74706f2f
    1334:	7369722f          	.insn	4, 0x7369722f
    1338:	722f7663          	bgeu	t5,sp,1a64 <__stack_align+0x1a54>
    133c:	7369                	lui	t1,0xffffa
    133e:	34367663          	bgeu	a2,gp,168a <__stack_align+0x167a>
    1342:	752d                	lui	a0,0xfffeb
    1344:	6b6e                	ld	s6,216(sp)
    1346:	6f6e                	ld	t5,216(sp)
    1348:	652d6e77          	.insn	4, 0x652d6e77
    134c:	666c                	ld	a1,200(a2)
    134e:	636e692f          	.insn	4, 0x636e692f
    1352:	756c                	ld	a1,232(a0)
    1354:	6564                	ld	s1,200(a0)
    1356:	7379732f          	.insn	4, 0x7379732f
    135a:	2f00                	fld	fs0,24(a4)
    135c:	2f74706f          	j	48e52 <__heap_size+0x28e52>
    1360:	6972                	ld	s2,280(sp)
    1362:	2f766373          	csrrsi	t1,0x2f7,12
    1366:	696c                	ld	a1,208(a0)
    1368:	2f62                	fld	ft10,24(sp)
    136a:	2f636367          	.insn	4, 0x2f636367
    136e:	6972                	ld	s2,280(sp)
    1370:	36766373          	csrrsi	t1,0x367,12
    1374:	2d34                	fld	fa3,88(a0)
    1376:	6e75                	lui	t3,0x1d
    1378:	776f6e6b          	.insn	4, 0x776f6e6b
    137c:	2d6e                	fld	fs10,216(sp)
    137e:	6c65                	lui	s8,0x19
    1380:	2f66                	fld	ft10,88(sp)
    1382:	2e38                	fld	fa4,88(a2)
    1384:	2e32                	fld	ft8,264(sp)
    1386:	2f30                	fld	fa2,88(a4)
    1388:	6e69                	lui	t3,0x1a
    138a:	64756c63          	bltu	a0,t2,19e2 <__stack_align+0x19d2>
    138e:	0065                	c.nop	25
    1390:	2e2e                	fld	ft8,200(sp)
    1392:	636e692f          	.insn	4, 0x636e692f
    1396:	756c                	ld	a1,232(a0)
    1398:	6564                	ld	s1,200(a0)
    139a:	0000                	unimp
    139c:	736f6c63          	bltu	t5,s6,1ad4 <__stack_align+0x1ac4>
    13a0:	2e65                	addiw	t3,t3,25 # 1a019 <__stack_size+0x12019>
    13a2:	00010063          	beqz	sp,13a2 <__stack_align+0x1392>
    13a6:	5f00                	lw	s0,56(a4)
    13a8:	6564                	ld	s1,200(a0)
    13aa:	6166                	ld	sp,88(sp)
    13ac:	6c75                	lui	s8,0x1d
    13ae:	5f74                	lw	a3,124(a4)
    13b0:	7974                	ld	a3,240(a0)
    13b2:	6570                	ld	a2,200(a0)
    13b4:	00682e73          	csrrs	t3,0x6,a6
    13b8:	0002                	c.slli64	zero
    13ba:	6c00                	ld	s0,24(s0)
    13bc:	2e6b636f          	jal	t1,b76a2 <__heap_size+0x976a2>
    13c0:	0068                	addi	a0,sp,12
    13c2:	5f000003          	lb	zero,1520(zero) # 5f0 <__stack_align+0x5e0>
    13c6:	7974                	ld	a3,240(a0)
    13c8:	6570                	ld	a2,200(a0)
    13ca:	00682e73          	csrrs	t3,0x6,a6
    13ce:	73000003          	lb	zero,1840(zero) # 730 <__stack_align+0x720>
    13d2:	6474                	ld	a3,200(s0)
    13d4:	6564                	ld	s1,200(a0)
    13d6:	2e66                	fld	ft8,88(sp)
    13d8:	0068                	addi	a0,sp,12
    13da:	0004                	.insn	2, 0x0004
    13dc:	7200                	ld	s0,32(a2)
    13de:	6565                	lui	a0,0x19
    13e0:	746e                	ld	s0,248(sp)
    13e2:	682e                	ld	a6,200(sp)
    13e4:	0300                	addi	s0,sp,384
    13e6:	0000                	unimp
    13e8:	7265                	lui	tp,0xffff9
    13ea:	6e72                	ld	t3,280(sp)
    13ec:	00682e6f          	jal	t3,833f2 <__heap_size+0x633f2>
    13f0:	5f000003          	lb	zero,1520(zero) # 5f0 <__stack_align+0x5e0>
    13f4:	69647473          	csrrci	s0,0x696,8
    13f8:	746e                	ld	s0,248(sp)
    13fa:	682e                	ld	a6,200(sp)
    13fc:	0300                	addi	s0,sp,384
    13fe:	0000                	unimp
    1400:	7468                	ld	a0,232(s0)
    1402:	6669                	lui	a2,0x1a
    1404:	682e                	ld	a6,200(sp)
    1406:	0500                	addi	s0,sp,640
    1408:	0000                	unimp
    140a:	0500                	addi	s0,sp,640
    140c:	0001                	nop
    140e:	0209                	addi	tp,tp,2 # ffffffffffff9002 <__heap_end+0xffffffff7ffd6002>
    1410:	16ec                	addi	a1,sp,876
    1412:	8000                	.insn	2, 0x8000
    1414:	0000                	unimp
    1416:	0000                	unimp
    1418:	0516                	slli	a0,a0,0x5
    141a:	0305                	addi	t1,t1,1 # ffffffffffffa001 <__heap_end+0xffffffff7ffd7001>
    141c:	0901                	addi	s2,s2,0
    141e:	0000                	unimp
    1420:	0501                	addi	a0,a0,0 # 19000 <__stack_size+0x11000>
    1422:	0601                	addi	a2,a2,0 # 1a000 <__stack_size+0x12000>
    1424:	00097f03          	.insn	4, 0x00097f03
    1428:	0100                	addi	s0,sp,128
    142a:	0505                	addi	a0,a0,1
    142c:	04090103          	lb	sp,64(s2)
    1430:	0100                	addi	s0,sp,128
    1432:	0105                	addi	sp,sp,1
    1434:	04090203          	lb	tp,64(s2)
    1438:	0100                	addi	s0,sp,128
    143a:	0b05                	addi	s6,s6,1
    143c:	02097e03          	.insn	4, 0x02097e03
    1440:	0100                	addi	s0,sp,128
    1442:	0505                	addi	a0,a0,1
    1444:	0306                	slli	t1,t1,0x1
    1446:	0901                	addi	s2,s2,0
    1448:	0004                	.insn	2, 0x0004
    144a:	0501                	addi	a0,a0,0
    144c:	0601                	addi	a2,a2,0
    144e:	00090103          	lb	sp,0(s2)
    1452:	0100                	addi	s0,sp,128
    1454:	0609                	addi	a2,a2,2
    1456:	0000                	unimp
    1458:	0101                	addi	sp,sp,0
    145a:	0182                	c.slli64	gp
    145c:	0000                	unimp
    145e:	0002                	c.slli64	zero
    1460:	012d                	addi	sp,sp,11
    1462:	0000                	unimp
    1464:	0101                	addi	sp,sp,0
    1466:	000d0efb          	.insn	4, 0x000d0efb
    146a:	0101                	addi	sp,sp,0
    146c:	0101                	addi	sp,sp,0
    146e:	0000                	unimp
    1470:	0100                	addi	s0,sp,128
    1472:	0000                	unimp
    1474:	2e01                	sext.w	t3,t3
    1476:	2f2e                	fld	ft10,200(sp)
    1478:	00737973          	csrrci	s2,0x7,6
    147c:	74706f2f          	.insn	4, 0x74706f2f
    1480:	7369722f          	.insn	4, 0x7369722f
    1484:	722f7663          	bgeu	t5,sp,1bb0 <__stack_align+0x1ba0>
    1488:	7369                	lui	t1,0xffffa
    148a:	34367663          	bgeu	a2,gp,17d6 <__stack_align+0x17c6>
    148e:	752d                	lui	a0,0xfffeb
    1490:	6b6e                	ld	s6,216(sp)
    1492:	6f6e                	ld	t5,216(sp)
    1494:	652d6e77          	.insn	4, 0x652d6e77
    1498:	666c                	ld	a1,200(a2)
    149a:	636e692f          	.insn	4, 0x636e692f
    149e:	756c                	ld	a1,232(a0)
    14a0:	6564                	ld	s1,200(a0)
    14a2:	63616d2f          	.insn	4, 0x63616d2f
    14a6:	6968                	ld	a0,208(a0)
    14a8:	656e                	ld	a0,216(sp)
    14aa:	2f00                	fld	fs0,24(a4)
    14ac:	2f74706f          	j	48fa2 <__heap_size+0x28fa2>
    14b0:	6972                	ld	s2,280(sp)
    14b2:	2f766373          	csrrsi	t1,0x2f7,12
    14b6:	6972                	ld	s2,280(sp)
    14b8:	36766373          	csrrsi	t1,0x367,12
    14bc:	2d34                	fld	fa3,88(a0)
    14be:	6e75                	lui	t3,0x1d
    14c0:	776f6e6b          	.insn	4, 0x776f6e6b
    14c4:	2d6e                	fld	fs10,216(sp)
    14c6:	6c65                	lui	s8,0x19
    14c8:	2f66                	fld	ft10,88(sp)
    14ca:	6e69                	lui	t3,0x1a
    14cc:	64756c63          	bltu	a0,t2,1b24 <__stack_align+0x1b14>
    14d0:	2f65                	addiw	t5,t5,25
    14d2:	00737973          	csrrci	s2,0x7,6
    14d6:	74706f2f          	.insn	4, 0x74706f2f
    14da:	7369722f          	.insn	4, 0x7369722f
    14de:	6c2f7663          	bgeu	t5,sp,1baa <__stack_align+0x1b9a>
    14e2:	6269                	lui	tp,0x1a
    14e4:	6363672f          	.insn	4, 0x6363672f
    14e8:	7369722f          	.insn	4, 0x7369722f
    14ec:	34367663          	bgeu	a2,gp,1838 <__stack_align+0x1828>
    14f0:	752d                	lui	a0,0xfffeb
    14f2:	6b6e                	ld	s6,216(sp)
    14f4:	6f6e                	ld	t5,216(sp)
    14f6:	652d6e77          	.insn	4, 0x652d6e77
    14fa:	666c                	ld	a1,200(a2)
    14fc:	322e382f          	.insn	4, 0x322e382f
    1500:	302e                	fld	ft0,232(sp)
    1502:	636e692f          	.insn	4, 0x636e692f
    1506:	756c                	ld	a1,232(a0)
    1508:	6564                	ld	s1,200(a0)
    150a:	2e00                	fld	fs0,24(a2)
    150c:	2f2e                	fld	ft10,200(sp)
    150e:	6e69                	lui	t3,0x1a
    1510:	64756c63          	bltu	a0,t2,1b68 <__stack_align+0x1b58>
    1514:	0065                	c.nop	25
    1516:	6c00                	ld	s0,24(s0)
    1518:	6b656573          	csrrsi	a0,0x6b6,10
    151c:	632e                	ld	t1,200(sp)
    151e:	0100                	addi	s0,sp,128
    1520:	0000                	unimp
    1522:	645f 6665 7561      	.insn	6, 0x75616665645f
    1528:	746c                	ld	a1,232(s0)
    152a:	745f 7079 7365      	.insn	6, 0x73657079745f
    1530:	682e                	ld	a6,200(sp)
    1532:	0200                	addi	s0,sp,256
    1534:	0000                	unimp
    1536:	6f6c                	ld	a1,216(a4)
    1538:	682e6b63          	bltu	t3,sp,1bce <__stack_align+0x1bbe>
    153c:	0300                	addi	s0,sp,384
    153e:	0000                	unimp
    1540:	745f 7079 7365      	.insn	6, 0x73657079745f
    1546:	682e                	ld	a6,200(sp)
    1548:	0300                	addi	s0,sp,384
    154a:	0000                	unimp
    154c:	64647473          	csrrci	s0,hviprio1,8
    1550:	6665                	lui	a2,0x19
    1552:	682e                	ld	a6,200(sp)
    1554:	0400                	addi	s0,sp,512
    1556:	0000                	unimp
    1558:	6572                	ld	a0,280(sp)
    155a:	6e65                	lui	t3,0x19
    155c:	2e74                	fld	fa3,216(a2)
    155e:	0068                	addi	a0,sp,12
    1560:	65000003          	lb	zero,1616(zero) # 650 <__stack_align+0x640>
    1564:	7272                	ld	tp,312(sp)
    1566:	6f6e                	ld	t5,216(sp)
    1568:	682e                	ld	a6,200(sp)
    156a:	0300                	addi	s0,sp,384
    156c:	0000                	unimp
    156e:	735f 6474 6e69      	.insn	6, 0x6e696474735f
    1574:	2e74                	fld	fa3,216(a2)
    1576:	0068                	addi	a0,sp,12
    1578:	74000003          	lb	zero,1856(zero) # 740 <__stack_align+0x730>
    157c:	7079                	c.lui	zero,0xffffe
    157e:	7365                	lui	t1,0xffff9
    1580:	682e                	ld	a6,200(sp)
    1582:	0300                	addi	s0,sp,384
    1584:	0000                	unimp
    1586:	7468                	ld	a0,232(s0)
    1588:	6669                	lui	a2,0x1a
    158a:	682e                	ld	a6,200(sp)
    158c:	0500                	addi	s0,sp,640
    158e:	0000                	unimp
    1590:	0500                	addi	s0,sp,640
    1592:	0001                	nop
    1594:	0209                	addi	tp,tp,2 # 1a002 <__stack_size+0x12002>
    1596:	1700                	addi	s0,sp,928
    1598:	8000                	.insn	2, 0x8000
    159a:	0000                	unimp
    159c:	0000                	unimp
    159e:	03050517          	auipc	a0,0x3050
    15a2:	0901                	addi	s2,s2,0
    15a4:	0000                	unimp
    15a6:	0501                	addi	a0,a0,0 # 305159e <__heap_size+0x303159e>
    15a8:	0601                	addi	a2,a2,0 # 1a000 <__stack_size+0x12000>
    15aa:	00097f03          	.insn	4, 0x00097f03
    15ae:	0100                	addi	s0,sp,128
    15b0:	0505                	addi	a0,a0,1
    15b2:	04090103          	lb	sp,64(s2)
    15b6:	0100                	addi	s0,sp,128
    15b8:	0105                	addi	sp,sp,1
    15ba:	04090203          	lb	tp,64(s2)
    15be:	0100                	addi	s0,sp,128
    15c0:	0b05                	addi	s6,s6,1
    15c2:	02097e03          	.insn	4, 0x02097e03
    15c6:	0100                	addi	s0,sp,128
    15c8:	0505                	addi	a0,a0,1
    15ca:	0306                	slli	t1,t1,0x1
    15cc:	0901                	addi	s2,s2,0
    15ce:	0004                	.insn	2, 0x0004
    15d0:	0501                	addi	a0,a0,0
    15d2:	0601                	addi	a2,a2,0
    15d4:	00090103          	lb	sp,0(s2)
    15d8:	0100                	addi	s0,sp,128
    15da:	0609                	addi	a2,a2,2
    15dc:	0000                	unimp
    15de:	0101                	addi	sp,sp,0
    15e0:	0181                	addi	gp,gp,0 # 80002d78 <__global_pointer$>
    15e2:	0000                	unimp
    15e4:	0002                	c.slli64	zero
    15e6:	012c                	addi	a1,sp,136
    15e8:	0000                	unimp
    15ea:	0101                	addi	sp,sp,0
    15ec:	000d0efb          	.insn	4, 0x000d0efb
    15f0:	0101                	addi	sp,sp,0
    15f2:	0101                	addi	sp,sp,0
    15f4:	0000                	unimp
    15f6:	0100                	addi	s0,sp,128
    15f8:	0000                	unimp
    15fa:	2e01                	sext.w	t3,t3
    15fc:	2f2e                	fld	ft10,200(sp)
    15fe:	00737973          	csrrci	s2,0x7,6
    1602:	74706f2f          	.insn	4, 0x74706f2f
    1606:	7369722f          	.insn	4, 0x7369722f
    160a:	6c2f7663          	bgeu	t5,sp,1cd6 <__stack_align+0x1cc6>
    160e:	6269                	lui	tp,0x1a
    1610:	6363672f          	.insn	4, 0x6363672f
    1614:	7369722f          	.insn	4, 0x7369722f
    1618:	34367663          	bgeu	a2,gp,1964 <__stack_align+0x1954>
    161c:	752d                	lui	a0,0xfffeb
    161e:	6b6e                	ld	s6,216(sp)
    1620:	6f6e                	ld	t5,216(sp)
    1622:	652d6e77          	.insn	4, 0x652d6e77
    1626:	666c                	ld	a1,200(a2)
    1628:	322e382f          	.insn	4, 0x322e382f
    162c:	302e                	fld	ft0,232(sp)
    162e:	636e692f          	.insn	4, 0x636e692f
    1632:	756c                	ld	a1,232(a0)
    1634:	6564                	ld	s1,200(a0)
    1636:	2f00                	fld	fs0,24(a4)
    1638:	2f74706f          	j	4912e <__heap_size+0x2912e>
    163c:	6972                	ld	s2,280(sp)
    163e:	2f766373          	csrrsi	t1,0x2f7,12
    1642:	6972                	ld	s2,280(sp)
    1644:	36766373          	csrrsi	t1,0x367,12
    1648:	2d34                	fld	fa3,88(a0)
    164a:	6e75                	lui	t3,0x1d
    164c:	776f6e6b          	.insn	4, 0x776f6e6b
    1650:	2d6e                	fld	fs10,216(sp)
    1652:	6c65                	lui	s8,0x19
    1654:	2f66                	fld	ft10,88(sp)
    1656:	6e69                	lui	t3,0x1a
    1658:	64756c63          	bltu	a0,t2,1cb0 <__stack_align+0x1ca0>
    165c:	2f65                	addiw	t5,t5,25
    165e:	616d                	addi	sp,sp,240
    1660:	6e696863          	bltu	s2,t1,1d50 <__stack_align+0x1d40>
    1664:	0065                	c.nop	25
    1666:	74706f2f          	.insn	4, 0x74706f2f
    166a:	7369722f          	.insn	4, 0x7369722f
    166e:	722f7663          	bgeu	t5,sp,1d9a <__stack_align+0x1d8a>
    1672:	7369                	lui	t1,0xffffa
    1674:	34367663          	bgeu	a2,gp,19c0 <__stack_align+0x19b0>
    1678:	752d                	lui	a0,0xfffeb
    167a:	6b6e                	ld	s6,216(sp)
    167c:	6f6e                	ld	t5,216(sp)
    167e:	652d6e77          	.insn	4, 0x652d6e77
    1682:	666c                	ld	a1,200(a2)
    1684:	636e692f          	.insn	4, 0x636e692f
    1688:	756c                	ld	a1,232(a0)
    168a:	6564                	ld	s1,200(a0)
    168c:	7379732f          	.insn	4, 0x7379732f
    1690:	2e00                	fld	fs0,24(a2)
    1692:	2f2e                	fld	ft10,200(sp)
    1694:	6e69                	lui	t3,0x1a
    1696:	64756c63          	bltu	a0,t2,1cee <__stack_align+0x1cde>
    169a:	0065                	c.nop	25
    169c:	7200                	ld	s0,32(a2)
    169e:	6165                	addi	sp,sp,112
    16a0:	2e64                	fld	fs1,216(a2)
    16a2:	00010063          	beqz	sp,16a2 <__stack_align+0x1692>
    16a6:	7300                	ld	s0,32(a4)
    16a8:	6474                	ld	a3,200(s0)
    16aa:	6564                	ld	s1,200(a0)
    16ac:	2e66                	fld	ft8,88(sp)
    16ae:	0068                	addi	a0,sp,12
    16b0:	0002                	c.slli64	zero
    16b2:	5f00                	lw	s0,56(a4)
    16b4:	6564                	ld	s1,200(a0)
    16b6:	6166                	ld	sp,88(sp)
    16b8:	6c75                	lui	s8,0x1d
    16ba:	5f74                	lw	a3,124(a4)
    16bc:	7974                	ld	a3,240(a0)
    16be:	6570                	ld	a2,200(a0)
    16c0:	00682e73          	csrrs	t3,0x6,a6
    16c4:	6c000003          	lb	zero,1728(zero) # 6c0 <__stack_align+0x6b0>
    16c8:	2e6b636f          	jal	t1,b79ae <__heap_size+0x979ae>
    16cc:	0068                	addi	a0,sp,12
    16ce:	0004                	.insn	2, 0x0004
    16d0:	5f00                	lw	s0,56(a4)
    16d2:	7974                	ld	a3,240(a0)
    16d4:	6570                	ld	a2,200(a0)
    16d6:	00682e73          	csrrs	t3,0x6,a6
    16da:	0004                	.insn	2, 0x0004
    16dc:	7200                	ld	s0,32(a2)
    16de:	6565                	lui	a0,0x19
    16e0:	746e                	ld	s0,248(sp)
    16e2:	682e                	ld	a6,200(sp)
    16e4:	0400                	addi	s0,sp,512
    16e6:	0000                	unimp
    16e8:	7265                	lui	tp,0xffff9
    16ea:	6e72                	ld	t3,280(sp)
    16ec:	00682e6f          	jal	t3,836f2 <__heap_size+0x636f2>
    16f0:	0004                	.insn	2, 0x0004
    16f2:	5f00                	lw	s0,56(a4)
    16f4:	69647473          	csrrci	s0,0x696,8
    16f8:	746e                	ld	s0,248(sp)
    16fa:	682e                	ld	a6,200(sp)
    16fc:	0400                	addi	s0,sp,512
    16fe:	0000                	unimp
    1700:	7974                	ld	a3,240(a0)
    1702:	6570                	ld	a2,200(a0)
    1704:	00682e73          	csrrs	t3,0x6,a6
    1708:	0004                	.insn	2, 0x0004
    170a:	6800                	ld	s0,16(s0)
    170c:	6974                	ld	a3,208(a0)
    170e:	2e66                	fld	ft8,88(sp)
    1710:	0068                	addi	a0,sp,12
    1712:	0005                	c.nop	1
    1714:	0000                	unimp
    1716:	0105                	addi	sp,sp,1
    1718:	0900                	addi	s0,sp,144
    171a:	1402                	slli	s0,s0,0x20
    171c:	00800017          	auipc	zero,0x800
    1720:	0000                	unimp
    1722:	1700                	addi	s0,sp,928
    1724:	0505                	addi	a0,a0,1 # 19001 <__stack_size+0x11001>
    1726:	00090103          	lb	sp,0(s2)
    172a:	0100                	addi	s0,sp,128
    172c:	0105                	addi	sp,sp,1
    172e:	0306                	slli	t1,t1,0x1
    1730:	097f 0000 0501 0305 	.insn	10, 0x0901030505010000097f
    1738:	0901 
    173a:	0004                	.insn	2, 0x0004
    173c:	0501                	addi	a0,a0,0
    173e:	0301                	addi	t1,t1,0 # ffffffffffffa000 <__heap_end+0xffffffff7ffd7000>
    1740:	0902                	c.slli64	s2
    1742:	0004                	.insn	2, 0x0004
    1744:	0501                	addi	a0,a0,0
    1746:	097e030b          	.insn	4, 0x097e030b
    174a:	0002                	c.slli64	zero
    174c:	0501                	addi	a0,a0,0
    174e:	0605                	addi	a2,a2,1
    1750:	06090103          	lb	sp,96(s2)
    1754:	0100                	addi	s0,sp,128
    1756:	0105                	addi	sp,sp,1
    1758:	0306                	slli	t1,t1,0x1
    175a:	0901                	addi	s2,s2,0
    175c:	0000                	unimp
    175e:	0901                	addi	s2,s2,0
    1760:	0006                	c.slli	zero,0x1
    1762:	0100                	addi	s0,sp,128
    1764:	fe01                	bnez	a2,167c <__stack_align+0x166c>
    1766:	0001                	nop
    1768:	0200                	addi	s0,sp,256
    176a:	2100                	fld	fs0,0(a0)
    176c:	0001                	nop
    176e:	0100                	addi	s0,sp,128
    1770:	fb01                	bnez	a4,1680 <__stack_align+0x1670>
    1772:	0d0e                	slli	s10,s10,0x3
    1774:	0100                	addi	s0,sp,128
    1776:	0101                	addi	sp,sp,0
    1778:	0001                	nop
    177a:	0000                	unimp
    177c:	0001                	nop
    177e:	0100                	addi	s0,sp,128
    1780:	2e2e                	fld	ft8,200(sp)
    1782:	7379732f          	.insn	4, 0x7379732f
    1786:	2f00                	fld	fs0,24(a4)
    1788:	2f74706f          	j	4927e <__heap_size+0x2927e>
    178c:	6972                	ld	s2,280(sp)
    178e:	2f766373          	csrrsi	t1,0x2f7,12
    1792:	696c                	ld	a1,208(a0)
    1794:	2f62                	fld	ft10,24(sp)
    1796:	2f636367          	.insn	4, 0x2f636367
    179a:	6972                	ld	s2,280(sp)
    179c:	36766373          	csrrsi	t1,0x367,12
    17a0:	2d34                	fld	fa3,88(a0)
    17a2:	6e75                	lui	t3,0x1d
    17a4:	776f6e6b          	.insn	4, 0x776f6e6b
    17a8:	2d6e                	fld	fs10,216(sp)
    17aa:	6c65                	lui	s8,0x19
    17ac:	2f66                	fld	ft10,88(sp)
    17ae:	2e38                	fld	fa4,88(a2)
    17b0:	2e32                	fld	ft8,264(sp)
    17b2:	2f30                	fld	fa2,88(a4)
    17b4:	6e69                	lui	t3,0x1a
    17b6:	64756c63          	bltu	a0,t2,1e0e <__stack_align+0x1dfe>
    17ba:	0065                	c.nop	25
    17bc:	74706f2f          	.insn	4, 0x74706f2f
    17c0:	7369722f          	.insn	4, 0x7369722f
    17c4:	722f7663          	bgeu	t5,sp,1ef0 <__stack_align+0x1ee0>
    17c8:	7369                	lui	t1,0xffffa
    17ca:	34367663          	bgeu	a2,gp,1b16 <__stack_align+0x1b06>
    17ce:	752d                	lui	a0,0xfffeb
    17d0:	6b6e                	ld	s6,216(sp)
    17d2:	6f6e                	ld	t5,216(sp)
    17d4:	652d6e77          	.insn	4, 0x652d6e77
    17d8:	666c                	ld	a1,200(a2)
    17da:	636e692f          	.insn	4, 0x636e692f
    17de:	756c                	ld	a1,232(a0)
    17e0:	6564                	ld	s1,200(a0)
    17e2:	63616d2f          	.insn	4, 0x63616d2f
    17e6:	6968                	ld	a0,208(a0)
    17e8:	656e                	ld	a0,216(sp)
    17ea:	2f00                	fld	fs0,24(a4)
    17ec:	2f74706f          	j	492e2 <__heap_size+0x292e2>
    17f0:	6972                	ld	s2,280(sp)
    17f2:	2f766373          	csrrsi	t1,0x2f7,12
    17f6:	6972                	ld	s2,280(sp)
    17f8:	36766373          	csrrsi	t1,0x367,12
    17fc:	2d34                	fld	fa3,88(a0)
    17fe:	6e75                	lui	t3,0x1d
    1800:	776f6e6b          	.insn	4, 0x776f6e6b
    1804:	2d6e                	fld	fs10,216(sp)
    1806:	6c65                	lui	s8,0x19
    1808:	2f66                	fld	ft10,88(sp)
    180a:	6e69                	lui	t3,0x1a
    180c:	64756c63          	bltu	a0,t2,1e64 <__stack_align+0x1e54>
    1810:	2f65                	addiw	t5,t5,25
    1812:	00737973          	csrrci	s2,0x7,6
    1816:	2e2e                	fld	ft8,200(sp)
    1818:	636e692f          	.insn	4, 0x636e692f
    181c:	756c                	ld	a1,232(a0)
    181e:	6564                	ld	s1,200(a0)
    1820:	0000                	unimp
    1822:	6b726273          	csrrsi	tp,0x6b7,4
    1826:	632e                	ld	t1,200(sp)
    1828:	0100                	addi	s0,sp,128
    182a:	0000                	unimp
    182c:	64647473          	csrrci	s0,hviprio1,8
    1830:	6665                	lui	a2,0x19
    1832:	682e                	ld	a6,200(sp)
    1834:	0200                	addi	s0,sp,256
    1836:	0000                	unimp
    1838:	645f 6665 7561      	.insn	6, 0x75616665645f
    183e:	746c                	ld	a1,232(s0)
    1840:	745f 7079 7365      	.insn	6, 0x73657079745f
    1846:	682e                	ld	a6,200(sp)
    1848:	0300                	addi	s0,sp,384
    184a:	0000                	unimp
    184c:	6f6c                	ld	a1,216(a4)
    184e:	682e6b63          	bltu	t3,sp,1ee4 <__stack_align+0x1ed4>
    1852:	0400                	addi	s0,sp,512
    1854:	0000                	unimp
    1856:	745f 7079 7365      	.insn	6, 0x73657079745f
    185c:	682e                	ld	a6,200(sp)
    185e:	0400                	addi	s0,sp,512
    1860:	0000                	unimp
    1862:	6572                	ld	a0,280(sp)
    1864:	6e65                	lui	t3,0x19
    1866:	2e74                	fld	fa3,216(a2)
    1868:	0068                	addi	a0,sp,12
    186a:	0004                	.insn	2, 0x0004
    186c:	6500                	ld	s0,8(a0)
    186e:	7272                	ld	tp,312(sp)
    1870:	6f6e                	ld	t5,216(sp)
    1872:	682e                	ld	a6,200(sp)
    1874:	0400                	addi	s0,sp,512
    1876:	0000                	unimp
    1878:	735f 6474 6e69      	.insn	6, 0x6e696474735f
    187e:	2e74                	fld	fa3,216(a2)
    1880:	0068                	addi	a0,sp,12
    1882:	0004                	.insn	2, 0x0004
    1884:	6800                	ld	s0,16(s0)
    1886:	6974                	ld	a3,208(a0)
    1888:	2e66                	fld	ft8,88(sp)
    188a:	0068                	addi	a0,sp,12
    188c:	0005                	c.nop	1
    188e:	0000                	unimp
    1890:	0105                	addi	sp,sp,1
    1892:	0900                	addi	s0,sp,144
    1894:	2a02                	fld	fs4,0(sp)
    1896:	00800017          	auipc	zero,0x800
    189a:	0000                	unimp
    189c:	0300                	addi	s0,sp,384
    189e:	0109                	addi	sp,sp,2
    18a0:	0505                	addi	a0,a0,1 # fffffffffffeb001 <__heap_end+0xffffffff7ffc8001>
    18a2:	00090103          	lb	sp,0(s2)
    18a6:	0100                	addi	s0,sp,128
    18a8:	00090103          	lb	sp,0(s2)
    18ac:	0100                	addi	s0,sp,128
    18ae:	00090103          	lb	sp,0(s2)
    18b2:	0100                	addi	s0,sp,128
    18b4:	00090203          	lb	tp,0(s2)
    18b8:	0100                	addi	s0,sp,128
    18ba:	0c05                	addi	s8,s8,1 # 19001 <__stack_size+0x11001>
    18bc:	0306                	slli	t1,t1,0x1
    18be:	0900                	addi	s0,sp,144
    18c0:	0000                	unimp
    18c2:	0501                	addi	a0,a0,0
    18c4:	0605                	addi	a2,a2,1 # 19001 <__stack_size+0x11001>
    18c6:	06090103          	lb	sp,96(s2)
    18ca:	0100                	addi	s0,sp,128
    18cc:	0805                	addi	a6,a6,1
    18ce:	0306                	slli	t1,t1,0x1
    18d0:	0901                	addi	s2,s2,0
    18d2:	0000                	unimp
    18d4:	0501                	addi	a0,a0,0
    18d6:	030c                	addi	a1,sp,384
    18d8:	097f 0004 0501 0605 	.insn	10, 0x0103060505010004097f
    18e0:	0103 
    18e2:	0209                	addi	tp,tp,2 # ffffffffffff9002 <__heap_end+0xffffffff7ffd6002>
    18e4:	0100                	addi	s0,sp,128
    18e6:	0805                	addi	a6,a6,1
    18e8:	0306                	slli	t1,t1,0x1
    18ea:	0900                	addi	s0,sp,144
    18ec:	0000                	unimp
    18ee:	0001                	nop
    18f0:	0402                	c.slli64	s0
    18f2:	0301                	addi	t1,t1,0 # ffffffffffffa000 <__heap_end+0xffffffff7ffd7000>
    18f4:	0900                	addi	s0,sp,144
    18f6:	0004                	.insn	2, 0x0004
    18f8:	0501                	addi	a0,a0,0
    18fa:	0605                	addi	a2,a2,1
    18fc:	0c090503          	lb	a0,192(s2)
    1900:	0100                	addi	s0,sp,128
    1902:	0c05                	addi	s8,s8,1
    1904:	0306                	slli	t1,t1,0x1
    1906:	0900                	addi	s0,sp,144
    1908:	0000                	unimp
    190a:	0501                	addi	a0,a0,0
    190c:	0605                	addi	a2,a2,1
    190e:	04090103          	lb	sp,64(s2)
    1912:	0100                	addi	s0,sp,128
    1914:	0105                	addi	sp,sp,1
    1916:	0306                	slli	t1,t1,0x1
    1918:	0901                	addi	s2,s2,0
    191a:	0000                	unimp
    191c:	0501                	addi	a0,a0,0
    191e:	0609                	addi	a2,a2,2
    1920:	04097a03          	.insn	4, 0x04097a03
    1924:	0100                	addi	s0,sp,128
    1926:	0105                	addi	sp,sp,1
    1928:	0306                	slli	t1,t1,0x1
    192a:	0978                	addi	a4,sp,156
    192c:	0000                	unimp
    192e:	0501                	addi	a0,a0,0
    1930:	0309                	addi	t1,t1,2
    1932:	0908                	addi	a0,sp,144
    1934:	0004                	.insn	2, 0x0004
    1936:	0501                	addi	a0,a0,0
    1938:	0301                	addi	t1,t1,0
    193a:	0906                	slli	s2,s2,0x1
    193c:	0004                	.insn	2, 0x0004
    193e:	0501                	addi	a0,a0,0
    1940:	097a030f          	.insn	4, 0x097a030f
    1944:	0002                	c.slli64	zero
    1946:	0501                	addi	a0,a0,0
    1948:	0609                	addi	a2,a2,2
    194a:	04090103          	lb	sp,64(s2)
    194e:	0100                	addi	s0,sp,128
    1950:	1005                	c.nop	-31
    1952:	0306                	slli	t1,t1,0x1
    1954:	0900                	addi	s0,sp,144
    1956:	0000                	unimp
    1958:	0501                	addi	a0,a0,0
    195a:	0301                	addi	t1,t1,0
    195c:	0905                	addi	s2,s2,1
    195e:	0002                	c.slli64	zero
    1960:	0901                	addi	s2,s2,0
    1962:	0006                	c.slli	zero,0x1
    1964:	0100                	addi	s0,sp,128
    1966:	6401                	.insn	2, 0x6401
    1968:	0001                	nop
    196a:	0200                	addi	s0,sp,256
    196c:	3900                	fld	fs0,48(a0)
    196e:	0001                	nop
    1970:	0100                	addi	s0,sp,128
    1972:	fb01                	bnez	a4,1882 <__stack_align+0x1872>
    1974:	0d0e                	slli	s10,s10,0x3
    1976:	0100                	addi	s0,sp,128
    1978:	0101                	addi	sp,sp,0
    197a:	0001                	nop
    197c:	0000                	unimp
    197e:	0001                	nop
    1980:	0100                	addi	s0,sp,128
    1982:	2e2e                	fld	ft8,200(sp)
    1984:	7379732f          	.insn	4, 0x7379732f
    1988:	2f00                	fld	fs0,24(a4)
    198a:	2f74706f          	j	49480 <__heap_size+0x29480>
    198e:	6972                	ld	s2,280(sp)
    1990:	2f766373          	csrrsi	t1,0x2f7,12
    1994:	696c                	ld	a1,208(a0)
    1996:	2f62                	fld	ft10,24(sp)
    1998:	2f636367          	.insn	4, 0x2f636367
    199c:	6972                	ld	s2,280(sp)
    199e:	36766373          	csrrsi	t1,0x367,12
    19a2:	2d34                	fld	fa3,88(a0)
    19a4:	6e75                	lui	t3,0x1d
    19a6:	776f6e6b          	.insn	4, 0x776f6e6b
    19aa:	2d6e                	fld	fs10,216(sp)
    19ac:	6c65                	lui	s8,0x19
    19ae:	2f66                	fld	ft10,88(sp)
    19b0:	2e38                	fld	fa4,88(a2)
    19b2:	2e32                	fld	ft8,264(sp)
    19b4:	2f30                	fld	fa2,88(a4)
    19b6:	6e69                	lui	t3,0x1a
    19b8:	64756c63          	bltu	a0,t2,2010 <__stack_align+0x2000>
    19bc:	0065                	c.nop	25
    19be:	74706f2f          	.insn	4, 0x74706f2f
    19c2:	7369722f          	.insn	4, 0x7369722f
    19c6:	722f7663          	bgeu	t5,sp,20f2 <__stack_align+0x20e2>
    19ca:	7369                	lui	t1,0xffffa
    19cc:	34367663          	bgeu	a2,gp,1d18 <__stack_align+0x1d08>
    19d0:	752d                	lui	a0,0xfffeb
    19d2:	6b6e                	ld	s6,216(sp)
    19d4:	6f6e                	ld	t5,216(sp)
    19d6:	652d6e77          	.insn	4, 0x652d6e77
    19da:	666c                	ld	a1,200(a2)
    19dc:	636e692f          	.insn	4, 0x636e692f
    19e0:	756c                	ld	a1,232(a0)
    19e2:	6564                	ld	s1,200(a0)
    19e4:	63616d2f          	.insn	4, 0x63616d2f
    19e8:	6968                	ld	a0,208(a0)
    19ea:	656e                	ld	a0,216(sp)
    19ec:	2f00                	fld	fs0,24(a4)
    19ee:	2f74706f          	j	494e4 <__heap_size+0x294e4>
    19f2:	6972                	ld	s2,280(sp)
    19f4:	2f766373          	csrrsi	t1,0x2f7,12
    19f8:	6972                	ld	s2,280(sp)
    19fa:	36766373          	csrrsi	t1,0x367,12
    19fe:	2d34                	fld	fa3,88(a0)
    1a00:	6e75                	lui	t3,0x1d
    1a02:	776f6e6b          	.insn	4, 0x776f6e6b
    1a06:	2d6e                	fld	fs10,216(sp)
    1a08:	6c65                	lui	s8,0x19
    1a0a:	2f66                	fld	ft10,88(sp)
    1a0c:	6e69                	lui	t3,0x1a
    1a0e:	64756c63          	bltu	a0,t2,2066 <__stack_align+0x2056>
    1a12:	2f65                	addiw	t5,t5,25
    1a14:	00737973          	csrrci	s2,0x7,6
    1a18:	2e2e                	fld	ft8,200(sp)
    1a1a:	636e692f          	.insn	4, 0x636e692f
    1a1e:	756c                	ld	a1,232(a0)
    1a20:	6564                	ld	s1,200(a0)
    1a22:	0000                	unimp
    1a24:	74697277          	.insn	4, 0x74697277
    1a28:	2e65                	addiw	t3,t3,25 # 1a019 <__stack_size+0x12019>
    1a2a:	00010063          	beqz	sp,1a2a <__stack_align+0x1a1a>
    1a2e:	7300                	ld	s0,32(a4)
    1a30:	6474                	ld	a3,200(s0)
    1a32:	6564                	ld	s1,200(a0)
    1a34:	2e66                	fld	ft8,88(sp)
    1a36:	0068                	addi	a0,sp,12
    1a38:	0002                	c.slli64	zero
    1a3a:	5f00                	lw	s0,56(a4)
    1a3c:	6564                	ld	s1,200(a0)
    1a3e:	6166                	ld	sp,88(sp)
    1a40:	6c75                	lui	s8,0x1d
    1a42:	5f74                	lw	a3,124(a4)
    1a44:	7974                	ld	a3,240(a0)
    1a46:	6570                	ld	a2,200(a0)
    1a48:	00682e73          	csrrs	t3,0x6,a6
    1a4c:	6c000003          	lb	zero,1728(zero) # 6c0 <__stack_align+0x6b0>
    1a50:	2e6b636f          	jal	t1,b7d36 <__heap_size+0x97d36>
    1a54:	0068                	addi	a0,sp,12
    1a56:	0004                	.insn	2, 0x0004
    1a58:	5f00                	lw	s0,56(a4)
    1a5a:	7974                	ld	a3,240(a0)
    1a5c:	6570                	ld	a2,200(a0)
    1a5e:	00682e73          	csrrs	t3,0x6,a6
    1a62:	0004                	.insn	2, 0x0004
    1a64:	7200                	ld	s0,32(a2)
    1a66:	6565                	lui	a0,0x19
    1a68:	746e                	ld	s0,248(sp)
    1a6a:	682e                	ld	a6,200(sp)
    1a6c:	0400                	addi	s0,sp,512
    1a6e:	0000                	unimp
    1a70:	7265                	lui	tp,0xffff9
    1a72:	6e72                	ld	t3,280(sp)
    1a74:	00682e6f          	jal	t3,83a7a <__heap_size+0x63a7a>
    1a78:	0004                	.insn	2, 0x0004
    1a7a:	5f00                	lw	s0,56(a4)
    1a7c:	69647473          	csrrci	s0,0x696,8
    1a80:	746e                	ld	s0,248(sp)
    1a82:	682e                	ld	a6,200(sp)
    1a84:	0400                	addi	s0,sp,512
    1a86:	0000                	unimp
    1a88:	7974                	ld	a3,240(a0)
    1a8a:	6570                	ld	a2,200(a0)
    1a8c:	00682e73          	csrrs	t3,0x6,a6
    1a90:	0004                	.insn	2, 0x0004
    1a92:	7500                	ld	s0,40(a0)
    1a94:	696e                	ld	s2,216(sp)
    1a96:	2e647473          	csrrci	s0,0x2e6,8
    1a9a:	0068                	addi	a0,sp,12
    1a9c:	0004                	.insn	2, 0x0004
    1a9e:	6800                	ld	s0,16(s0)
    1aa0:	6974                	ld	a3,208(a0)
    1aa2:	2e66                	fld	ft8,88(sp)
    1aa4:	0068                	addi	a0,sp,12
    1aa6:	0005                	c.nop	1
    1aa8:	0000                	unimp
    1aaa:	0105                	addi	sp,sp,1
    1aac:	0900                	addi	s0,sp,144
    1aae:	6402                	ld	s0,0(sp)
    1ab0:	00800017          	auipc	zero,0x800
    1ab4:	0000                	unimp
    1ab6:	1800                	addi	s0,sp,48
    1ab8:	0505                	addi	a0,a0,1 # 19001 <__stack_size+0x11001>
    1aba:	00090103          	lb	sp,0(s2)
    1abe:	0100                	addi	s0,sp,128
    1ac0:	0c05                	addi	s8,s8,1 # 1d001 <__stack_size+0x15001>
    1ac2:	0306                	slli	t1,t1,0x1
    1ac4:	0900                	addi	s0,sp,144
    1ac6:	0000                	unimp
    1ac8:	0901                	addi	s2,s2,0
    1aca:	0008                	.insn	2, 0x0008
    1acc:	0100                	addi	s0,sp,128
    1ace:	Address 0x1ace is out of bounds.


Disassembly of section .debug_str:

0000000000000000 <.debug_str>:
   0:	7369                	lui	t1,0xffffa
   2:	635f 6168 0072      	.insn	6, 0x00726168635f
   8:	5f5f 7562 6c69      	.insn	6, 0x6c6975625f5f
   e:	6974                	ld	a3,208(a0)
  10:	5f6e                	lw	t5,248(sp)
  12:	6176                	ld	sp,344(sp)
  14:	6c5f 7369 0074      	.insn	6, 0x007473696c5f
  1a:	5f5f 6e69 3374      	.insn	6, 0x33746e695f5f
  20:	5f32                	lw	t5,44(sp)
  22:	0074                	addi	a3,sp,12
  24:	7369                	lui	t1,0xffffa
  26:	6c5f 6e6f 0067      	.insn	6, 0x00676e6f6c5f
  2c:	6972706b          	.insn	4, 0x6972706b
  30:	746e                	ld	s0,248(sp)
  32:	0066                	c.slli	zero,0x19
  34:	5f5f 6e67 6375      	.insn	6, 0x63756e675f5f
  3a:	765f 5f61 696c      	.insn	6, 0x696c5f61765f
  40:	75007473          	csrrci	s0,0x750,0
  44:	736e                	ld	t1,248(sp)
  46:	6769                	lui	a4,0x1a
  48:	656e                	ld	a0,216(sp)
  4a:	2064                	fld	fs1,192(s0)
  4c:	72616863          	bltu	sp,t1,77c <__stack_align+0x76c>
  50:	7300                	ld	s0,32(a4)
  52:	6f68                	ld	a0,216(a4)
  54:	7472                	ld	s0,312(sp)
  56:	7520                	ld	s0,104(a0)
  58:	736e                	ld	t1,248(sp)
  5a:	6769                	lui	a4,0x1a
  5c:	656e                	ld	a0,216(sp)
  5e:	2064                	fld	fs1,192(s0)
  60:	6e69                	lui	t3,0x1a
  62:	0074                	addi	a3,sp,12
  64:	20554e47          	fmsub.s	ft8,fa0,ft5,ft4,rmm
  68:	20313143          	fmadd.s	ft2,ft2,ft3,ft4,rup
  6c:	3331                	addiw	t1,t1,-20 # ffffffffffff9fec <__heap_end+0xffffffff7ffd6fec>
  6e:	322e                	fld	ft4,232(sp)
  70:	302e                	fld	ft0,232(sp)
  72:	2d20                	fld	fs0,88(a0)
  74:	636d                	lui	t1,0x1b
  76:	6f6d                	lui	t5,0x1b
  78:	6564                	ld	s1,200(a0)
  7a:	3d6c                	fld	fa1,248(a0)
  7c:	656d                	lui	a0,0x1b
  7e:	6164                	ld	s1,192(a0)
  80:	796e                	ld	s2,248(sp)
  82:	2d20                	fld	fs0,88(a0)
  84:	616d                	addi	sp,sp,240
  86:	6962                	ld	s2,24(sp)
  88:	6c3d                	lui	s8,0xf
  8a:	3670                	fld	fa2,232(a2)
  8c:	6434                	ld	a3,72(s0)
  8e:	2d20                	fld	fs0,88(a0)
  90:	636d                	lui	t1,0x1b
  92:	6f6d                	lui	t5,0x1b
  94:	6564                	ld	s1,200(a0)
  96:	3d6c                	fld	fa1,248(a0)
  98:	656d                	lui	a0,0x1b
  9a:	6164                	ld	s1,192(a0)
  9c:	796e                	ld	s2,248(sp)
  9e:	2d20                	fld	fs0,88(a0)
  a0:	746d                	lui	s0,0xffffb
  a2:	6e75                	lui	t3,0x1d
  a4:	3d65                	addiw	s10,s10,-7
  a6:	6f72                	ld	t5,280(sp)
  a8:	74656b63          	bltu	a0,t1,7fe <__stack_align+0x7ee>
  ac:	2d20                	fld	fs0,88(a0)
  ae:	696d                	lui	s2,0x1b
  b0:	732d6173          	csrrsi	sp,mhpmevent18h,26
  b4:	6570                	ld	a2,200(a0)
  b6:	30323d63          	.insn	4, 0x30323d63
  ba:	3931                	addiw	s2,s2,-20 # 1afec <__stack_size+0x12fec>
  bc:	3231                	addiw	tp,tp,-20 # ffffffffffff8fec <__heap_end+0xffffffff7ffd5fec>
  be:	3331                	addiw	t1,t1,-20 # 1afec <__stack_size+0x12fec>
  c0:	2d20                	fld	fs0,88(a0)
  c2:	616d                	addi	sp,sp,240
  c4:	6372                	ld	t1,280(sp)
  c6:	3d68                	fld	fa0,248(a0)
  c8:	7672                	ld	a2,312(sp)
  ca:	3436                	fld	fs0,360(sp)
  cc:	6d69                	lui	s10,0x1a
  ce:	6661                	lui	a2,0x18
  d0:	6364                	ld	s1,192(a4)
  d2:	7a5f 6369 7273      	.insn	6, 0x727363697a5f
  d8:	7a5f 6669 6e65      	.insn	6, 0x6e6566697a5f
  de:	20696563          	bltu	s2,t1,2e8 <__stack_align+0x2d8>
  e2:	672d                	lui	a4,0xb
  e4:	2d20                	fld	fs0,88(a0)
  e6:	2d20304f          	.insn	4, 0x2d20304f
  ea:	3d647473          	csrrci	s0,0x3d6,8
  ee:	31756e67          	.insn	4, 0x31756e67
  f2:	2031                	.insn	2, 0x2031
  f4:	662d                	lui	a2,0xb
  f6:	6f6e                	ld	t5,216(sp)
  f8:	632d                	lui	t1,0xb
  fa:	6f6d6d6f          	jal	s10,d67f0 <__heap_size+0xb67f0>
  fe:	006e                	c.slli	zero,0x1b
 100:	5f5f 6975 746e      	.insn	6, 0x746e69755f5f
 106:	745f3233          	.insn	4, 0x745f3233
 10a:	6900                	ld	s0,16(a0)
 10c:	6f665f73          	csrrwi	t5,0x6f6,12
 110:	6d72                	ld	s10,280(sp)
 112:	7461                	lui	s0,0xffff8
 114:	7300                	ld	s0,32(a4)
 116:	6f68                	ld	a0,216(a4)
 118:	7472                	ld	s0,312(sp)
 11a:	6920                	ld	s0,80(a0)
 11c:	746e                	ld	s0,248(sp)
 11e:	6200                	ld	s0,0(a2)
 120:	6675                	lui	a2,0x1d
 122:	6566                	ld	a0,88(sp)
 124:	0072                	c.slli	zero,0x1c
 126:	6b5f 7570 7374      	.insn	6, 0x737475706b5f
 12c:	7500                	ld	s0,40(a0)
 12e:	7261                	lui	tp,0xffff8
 130:	0074                	addi	a3,sp,12
 132:	7475706b          	.insn	4, 0x7475706b
 136:	425f0063          	beq	t5,t0,556 <__stack_align+0x546>
 13a:	006c6f6f          	jal	t5,c6140 <__heap_size+0xa6140>
 13e:	6576                	ld	a0,344(sp)
 140:	6972                	ld	s2,280(sp)
 142:	7966                	ld	s2,120(sp)
 144:	5f00                	lw	s0,56(a4)
 146:	745f 706d 7600      	.insn	6, 0x7600706d745f
 14c:	7265                	lui	tp,0xffff9
 14e:	6669                	lui	a2,0x1a
 150:	5f79                	li	t5,-2
 152:	6164                	ld	s1,192(a0)
 154:	6174                	ld	a3,192(a0)
 156:	6300                	ld	s0,0(a4)
 158:	6965726f          	jal	tp,577ee <__heap_size+0x377ee>
 15c:	0064                	addi	s1,sp,12
 15e:	5f5f 616d 6e69      	.insn	6, 0x6e69616d5f5f
 164:	6d00                	ld	s0,24(a0)
 166:	6168                	ld	a0,192(a0)
 168:	7472                	ld	s0,312(sp)
 16a:	6469                	lui	s0,0x1a
 16c:	6200                	ld	s0,0(a2)
 16e:	7261                	lui	tp,0xffff8
 170:	6972                	ld	s2,280(sp)
 172:	7265                	lui	tp,0xffff9
 174:	6d00                	ld	s0,24(a0)
 176:	7461                	lui	s0,0xffff8
 178:	756d                	lui	a0,0xffffb
 17a:	006c                	addi	a1,sp,12
 17c:	6574                	ld	a3,200(a0)
 17e:	6e007473          	csrrci	s0,0x6e0,0
 182:	635f 726f 7365      	.insn	6, 0x7365726f635f
 188:	6e00                	ld	s0,24(a2)
 18a:	65726f63          	bltu	tp,s7,7e8 <__stack_align+0x7d8>
 18e:	6c620073          	.insn	4, 0x6c620073
 192:	006b636f          	jal	t1,b6198 <__heap_size+0x96198>
 196:	6874                	ld	a3,208(s0)
 198:	6572                	ld	a0,280(sp)
 19a:	6461                	lui	s0,0x18
 19c:	736e6573          	csrrsi	a0,mhpmevent22h,28
 1a0:	0065                	c.nop	25
 1a2:	6168                	ld	a0,192(a0)
 1a4:	646e                	ld	s0,216(sp)
 1a6:	656c                	ld	a1,200(a0)
 1a8:	6d5f 6973 6900      	.insn	6, 0x690069736d5f
 1ae:	706e                	.insn	2, 0x706e
 1b0:	7475                	lui	s0,0xffffd
 1b2:	5f31                	li	t5,-20
 1b4:	6164                	ld	s1,192(a0)
 1b6:	6174                	ld	a3,192(a0)
 1b8:	6900                	ld	s0,16(a0)
 1ba:	706e                	.insn	2, 0x706e
 1bc:	7475                	lui	s0,0xffffd
 1be:	5f32                	lw	t5,44(sp)
 1c0:	6164                	ld	s1,192(a0)
 1c2:	6174                	ld	a3,192(a0)
 1c4:	7200                	ld	s0,32(a2)
 1c6:	7365                	lui	t1,0xffff9
 1c8:	6c75                	lui	s8,0x1d
 1ca:	7374                	ld	a3,224(a4)
 1cc:	645f 7461 0061      	.insn	6, 0x00617461645f
 1d2:	5f5f 6e69 7074      	.insn	6, 0x70746e695f5f
 1d8:	7274                	ld	a3,224(a2)
 1da:	745f 5f00 755f      	.insn	6, 0x755f5f00745f
 1e0:	6e69                	lui	t3,0x1a
 1e2:	7074                	ld	a3,224(s0)
 1e4:	7274                	ld	a3,224(a2)
 1e6:	745f 6800 6e61      	.insn	6, 0x6e616800745f
 1ec:	6c64                	ld	s1,216(s0)
 1ee:	5f65                	li	t5,-7
 1f0:	7274                	ld	a3,224(a2)
 1f2:	7061                	c.lui	zero,0xffff8
 1f4:	5f00                	lw	s0,56(a4)
 1f6:	7865                	lui	a6,0xffff9
 1f8:	7469                	lui	s0,0xffffa
 1fa:	6300                	ld	s0,0(a4)
 1fc:	0065646f          	jal	s0,56202 <__heap_size+0x36202>
 200:	6572                	ld	a0,280(sp)
 202:	63007367          	.insn	4, 0x63007367
 206:	7561                	lui	a0,0xffff8
 208:	74006573          	csrrsi	a0,0x740,0
 20c:	6176                	ld	sp,344(sp)
 20e:	006c                	addi	a1,sp,12
 210:	6f6c                	ld	a1,216(a4)
 212:	676e                	ld	a4,216(sp)
 214:	6c20                	ld	s0,88(s0)
 216:	20676e6f          	jal	t3,7641c <__heap_size+0x5641c>
 21a:	6e69                	lui	t3,0x1a
 21c:	0074                	addi	a3,sp,12
 21e:	6f74                	ld	a3,216(a4)
 220:	6f68                	ld	a0,216(a4)
 222:	2e007473          	csrrci	s0,0x2e0,0
 226:	2f2e                	fld	ft10,200(sp)
 228:	2f737973          	csrrci	s2,0x2f7,6
 22c:	7865                	lui	a6,0xffff9
 22e:	7469                	lui	s0,0xffffa
 230:	632e                	ld	t1,200(sp)
 232:	2f00                	fld	fs0,24(a4)
 234:	6f68                	ld	a0,216(a4)
 236:	656d                	lui	a0,0x1b
 238:	6868742f          	.insn	4, 0x6868742f
 23c:	6968632f          	.insn	4, 0x6968632f
 240:	7970                	ld	a2,240(a0)
 242:	7261                	lui	tp,0xffff8
 244:	2f64                	fld	fs1,216(a4)
 246:	6f74                	ld	a3,216(a4)
 248:	68636c6f          	jal	s8,368ce <__heap_size+0x168ce>
 24c:	6961                	lui	s2,0x18
 24e:	736e                	ld	t1,248(sp)
 250:	62696c2f          	.insn	4, 0x62696c2f
 254:	736f6c67          	.insn	4, 0x736f6c67
 258:	75622f73          	csrrs	t5,0x756,tp
 25c:	6c69                	lui	s8,0x1a
 25e:	0064                	addi	s1,sp,12
 260:	20554e47          	fmsub.s	ft8,fa0,ft5,ft4,rmm
 264:	20313143          	fmadd.s	ft2,ft2,ft3,ft4,rup
 268:	2e38                	fld	fa4,88(a2)
 26a:	2e32                	fld	ft8,264(sp)
 26c:	2030                	fld	fa2,64(s0)
 26e:	6d2d                	lui	s10,0xb
 270:	646f6d63          	bltu	t5,t1,8ca <__stack_align+0x8ba>
 274:	6c65                	lui	s8,0x19
 276:	6d3d                	lui	s10,0xf
 278:	6465                	lui	s0,0x19
 27a:	6e61                	lui	t3,0x18
 27c:	2079                	.insn	2, 0x2079
 27e:	6d2d                	lui	s10,0xb
 280:	7261                	lui	tp,0xffff8
 282:	723d6863          	bltu	s10,gp,9b2 <__stack_align+0x9a2>
 286:	3676                	fld	fa2,376(sp)
 288:	6934                	ld	a3,80(a0)
 28a:	616d                	addi	sp,sp,240
 28c:	6466                	ld	s0,88(sp)
 28e:	6d2d2063          	.insn	4, 0x6d2d2063
 292:	6261                	lui	tp,0x18
 294:	3d69                	addiw	s10,s10,-6 # affa <__stack_size+0x2ffa>
 296:	706c                	ld	a1,224(s0)
 298:	3436                	fld	fs0,360(sp)
 29a:	2064                	fld	fs1,192(s0)
 29c:	672d                	lui	a4,0xb
 29e:	2d20                	fld	fs0,88(a0)
 2a0:	2d20324f          	.insn	4, 0x2d20324f
 2a4:	3d647473          	csrrci	s0,0x3d6,8
 2a8:	20313163          	.insn	4, 0x20313163
 2ac:	662d                	lui	a2,0xb
 2ae:	6f6e                	ld	t5,216(sp)
 2b0:	632d                	lui	t1,0xb
 2b2:	6f6d6d6f          	jal	s10,d69a8 <__heap_size+0xb69a8>
 2b6:	206e                	fld	ft0,216(sp)
 2b8:	662d                	lui	a2,0xb
 2ba:	6f6e                	ld	t5,216(sp)
 2bc:	622d                	lui	tp,0xb
 2be:	6975                	lui	s2,0x1d
 2c0:	746c                	ld	a1,232(s0)
 2c2:	6e69                	lui	t3,0x1a
 2c4:	6600                	ld	s0,8(a2)
 2c6:	6f72                	ld	t5,280(sp)
 2c8:	686d                	lui	a6,0x1b
 2ca:	0074736f          	jal	t1,47ad0 <__heap_size+0x27ad0>
 2ce:	6f6c                	ld	a1,216(a4)
 2d0:	676e                	ld	a4,216(sp)
 2d2:	6420                	ld	s0,72(s0)
 2d4:	6c62756f          	jal	a0,2799a <__heap_size+0x799a>
 2d8:	0065                	c.nop	25
 2da:	5f5f 6975 746e      	.insn	6, 0x746e69755f5f
 2e0:	3436                	fld	fs0,360(sp)
 2e2:	745f 2e00 2f2e      	.insn	6, 0x2f2e2e00745f
 2e8:	696d                	lui	s2,0x1b
 2ea:	632f6373          	csrrsi	t1,0x632,30
 2ee:	7472                	ld	s0,312(sp)
 2f0:	2e30                	fld	fa2,88(a2)
 2f2:	4e470053          	.insn	4, 0x4e470053
 2f6:	2055                	.insn	2, 0x2055
 2f8:	5341                	li	t1,-16
 2fa:	3220                	fld	fs0,96(a2)
 2fc:	332e                	fld	ft6,232(sp)
 2fe:	2e31                	addiw	t3,t3,12 # 1a00c <__stack_size+0x1200c>
 300:	0031                	c.nop	12
 302:	2e2e                	fld	ft8,200(sp)
 304:	73696d2f          	.insn	4, 0x73696d2f
 308:	72632f63          	.insn	4, 0x72632f63
 30c:	6d74                	ld	a3,216(a0)
 30e:	6961                	lui	s2,0x18
 310:	2e6e                	fld	ft8,216(sp)
 312:	645f0053          	.insn	4, 0x645f0053
 316:	685f6f73          	csrrsi	t5,0x685,30
 31a:	6e61                	lui	t3,0x18
 31c:	6c64                	ld	s1,216(s0)
 31e:	0065                	c.nop	25
 320:	725f 6e61 3464      	.insn	6, 0x34646e61725f
 326:	0038                	addi	a4,sp,8
 328:	655f 656d 6772      	.insn	6, 0x6772656d655f
 32e:	6e65                	lui	t3,0x19
 330:	5f007963          	bgeu	zero,a6,922 <__stack_align+0x912>
 334:	74726377          	.insn	4, 0x74726377
 338:	5f626d6f          	jal	s10,2692e <__heap_size+0x692e>
 33c:	74617473          	csrrci	s0,0x746,2
 340:	0065                	c.nop	25
 342:	775f 7363 7472      	.insn	6, 0x74727363775f
 348:	73626d6f          	jal	s10,26a7e <__heap_size+0x6a7e>
 34c:	735f 6174 6574      	.insn	6, 0x65746174735f
 352:	6c00                	ld	s0,24(s0)
 354:	20676e6f          	jal	t3,7655a <__heap_size+0x5655a>
 358:	6f6c                	ld	a1,216(a4)
 35a:	676e                	ld	a4,216(sp)
 35c:	7520                	ld	s0,104(a0)
 35e:	736e                	ld	t1,248(sp)
 360:	6769                	lui	a4,0x1a
 362:	656e                	ld	a0,216(sp)
 364:	2064                	fld	fs1,192(s0)
 366:	6e69                	lui	t3,0x1a
 368:	0074                	addi	a3,sp,12
 36a:	6c5f 6662 6973      	.insn	6, 0x697366626c5f
 370:	657a                	ld	a0,408(sp)
 372:	5f00                	lw	s0,56(a4)
 374:	6c5f 636f 6c61      	.insn	6, 0x6c61636f6c5f
 37a:	5f65                	li	t5,-7
 37c:	0074                	addi	a3,sp,12
 37e:	6d5f 7262 6f74      	.insn	6, 0x6f7472626d5f
 384:	735f6377          	.insn	4, 0x735f6377
 388:	6174                	ld	a3,192(a0)
 38a:	6574                	ld	a3,200(a0)
 38c:	5f00                	lw	s0,56(a4)
 38e:	6f746377          	.insn	4, 0x6f746377
 392:	626d                	lui	tp,0x1b
 394:	735f 6174 6574      	.insn	6, 0x65746174735f
 39a:	5f00                	lw	s0,56(a4)
 39c:	745f 5f6d 6573      	.insn	6, 0x65735f6d745f
 3a2:	755f0063          	beq	t5,s5,ae2 <__stack_align+0xad2>
 3a6:	7562                	ld	a0,56(sp)
 3a8:	0066                	c.slli	zero,0x19
 3aa:	625f 7361 0065      	.insn	6, 0x00657361625f
 3b0:	5f5f 6d74 685f      	.insn	6, 0x685f6d745f5f
 3b6:	0072756f          	jal	a0,27bbc <__heap_size+0x7bbc>
 3ba:	5f5f 6673 5f00      	.insn	6, 0x5f0066735f5f
 3c0:	655f6e6f          	jal	t3,f7214 <__heap_size+0xd7214>
 3c4:	6978                	ld	a4,208(a0)
 3c6:	5f74                	lw	a3,124(a4)
 3c8:	7261                	lui	tp,0xffff8
 3ca:	5f007367          	.insn	4, 0x5f007367
 3ce:	6b6f6f63          	bltu	t5,s6,a8c <__stack_align+0xa7c>
 3d2:	6569                	lui	a0,0x1a
 3d4:	5f00                	lw	s0,56(a4)
 3d6:	735f 6c67 6575      	.insn	6, 0x65756c67735f
 3dc:	5f00                	lw	s0,56(a4)
 3de:	6c66                	ld	s8,88(sp)
 3e0:	6761                	lui	a4,0x18
 3e2:	695f0073          	.insn	4, 0x695f0073
 3e6:	78635f73          	csrrwi	t5,0x786,6
 3ea:	0061                	c.nop	24
 3ec:	735f 6474 6e69      	.insn	6, 0x6e696474735f
 3f2:	5f00                	lw	s0,56(a4)
 3f4:	745f 6164 6174      	.insn	6, 0x61746164745f
 3fa:	735f 7a69 0065      	.insn	6, 0x00657a69735f
 400:	625f 6b6c 6973      	.insn	6, 0x69736b6c625f
 406:	657a                	ld	a0,408(sp)
 408:	5f00                	lw	s0,56(a4)
 40a:	62747663          	bgeu	s0,t2,a36 <__stack_align+0xa26>
 40e:	6675                	lui	a2,0x1d
 410:	5f00                	lw	s0,56(a4)
 412:	626d                	lui	tp,0x1b
 414:	6f747273          	csrrci	tp,0x6f7,8
 418:	5f736377          	.insn	4, 0x5f736377
 41c:	74617473          	csrrci	s0,0x746,2
 420:	0065                	c.nop	25
 422:	6d5f 7262 656c      	.insn	6, 0x656c72626d5f
 428:	5f6e                	lw	t5,248(sp)
 42a:	74617473          	csrrci	s0,0x746,2
 42e:	0065                	c.nop	25
 430:	665f 616e 6772      	.insn	6, 0x6772616e665f
 436:	5f5f0073          	.insn	4, 0x5f5f0073
 43a:	6274                	ld	a3,192(a2)
 43c:	735f7373          	csrrci	t1,mhpmevent21h,30
 440:	7a69                	lui	s4,0xffffa
 442:	0065                	c.nop	25
 444:	665f 736e 5f00      	.insn	6, 0x5f00736e665f
 44a:	6e676973          	csrrsi	s2,0x6e6,14
 44e:	5f00                	lw	s0,56(a4)
 450:	6c66                	ld	s8,88(sp)
 452:	5f6b636f          	jal	t1,b6a48 <__heap_size+0x96a48>
 456:	0074                	addi	a3,sp,12
 458:	735f 6474 7265      	.insn	6, 0x72656474735f
 45e:	0072                	c.slli	zero,0x1c
 460:	425f 6769 6e69      	.insn	6, 0x6e696769425f
 466:	0074                	addi	a3,sp,12
 468:	675f 6d61 616d      	.insn	6, 0x616d6d61675f
 46e:	735f 6769 676e      	.insn	6, 0x676e6769735f
 474:	6d61                	lui	s10,0x18
 476:	5f00                	lw	s0,56(a4)
 478:	6572                	ld	a0,280(sp)
 47a:	6461                	lui	s0,0x18
 47c:	5f00                	lw	s0,56(a4)
 47e:	6572                	ld	a0,280(sp)
 480:	746c7573          	csrrci	a0,0x746,24
 484:	6b5f 5f00 745f      	.insn	6, 0x745f5f006b5f
 48a:	006d                	c.nop	27
 48c:	5f5f 6377 6268      	.insn	6, 0x626863775f5f
 492:	5f00                	lw	s0,56(a4)
 494:	6f647473          	csrrci	s0,0x6f6,8
 498:	7475                	lui	s0,0xffffd
 49a:	5f00                	lw	s0,56(a4)
 49c:	6c747663          	bgeu	s0,t2,b68 <__stack_align+0xb58>
 4a0:	6e65                	lui	t3,0x19
 4a2:	5f00                	lw	s0,56(a4)
 4a4:	6966                	ld	s2,88(sp)
 4a6:	656c                	ld	a1,200(a0)
 4a8:	5f00                	lw	s0,56(a4)
 4aa:	745f 6164 6174      	.insn	6, 0x61746164745f
 4b0:	735f 6174 7472      	.insn	6, 0x74726174735f
 4b6:	5f00                	lw	s0,56(a4)
 4b8:	696e                	ld	s2,216(sp)
 4ba:	0073626f          	jal	tp,36cc0 <__heap_size+0x16cc0>
 4be:	615f 6574 6978      	.insn	6, 0x69786574615f
 4c4:	3074                	fld	fa3,224(s0)
 4c6:	5f00                	lw	s0,56(a4)
 4c8:	6e676973          	csrrsi	s2,0x6e6,14
 4cc:	6c61                	lui	s8,0x18
 4ce:	625f 6675 5f00      	.insn	6, 0x5f006675625f
 4d4:	7361                	lui	t1,0xffff8
 4d6:	6d697463          	bgeu	s2,s6,b9e <__stack_align+0xb8e>
 4da:	5f65                	li	t5,-7
 4dc:	7562                	ld	a0,56(sp)
 4de:	0066                	c.slli	zero,0x19
 4e0:	725f 7365 6c75      	.insn	6, 0x6c757365725f
 4e6:	0074                	addi	a3,sp,12
 4e8:	5f5f 6377 0068      	.insn	6, 0x006863775f5f
 4ee:	656d                	lui	a0,0x1b
 4f0:	636d                	lui	t1,0x1b
 4f2:	7970                	ld	a2,240(a0)
 4f4:	7700                	ld	s0,40(a4)
 4f6:	6e69                	lui	t3,0x1a
 4f8:	5f74                	lw	a3,124(a4)
 4fa:	0074                	addi	a3,sp,12
 4fc:	665f 616c 7367      	.insn	6, 0x7367616c665f
 502:	0032                	c.slli	zero,0xc
 504:	775f 6972 6574      	.insn	6, 0x65746972775f
 50a:	5f00                	lw	s0,56(a4)
 50c:	745f 5f6d 6579      	.insn	6, 0x65795f6d745f
 512:	7261                	lui	tp,0xffff8
 514:	5f00                	lw	s0,56(a4)
 516:	6d6e                	ld	s10,216(sp)
 518:	6c61                	lui	s8,0x18
 51a:	6f6c                	ld	a1,216(a4)
 51c:	5f5f0063          	beq	t5,s5,afc <__stack_align+0xaec>
 520:	6274                	ld	a3,192(a2)
 522:	6f5f7373          	csrrci	t1,0x6f5,30
 526:	6666                	ld	a2,88(sp)
 528:	00746573          	csrrsi	a0,0x7,8
 52c:	6e5f 7865 6674      	.insn	6, 0x667478656e5f
 532:	5f00                	lw	s0,56(a4)
 534:	745f 5f6d 6f6d      	.insn	6, 0x6f6d5f6d745f
 53a:	006e                	c.slli	zero,0x1b
 53c:	615f 6574 6978      	.insn	6, 0x69786574615f
 542:	0074                	addi	a3,sp,12
 544:	5f5f 6473 6469      	.insn	6, 0x646964735f5f
 54a:	6e69                	lui	t3,0x1a
 54c:	7469                	lui	s0,0xffffa
 54e:	5f00                	lw	s0,56(a4)
 550:	7266                	ld	tp,120(sp)
 552:	6565                	lui	a0,0x19
 554:	696c                	ld	a1,208(a0)
 556:	5f007473          	csrrci	s0,0x5f0,0
 55a:	745f 7268 6165      	.insn	6, 0x61657268745f
 560:	5f64                	lw	s1,124(a4)
 562:	666c6573          	csrrsi	a0,0x666,24
 566:	5f00                	lw	s0,56(a4)
 568:	4f4c                	lw	a1,28(a4)
 56a:	525f4b43          	fmadd.d	fs6,ft10,ft5,fa0,rmm
 56e:	4345                	li	t1,17
 570:	5255                	li	tp,-11
 572:	45564953          	.insn	4, 0x45564953
 576:	545f 5f00 656e      	.insn	6, 0x656e5f00545f
 57c:	685f0077          	.insn	4, 0x685f0077
 580:	655f 7272 6f6e      	.insn	6, 0x6f6e7272655f
 586:	5f00                	lw	s0,56(a4)
 588:	745f 5f6d 6479      	.insn	6, 0x64795f6d745f
 58e:	7961                	lui	s2,0xffff8
 590:	5f00                	lw	s0,56(a4)
 592:	735f 7562 0066      	.insn	6, 0x00667562735f
 598:	695f 626f 0073      	.insn	6, 0x0073626f695f
 59e:	5f5f 4946 454c      	.insn	6, 0x454c49465f5f
 5a4:	5f00                	lw	s0,56(a4)
 5a6:	626d                	lui	tp,0x1b
 5a8:	74617473          	csrrci	s0,0x746,2
 5ac:	5f65                	li	t5,-7
 5ae:	0074                	addi	a3,sp,12
 5b0:	5f5f 4673 4c49      	.insn	6, 0x4c4946735f5f
 5b6:	0045                	c.nop	17
 5b8:	6d5f 7362 6174      	.insn	6, 0x617473626d5f
 5be:	6574                	ld	a3,200(a0)
 5c0:	5f00                	lw	s0,56(a4)
 5c2:	6172                	ld	sp,280(sp)
 5c4:	646e                	ld	s0,216(sp)
 5c6:	6e5f 7865 0074      	.insn	6, 0x007478656e5f
 5cc:	6d5f 6c62 6e65      	.insn	6, 0x6e656c626d5f
 5d2:	735f 6174 6574      	.insn	6, 0x65746174735f
 5d8:	5f00                	lw	s0,56(a4)
 5da:	6e69                	lui	t3,0x1a
 5dc:	695f0063          	beq	t5,s5,c5c <__stack_align+0xc4c>
 5e0:	646e                	ld	s0,216(sp)
 5e2:	5f00                	lw	s0,56(a4)
 5e4:	6f6c                	ld	a1,216(a4)
 5e6:	656c6163          	bltu	s8,s6,c28 <__stack_align+0xc18>
 5ea:	5f00                	lw	s0,56(a4)
 5ec:	635f 656c 6e61      	.insn	6, 0x6e61656c635f
 5f2:	7075                	c.lui	zero,0xffffd
 5f4:	5f00                	lw	s0,56(a4)
 5f6:	6e75                	lui	t3,0x1d
 5f8:	63657073          	csrci	0x636,10
 5fc:	6669                	lui	a2,0x1a
 5fe:	6569                	lui	a0,0x1a
 600:	5f64                	lw	s1,124(a4)
 602:	6f6c                	ld	a1,216(a4)
 604:	656c6163          	bltu	s8,s6,c46 <__stack_align+0xc36>
 608:	695f 666e 006f      	.insn	6, 0x006f666e695f
 60e:	6d5f 7861 6477      	.insn	6, 0x647778616d5f
 614:	725f0073          	.insn	4, 0x725f0073
 618:	6565                	lui	a0,0x19
 61a:	746e                	ld	s0,248(sp)
 61c:	5f00                	lw	s0,56(a4)
 61e:	64656573          	csrrsi	a0,hviprio1,10
 622:	5f00                	lw	s0,56(a4)
 624:	635f 756f 746e      	.insn	6, 0x746e756f635f
 62a:	5f00                	lw	s0,56(a4)
 62c:	765f 6c61 6575      	.insn	6, 0x65756c61765f
 632:	5f00                	lw	s0,56(a4)
 634:	6b656573          	csrrsi	a0,0x6b6,10
 638:	5f00                	lw	s0,56(a4)
 63a:	7066                	.insn	2, 0x7066
 63c:	745f736f          	jal	t1,f8580 <__heap_size+0xd8580>
 640:	5f00                	lw	s0,56(a4)
 642:	745f 5f6d 696d      	.insn	6, 0x696d5f6d745f
 648:	006e                	c.slli	zero,0x1b
 64a:	6d5f 6c75 0074      	.insn	6, 0x00746c756d5f
 650:	2e2e                	fld	ft8,200(sp)
 652:	73696d2f          	.insn	4, 0x73696d2f
 656:	6c742f63          	.insn	4, 0x6c742f63
 65a:	00632e73          	csrrs	t3,0x6,t1
 65e:	735f 7274 6f74      	.insn	6, 0x6f747274735f
 664:	616c5f6b          	.insn	4, 0x616c5f6b
 668:	5f007473          	csrrci	s0,0x5f0,0
 66c:	6e66                	ld	t3,88(sp)
 66e:	7974                	ld	a3,240(a0)
 670:	6570                	ld	a2,200(a0)
 672:	615f0073          	.insn	4, 0x615f0073
 676:	6464                	ld	s1,200(s0)
 678:	5f00                	lw	s0,56(a4)
 67a:	555f 6f4c 676e      	.insn	6, 0x676e6f4c555f
 680:	5f00                	lw	s0,56(a4)
 682:	64746567          	.insn	4, 0x64746567
 686:	7461                	lui	s0,0xffff8
 688:	5f65                	li	t5,-7
 68a:	7265                	lui	tp,0xffff9
 68c:	0072                	c.slli	zero,0x1c
 68e:	675f 6f6c 6162      	.insn	6, 0x61626f6c675f
 694:	5f6c                	lw	a1,124(a4)
 696:	6d69                	lui	s10,0x1a
 698:	7570                	ld	a2,232(a0)
 69a:	6572                	ld	a0,280(sp)
 69c:	705f 7274 6d00      	.insn	6, 0x6d007274705f
 6a2:	6d65                	lui	s10,0x19
 6a4:	00746573          	csrrsi	a0,0x7,8
 6a8:	755f 756e 6573      	.insn	6, 0x6573756e755f
 6ae:	5f64                	lw	s1,124(a4)
 6b0:	6172                	ld	sp,280(sp)
 6b2:	646e                	ld	s0,216(sp)
 6b4:	5f00                	lw	s0,56(a4)
 6b6:	00736477          	.insn	4, 0x00736477
 6ba:	5f5f 6d74 775f      	.insn	6, 0x775f6d745f5f
 6c0:	6164                	ld	s1,192(a0)
 6c2:	0079                	c.nop	30
 6c4:	675f 756c 0065      	.insn	6, 0x0065756c675f
 6ca:	735f 6973 657a      	.insn	6, 0x657a6973735f
 6d0:	745f 5f00 366c      	.insn	6, 0x366c5f00745f
 6d6:	6134                	ld	a3,64(a0)
 6d8:	625f 6675 5f00      	.insn	6, 0x5f006675625f
 6de:	695f 696e 5f74      	.insn	6, 0x5f74696e695f
 6e4:	6c74                	ld	a3,216(s0)
 6e6:	735f0073          	.insn	4, 0x735f0073
 6ea:	6769                	lui	a4,0x1a
 6ec:	665f 6e75 0063      	.insn	6, 0x00636e75665f
 6f2:	6e5f 7562 0066      	.insn	6, 0x006675626e5f
 6f8:	755f 756e 6573      	.insn	6, 0x6573756e755f
 6fe:	0064                	addi	s1,sp,12
 700:	5f5f 6d74 695f      	.insn	6, 0x695f6d745f5f
 706:	74736473          	csrrsi	s0,0x747,6
 70a:	5f00                	lw	s0,56(a4)
 70c:	6f6c                	ld	a1,216(a4)
 70e:	746c6163          	bltu	s8,t1,e50 <__stack_align+0xe40>
 712:	6d69                	lui	s10,0x1a
 714:	5f65                	li	t5,-7
 716:	7562                	ld	a0,56(sp)
 718:	0066                	c.slli	zero,0x19
 71a:	635f 6f6c 6573      	.insn	6, 0x65736f6c635f
 720:	5f00                	lw	s0,56(a4)
 722:	3472                	fld	fs0,312(sp)
 724:	0038                	addi	a4,sp,8
 726:	6d5f 7462 776f      	.insn	6, 0x776f74626d5f
 72c:	74735f63          	bge	t1,t2,e8a <__stack_align+0xe7a>
 730:	7461                	lui	s0,0xffff8
 732:	0065                	c.nop	25
 734:	705f 7335 5f00      	.insn	6, 0x5f007335705f
 73a:	745f 5f6d 646d      	.insn	6, 0x646d5f6d745f
 740:	7961                	lui	s2,0xffff8
 742:	7300                	ld	s0,32(a4)
 744:	6970                	ld	a2,208(a0)
 746:	6c6e                	ld	s8,216(sp)
 748:	5f6b636f          	jal	t1,b6d3e <__heap_size+0x96d3e>
 74c:	0074                	addi	a3,sp,12
 74e:	2e2e                	fld	ft8,200(sp)
 750:	73696d2f          	.insn	4, 0x73696d2f
 754:	74682f63          	.insn	4, 0x74682f63
 758:	6669                	lui	a2,0x1a
 75a:	632e                	ld	t1,200(sp)
 75c:	6800                	ld	s0,16(s0)
 75e:	6974                	ld	a3,208(a0)
 760:	5f66                	lw	t5,120(sp)
 762:	6f6c                	ld	a1,216(a4)
 764:	68006b63          	bltu	zero,zero,dfa <__stack_align+0xdea>
 768:	6974                	ld	a3,208(a0)
 76a:	5f66                	lw	t5,120(sp)
 76c:	63737973          	csrrci	s2,0x637,6
 770:	6c61                	lui	s8,0x18
 772:	006c                	addi	a1,sp,12
 774:	7461                	lui	s0,0xffff8
 776:	63696d6f          	jal	s10,96dac <__heap_size+0x76dac>
 77a:	735f 6177 5f70      	.insn	6, 0x5f706177735f
 780:	6361                	lui	t1,0x18
 782:	7571                	lui	a0,0xffffc
 784:	7269                	lui	tp,0xffffa
 786:	0065                	c.nop	25
 788:	7461                	lui	s0,0xffff8
 78a:	63696d6f          	jal	s10,96dc0 <__heap_size+0x76dc0>
 78e:	745f 6100 6f74      	.insn	6, 0x6f746100745f
 794:	696d                	lui	s2,0x1b
 796:	6f6c5f63          	bge	s8,s6,e94 <__stack_align+0xe84>
 79a:	6461                	lui	s0,0x18
 79c:	7300                	ld	s0,32(a4)
 79e:	6970                	ld	a2,208(a0)
 7a0:	5f6e                	lw	t5,248(sp)
 7a2:	6f6c                	ld	a1,216(a4)
 7a4:	73006b63          	bltu	zero,a6,eda <__stack_align+0xeca>
 7a8:	6970                	ld	a2,208(a0)
 7aa:	5f6e                	lw	t5,248(sp)
 7ac:	6e75                	lui	t3,0x1d
 7ae:	6f6c                	ld	a1,216(a4)
 7b0:	61006b63          	bltu	zero,a6,dc6 <__stack_align+0xdb6>
 7b4:	6f74                	ld	a3,216(a4)
 7b6:	696d                	lui	s2,0x1b
 7b8:	6c635f63          	bge	t1,t1,e96 <__stack_align+0xe86>
 7bc:	6165                	addi	sp,sp,112
 7be:	5f72                	lw	t5,60(sp)
 7c0:	6572                	ld	a0,280(sp)
 7c2:	656c                	ld	a1,200(a0)
 7c4:	7361                	lui	t1,0xffff8
 7c6:	0065                	c.nop	25
 7c8:	5f5f 7265 6e72      	.insn	6, 0x6e7272655f5f
 7ce:	735f006f          	j	f1702 <__heap_size+0xd1702>
 7d2:	7379                	lui	t1,0xffffe
 7d4:	655f 7272 696c      	.insn	6, 0x696c7272655f
 7da:	2e007473          	csrrci	s0,0x2e0,0
 7de:	2f2e                	fld	ft10,200(sp)
 7e0:	2f737973          	csrrci	s2,0x2f7,6
 7e4:	736f6c63          	bltu	t5,s6,f1c <__stack_align+0xf0c>
 7e8:	2e65                	addiw	t3,t3,25 # 1d019 <__stack_size+0x15019>
 7ea:	735f0063          	beq	t5,s5,f0a <__stack_align+0xefa>
 7ee:	7379                	lui	t1,0xffffe
 7f0:	6e5f 7265 0072      	.insn	6, 0x007272656e5f
 7f6:	5f5f 666f 5f66      	.insn	6, 0x5f66666f5f5f
 7fc:	0074                	addi	a3,sp,12
 7fe:	6c5f 6573 6b65      	.insn	6, 0x6b6565736c5f
 804:	2e00                	fld	fs0,24(a2)
 806:	2f2e                	fld	ft10,200(sp)
 808:	2f737973          	csrrci	s2,0x2f7,6
 80c:	736c                	ld	a1,224(a4)
 80e:	6565                	lui	a0,0x19
 810:	00632e6b          	.insn	4, 0x00632e6b
 814:	2e2e                	fld	ft8,200(sp)
 816:	7379732f          	.insn	4, 0x7379732f
 81a:	6165722f          	.insn	4, 0x6165722f
 81e:	2e64                	fld	fs1,216(a2)
 820:	75630063          	beq	t1,s6,f60 <__stack_align+0xf50>
 824:	6272                	ld	tp,280(sp)
 826:	6b72                	ld	s6,280(sp)
 828:	5f00                	lw	s0,56(a4)
 82a:	685f 6165 5f70      	.insn	6, 0x5f706165685f
 830:	6e65                	lui	t3,0x19
 832:	0064                	addi	s1,sp,12
 834:	6e69                	lui	t3,0x1a
 836:	2e007263          	bgeu	zero,zero,b1a <__stack_align+0xb0a>
 83a:	2f2e                	fld	ft10,200(sp)
 83c:	2f737973          	csrrci	s2,0x2f7,6
 840:	6b726273          	csrrsi	tp,0x6b7,4
 844:	632e                	ld	t1,200(sp)
 846:	7000                	ld	s0,32(s0)
 848:	7274                	ld	a3,224(a2)
 84a:	6964                	ld	s1,208(a0)
 84c:	6666                	ld	a2,88(sp)
 84e:	745f 6f00 646c      	.insn	6, 0x646c6f00745f
 854:	7262                	ld	tp,56(sp)
 856:	656e006b          	.insn	4, 0x656e006b
 85a:	6b726277          	.insn	4, 0x6b726277
 85e:	5f00                	lw	s0,56(a4)
 860:	6b726273          	csrrsi	tp,0x6b7,4
 864:	2e00                	fld	fs0,24(a2)
 866:	2f2e                	fld	ft10,200(sp)
 868:	2f737973          	csrrci	s2,0x2f7,6
 86c:	74697277          	.insn	4, 0x74697277
 870:	2e65                	addiw	t3,t3,25 # 1a019 <__stack_size+0x12019>
 872:	6e650063          	beq	a0,t1,f52 <__stack_align+0xf42>
 876:	6976                	ld	s2,344(sp)
 878:	6f72                	ld	t5,280(sp)
 87a:	006e                	c.slli	zero,0x1b
 87c:	7274706f          	j	487a2 <__heap_size+0x287a2>
 880:	7365                	lui	t1,0xffff9
 882:	7465                	lui	s0,0xffff9
 884:	6f00                	ld	s0,24(a4)
 886:	7470                	ld	a2,232(s0)
 888:	7261                	lui	tp,0xffff8
 88a:	706f0067          	jr	1798(t5) # 1b706 <__stack_size+0x13706>
 88e:	6974                	ld	a3,208(a0)
 890:	646e                	ld	s0,216(sp)
 892:	6f00                	ld	s0,24(a4)
 894:	7470                	ld	a2,232(s0)
 896:	7265                	lui	tp,0xffff9
 898:	0072                	c.slli	zero,0x1c
 89a:	6f74706f          	j	48790 <__heap_size+0x28790>
 89e:	7470                	ld	a2,232(s0)
	...

Disassembly of section .debug_line_str:

0000000000000000 <.debug_line_str>:
   0:	6d6f682f          	.insn	4, 0x6d6f682f
   4:	2f65                	addiw	t5,t5,25
   6:	6874                	ld	a3,208(s0)
   8:	2f68                	fld	fa0,216(a4)
   a:	70696863          	bltu	s2,t1,71a <__stack_align+0x70a>
   e:	6179                	addi	sp,sp,464
  10:	6472                	ld	s0,280(sp)
  12:	6d65642f          	.insn	4, 0x6d65642f
  16:	7369726f          	jal	tp,9774c <__heap_size+0x7774c>
  1a:	732f7663          	bgeu	t5,s2,746 <__stack_align+0x736>
  1e:	7774666f          	jal	a2,46f94 <__heap_size+0x26f94>
  22:	7261                	lui	tp,0xffff8
  24:	2f65                	addiw	t5,t5,25
  26:	614d                	addi	sp,sp,176
  28:	4d74                	lw	a3,92(a0)
  2a:	6c75                	lui	s8,0x1d
  2c:	6372732f          	.insn	4, 0x6372732f
  30:	72706b2f          	.insn	4, 0x72706b2f
  34:	6e69                	lui	t3,0x1a
  36:	6674                	ld	a3,200(a2)
  38:	632e                	ld	t1,200(sp)
  3a:	2f00                	fld	fs0,24(a4)
  3c:	6f68                	ld	a0,216(a4)
  3e:	656d                	lui	a0,0x1b
  40:	6868742f          	.insn	4, 0x6868742f
  44:	6968632f          	.insn	4, 0x6968632f
  48:	7970                	ld	a2,240(a0)
  4a:	7261                	lui	tp,0xffff8
  4c:	2f64                	fld	fs1,216(a4)
  4e:	6564                	ld	s1,200(a0)
  50:	6f6d                	lui	t5,0x1b
  52:	6972                	ld	s2,280(sp)
  54:	2f766373          	csrrsi	t1,0x2f7,12
  58:	74666f73          	csrrsi	t5,0x746,12
  5c:	65726177          	.insn	4, 0x65726177
  60:	74614d2f          	.insn	4, 0x74614d2f
  64:	754d                	lui	a0,0xffff3
  66:	006c                	addi	a1,sp,12
  68:	6d6f682f          	.insn	4, 0x6d6f682f
  6c:	2f65                	addiw	t5,t5,25 # 1b019 <__stack_size+0x13019>
  6e:	6874                	ld	a3,208(s0)
  70:	2f68                	fld	fa0,216(a4)
  72:	70696863          	bltu	s2,t1,782 <__stack_align+0x772>
  76:	6179                	addi	sp,sp,464
  78:	6472                	ld	s0,280(sp)
  7a:	6d65642f          	.insn	4, 0x6d65642f
  7e:	7369726f          	jal	tp,977b4 <__heap_size+0x777b4>
  82:	732f7663          	bgeu	t5,s2,7ae <__stack_align+0x79e>
  86:	7774666f          	jal	a2,46ffc <__heap_size+0x26ffc>
  8a:	7261                	lui	tp,0xffff8
  8c:	2f65                	addiw	t5,t5,25
  8e:	614d                	addi	sp,sp,176
  90:	4d74                	lw	a3,92(a0)
  92:	6c75                	lui	s8,0x1d
  94:	6372732f          	.insn	4, 0x6372732f
  98:	2f00                	fld	fs0,24(a4)
  9a:	6f68                	ld	a0,216(a4)
  9c:	656d                	lui	a0,0x1b
  9e:	6868742f          	.insn	4, 0x6868742f
  a2:	6968632f          	.insn	4, 0x6968632f
  a6:	7970                	ld	a2,240(a0)
  a8:	7261                	lui	tp,0xffff8
  aa:	2f64                	fld	fs1,216(a4)
  ac:	6564                	ld	s1,200(a0)
  ae:	6f6d                	lui	t5,0x1b
  b0:	6972                	ld	s2,280(sp)
  b2:	2f766373          	csrrsi	t1,0x2f7,12
  b6:	74666f73          	csrrsi	t5,0x746,12
  ba:	65726177          	.insn	4, 0x65726177
  be:	74614d2f          	.insn	4, 0x74614d2f
  c2:	754d                	lui	a0,0xffff3
  c4:	2f6c                	fld	fa1,216(a4)
  c6:	636e692f          	.insn	4, 0x636e692f
  ca:	756c                	ld	a1,232(a0)
  cc:	6564                	ld	s1,200(a0)
  ce:	2f00                	fld	fs0,24(a4)
  d0:	6f68                	ld	a0,216(a4)
  d2:	656d                	lui	a0,0x1b
  d4:	6868742f          	.insn	4, 0x6868742f
  d8:	6968632f          	.insn	4, 0x6968632f
  dc:	7970                	ld	a2,240(a0)
  de:	7261                	lui	tp,0xffff8
  e0:	2f64                	fld	fs1,216(a4)
  e2:	632e                	ld	t1,200(sp)
  e4:	61646e6f          	jal	t3,466fa <__heap_size+0x266fa>
  e8:	652d                	lui	a0,0xb
  ea:	766e                	ld	a2,248(sp)
  ec:	7369722f          	.insn	4, 0x7369722f
  f0:	742d7663          	bgeu	s10,sp,83c <__stack_align+0x82c>
  f4:	736c6f6f          	jal	t5,c682a <__heap_size+0xa682a>
  f8:	62696c2f          	.insn	4, 0x62696c2f
  fc:	6363672f          	.insn	4, 0x6363672f
 100:	7369722f          	.insn	4, 0x7369722f
 104:	34367663          	bgeu	a2,gp,450 <__stack_align+0x440>
 108:	752d                	lui	a0,0xfffeb
 10a:	6b6e                	ld	s6,216(sp)
 10c:	6f6e                	ld	t5,216(sp)
 10e:	652d6e77          	.insn	4, 0x652d6e77
 112:	666c                	ld	a1,200(a2)
 114:	2e33312f          	.insn	4, 0x2e33312f
 118:	2e32                	fld	ft8,264(sp)
 11a:	2f30                	fld	fa2,88(a4)
 11c:	6e69                	lui	t3,0x1a
 11e:	64756c63          	bltu	a0,t2,776 <__stack_align+0x766>
 122:	0065                	c.nop	25
 124:	6d6f682f          	.insn	4, 0x6d6f682f
 128:	2f65                	addiw	t5,t5,25 # 1b019 <__stack_size+0x13019>
 12a:	6874                	ld	a3,208(s0)
 12c:	2f68                	fld	fa0,216(a4)
 12e:	70696863          	bltu	s2,t1,83e <__stack_align+0x82e>
 132:	6179                	addi	sp,sp,464
 134:	6472                	ld	s0,280(sp)
 136:	6f632e2f          	.insn	4, 0x6f632e2f
 13a:	646e                	ld	s0,216(sp)
 13c:	2d61                	addiw	s10,s10,24 # 1a018 <__stack_size+0x12018>
 13e:	6e65                	lui	t3,0x19
 140:	2f76                	fld	ft10,344(sp)
 142:	6972                	ld	s2,280(sp)
 144:	2d766373          	csrrsi	t1,0x2d7,12
 148:	6f74                	ld	a3,216(a4)
 14a:	2f736c6f          	jal	s8,36c40 <__heap_size+0x16c40>
 14e:	6972                	ld	s2,280(sp)
 150:	36766373          	csrrsi	t1,0x367,12
 154:	2d34                	fld	fa3,88(a0)
 156:	6e75                	lui	t3,0x1d
 158:	776f6e6b          	.insn	4, 0x776f6e6b
 15c:	2d6e                	fld	fs10,216(sp)
 15e:	6c65                	lui	s8,0x19
 160:	2f66                	fld	ft10,88(sp)
 162:	6e69                	lui	t3,0x1a
 164:	64756c63          	bltu	a0,t2,7bc <__stack_align+0x7ac>
 168:	2f65                	addiw	t5,t5,25
 16a:	616d                	addi	sp,sp,240
 16c:	6e696863          	bltu	s2,t1,85c <__stack_align+0x84c>
 170:	0065                	c.nop	25
 172:	6d6f682f          	.insn	4, 0x6d6f682f
 176:	2f65                	addiw	t5,t5,25
 178:	6874                	ld	a3,208(s0)
 17a:	2f68                	fld	fa0,216(a4)
 17c:	70696863          	bltu	s2,t1,88c <__stack_align+0x87c>
 180:	6179                	addi	sp,sp,464
 182:	6472                	ld	s0,280(sp)
 184:	6f632e2f          	.insn	4, 0x6f632e2f
 188:	646e                	ld	s0,216(sp)
 18a:	2d61                	addiw	s10,s10,24
 18c:	6e65                	lui	t3,0x19
 18e:	2f76                	fld	ft10,344(sp)
 190:	6972                	ld	s2,280(sp)
 192:	2d766373          	csrrsi	t1,0x2d7,12
 196:	6f74                	ld	a3,216(a4)
 198:	2f736c6f          	jal	s8,36c8e <__heap_size+0x16c8e>
 19c:	6972                	ld	s2,280(sp)
 19e:	36766373          	csrrsi	t1,0x367,12
 1a2:	2d34                	fld	fa3,88(a0)
 1a4:	6e75                	lui	t3,0x1d
 1a6:	776f6e6b          	.insn	4, 0x776f6e6b
 1aa:	2d6e                	fld	fs10,216(sp)
 1ac:	6c65                	lui	s8,0x19
 1ae:	2f66                	fld	ft10,88(sp)
 1b0:	6e69                	lui	t3,0x1a
 1b2:	64756c63          	bltu	a0,t2,80a <__stack_align+0x7fa>
 1b6:	2f65                	addiw	t5,t5,25
 1b8:	00737973          	csrrci	s2,0x7,6
 1bc:	6972706b          	.insn	4, 0x6972706b
 1c0:	746e                	ld	s0,248(sp)
 1c2:	2e66                	fld	ft8,88(sp)
 1c4:	0068                	addi	a0,sp,12
 1c6:	61647473          	csrrci	s0,0x616,8
 1ca:	6772                	ld	a4,280(sp)
 1cc:	682e                	ld	a6,200(sp)
 1ce:	5f00                	lw	s0,56(a4)
 1d0:	6564                	ld	s1,200(a0)
 1d2:	6166                	ld	sp,88(sp)
 1d4:	6c75                	lui	s8,0x1d
 1d6:	5f74                	lw	a3,124(a4)
 1d8:	7974                	ld	a3,240(a0)
 1da:	6570                	ld	a2,200(a0)
 1dc:	00682e73          	csrrs	t3,0x6,a6
 1e0:	735f 6474 6e69      	.insn	6, 0x6e696474735f
 1e6:	2e74                	fld	fa3,216(a2)
 1e8:	0068                	addi	a0,sp,12
 1ea:	6d6f682f          	.insn	4, 0x6d6f682f
 1ee:	2f65                	addiw	t5,t5,25
 1f0:	6874                	ld	a3,208(s0)
 1f2:	2f68                	fld	fa0,216(a4)
 1f4:	70696863          	bltu	s2,t1,904 <__stack_align+0x8f4>
 1f8:	6179                	addi	sp,sp,464
 1fa:	6472                	ld	s0,280(sp)
 1fc:	6d65642f          	.insn	4, 0x6d65642f
 200:	7369726f          	jal	tp,97936 <__heap_size+0x77936>
 204:	732f7663          	bgeu	t5,s2,930 <__stack_align+0x920>
 208:	7774666f          	jal	a2,4717e <__heap_size+0x2717e>
 20c:	7261                	lui	tp,0xffff8
 20e:	2f65                	addiw	t5,t5,25
 210:	614d                	addi	sp,sp,176
 212:	4d74                	lw	a3,92(a0)
 214:	6c75                	lui	s8,0x1d
 216:	6372732f          	.insn	4, 0x6372732f
 21a:	74616d2f          	.insn	4, 0x74616d2f
 21e:	756d                	lui	a0,0xffffb
 220:	2e6c                	fld	fa1,216(a2)
 222:	74750063          	beq	a0,t2,962 <__stack_align+0x952>
 226:	6c69                	lui	s8,0x1a
 228:	682e                	ld	a6,200(sp)
 22a:	6400                	ld	s0,8(s0)
 22c:	7461                	lui	s0,0xffff8
 22e:	7361                	lui	t1,0xffff8
 230:	7465                	lui	s0,0xffff9
 232:	682e                	ld	a6,200(sp)
 234:	2f00                	fld	fs0,24(a4)
 236:	6f68                	ld	a0,216(a4)
 238:	656d                	lui	a0,0x1b
 23a:	6868742f          	.insn	4, 0x6868742f
 23e:	6968632f          	.insn	4, 0x6968632f
 242:	7970                	ld	a2,240(a0)
 244:	7261                	lui	tp,0xffff8
 246:	2f64                	fld	fs1,216(a4)
 248:	6564                	ld	s1,200(a0)
 24a:	6f6d                	lui	t5,0x1b
 24c:	6972                	ld	s2,280(sp)
 24e:	2f766373          	csrrsi	t1,0x2f7,12
 252:	74666f73          	csrrsi	t5,0x746,12
 256:	65726177          	.insn	4, 0x65726177
 25a:	74614d2f          	.insn	4, 0x74614d2f
 25e:	754d                	lui	a0,0xffff3
 260:	2f6c                	fld	fa1,216(a4)
 262:	2f637273          	csrrci	tp,0x2f6,6
 266:	7274                	ld	a3,224(a2)
 268:	7061                	c.lui	zero,0xffff8
 26a:	00632e73          	csrrs	t3,0x6,t1

Disassembly of section .comment:

0000000000000000 <.comment>:
   0:	3a434347          	fmsub.d	ft6,ft6,ft4,ft7,rmm
   4:	2820                	fld	fs0,80(s0)
   6:	39386367          	.insn	4, 0x39386367
   a:	6431                	lui	s0,0xc
   c:	6438                	ld	a4,72(s0)
   e:	65333263          	.insn	4, 0x65333263
  12:	2029                	.insn	2, 0x2029
  14:	3331                	addiw	t1,t1,-20 # ffffffffffff7fec <__heap_end+0xffffffff7ffd4fec>
  16:	322e                	fld	ft4,232(sp)
  18:	302e                	fld	ft0,232(sp)
  1a:	4700                	lw	s0,8(a4)
  1c:	203a4343          	fmadd.s	ft6,fs4,ft3,ft4,rmm
  20:	4728                	lw	a0,72(a4)
  22:	554e                	lw	a0,240(sp)
  24:	2029                	.insn	2, 0x2029
  26:	2e38                	fld	fa4,88(a2)
  28:	2e32                	fld	ft8,264(sp)
  2a:	0030                	addi	a2,sp,8
  2c:	3a434347          	fmsub.d	ft6,ft6,ft4,ft7,rmm
  30:	2820                	fld	fs0,80(s0)
  32:	29554e47          	fmsub.s	ft8,fa0,fs5,ft5,rmm
  36:	3120                	fld	fs0,96(a0)
  38:	2e322e33          	.insn	4, 0x2e322e33
  3c:	0030                	addi	a2,sp,8

Disassembly of section .riscv.attributes:

0000000000000000 <.riscv.attributes>:
   0:	5641                	li	a2,-16
   2:	0000                	unimp
   4:	7200                	ld	s0,32(a2)
   6:	7369                	lui	t1,0xffffa
   8:	01007663          	bgeu	zero,a6,14 <__stack_align+0x4>
   c:	004c                	addi	a1,sp,4
   e:	0000                	unimp
  10:	1004                	addi	s1,sp,32
  12:	7205                	lui	tp,0xfffe1
  14:	3676                	fld	fa2,376(sp)
  16:	6934                	ld	a3,80(a0)
  18:	7032                	.insn	2, 0x7032
  1a:	5f31                	li	t5,-20
  1c:	326d                	addiw	tp,tp,-5 # fffffffffffe0ffb <__heap_end+0xffffffff7ffbdffb>
  1e:	3070                	fld	fa2,224(s0)
  20:	615f 7032 5f31      	.insn	6, 0x5f317032615f
  26:	3266                	fld	ft4,120(sp)
  28:	3270                	fld	fa2,224(a2)
  2a:	645f 7032 5f32      	.insn	6, 0x5f327032645f
  30:	30703263          	.insn	4, 0x30703263
  34:	7a5f 6369 7273      	.insn	6, 0x727363697a5f
  3a:	7032                	.insn	2, 0x7032
  3c:	5f30                	lw	a2,120(a4)
  3e:	697a                	ld	s2,408(sp)
  40:	6566                	ld	a0,88(sp)
  42:	636e                	ld	t1,216(sp)
  44:	6965                	lui	s2,0x19
  46:	7032                	.insn	2, 0x7032
  48:	5f30                	lw	a2,120(a4)
  4a:	6d7a                	ld	s10,408(sp)
  4c:	756d                	lui	a0,0xffffb
  4e:	316c                	fld	fa1,224(a0)
  50:	3070                	fld	fa2,224(s0)
  52:	0800                	addi	s0,sp,16
  54:	0a01                	addi	s4,s4,0 # ffffffffffffa000 <__heap_end+0xffffffff7ffd7000>
  56:	Address 0x56 is out of bounds.


Disassembly of section .debug_frame:

0000000000000000 <.debug_frame>:
   0:	000c                	.insn	2, 0x000c
   2:	0000                	unimp
   4:	ffff                	.insn	2, 0xffff
   6:	ffff                	.insn	2, 0xffff
   8:	7c010003          	lb	zero,1984(sp)
   c:	0d01                	addi	s10,s10,0
   e:	0002                	c.slli64	zero
  10:	002c                	addi	a1,sp,8
  12:	0000                	unimp
  14:	0000                	unimp
  16:	0000                	unimp
  18:	023e                	slli	tp,tp,0xf
  1a:	8000                	.insn	2, 0x8000
  1c:	0000                	unimp
  1e:	0000                	unimp
  20:	003e                	c.slli	zero,0xf
  22:	0000                	unimp
  24:	0000                	unimp
  26:	0000                	unimp
  28:	0e42                	slli	t3,t3,0x10
  2a:	4230                	lw	a2,64(a2)
  2c:	0288                	addi	a0,sp,320
  2e:	0c42                	slli	s8,s8,0x10
  30:	0008                	.insn	2, 0x0008
  32:	c874                	sw	a3,84(s0)
  34:	020c                	addi	a1,sp,256
  36:	4230                	lw	a2,64(a2)
  38:	000e                	c.slli	zero,0x3
  3a:	0000                	unimp
  3c:	0000                	unimp
  3e:	0000                	unimp
  40:	002c                	addi	a1,sp,8
  42:	0000                	unimp
  44:	0000                	unimp
  46:	0000                	unimp
  48:	027c                	addi	a5,sp,268
  4a:	8000                	.insn	2, 0x8000
  4c:	0000                	unimp
  4e:	0000                	unimp
  50:	0044                	addi	s1,sp,4
  52:	0000                	unimp
  54:	0000                	unimp
  56:	0000                	unimp
  58:	0e42                	slli	t3,t3,0x10
  5a:	4430                	lw	a2,72(s0)
  5c:	0281                	addi	t0,t0,0 # 1194e62 <__heap_size+0x1174e62>
  5e:	0488                	addi	a0,sp,576
  60:	0c42                	slli	s8,s8,0x10
  62:	0008                	.insn	2, 0x0008
  64:	c176                	sw	t4,128(sp)
  66:	c842                	sw	a6,16(sp)
  68:	020c                	addi	a1,sp,256
  6a:	4230                	lw	a2,64(a2)
  6c:	000e                	c.slli	zero,0x3
  6e:	0000                	unimp
  70:	002c                	addi	a1,sp,8
  72:	0000                	unimp
  74:	0000                	unimp
  76:	0000                	unimp
  78:	02c0                	addi	s0,sp,324
  7a:	8000                	.insn	2, 0x8000
  7c:	0000                	unimp
  7e:	0000                	unimp
  80:	002a                	c.slli	zero,0xa
  82:	0000                	unimp
  84:	0000                	unimp
  86:	0000                	unimp
  88:	0e42                	slli	t3,t3,0x10
  8a:	4420                	lw	s0,72(s0)
  8c:	0281                	addi	t0,t0,0
  8e:	0488                	addi	a0,sp,576
  90:	0c42                	slli	s8,s8,0x10
  92:	0008                	.insn	2, 0x0008
  94:	c15c                	sw	a5,4(a0)
  96:	c842                	sw	a6,16(sp)
  98:	020c                	addi	a1,sp,256
  9a:	4220                	lw	s0,64(a2)
  9c:	000e                	c.slli	zero,0x3
  9e:	0000                	unimp
  a0:	0034                	addi	a3,sp,8
  a2:	0000                	unimp
  a4:	0000                	unimp
  a6:	0000                	unimp
  a8:	02ea                	slli	t0,t0,0x1a
  aa:	8000                	.insn	2, 0x8000
  ac:	0000                	unimp
  ae:	0000                	unimp
  b0:	032c                	addi	a1,sp,392
  b2:	0000                	unimp
  b4:	0000                	unimp
  b6:	0000                	unimp
  b8:	0e42                	slli	t3,t3,0x10
  ba:	01d0                	addi	a2,sp,196
  bc:	8144                	.insn	2, 0x8144
  be:	8812                	mv	a6,tp
  c0:	4214                	lw	a3,0(a2)
  c2:	080c                	addi	a1,sp,16
  c4:	0340                	addi	s0,sp,388
  c6:	031e                	slli	t1,t1,0x7
  c8:	42c1                	li	t0,16
  ca:	0cc8                	addi	a0,sp,596
  cc:	d002                	sw	zero,32(sp)
  ce:	4201                	li	tp,0
  d0:	000e                	c.slli	zero,0x3
  d2:	0000                	unimp
  d4:	0000                	unimp
  d6:	0000                	unimp
  d8:	000c                	.insn	2, 0x000c
  da:	0000                	unimp
  dc:	ffff                	.insn	2, 0xffff
  de:	ffff                	.insn	2, 0xffff
  e0:	7c010003          	lb	zero,1984(sp)
  e4:	0d01                	addi	s10,s10,0
  e6:	0002                	c.slli64	zero
  e8:	002c                	addi	a1,sp,8
  ea:	0000                	unimp
  ec:	00d8                	addi	a4,sp,68
  ee:	0000                	unimp
  f0:	0616                	slli	a2,a2,0x5
  f2:	8000                	.insn	2, 0x8000
  f4:	0000                	unimp
  f6:	0000                	unimp
  f8:	010e                	slli	sp,sp,0x3
  fa:	0000                	unimp
  fc:	0000                	unimp
  fe:	0000                	unimp
 100:	0e42                	slli	t3,t3,0x10
 102:	4250                	lw	a2,4(a2)
 104:	0288                	addi	a0,sp,320
 106:	0c42                	slli	s8,s8,0x10
 108:	0008                	.insn	2, 0x0008
 10a:	c8010403          	lb	s0,-896(sp)
 10e:	020c                	addi	a1,sp,256
 110:	4250                	lw	a2,4(a2)
 112:	000e                	c.slli	zero,0x3
 114:	0000                	unimp
 116:	0000                	unimp
 118:	002c                	addi	a1,sp,8
 11a:	0000                	unimp
 11c:	00d8                	addi	a4,sp,68
 11e:	0000                	unimp
 120:	0724                	addi	s1,sp,904
 122:	8000                	.insn	2, 0x8000
 124:	0000                	unimp
 126:	0000                	unimp
 128:	007a                	c.slli	zero,0x1e
 12a:	0000                	unimp
 12c:	0000                	unimp
 12e:	0000                	unimp
 130:	0e42                	slli	t3,t3,0x10
 132:	4220                	lw	s0,64(a2)
 134:	0288                	addi	a0,sp,320
 136:	0c42                	slli	s8,s8,0x10
 138:	0008                	.insn	2, 0x0008
 13a:	7002                	.insn	2, 0x7002
 13c:	0cc8                	addi	a0,sp,596
 13e:	2002                	fld	ft0,0(sp)
 140:	0e42                	slli	t3,t3,0x10
 142:	0000                	unimp
 144:	0000                	unimp
 146:	0000                	unimp
 148:	002c                	addi	a1,sp,8
 14a:	0000                	unimp
 14c:	00d8                	addi	a4,sp,68
 14e:	0000                	unimp
 150:	079e                	slli	a5,a5,0x7
 152:	8000                	.insn	2, 0x8000
 154:	0000                	unimp
 156:	0000                	unimp
 158:	0142                	slli	sp,sp,0x10
 15a:	0000                	unimp
 15c:	0000                	unimp
 15e:	0000                	unimp
 160:	0e42                	slli	t3,t3,0x10
 162:	4260                	lw	s0,68(a2)
 164:	0288                	addi	a0,sp,320
 166:	0c42                	slli	s8,s8,0x10
 168:	0008                	.insn	2, 0x0008
 16a:	c8013803          	ld	a6,-896(sp)
 16e:	020c                	addi	a1,sp,256
 170:	4260                	lw	s0,68(a2)
 172:	000e                	c.slli	zero,0x3
 174:	0000                	unimp
 176:	0000                	unimp
 178:	002c                	addi	a1,sp,8
 17a:	0000                	unimp
 17c:	00d8                	addi	a4,sp,68
 17e:	0000                	unimp
 180:	08e0                	addi	s0,sp,92
 182:	8000                	.insn	2, 0x8000
 184:	0000                	unimp
 186:	0000                	unimp
 188:	0064                	addi	s1,sp,12
 18a:	0000                	unimp
 18c:	0000                	unimp
 18e:	0000                	unimp
 190:	0e42                	slli	t3,t3,0x10
 192:	4420                	lw	s0,72(s0)
 194:	0281                	addi	t0,t0,0
 196:	0488                	addi	a0,sp,576
 198:	0c42                	slli	s8,s8,0x10
 19a:	0008                	.insn	2, 0x0008
 19c:	5602                	lw	a2,32(sp)
 19e:	42c1                	li	t0,16
 1a0:	0cc8                	addi	a0,sp,596
 1a2:	2002                	fld	ft0,0(sp)
 1a4:	0e42                	slli	t3,t3,0x10
 1a6:	0000                	unimp
 1a8:	0024                	addi	s1,sp,8
 1aa:	0000                	unimp
 1ac:	00d8                	addi	a4,sp,68
 1ae:	0000                	unimp
 1b0:	0944                	addi	s1,sp,148
 1b2:	8000                	.insn	2, 0x8000
 1b4:	0000                	unimp
 1b6:	0000                	unimp
 1b8:	005c                	addi	a5,sp,4
 1ba:	0000                	unimp
 1bc:	0000                	unimp
 1be:	0000                	unimp
 1c0:	0e42                	slli	t3,t3,0x10
 1c2:	4230                	lw	a2,64(a2)
 1c4:	0288                	addi	a0,sp,320
 1c6:	0c42                	slli	s8,s8,0x10
 1c8:	0008                	.insn	2, 0x0008
 1ca:	0000                	unimp
 1cc:	0000                	unimp
 1ce:	0000                	unimp
 1d0:	002c                	addi	a1,sp,8
 1d2:	0000                	unimp
 1d4:	00d8                	addi	a4,sp,68
 1d6:	0000                	unimp
 1d8:	09a0                	addi	s0,sp,216
 1da:	8000                	.insn	2, 0x8000
 1dc:	0000                	unimp
 1de:	0000                	unimp
 1e0:	012c                	addi	a1,sp,136
 1e2:	0000                	unimp
 1e4:	0000                	unimp
 1e6:	0000                	unimp
 1e8:	0e42                	slli	t3,t3,0x10
 1ea:	4440                	lw	s0,12(s0)
 1ec:	0281                	addi	t0,t0,0
 1ee:	0488                	addi	a0,sp,576
 1f0:	0c42                	slli	s8,s8,0x10
 1f2:	0008                	.insn	2, 0x0008
 1f4:	c1011e03          	lh	t3,-1008(sp)
 1f8:	c842                	sw	a6,16(sp)
 1fa:	020c                	addi	a1,sp,256
 1fc:	4240                	lw	s0,4(a2)
 1fe:	000e                	c.slli	zero,0x3
 200:	000c                	.insn	2, 0x000c
 202:	0000                	unimp
 204:	ffff                	.insn	2, 0xffff
 206:	ffff                	.insn	2, 0xffff
 208:	7c010003          	lb	zero,1984(sp)
 20c:	0d01                	addi	s10,s10,0
 20e:	0002                	c.slli64	zero
 210:	002c                	addi	a1,sp,8
 212:	0000                	unimp
 214:	0200                	addi	s0,sp,256
 216:	0000                	unimp
 218:	0acc                	addi	a1,sp,340
 21a:	8000                	.insn	2, 0x8000
 21c:	0000                	unimp
 21e:	0000                	unimp
 220:	00c2                	slli	ra,ra,0x10
 222:	0000                	unimp
 224:	0000                	unimp
 226:	0000                	unimp
 228:	0e42                	slli	t3,t3,0x10
 22a:	4450                	lw	a2,12(s0)
 22c:	0281                	addi	t0,t0,0
 22e:	0488                	addi	a0,sp,576
 230:	0c42                	slli	s8,s8,0x10
 232:	0008                	.insn	2, 0x0008
 234:	b402                	fsd	ft0,40(sp)
 236:	42c1                	li	t0,16
 238:	0cc8                	addi	a0,sp,596
 23a:	5002                	.insn	2, 0x5002
 23c:	0e42                	slli	t3,t3,0x10
 23e:	0000                	unimp
 240:	000c                	.insn	2, 0x000c
 242:	0000                	unimp
 244:	ffff                	.insn	2, 0xffff
 246:	ffff                	.insn	2, 0xffff
 248:	0001                	nop
 24a:	7c01                	lui	s8,0xfffe0
 24c:	0d01                	addi	s10,s10,0
 24e:	0002                	c.slli64	zero
 250:	0014                	.insn	2, 0x0014
 252:	0000                	unimp
 254:	0240                	addi	s0,sp,260
 256:	0000                	unimp
 258:	0b8e                	slli	s7,s7,0x3
 25a:	8000                	.insn	2, 0x8000
 25c:	0000                	unimp
 25e:	0000                	unimp
 260:	0020                	addi	s0,sp,8
 262:	0000                	unimp
 264:	0000                	unimp
 266:	0000                	unimp
 268:	000c                	.insn	2, 0x000c
 26a:	0000                	unimp
 26c:	ffff                	.insn	2, 0xffff
 26e:	ffff                	.insn	2, 0xffff
 270:	0001                	nop
 272:	7c01                	lui	s8,0xfffe0
 274:	0d01                	addi	s10,s10,0
 276:	0002                	c.slli64	zero
 278:	0024                	addi	s1,sp,8
 27a:	0000                	unimp
 27c:	0268                	addi	a0,sp,268
 27e:	0000                	unimp
 280:	0bae                	slli	s7,s7,0xb
 282:	8000                	.insn	2, 0x8000
 284:	0000                	unimp
 286:	0000                	unimp
 288:	002e                	c.slli	zero,0xb
 28a:	0000                	unimp
 28c:	0000                	unimp
 28e:	0000                	unimp
 290:	0e42                	slli	t3,t3,0x10
 292:	5210                	lw	a2,32(a2)
 294:	0488                	addi	a0,sp,576
 296:	0281                	addi	t0,t0,0
 298:	c84e                	sw	s3,16(sp)
 29a:	c142                	sw	a6,128(sp)
 29c:	0e48                	addi	a0,sp,788
 29e:	0000                	unimp
 2a0:	000c                	.insn	2, 0x000c
 2a2:	0000                	unimp
 2a4:	ffff                	.insn	2, 0xffff
 2a6:	ffff                	.insn	2, 0xffff
 2a8:	0001                	nop
 2aa:	7c01                	lui	s8,0xfffe0
 2ac:	0d01                	addi	s10,s10,0
 2ae:	0002                	c.slli64	zero
 2b0:	001c                	.insn	2, 0x001c
 2b2:	0000                	unimp
 2b4:	02a0                	addi	s0,sp,328
 2b6:	0000                	unimp
 2b8:	0bdc                	addi	a5,sp,468
 2ba:	8000                	.insn	2, 0x8000
 2bc:	0000                	unimp
 2be:	0000                	unimp
 2c0:	0052                	c.slli	zero,0x14
 2c2:	0000                	unimp
 2c4:	0000                	unimp
 2c6:	0000                	unimp
 2c8:	0e42                	slli	t3,t3,0x10
 2ca:	0240                	addi	s0,sp,260
 2cc:	0e4e                	slli	t3,t3,0x13
 2ce:	0000                	unimp
 2d0:	000c                	.insn	2, 0x000c
 2d2:	0000                	unimp
 2d4:	ffff                	.insn	2, 0xffff
 2d6:	ffff                	.insn	2, 0xffff
 2d8:	0001                	nop
 2da:	7c01                	lui	s8,0xfffe0
 2dc:	0d01                	addi	s10,s10,0
 2de:	0002                	c.slli64	zero
 2e0:	0024                	addi	s1,sp,8
 2e2:	0000                	unimp
 2e4:	02d0                	addi	a2,sp,324
 2e6:	0000                	unimp
 2e8:	16ec                	addi	a1,sp,876
 2ea:	8000                	.insn	2, 0x8000
 2ec:	0000                	unimp
 2ee:	0000                	unimp
 2f0:	0014                	.insn	2, 0x0014
 2f2:	0000                	unimp
 2f4:	0000                	unimp
 2f6:	0000                	unimp
 2f8:	0e42                	slli	t3,t3,0x10
 2fa:	4210                	lw	a2,0(a2)
 2fc:	0281                	addi	t0,t0,0
 2fe:	c146                	sw	a7,128(sp)
 300:	0e48                	addi	a0,sp,788
 302:	0000                	unimp
 304:	0000                	unimp
 306:	0000                	unimp
 308:	000c                	.insn	2, 0x000c
 30a:	0000                	unimp
 30c:	ffff                	.insn	2, 0xffff
 30e:	ffff                	.insn	2, 0xffff
 310:	0001                	nop
 312:	7c01                	lui	s8,0xfffe0
 314:	0d01                	addi	s10,s10,0
 316:	0002                	c.slli64	zero
 318:	0024                	addi	s1,sp,8
 31a:	0000                	unimp
 31c:	0308                	addi	a0,sp,384
 31e:	0000                	unimp
 320:	1700                	addi	s0,sp,928
 322:	8000                	.insn	2, 0x8000
 324:	0000                	unimp
 326:	0000                	unimp
 328:	0014                	.insn	2, 0x0014
 32a:	0000                	unimp
 32c:	0000                	unimp
 32e:	0000                	unimp
 330:	0e42                	slli	t3,t3,0x10
 332:	4210                	lw	a2,0(a2)
 334:	0281                	addi	t0,t0,0
 336:	c146                	sw	a7,128(sp)
 338:	0e48                	addi	a0,sp,788
 33a:	0000                	unimp
 33c:	0000                	unimp
 33e:	0000                	unimp
 340:	000c                	.insn	2, 0x000c
 342:	0000                	unimp
 344:	ffff                	.insn	2, 0xffff
 346:	ffff                	.insn	2, 0xffff
 348:	0001                	nop
 34a:	7c01                	lui	s8,0xfffe0
 34c:	0d01                	addi	s10,s10,0
 34e:	0002                	c.slli64	zero
 350:	0024                	addi	s1,sp,8
 352:	0000                	unimp
 354:	0340                	addi	s0,sp,388
 356:	0000                	unimp
 358:	1714                	addi	a3,sp,928
 35a:	8000                	.insn	2, 0x8000
 35c:	0000                	unimp
 35e:	0000                	unimp
 360:	0016                	c.slli	zero,0x5
 362:	0000                	unimp
 364:	0000                	unimp
 366:	0000                	unimp
 368:	0e42                	slli	t3,t3,0x10
 36a:	4210                	lw	a2,0(a2)
 36c:	0281                	addi	t0,t0,0
 36e:	c146                	sw	a7,128(sp)
 370:	0e4a                	slli	t3,t3,0x12
 372:	0000                	unimp
 374:	0000                	unimp
 376:	0000                	unimp
 378:	000c                	.insn	2, 0x000c
 37a:	0000                	unimp
 37c:	ffff                	.insn	2, 0xffff
 37e:	ffff                	.insn	2, 0xffff
 380:	0001                	nop
 382:	7c01                	lui	s8,0xfffe0
 384:	0d01                	addi	s10,s10,0
 386:	0002                	c.slli64	zero
 388:	0024                	addi	s1,sp,8
 38a:	0000                	unimp
 38c:	0378                	addi	a4,sp,396
 38e:	0000                	unimp
 390:	172a                	slli	a4,a4,0x2a
 392:	8000                	.insn	2, 0x8000
 394:	0000                	unimp
 396:	0000                	unimp
 398:	003a                	c.slli	zero,0xe
 39a:	0000                	unimp
 39c:	0000                	unimp
 39e:	0000                	unimp
 3a0:	0e66                	slli	t3,t3,0x19
 3a2:	4210                	lw	a2,0(a2)
 3a4:	0281                	addi	t0,t0,0
 3a6:	c146                	sw	a7,128(sp)
 3a8:	0e4a                	slli	t3,t3,0x12
 3aa:	0000                	unimp
 3ac:	0000                	unimp
 3ae:	0000                	unimp
 3b0:	000c                	.insn	2, 0x000c
 3b2:	0000                	unimp
 3b4:	ffff                	.insn	2, 0xffff
 3b6:	ffff                	.insn	2, 0xffff
 3b8:	0001                	nop
 3ba:	7c01                	lui	s8,0xfffe0
 3bc:	0d01                	addi	s10,s10,0
 3be:	0002                	c.slli64	zero
 3c0:	0014                	.insn	2, 0x0014
 3c2:	0000                	unimp
 3c4:	03b0                	addi	a2,sp,456
 3c6:	0000                	unimp
 3c8:	1764                	addi	s1,sp,940
 3ca:	8000                	.insn	2, 0x8000
 3cc:	0000                	unimp
 3ce:	0000                	unimp
 3d0:	0008                	.insn	2, 0x0008
 3d2:	0000                	unimp
 3d4:	0000                	unimp
	...

Disassembly of section .debug_loc:

0000000000000000 <.debug_loc>:
	...
   8:	004e                	c.slli	zero,0x13
   a:	0000                	unimp
   c:	0000                	unimp
   e:	0000                	unimp
  10:	0001                	nop
  12:	4e5a                	lw	t3,148(sp)
  14:	0000                	unimp
  16:	0000                	unimp
  18:	0000                	unimp
  1a:	5200                	lw	s0,32(a2)
  1c:	0000                	unimp
  1e:	0000                	unimp
  20:	0000                	unimp
  22:	0400                	addi	s0,sp,512
  24:	f300                	sd	s0,32(a4)
  26:	5a01                	li	s4,-32
  28:	009f 0000 0000      	.insn	6, 0x009f
	...
  3e:	0000                	unimp
  40:	1000                	addi	s0,sp,32
  42:	0000                	unimp
  44:	0000                	unimp
  46:	0000                	unimp
  48:	0100                	addi	s0,sp,128
  4a:	5c00                	lw	s0,56(s0)
  4c:	0010                	.insn	2, 0x0010
  4e:	0000                	unimp
  50:	0000                	unimp
  52:	0000                	unimp
  54:	0038                	addi	a4,sp,8
  56:	0000                	unimp
  58:	0000                	unimp
  5a:	0000                	unimp
  5c:	0002                	c.slli64	zero
  5e:	5891                	li	a7,-28
  60:	0038                	addi	a4,sp,8
  62:	0000                	unimp
  64:	0000                	unimp
  66:	0000                	unimp
  68:	0052                	c.slli	zero,0x14
  6a:	0000                	unimp
  6c:	0000                	unimp
  6e:	0000                	unimp
  70:	0004                	.insn	2, 0x0004
  72:	9f5c01f3          	.insn	4, 0x9f5c01f3
	...
  8e:	0018                	.insn	2, 0x0018
  90:	0000                	unimp
  92:	0000                	unimp
  94:	0000                	unimp
  96:	0001                	nop
  98:	185d                	addi	a6,a6,-9 # 1aff7 <__stack_size+0x12ff7>
  9a:	0000                	unimp
  9c:	0000                	unimp
  9e:	0000                	unimp
  a0:	5200                	lw	s0,32(a2)
  a2:	0000                	unimp
  a4:	0000                	unimp
  a6:	0000                	unimp
  a8:	0400                	addi	s0,sp,512
  aa:	f300                	sd	s0,32(a4)
  ac:	5d01                	li	s10,-32
  ae:	009f 0000 0000      	.insn	6, 0x009f
	...
  bc:	0000                	unimp
  be:	1200                	addi	s0,sp,288
  c0:	0000                	unimp
  c2:	0000                	unimp
  c4:	0000                	unimp
  c6:	2400                	fld	fs0,8(s0)
  c8:	0000                	unimp
  ca:	0000                	unimp
  cc:	0000                	unimp
  ce:	0a00                	addi	s0,sp,272
  d0:	0300                	addi	s0,sp,384
  d2:	25b8                	fld	fa4,72(a1)
  d4:	8000                	.insn	2, 0x8000
  d6:	0000                	unimp
  d8:	0000                	unimp
  da:	009f 0000 0000      	.insn	6, 0x009f
	...
  e8:	0000                	unimp
  ea:	1e00                	addi	s0,sp,816
  ec:	0000                	unimp
  ee:	0000                	unimp
  f0:	0000                	unimp
  f2:	2200                	fld	fs0,0(a2)
  f4:	0000                	unimp
  f6:	0000                	unimp
  f8:	0000                	unimp
  fa:	0300                	addi	s0,sp,384
  fc:	0900                	addi	s0,sp,144
  fe:	00009fff 00000000 	.insn	12, 0x9fff
 106:	00000000 
 10a:	0000                	unimp
 10c:	0000                	unimp
 10e:	0000                	unimp
 110:	001e                	c.slli	zero,0x7
 112:	0000                	unimp
 114:	0000                	unimp
 116:	0000                	unimp
 118:	0022                	c.slli	zero,0x8
 11a:	0000                	unimp
 11c:	0000                	unimp
 11e:	0000                	unimp
 120:	000a                	c.slli	zero,0x2
 122:	0025b803          	ld	a6,2(a1)
 126:	0080                	addi	s0,sp,64
 128:	0000                	unimp
 12a:	9f00                	.insn	2, 0x9f00
	...
 13c:	0018                	.insn	2, 0x0018
 13e:	0000                	unimp
 140:	0000                	unimp
 142:	0000                	unimp
 144:	001c                	.insn	2, 0x001c
 146:	0000                	unimp
 148:	0000                	unimp
 14a:	0000                	unimp
 14c:	000a                	c.slli	zero,0x2
 14e:	0025b803          	ld	a6,2(a1)
 152:	0080                	addi	s0,sp,64
 154:	0000                	unimp
 156:	9f00                	.insn	2, 0x9f00
	...
 168:	0044                	addi	s1,sp,4
 16a:	0000                	unimp
 16c:	0000                	unimp
 16e:	0000                	unimp
 170:	0048                	addi	a0,sp,4
 172:	0000                	unimp
 174:	0000                	unimp
 176:	0000                	unimp
 178:	000a                	c.slli	zero,0x2
 17a:	0025b803          	ld	a6,2(a1)
 17e:	0080                	addi	s0,sp,64
 180:	0000                	unimp
 182:	9f00                	.insn	2, 0x9f00
	...
 19c:	00000007          	.insn	4, 0x0007
 1a0:	0000                	unimp
 1a2:	0000                	unimp
 1a4:	0001                	nop
 1a6:	075a                	slli	a4,a4,0x16
 1a8:	0000                	unimp
 1aa:	0000                	unimp
 1ac:	0000                	unimp
 1ae:	1400                	addi	s0,sp,544
 1b0:	0000                	unimp
 1b2:	0000                	unimp
 1b4:	0000                	unimp
 1b6:	0400                	addi	s0,sp,512
 1b8:	f300                	sd	s0,32(a4)
 1ba:	5a01                	li	s4,-32
 1bc:	009f 0000 0000      	.insn	6, 0x009f
	...
 1d2:	0000                	unimp
 1d4:	0700                	addi	s0,sp,896
 1d6:	0000                	unimp
 1d8:	0000                	unimp
 1da:	0000                	unimp
 1dc:	0100                	addi	s0,sp,128
 1de:	5a00                	lw	s0,48(a2)
 1e0:	00000007          	.insn	4, 0x0007
 1e4:	0000                	unimp
 1e6:	0000                	unimp
 1e8:	0014                	.insn	2, 0x0014
 1ea:	0000                	unimp
 1ec:	0000                	unimp
 1ee:	0000                	unimp
 1f0:	0004                	.insn	2, 0x0004
 1f2:	9f5a01f3          	.insn	4, 0x9f5a01f3
	...
 20e:	00000007          	.insn	4, 0x0007
 212:	0000                	unimp
 214:	0000                	unimp
 216:	0001                	nop
 218:	0000075b          	.insn	4, 0x075b
 21c:	0000                	unimp
 21e:	0000                	unimp
 220:	1400                	addi	s0,sp,544
 222:	0000                	unimp
 224:	0000                	unimp
 226:	0000                	unimp
 228:	0400                	addi	s0,sp,512
 22a:	f300                	sd	s0,32(a4)
 22c:	5b01                	li	s6,-32
 22e:	009f 0000 0000      	.insn	6, 0x009f
	...
 244:	0000                	unimp
 246:	0700                	addi	s0,sp,896
 248:	0000                	unimp
 24a:	0000                	unimp
 24c:	0000                	unimp
 24e:	0100                	addi	s0,sp,128
 250:	5c00                	lw	s0,56(s0)
 252:	00000007          	.insn	4, 0x0007
 256:	0000                	unimp
 258:	0000                	unimp
 25a:	0014                	.insn	2, 0x0014
 25c:	0000                	unimp
 25e:	0000                	unimp
 260:	0000                	unimp
 262:	0004                	.insn	2, 0x0004
 264:	9f5c01f3          	.insn	4, 0x9f5c01f3
	...
 280:	00000007          	.insn	4, 0x0007
 284:	0000                	unimp
 286:	0000                	unimp
 288:	0001                	nop
 28a:	075a                	slli	a4,a4,0x16
 28c:	0000                	unimp
 28e:	0000                	unimp
 290:	0000                	unimp
 292:	1600                	addi	s0,sp,800
 294:	0000                	unimp
 296:	0000                	unimp
 298:	0000                	unimp
 29a:	0400                	addi	s0,sp,512
 29c:	f300                	sd	s0,32(a4)
 29e:	5a01                	li	s4,-32
 2a0:	009f 0000 0000      	.insn	6, 0x009f
	...
 2b6:	0000                	unimp
 2b8:	0700                	addi	s0,sp,896
 2ba:	0000                	unimp
 2bc:	0000                	unimp
 2be:	0000                	unimp
 2c0:	0100                	addi	s0,sp,128
 2c2:	5b00                	lw	s0,48(a4)
 2c4:	00000007          	.insn	4, 0x0007
 2c8:	0000                	unimp
 2ca:	0000                	unimp
 2cc:	0016                	c.slli	zero,0x5
 2ce:	0000                	unimp
 2d0:	0000                	unimp
 2d2:	0000                	unimp
 2d4:	0004                	.insn	2, 0x0004
 2d6:	9f5b01f3          	.insn	4, 0x9f5b01f3
	...
 2f2:	00000007          	.insn	4, 0x0007
 2f6:	0000                	unimp
 2f8:	0000                	unimp
 2fa:	0001                	nop
 2fc:	075c                	addi	a5,sp,900
 2fe:	0000                	unimp
 300:	0000                	unimp
 302:	0000                	unimp
 304:	1600                	addi	s0,sp,800
 306:	0000                	unimp
 308:	0000                	unimp
 30a:	0000                	unimp
 30c:	0400                	addi	s0,sp,512
 30e:	f300                	sd	s0,32(a4)
 310:	5c01                	li	s8,-32
 312:	009f 0000 0000      	.insn	6, 0x009f
	...
 328:	0000                	unimp
 32a:	0c00                	addi	s0,sp,528
 32c:	0000                	unimp
 32e:	0000                	unimp
 330:	0000                	unimp
 332:	0100                	addi	s0,sp,128
 334:	5a00                	lw	s0,48(a2)
 336:	000c                	.insn	2, 0x000c
 338:	0000                	unimp
 33a:	0000                	unimp
 33c:	0000                	unimp
 33e:	003a                	c.slli	zero,0xe
 340:	0000                	unimp
 342:	0000                	unimp
 344:	0000                	unimp
 346:	0004                	.insn	2, 0x0004
 348:	9f5a01f3          	.insn	4, 0x9f5a01f3
	...
 35c:	000c                	.insn	2, 0x000c
 35e:	0000                	unimp
 360:	0000                	unimp
 362:	0000                	unimp
 364:	0022                	c.slli	zero,0x8
 366:	0000                	unimp
 368:	0000                	unimp
 36a:	0000                	unimp
 36c:	0001                	nop
 36e:	225a                	fld	ft4,400(sp)
 370:	0000                	unimp
 372:	0000                	unimp
 374:	0000                	unimp
 376:	2400                	fld	fs0,8(s0)
 378:	0000                	unimp
 37a:	0000                	unimp
 37c:	0000                	unimp
 37e:	0900                	addi	s0,sp,144
 380:	0300                	addi	s0,sp,384
 382:	2598                	fld	fa4,8(a1)
 384:	8000                	.insn	2, 0x8000
 386:	0000                	unimp
 388:	0000                	unimp
 38a:	0024                	addi	s1,sp,8
 38c:	0000                	unimp
 38e:	0000                	unimp
 390:	0000                	unimp
 392:	0000002b          	.insn	4, 0x002b
 396:	0000                	unimp
 398:	0000                	unimp
 39a:	0001                	nop
 39c:	005a                	c.slli	zero,0x16
	...
 3aa:	0000                	unimp
 3ac:	0600                	addi	s0,sp,768
 3ae:	0000                	unimp
 3b0:	0000                	unimp
 3b2:	0000                	unimp
 3b4:	2b00                	fld	fs0,16(a4)
 3b6:	0000                	unimp
 3b8:	0000                	unimp
 3ba:	0000                	unimp
 3bc:	0100                	addi	s0,sp,128
 3be:	5f00                	lw	s0,56(a4)
	...
 3d8:	00000007          	.insn	4, 0x0007
 3dc:	0000                	unimp
 3de:	0000                	unimp
 3e0:	0001                	nop
 3e2:	075a                	slli	a4,a4,0x16
 3e4:	0000                	unimp
 3e6:	0000                	unimp
 3e8:	0000                	unimp
 3ea:	0800                	addi	s0,sp,16
 3ec:	0000                	unimp
 3ee:	0000                	unimp
 3f0:	0000                	unimp
 3f2:	0400                	addi	s0,sp,512
 3f4:	f300                	sd	s0,32(a4)
 3f6:	5a01                	li	s4,-32
 3f8:	009f 0000 0000      	.insn	6, 0x009f
	...
 40e:	0000                	unimp
 410:	0700                	addi	s0,sp,896
 412:	0000                	unimp
 414:	0000                	unimp
 416:	0000                	unimp
 418:	0100                	addi	s0,sp,128
 41a:	5b00                	lw	s0,48(a4)
 41c:	00000007          	.insn	4, 0x0007
 420:	0000                	unimp
 422:	0000                	unimp
 424:	0008                	.insn	2, 0x0008
 426:	0000                	unimp
 428:	0000                	unimp
 42a:	0000                	unimp
 42c:	0004                	.insn	2, 0x0004
 42e:	9f5b01f3          	.insn	4, 0x9f5b01f3
	...
 44a:	00000007          	.insn	4, 0x0007
 44e:	0000                	unimp
 450:	0000                	unimp
 452:	0001                	nop
 454:	075c                	addi	a5,sp,900
 456:	0000                	unimp
 458:	0000                	unimp
 45a:	0000                	unimp
 45c:	0800                	addi	s0,sp,16
 45e:	0000                	unimp
 460:	0000                	unimp
 462:	0000                	unimp
 464:	0400                	addi	s0,sp,512
 466:	f300                	sd	s0,32(a4)
 468:	5c01                	li	s8,-32
 46a:	009f 0000 0000      	.insn	6, 0x009f
	...

Disassembly of section .debug_ranges:

0000000000000000 <.debug_ranges>:
   0:	0016                	c.slli	zero,0x5
   2:	0000                	unimp
   4:	0000                	unimp
   6:	0000                	unimp
   8:	0018                	.insn	2, 0x0018
   a:	0000                	unimp
   c:	0000                	unimp
   e:	0000                	unimp
  10:	001e                	c.slli	zero,0x7
  12:	0000                	unimp
  14:	0000                	unimp
  16:	0000                	unimp
  18:	0022                	c.slli	zero,0x8
	...
