
/home/thh/chipyard/demoriscv/software/MTHello/build/mt-hello.elf:     file format elf64-littleriscv


Disassembly of section .text:

0000000080000000 <_prog_start>:
    .equ  SCRATCH_TOP,        (PAYLOAD_DEST + SCRATCH_PAGE_SIZE)
    .section .text.init
    .option  norvc
    .globl   _prog_start
_prog_start:
    csrr    s0, mhartid
    80000000:	f1402473          	csrr	s0,mhartid
    beqz    s0, _setup
    80000004:	00040a63          	beqz	s0,80000018 <_setup>
    li      t0, 0x8
    80000008:	00800293          	li	t0,8
    csrw    mie, t0
    8000000c:	30429073          	csrw	mie,t0
    wfi                       // sleep if is not hart 0
    80000010:	10500073          	wfi
    j       _entry
    80000014:	0140006f          	j	80000028 <_entry>

0000000080000018 <_setup>:
_setup:                       // hart 0 setup only
    li      t0, 1
    80000018:	00100293          	li	t0,1
    li      t1, (UART_CTRL_ADDR + UART_REG_TXCTRL)
    8000001c:	64000337          	lui	t1,0x64000
    80000020:	0083031b          	addiw	t1,t1,8 # 64000008 <SCRATCH_PAGE_SIZE+0x63ffe008>
    sw      t0, 0(t1)
    80000024:	00532023          	sw	t0,0(t1)

0000000080000028 <_entry>:
_entry:
    csrw    mie, zero         // ensure no new interrupt wile harts set up their stacks and move to main()
    80000028:	30401073          	csrw	mie,zero
    csrr    a0, mhartid       // a0 is the first function argument of main()
    8000002c:	f1402573          	csrr	a0,mhartid
    addi    a1, a0, 1
    80000030:	00150593          	addi	a1,a0,1
    slli    a1, a1, STACK_SHIFT
    80000034:	00b59593          	slli	a1,a1,0xb
    li      t0, SCRATCH_TOP
    80000038:	000402b7          	lui	t0,0x40
    8000003c:	0012829b          	addiw	t0,t0,1 # 40001 <SCRATCH_PAGE_SIZE+0x3e001>
    80000040:	00d29293          	slli	t0,t0,0xd
    sub     sp, t0, a1
    80000044:	40b28133          	sub	sp,t0,a1
    addi    sp, sp, STACK_SIZE-16
    80000048:	7f010113          	addi	sp,sp,2032
    call    main
    8000004c:	06c000ef          	jal	800000b8 <main>

0000000080000050 <_loopback>:
_loopback:
    li      t0, 0x8
    80000050:	00800293          	li	t0,8
    csrw    mie, t0
    80000054:	30429073          	csrw	mie,t0
    wfi                       // all harts sleep when main() finish
    80000058:	10500073          	wfi
    j       _loopback
    8000005c:	ff5ff06f          	j	80000050 <_loopback>

0000000080000060 <delay>:
#define REG32(p, i)	((p)[(i) >> 2])
#define DELAY_TIME 1000000

static volatile uint32_t *msip = (uint32_t *)(CLINT_CTRL_ADDR);

void delay() {
    80000060:	1101                	addi	sp,sp,-32
    80000062:	ec22                	sd	s0,24(sp)
    80000064:	1000                	addi	s0,sp,32
	for (int i = 0; i < DELAY_TIME; i = i + 1);
    80000066:	fe042623          	sw	zero,-20(s0)
    8000006a:	a031                	j	80000076 <delay+0x16>
    8000006c:	fec42783          	lw	a5,-20(s0)
    80000070:	2785                	addiw	a5,a5,1
    80000072:	fef42623          	sw	a5,-20(s0)
    80000076:	fec42783          	lw	a5,-20(s0)
    8000007a:	0007871b          	sext.w	a4,a5
    8000007e:	000f47b7          	lui	a5,0xf4
    80000082:	23f78793          	addi	a5,a5,575 # f423f <SCRATCH_PAGE_SIZE+0xf223f>
    80000086:	fee7d3e3          	bge	a5,a4,8000006c <delay+0xc>
  for (int i = 0; i < DELAY_TIME; i = i + 1);
    8000008a:	fe042423          	sw	zero,-24(s0)
    8000008e:	a031                	j	8000009a <delay+0x3a>
    80000090:	fe842783          	lw	a5,-24(s0)
    80000094:	2785                	addiw	a5,a5,1
    80000096:	fef42423          	sw	a5,-24(s0)
    8000009a:	fe842783          	lw	a5,-24(s0)
    8000009e:	0007871b          	sext.w	a4,a5
    800000a2:	000f47b7          	lui	a5,0xf4
    800000a6:	23f78793          	addi	a5,a5,575 # f423f <SCRATCH_PAGE_SIZE+0xf223f>
    800000aa:	fee7d3e3          	bge	a5,a4,80000090 <delay+0x30>
}
    800000ae:	0001                	nop
    800000b0:	0001                	nop
    800000b2:	6462                	ld	s0,24(sp)
    800000b4:	6105                	addi	sp,sp,32
    800000b6:	8082                	ret

00000000800000b8 <main>:

int main(int hartid, char **arv) {
    800000b8:	1101                	addi	sp,sp,-32
    800000ba:	ec06                	sd	ra,24(sp)
    800000bc:	e822                	sd	s0,16(sp)
    800000be:	1000                	addi	s0,sp,32
    800000c0:	87aa                	mv	a5,a0
    800000c2:	feb43023          	sd	a1,-32(s0)
    800000c6:	fef42623          	sw	a5,-20(s0)

  if(hartid == 0) {
    800000ca:	fec42783          	lw	a5,-20(s0)
    800000ce:	2781                	sext.w	a5,a5
    800000d0:	ef95                	bnez	a5,8000010c <main+0x54>
    kprintf("Hello from core %c\r\n", hartid + 48);
    800000d2:	fec42783          	lw	a5,-20(s0)
    800000d6:	0307879b          	addiw	a5,a5,48
    800000da:	2781                	sext.w	a5,a5
    800000dc:	85be                	mv	a1,a5
    800000de:	00000517          	auipc	a0,0x0
    800000e2:	54a50513          	addi	a0,a0,1354 # 80000628 <msip+0x8>
    800000e6:	1ba000ef          	jal	800002a0 <kprintf>
    delay();
    800000ea:	f77ff0ef          	jal	80000060 <delay>
    REG32(msip, CLINT_MSIP0) = CLINT_MSIPCLR;
    800000ee:	00000797          	auipc	a5,0x0
    800000f2:	53278793          	addi	a5,a5,1330 # 80000620 <msip>
    800000f6:	639c                	ld	a5,0(a5)
    800000f8:	0007a023          	sw	zero,0(a5)
    REG32(msip, CLINT_MSIP1) = CLINT_MSIPEN;
    800000fc:	00000797          	auipc	a5,0x0
    80000100:	52478793          	addi	a5,a5,1316 # 80000620 <msip>
    80000104:	639c                	ld	a5,0(a5)
    80000106:	0791                	addi	a5,a5,4
    80000108:	4705                	li	a4,1
    8000010a:	c398                	sw	a4,0(a5)
  }
  if(hartid == 1) {
    8000010c:	fec42783          	lw	a5,-20(s0)
    80000110:	0007871b          	sext.w	a4,a5
    80000114:	4785                	li	a5,1
    80000116:	04f71063          	bne	a4,a5,80000156 <main+0x9e>
    kprintf("Hello from core %c\r\n", hartid + 48);
    8000011a:	fec42783          	lw	a5,-20(s0)
    8000011e:	0307879b          	addiw	a5,a5,48
    80000122:	2781                	sext.w	a5,a5
    80000124:	85be                	mv	a1,a5
    80000126:	00000517          	auipc	a0,0x0
    8000012a:	50250513          	addi	a0,a0,1282 # 80000628 <msip+0x8>
    8000012e:	172000ef          	jal	800002a0 <kprintf>
    delay();
    80000132:	f2fff0ef          	jal	80000060 <delay>
    REG32(msip, CLINT_MSIP1) = CLINT_MSIPCLR;
    80000136:	00000797          	auipc	a5,0x0
    8000013a:	4ea78793          	addi	a5,a5,1258 # 80000620 <msip>
    8000013e:	639c                	ld	a5,0(a5)
    80000140:	0791                	addi	a5,a5,4
    80000142:	0007a023          	sw	zero,0(a5)
    REG32(msip, CLINT_MSIP2) = CLINT_MSIPEN;
    80000146:	00000797          	auipc	a5,0x0
    8000014a:	4da78793          	addi	a5,a5,1242 # 80000620 <msip>
    8000014e:	639c                	ld	a5,0(a5)
    80000150:	07a1                	addi	a5,a5,8
    80000152:	4705                	li	a4,1
    80000154:	c398                	sw	a4,0(a5)
  }
  if(hartid == 2) {
    80000156:	fec42783          	lw	a5,-20(s0)
    8000015a:	0007871b          	sext.w	a4,a5
    8000015e:	4789                	li	a5,2
    80000160:	04f71063          	bne	a4,a5,800001a0 <main+0xe8>
    kprintf("Hello from core %c\r\n", hartid + 48);
    80000164:	fec42783          	lw	a5,-20(s0)
    80000168:	0307879b          	addiw	a5,a5,48
    8000016c:	2781                	sext.w	a5,a5
    8000016e:	85be                	mv	a1,a5
    80000170:	00000517          	auipc	a0,0x0
    80000174:	4b850513          	addi	a0,a0,1208 # 80000628 <msip+0x8>
    80000178:	128000ef          	jal	800002a0 <kprintf>
    delay();
    8000017c:	ee5ff0ef          	jal	80000060 <delay>
    REG32(msip, CLINT_MSIP2) = CLINT_MSIPCLR;
    80000180:	00000797          	auipc	a5,0x0
    80000184:	4a078793          	addi	a5,a5,1184 # 80000620 <msip>
    80000188:	639c                	ld	a5,0(a5)
    8000018a:	07a1                	addi	a5,a5,8
    8000018c:	0007a023          	sw	zero,0(a5)
    REG32(msip, CLINT_MSIP3) = CLINT_MSIPEN;
    80000190:	00000797          	auipc	a5,0x0
    80000194:	49078793          	addi	a5,a5,1168 # 80000620 <msip>
    80000198:	639c                	ld	a5,0(a5)
    8000019a:	07b1                	addi	a5,a5,12
    8000019c:	4705                	li	a4,1
    8000019e:	c398                	sw	a4,0(a5)
  }
  if(hartid == 3) {
    800001a0:	fec42783          	lw	a5,-20(s0)
    800001a4:	0007871b          	sext.w	a4,a5
    800001a8:	478d                	li	a5,3
    800001aa:	02f71f63          	bne	a4,a5,800001e8 <main+0x130>
    kprintf("Hello from core %c\r\n", hartid + 48);
    800001ae:	fec42783          	lw	a5,-20(s0)
    800001b2:	0307879b          	addiw	a5,a5,48
    800001b6:	2781                	sext.w	a5,a5
    800001b8:	85be                	mv	a1,a5
    800001ba:	00000517          	auipc	a0,0x0
    800001be:	46e50513          	addi	a0,a0,1134 # 80000628 <msip+0x8>
    800001c2:	0de000ef          	jal	800002a0 <kprintf>
    delay();
    800001c6:	e9bff0ef          	jal	80000060 <delay>
    REG32(msip, CLINT_MSIP3) = CLINT_MSIPCLR;
    800001ca:	00000797          	auipc	a5,0x0
    800001ce:	45678793          	addi	a5,a5,1110 # 80000620 <msip>
    800001d2:	639c                	ld	a5,0(a5)
    800001d4:	07b1                	addi	a5,a5,12
    800001d6:	0007a023          	sw	zero,0(a5)
    REG32(msip, CLINT_MSIP0) = CLINT_MSIPEN;
    800001da:	00000797          	auipc	a5,0x0
    800001de:	44678793          	addi	a5,a5,1094 # 80000620 <msip>
    800001e2:	639c                	ld	a5,0(a5)
    800001e4:	4705                	li	a4,1
    800001e6:	c398                	sw	a4,0(a5)
  }

  return 0;
    800001e8:	4781                	li	a5,0
}
    800001ea:	853e                	mv	a0,a5
    800001ec:	60e2                	ld	ra,24(sp)
    800001ee:	6442                	ld	s0,16(sp)
    800001f0:	6105                	addi	sp,sp,32
    800001f2:	8082                	ret

00000000800001f4 <kputc>:
	_kputs(s);
	kputc('\r');
	kputc('\n');
}

void kprintf(const char *fmt, ...)
    800001f4:	7179                	addi	sp,sp,-48
    800001f6:	f422                	sd	s0,40(sp)
    800001f8:	1800                	addi	s0,sp,48
    800001fa:	87aa                	mv	a5,a0
    800001fc:	fcf40fa3          	sb	a5,-33(s0)
{
    80000200:	640007b7          	lui	a5,0x64000
    80000204:	fef43423          	sd	a5,-24(s0)
    va_list vl;
    bool is_format, is_long, is_char;
    char c;

    80000208:	fe843703          	ld	a4,-24(s0)
    8000020c:	fdf44783          	lbu	a5,-33(s0)
    80000210:	86be                	mv	a3,a5
    80000212:	fe843783          	ld	a5,-24(s0)
    80000216:	40d727af          	amoor.w	a5,a3,(a4)
    8000021a:	fef42223          	sw	a5,-28(s0)
    va_start(vl, fmt);
    is_format = false;
    is_long = false;
    is_char = false;
    8000021e:	fe442783          	lw	a5,-28(s0)
    80000222:	2781                	sext.w	a5,a5
    80000224:	fe07c2e3          	bltz	a5,80000208 <kputc+0x14>

    while ((c = *fmt++) != '\0') {
        if (is_format) {
            switch (c) {
            case 'l':
    80000228:	0001                	nop
    8000022a:	0001                	nop
    8000022c:	7422                	ld	s0,40(sp)
    8000022e:	6145                	addi	sp,sp,48
    80000230:	8082                	ret

0000000080000232 <_kputs>:
{
    80000232:	7179                	addi	sp,sp,-48
    80000234:	f406                	sd	ra,40(sp)
    80000236:	f022                	sd	s0,32(sp)
    80000238:	1800                	addi	s0,sp,48
    8000023a:	fca43c23          	sd	a0,-40(s0)
	for (; (c = *s) != '\0'; s++)
    8000023e:	a819                	j	80000254 <_kputs+0x22>
		kputc(c);
    80000240:	fef44783          	lbu	a5,-17(s0)
    80000244:	853e                	mv	a0,a5
    80000246:	fafff0ef          	jal	800001f4 <kputc>
	for (; (c = *s) != '\0'; s++)
    8000024a:	fd843783          	ld	a5,-40(s0)
    8000024e:	0785                	addi	a5,a5,1 # 64000001 <SCRATCH_PAGE_SIZE+0x63ffe001>
    80000250:	fcf43c23          	sd	a5,-40(s0)
    80000254:	fd843783          	ld	a5,-40(s0)
    80000258:	0007c783          	lbu	a5,0(a5)
    8000025c:	fef407a3          	sb	a5,-17(s0)
    80000260:	fef44783          	lbu	a5,-17(s0)
    80000264:	0ff7f793          	zext.b	a5,a5
    80000268:	ffe1                	bnez	a5,80000240 <_kputs+0xe>
}
    8000026a:	0001                	nop
    8000026c:	0001                	nop
    8000026e:	70a2                	ld	ra,40(sp)
    80000270:	7402                	ld	s0,32(sp)
    80000272:	6145                	addi	sp,sp,48
    80000274:	8082                	ret

0000000080000276 <kputs>:
{
    80000276:	1101                	addi	sp,sp,-32
    80000278:	ec06                	sd	ra,24(sp)
    8000027a:	e822                	sd	s0,16(sp)
    8000027c:	1000                	addi	s0,sp,32
    8000027e:	fea43423          	sd	a0,-24(s0)
	_kputs(s);
    80000282:	fe843503          	ld	a0,-24(s0)
    80000286:	fadff0ef          	jal	80000232 <_kputs>
	kputc('\r');
    8000028a:	4535                	li	a0,13
    8000028c:	f69ff0ef          	jal	800001f4 <kputc>
	kputc('\n');
    80000290:	4529                	li	a0,10
    80000292:	f63ff0ef          	jal	800001f4 <kputc>
}
    80000296:	0001                	nop
    80000298:	60e2                	ld	ra,24(sp)
    8000029a:	6442                	ld	s0,16(sp)
    8000029c:	6105                	addi	sp,sp,32
    8000029e:	8082                	ret

00000000800002a0 <kprintf>:
{
    800002a0:	7155                	addi	sp,sp,-208
    800002a2:	e506                	sd	ra,136(sp)
    800002a4:	e122                	sd	s0,128(sp)
    800002a6:	0900                	addi	s0,sp,144
    800002a8:	f6a43c23          	sd	a0,-136(s0)
    800002ac:	e40c                	sd	a1,8(s0)
    800002ae:	e810                	sd	a2,16(s0)
    800002b0:	ec14                	sd	a3,24(s0)
    800002b2:	f018                	sd	a4,32(s0)
    800002b4:	f41c                	sd	a5,40(s0)
    800002b6:	03043823          	sd	a6,48(s0)
    800002ba:	03143c23          	sd	a7,56(s0)
    va_start(vl, fmt);
    800002be:	04040793          	addi	a5,s0,64
    800002c2:	f6f43823          	sd	a5,-144(s0)
    800002c6:	f7043783          	ld	a5,-144(s0)
    800002ca:	fc878793          	addi	a5,a5,-56
    800002ce:	faf43423          	sd	a5,-88(s0)
    is_format = false;
    800002d2:	fe0407a3          	sb	zero,-17(s0)
    is_long = false;
    800002d6:	fe040723          	sb	zero,-18(s0)
    is_char = false;
    800002da:	fe0406a3          	sb	zero,-19(s0)
    while ((c = *fmt++) != '\0') {
    800002de:	a4c9                	j	800005a0 <kprintf+0x300>
        if (is_format) {
    800002e0:	fef44783          	lbu	a5,-17(s0)
    800002e4:	0ff7f793          	zext.b	a5,a5
    800002e8:	28078b63          	beqz	a5,8000057e <kprintf+0x2de>
            switch (c) {
    800002ec:	fc744783          	lbu	a5,-57(s0)
    800002f0:	2781                	sext.w	a5,a5
    800002f2:	f9d7869b          	addiw	a3,a5,-99
    800002f6:	0006871b          	sext.w	a4,a3
    800002fa:	47d5                	li	a5,21
    800002fc:	26e7ea63          	bltu	a5,a4,80000570 <kprintf+0x2d0>
    80000300:	02069793          	slli	a5,a3,0x20
    80000304:	9381                	srli	a5,a5,0x20
    80000306:	00279713          	slli	a4,a5,0x2
    8000030a:	00000797          	auipc	a5,0x0
    8000030e:	33678793          	addi	a5,a5,822 # 80000640 <msip+0x20>
    80000312:	97ba                	add	a5,a5,a4
    80000314:	439c                	lw	a5,0(a5)
    80000316:	0007871b          	sext.w	a4,a5
    8000031a:	00000797          	auipc	a5,0x0
    8000031e:	32678793          	addi	a5,a5,806 # 80000640 <msip+0x20>
    80000322:	97ba                	add	a5,a5,a4
    80000324:	8782                	jr	a5
                /* 'l' indicates a "long" modifier (e.g. %ld) */
                is_long = true;
    80000326:	4785                	li	a5,1
    80000328:	fef40723          	sb	a5,-18(s0)
                continue;
    8000032c:	ac95                	j	800005a0 <kprintf+0x300>
            case 'h':
                /* 'h' indicates a "short" modifier (e.g. %hd) */
                is_char = true;  /* re-using is_char to represent short */
    8000032e:	4785                	li	a5,1
    80000330:	fef406a3          	sb	a5,-19(s0)
                continue;
    80000334:	a4b5                	j	800005a0 <kprintf+0x300>
            case 'x': {
                /* Print in hexadecimal. Existing code. */
                unsigned long n;
                long i;
                if (is_long) {
    80000336:	fee44783          	lbu	a5,-18(s0)
    8000033a:	0ff7f793          	zext.b	a5,a5
    8000033e:	cf99                	beqz	a5,8000035c <kprintf+0xbc>
                    n = va_arg(vl, unsigned long);
    80000340:	fa843783          	ld	a5,-88(s0)
    80000344:	00878713          	addi	a4,a5,8
    80000348:	fae43423          	sd	a4,-88(s0)
    8000034c:	639c                	ld	a5,0(a5)
    8000034e:	fef43023          	sd	a5,-32(s0)
                    i = (sizeof(unsigned long) << 3) - 4;
    80000352:	03c00793          	li	a5,60
    80000356:	fcf43c23          	sd	a5,-40(s0)
    8000035a:	a041                	j	800003da <kprintf+0x13a>
                } else {
                    n = va_arg(vl, unsigned int);
    8000035c:	fa843783          	ld	a5,-88(s0)
    80000360:	00878713          	addi	a4,a5,8
    80000364:	fae43423          	sd	a4,-88(s0)
    80000368:	439c                	lw	a5,0(a5)
    8000036a:	1782                	slli	a5,a5,0x20
    8000036c:	9381                	srli	a5,a5,0x20
    8000036e:	fef43023          	sd	a5,-32(s0)
                    i = is_char ? 4 : (sizeof(unsigned int) << 3) - 4;
    80000372:	fed44783          	lbu	a5,-19(s0)
    80000376:	0ff7f793          	zext.b	a5,a5
    8000037a:	c399                	beqz	a5,80000380 <kprintf+0xe0>
    8000037c:	4791                	li	a5,4
    8000037e:	a011                	j	80000382 <kprintf+0xe2>
    80000380:	47f1                	li	a5,28
    80000382:	fcf43c23          	sd	a5,-40(s0)
                }
                for (; i >= 0; i -= 4) {
    80000386:	a891                	j	800003da <kprintf+0x13a>
                    long d = (n >> i) & 0xF;
    80000388:	fd843783          	ld	a5,-40(s0)
    8000038c:	2781                	sext.w	a5,a5
    8000038e:	873e                	mv	a4,a5
    80000390:	fe043783          	ld	a5,-32(s0)
    80000394:	00e7d7b3          	srl	a5,a5,a4
    80000398:	8bbd                	andi	a5,a5,15
    8000039a:	faf43c23          	sd	a5,-72(s0)
                    kputc(d < 10 ? '0' + d : 'a' + d - 10);
    8000039e:	fb843703          	ld	a4,-72(s0)
    800003a2:	47a5                	li	a5,9
    800003a4:	00e7cb63          	blt	a5,a4,800003ba <kprintf+0x11a>
    800003a8:	fb843783          	ld	a5,-72(s0)
    800003ac:	0ff7f793          	zext.b	a5,a5
    800003b0:	0307879b          	addiw	a5,a5,48
    800003b4:	0ff7f793          	zext.b	a5,a5
    800003b8:	a809                	j	800003ca <kprintf+0x12a>
    800003ba:	fb843783          	ld	a5,-72(s0)
    800003be:	0ff7f793          	zext.b	a5,a5
    800003c2:	0577879b          	addiw	a5,a5,87
    800003c6:	0ff7f793          	zext.b	a5,a5
    800003ca:	853e                	mv	a0,a5
    800003cc:	e29ff0ef          	jal	800001f4 <kputc>
                for (; i >= 0; i -= 4) {
    800003d0:	fd843783          	ld	a5,-40(s0)
    800003d4:	17f1                	addi	a5,a5,-4
    800003d6:	fcf43c23          	sd	a5,-40(s0)
    800003da:	fd843783          	ld	a5,-40(s0)
    800003de:	fa07d5e3          	bgez	a5,80000388 <kprintf+0xe8>
                }
                break;
    800003e2:	a279                	j	80000570 <kprintf+0x2d0>
                 * If 'l' was present: treat as 'long'
                 * If 'h' was present: treat as 'short'
                 * otherwise treat as regular 'int'.
                 */
                long num;
                if (is_long) {
    800003e4:	fee44783          	lbu	a5,-18(s0)
    800003e8:	0ff7f793          	zext.b	a5,a5
    800003ec:	cb99                	beqz	a5,80000402 <kprintf+0x162>
                    num = va_arg(vl, long);
    800003ee:	fa843783          	ld	a5,-88(s0)
    800003f2:	00878713          	addi	a4,a5,8
    800003f6:	fae43423          	sd	a4,-88(s0)
    800003fa:	639c                	ld	a5,0(a5)
    800003fc:	fcf43823          	sd	a5,-48(s0)
    80000400:	a03d                	j	8000042e <kprintf+0x18e>
                } else {
                    /* Variadic arguments of type short/char
                     * are promoted to int, but we can cast later if needed. */
                    num = va_arg(vl, int);
    80000402:	fa843783          	ld	a5,-88(s0)
    80000406:	00878713          	addi	a4,a5,8
    8000040a:	fae43423          	sd	a4,-88(s0)
    8000040e:	439c                	lw	a5,0(a5)
    80000410:	fcf43823          	sd	a5,-48(s0)
                    if (is_char) {
    80000414:	fed44783          	lbu	a5,-19(s0)
    80000418:	0ff7f793          	zext.b	a5,a5
    8000041c:	cb89                	beqz	a5,8000042e <kprintf+0x18e>
                        /* For %hd, cast down to short (optional). */
                        num = (short)num;
    8000041e:	fd043783          	ld	a5,-48(s0)
    80000422:	0107979b          	slliw	a5,a5,0x10
    80000426:	4107d79b          	sraiw	a5,a5,0x10
    8000042a:	fcf43823          	sd	a5,-48(s0)
                    }
                }

                /* Handle negative sign if needed */
                if (num < 0) {
    8000042e:	fd043783          	ld	a5,-48(s0)
    80000432:	0007dc63          	bgez	a5,8000044a <kprintf+0x1aa>
                    kputc('-');
    80000436:	02d00513          	li	a0,45
    8000043a:	dbbff0ef          	jal	800001f4 <kputc>
                    num = -num;
    8000043e:	fd043783          	ld	a5,-48(s0)
    80000442:	40f007b3          	neg	a5,a5
    80000446:	fcf43823          	sd	a5,-48(s0)
                }

                /* Convert number to decimal string (in reverse) */
                char buffer[32];
                int pos = 0;
    8000044a:	fc042623          	sw	zero,-52(s0)
                do {
                    buffer[pos++] = '0' + (num % 10);
    8000044e:	fd043703          	ld	a4,-48(s0)
    80000452:	47a9                	li	a5,10
    80000454:	02f767b3          	rem	a5,a4,a5
    80000458:	0ff7f713          	zext.b	a4,a5
    8000045c:	fcc42783          	lw	a5,-52(s0)
    80000460:	0017869b          	addiw	a3,a5,1
    80000464:	fcd42623          	sw	a3,-52(s0)
    80000468:	0307071b          	addiw	a4,a4,48
    8000046c:	0ff77713          	zext.b	a4,a4
    80000470:	17c1                	addi	a5,a5,-16
    80000472:	97a2                	add	a5,a5,s0
    80000474:	f8e78c23          	sb	a4,-104(a5)
                    num /= 10;
    80000478:	fd043703          	ld	a4,-48(s0)
    8000047c:	47a9                	li	a5,10
    8000047e:	02f747b3          	div	a5,a4,a5
    80000482:	fcf43823          	sd	a5,-48(s0)
                } while (num > 0 && pos < (int)sizeof(buffer));
    80000486:	fd043783          	ld	a5,-48(s0)
    8000048a:	02f05863          	blez	a5,800004ba <kprintf+0x21a>
    8000048e:	fcc42783          	lw	a5,-52(s0)
    80000492:	0007871b          	sext.w	a4,a5
    80000496:	47fd                	li	a5,31
    80000498:	fae7dbe3          	bge	a5,a4,8000044e <kprintf+0x1ae>

                /* Write out the digits in correct order */
                while (pos > 0) {
    8000049c:	a839                	j	800004ba <kprintf+0x21a>
                    kputc(buffer[--pos]);
    8000049e:	fcc42783          	lw	a5,-52(s0)
    800004a2:	37fd                	addiw	a5,a5,-1
    800004a4:	fcf42623          	sw	a5,-52(s0)
    800004a8:	fcc42783          	lw	a5,-52(s0)
    800004ac:	17c1                	addi	a5,a5,-16
    800004ae:	97a2                	add	a5,a5,s0
    800004b0:	f987c783          	lbu	a5,-104(a5)
    800004b4:	853e                	mv	a0,a5
    800004b6:	d3fff0ef          	jal	800001f4 <kputc>
                while (pos > 0) {
    800004ba:	fcc42783          	lw	a5,-52(s0)
    800004be:	2781                	sext.w	a5,a5
    800004c0:	fcf04fe3          	bgtz	a5,8000049e <kprintf+0x1fe>
                }
                break;
    800004c4:	a075                	j	80000570 <kprintf+0x2d0>
            }
            case 's':
                _kputs(va_arg(vl, const char *));
    800004c6:	fa843783          	ld	a5,-88(s0)
    800004ca:	00878713          	addi	a4,a5,8
    800004ce:	fae43423          	sd	a4,-88(s0)
    800004d2:	639c                	ld	a5,0(a5)
    800004d4:	853e                	mv	a0,a5
    800004d6:	d5dff0ef          	jal	80000232 <_kputs>
                break;
    800004da:	a859                	j	80000570 <kprintf+0x2d0>
            case 'c':
                kputc(va_arg(vl, int));
    800004dc:	fa843783          	ld	a5,-88(s0)
    800004e0:	00878713          	addi	a4,a5,8
    800004e4:	fae43423          	sd	a4,-88(s0)
    800004e8:	439c                	lw	a5,0(a5)
    800004ea:	0ff7f793          	zext.b	a5,a5
    800004ee:	853e                	mv	a0,a5
    800004f0:	d05ff0ef          	jal	800001f4 <kputc>
                break;
    800004f4:	a8b5                	j	80000570 <kprintf+0x2d0>
            case 'w': /* Force 32-bit hex output */
                unsigned int n = va_arg(vl, unsigned int);
    800004f6:	fa843783          	ld	a5,-88(s0)
    800004fa:	00878713          	addi	a4,a5,8
    800004fe:	fae43423          	sd	a4,-88(s0)
    80000502:	439c                	lw	a5,0(a5)
    80000504:	faf42a23          	sw	a5,-76(s0)
                /* We want exactly 32 bits (8 hex digits). Start at bit 28 (the top nibble). */
                for (int i = 28; i >= 0; i -= 4) {
    80000508:	47f1                	li	a5,28
    8000050a:	fcf42423          	sw	a5,-56(s0)
    8000050e:	a899                	j	80000564 <kprintf+0x2c4>
                    unsigned int d = (n >> i) & 0xF;
    80000510:	fc842783          	lw	a5,-56(s0)
    80000514:	fb442703          	lw	a4,-76(s0)
    80000518:	00f757bb          	srlw	a5,a4,a5
    8000051c:	2781                	sext.w	a5,a5
    8000051e:	8bbd                	andi	a5,a5,15
    80000520:	faf42823          	sw	a5,-80(s0)
                    kputc(d < 10 ? '0' + d : 'a' + d - 10);
    80000524:	fb042783          	lw	a5,-80(s0)
    80000528:	0007871b          	sext.w	a4,a5
    8000052c:	47a5                	li	a5,9
    8000052e:	00e7eb63          	bltu	a5,a4,80000544 <kprintf+0x2a4>
    80000532:	fb042783          	lw	a5,-80(s0)
    80000536:	0ff7f793          	zext.b	a5,a5
    8000053a:	0307879b          	addiw	a5,a5,48
    8000053e:	0ff7f793          	zext.b	a5,a5
    80000542:	a809                	j	80000554 <kprintf+0x2b4>
    80000544:	fb042783          	lw	a5,-80(s0)
    80000548:	0ff7f793          	zext.b	a5,a5
    8000054c:	0577879b          	addiw	a5,a5,87
    80000550:	0ff7f793          	zext.b	a5,a5
    80000554:	853e                	mv	a0,a5
    80000556:	c9fff0ef          	jal	800001f4 <kputc>
                for (int i = 28; i >= 0; i -= 4) {
    8000055a:	fc842783          	lw	a5,-56(s0)
    8000055e:	37f1                	addiw	a5,a5,-4
    80000560:	fcf42423          	sw	a5,-56(s0)
    80000564:	fc842783          	lw	a5,-56(s0)
    80000568:	2781                	sext.w	a5,a5
    8000056a:	fa07d3e3          	bgez	a5,80000510 <kprintf+0x270>
                }
                break;
    8000056e:	0001                	nop
            }

            /* Reset state after handling a format specifier */
            is_format = false;
    80000570:	fe0407a3          	sb	zero,-17(s0)
            is_long   = false;
    80000574:	fe040723          	sb	zero,-18(s0)
            is_char   = false;
    80000578:	fe0406a3          	sb	zero,-19(s0)
    8000057c:	a015                	j	800005a0 <kprintf+0x300>
        } else if (c == '%') {
    8000057e:	fc744783          	lbu	a5,-57(s0)
    80000582:	0ff7f713          	zext.b	a4,a5
    80000586:	02500793          	li	a5,37
    8000058a:	00f71663          	bne	a4,a5,80000596 <kprintf+0x2f6>
            /* Next character(s) will define a format specifier */
            is_format = true;
    8000058e:	4785                	li	a5,1
    80000590:	fef407a3          	sb	a5,-17(s0)
    80000594:	a031                	j	800005a0 <kprintf+0x300>
        } else {
            /* Normal character output */
            kputc(c);
    80000596:	fc744783          	lbu	a5,-57(s0)
    8000059a:	853e                	mv	a0,a5
    8000059c:	c59ff0ef          	jal	800001f4 <kputc>
    while ((c = *fmt++) != '\0') {
    800005a0:	f7843783          	ld	a5,-136(s0)
    800005a4:	00178713          	addi	a4,a5,1
    800005a8:	f6e43c23          	sd	a4,-136(s0)
    800005ac:	0007c783          	lbu	a5,0(a5)
    800005b0:	fcf403a3          	sb	a5,-57(s0)
    800005b4:	fc744783          	lbu	a5,-57(s0)
    800005b8:	0ff7f793          	zext.b	a5,a5
    800005bc:	d20792e3          	bnez	a5,800002e0 <kprintf+0x40>
        }
    }

    va_end(vl);
}
    800005c0:	0001                	nop
    800005c2:	0001                	nop
    800005c4:	60aa                	ld	ra,136(sp)
    800005c6:	640a                	ld	s0,128(sp)
    800005c8:	6169                	addi	sp,sp,208
    800005ca:	8082                	ret
	...

Disassembly of section .srodata:

0000000080000610 <uart>:

  #define _CONCAT3(A, B, C) A ## B ## C
  #define _UART_CTRL_ADDR(UART_NUM) _CONCAT3(UART, UART_NUM, _CTRL_ADDR)
  #define UART_CTRL_ADDR _UART_CTRL_ADDR(UART_NUM)
#endif
static volatile uint32_t * const uart = (void *)(UART_CTRL_ADDR);
    80000610:	0000                	unimp
    80000612:	6400                	ld	s0,8(s0)
    80000614:	0000                	unimp
	...

0000000080000618 <uart>:
    80000618:	0000                	unimp
    8000061a:	6400                	ld	s0,8(s0)
    8000061c:	0000                	unimp
	...
